--- !tapi-tbd
tbd-version:     4
targets:         [ x86_64-macos, arm64-macos, arm64e-macos ]
uuids:
  - target:          x86_64-macos
    value:           BC0B38FB-F3BE-371C-9B8E-3E4386DF9B2D
  - target:          arm64-macos
    value:           00000000-0000-0000-0000-000000000000
  - target:          arm64e-macos
    value:           4AC9E5EA-4CA7-3710-A5D4-BF7F59463842
install-name:    '/System/Library/PrivateFrameworks/ProVideo.framework/Versions/A/ProVideo'
current-version: 548.3.42
exports:
  - targets:         [ x86_64-macos ]
    symbols:         [ __Z16PAEGenerateNoiseii9NoiseTypedadaiRK14PCMatrix44TmplIdE, 
                       __Z21OZFxPlug_GetInputNodeR5HGRefI6HGNodeEP7LiAgentR6PCRectIiERK7FigTimeaaR14OZRenderParamsmaP13LiImageSourceP14FFMotionEffectP11OZSceneNodeP12CGColorSpaceP18OZFxPlugSharedBase, 
                       __Z23OZFxPlug_CallFrameSetupPvP11objc_object12FxRenderInfoP11FxImageInfoPaS5_, 
                       __Z23OZXTranscriptionHitTestPv7CGPointRK6CMTimePa, __Z23desiredRGBToYCbCrMatrixPU26objcproto15PROAPIAccessing11objc_objectPDv4_f6FxTime, 
                       __Z23desiredYCbCrToRGBMatrixPU26objcproto15PROAPIAccessing11objc_objectPDv4_f6FxTime, 
                       __Z24OZXIsUsingSubstituteFontPvPa, __Z29OZXGetFrameAsCGImageWithInputPv7FigTimeR5HGRefI6HGNodeE6PCRectIdE14PCMatrix44TmplIdE16OZXRenderQuality21OZXFieldRenderingModefffaRKS8_14OZXRenderDepthP11FFSVContextP10HGRendererPP7CGImage, 
                       __Z31OZFxPlug_GetBoundsFromSceneNodeP11OZSceneNodeRK14OZRenderParamsaP14FFMotionEffecta, 
                       __Z33OZXGetFrameAsHeliumNodeWithInputsPv7FigTimeNSt3__13mapIj5HGRefI6HGNodeENS1_4lessIjEENS1_9allocatorINS1_4pairIKjS5_EEEEEENS2_IjjS7_NS8_INS9_ISA_jEEEEEENS2_Ij6PCRectIdES7_NS8_INS9_ISA_SI_EEEEEENS2_Ij14PCMatrix44TmplIdES7_NS8_INS9_ISA_SN_EEEEEE16OZXRenderQuality21OZXFieldRenderingModefffaRKSN_14OZXRenderDepthP11FFSVContextP10HGRendererRS5_, 
                       __Z34OZFxPlug_TextureAndBitmapRetrieverPP7FxImageP11OZSceneNode7FigTimemaaP14OZRenderParamsP7LiAgentPNSt3__16vectorINS9_10shared_ptrI7PCImageEENS9_9allocatorISD_EEEEP12CGColorSpacemP13LiImageSourceP14FFMotionEffectP18OZFxPlugSharedBase, 
                       __Z38OZXEquirectProjectFilterSetFrontFacingPvP11OZXFxFiltera, 
                       __Z39OZXTranscriptionSetShouldDisableFadeOutPva, __ZN10OZFxFilter27getOptimalRenderingBehaviorEP7LiAgentPaS2_7FigTime, 
                       __ZN12PSHeliumNode8drawLineEP6HGTileR9PCVector2IdES4_Dv4_f, 
                       __ZN12PSHeliumNode9drawPointEP6HGTileR9PCVector2IdEdDv4_f, 
                       __ZN15PVRenderManager18SetInteractiveModeEa, __ZN28PVAVFInstructionGraphContextC1EP25PVVideoCompositingContextP31AVVideoCompositionRenderContexta, 
                       __ZN28PVAVFInstructionGraphContextC2EP25PVVideoCompositingContextP31AVVideoCompositionRenderContexta, 
                       __ZN33PVRendererInstructionGraphContextC1EP25PVVideoCompositingContext6CGSizea6CMTime, 
                       __ZN33PVRendererInstructionGraphContextC2EP25PVVideoCompositingContext6CGSizea6CMTime, 
                       __ZN6HFixDV19setRGBToYCbCrMatrixEPKDv4_f, __ZN6HFixDV19setYCbCrToRGBMatrixEPKDv4_f, 
                       __ZN8LiString7vformatEPKcP13__va_list_tag, __ZN8PCString8vsprintfEPKcP13__va_list_tag ]
    weak-symbols:    [ __ZTI10CompShader, __ZTI10CopyShader, __ZTI10HCopyAlpha, __ZTI10HLumaKeyer, 
                       __ZTI10OZCurveInt, __ZTI10PCBitmap_tI11PCGrayPixelIN7ProCore7Private17PixelInfoTemplateILN13PCPixelFormat12ChannelOrderE11EEEEE, 
                       __ZTI10PCBitmap_tI11PCGrayPixelIN7ProCore7Private17PixelInfoTemplateILN13PCPixelFormat12ChannelOrderE14EEEEE, 
                       __ZTI10PCBitmap_tI11PCGrayPixelIN7ProCore7Private17PixelInfoTemplateILN13PCPixelFormat12ChannelOrderE1EEEEE, 
                       __ZTI10PCBitmap_tI11PCGrayPixelIN7ProCore7Private17PixelInfoTemplateILN13PCPixelFormat12ChannelOrderE7EEEEE, 
                       __ZTI10PCBitmap_tI16PCGrayAlphaPixelIN7ProCore7Private17PixelInfoTemplateILN13PCPixelFormat12ChannelOrderE12EEEEE, 
                       __ZTI10PCBitmap_tI16PCGrayAlphaPixelIN7ProCore7Private17PixelInfoTemplateILN13PCPixelFormat12ChannelOrderE15EEEEE, 
                       __ZTI10PCBitmap_tI16PCGrayAlphaPixelIN7ProCore7Private17PixelInfoTemplateILN13PCPixelFormat12ChannelOrderE2EEEEE, 
                       __ZTI10PCBitmap_tI16PCGrayAlphaPixelIN7ProCore7Private17PixelInfoTemplateILN13PCPixelFormat12ChannelOrderE8EEEEE, 
                       __ZTI10PCBitmap_tI8PCPixel3IN7ProCore7Private17PixelInfoTemplateILN13PCPixelFormat12ChannelOrderE9EEEEE, 
                       __ZTI10PCBitmap_tI8PCPixel4IN7ProCore7Private17PixelInfoTemplateILN13PCPixelFormat12ChannelOrderE10EEEEE, 
                       __ZTI10PCBitmap_tI8PCPixel4IN7ProCore7Private17PixelInfoTemplateILN13PCPixelFormat12ChannelOrderE13EEEEE, 
                       __ZTI10PCBitmap_tI8PCPixel4IN7ProCore7Private17PixelInfoTemplateILN13PCPixelFormat12ChannelOrderE16EEEEE, 
                       __ZTI10PCBitmap_tI8PCPixel4IN7ProCore7Private17PixelInfoTemplateILN13PCPixelFormat12ChannelOrderE17EEEEE, 
                       __ZTI10PCBitmap_tI8PCPixel4IN7ProCore7Private17PixelInfoTemplateILN13PCPixelFormat12ChannelOrderE3EEEEE, 
                       __ZTI10PCBitmap_tI8PCPixel4IN7ProCore7Private17PixelInfoTemplateILN13PCPixelFormat12ChannelOrderE4EEEEE, 
                       __ZTI10PCBitmap_tI8PCPixel4IN7ProCore7Private17PixelInfoTemplateILN13PCPixelFormat12ChannelOrderE5EEEEE, 
                       __ZTI10PCBitmap_tI8PCPixel4IN7ProCore7Private17PixelInfoTemplateILN13PCPixelFormat12ChannelOrderE6EEEEE, 
                       __ZTI10PCPtrArrayI13LiPlanarGroupE, __ZTI10PCPtrArrayI6LiSeamE, 
                       __ZTI10PCPtrArrayI7LiShardE, __ZTI10PCPtrArrayI8LiDrawerE, 
                       __ZTI11HAlphaKeyer, __ZTI11HWrapMirror, __ZTI11HWrapRepeat, 
                       __ZTI11LiAgentData, __ZTI11OZCurveBool, __ZTI11OZCurveEnum, 
                       __ZTI11PAEKeyerPie, __ZTI11PCBitmapRep, __ZTI12HMaskCompAdd, 
                       __ZTI12LiHeMaxBlend, __ZTI12OZCurveAngle, __ZTI12OZRenderNode, 
                       __ZTI12OZValueCacheI17OZBoundsCacheItemE, __ZTI12OZValueCacheI18OZFramingCacheItemE, 
                       __ZTI12OZValueCacheI18OZPointAtCacheItemE, __ZTI12OZValueCacheI21OZZoomObjectCacheItemE, 
                       __ZTI12PCArray_base, __ZTI12PCSerializer, __ZTI12PGHGImageRef, 
                       __ZTI13FilterProgram, __ZTI13HChannelMixer, __ZTI13OMAutoSamples, 
                       __ZTI13OMSamplesElem, __ZTI13OZCPPObserver, __ZTI13OZCoreGlobals, 
                       __ZTI13OZCurveDouble, __ZTI13OZFactoryBase, __ZTI13OZOrthoCamera, 
                       __ZTI13OZRig_Factory, __ZTI13OZSplineState, __ZTI13PCShared_base, 
                       __ZTI14OZCurvePercent, __ZTI14OZStyleFactory, __ZTI14PCBlendOptions, 
                       __ZTI14PGTextureCache, __ZTI14PSTextureCache, __ZTI14PokeDistortion, 
                       __ZTI14ShadowMapsLazy, __ZTI15HGComputeDevice, __ZTI15OZCurrentThread, 
                       __ZTI15OZEffectFactory, __ZTI15OZGroup_Factory, __ZTI15OZLayer_Factory, 
                       __ZTI15OZLight_Factory, __ZTI15PCGLSLException, __ZTI15PCIgnoreElement, 
                       __ZTI15PSPaint_Factory, __ZTI15PVRenderLinkJob, __ZTI16HBackgroundColor, 
                       __ZTI16HMaskCompReplace, __ZTI16OMHisto_16x16x16, __ZTI16OMHisto_32x32x32, 
                       __ZTI16OZCamera_Factory, __ZTI16OZChannelFactory, __ZTI16OZCurveInterface, 
                       __ZTI16OZEffect_Factory, __ZTI16OZMaterialBumpIF, __ZTI16OZValueCacheItem, 
                       __ZTI16PCRecursiveMutex, __ZTI16TXSelectionRange, __ZTI17HMaskCompSubtract, 
                       __ZTI17LiAgentMatrixData, __ZTI17LiCachingDelegate, __ZTI17LiDrawerCollector, 
                       __ZTI17OZAddRemoveChanIF, __ZTI17OZBehaviorFactory, __ZTI17OZBoundsCacheItem, 
                       __ZTI17OZChannelBoolInfo, __ZTI17OZChannelSeedImpl, __ZTI17OZChannelSeedInfo, 
                       __ZTI17OZChannelTextInfo, __ZTI17OZChannel_Factory, __ZTI17OZElement_Factory, 
                       __ZTI17OZFootage_Factory, __ZTI17OZMaterialFactory, __ZTI17OZParticlePaintIF, 
                       __ZTI17OZSimulatedObject, __ZTI17OZSimulatedSystem, __ZTI17OZStringTablesMap, 
                       __ZTI17PAEKeyerOMKeyer2D, __ZTI17PCSingletonObjectI7PCMutexN13PCConsoleLock12SingletonTagELi1000000000EE, 
                       __ZTI17PCSystemException, __ZTI17PSEmitter_Factory, __ZTI18DepthFilterProgram, 
                       __ZTI18HGCPUComputeDevice, __ZTI18HGInternalCompNode, __ZTI18HMaskCompFirstPass, 
                       __ZTI18HMaskCompIntersect, __ZTI18LiGradientEnvCache, __ZTI18LiHeShadowBlendAdd, 
                       __ZTI18LiTextureStoreImpl, __ZTI18OZBehavior_Factory, __ZTI18OZChannelAngleImpl, 
                       __ZTI18OZChannelAngleInfo, __ZTI18OZChannelCurveInfo, __ZTI18OZChannelEnumLayer, 
                       __ZTI18OZChannelFrameImpl, __ZTI18OZChannelFrameInfo, __ZTI18OZFramingCacheItem, 
                       __ZTI18OZFxFilter_Factory, __ZTI18OZPointAtCacheItem, __ZTI18OZSceneNodeFactory, 
                       __ZTI18PCColorSpaceHandle, __ZTI18PCLightWrapOptions, __ZTI18PC_Sp_counted_base, 
                       __ZTI18TXTextStyleManager, __ZTI19LoadableInstruction, __ZTI19OZChanObjectRefInfo, 
                       __ZTI19OZChannel2D_Factory, __ZTI19OZChannel3D_Factory, __ZTI19OZChannelButtonInfo, 
                       __ZTI19OZChannelDoubleImpl, __ZTI19OZChannelDoubleInfo, __ZTI19OZChannelEnumRetime, 
                       __ZTI19OZChannelUint16Impl, __ZTI19OZChannelUint16Info, __ZTI19OZChannelUint32Impl, 
                       __ZTI19OZChannelUint32Info, __ZTI19OZImageMask_Factory, __ZTI19OZMetalTextureCache, 
                       __ZTI19OZRigWidget_Factory, __ZTI19OZRotoshape_Factory, __ZTI19OZSceneNode_Factory, 
                       __ZTI19PCBadIndexException, __ZTI19PVCVPixelBufferPool, __ZTI19TXTextInput_Factory, 
                       __ZTI19TXTextStyle_Factory, __ZTI20LiAgentTransformData, __ZTI20OZChannelDecibelImpl, 
                       __ZTI20OZChannelDecibelInfo, __ZTI20OZChannelPercentInfo, 
                       __ZTI20OZCustomInterpolator, __ZTI20OZGetStateBehaviorIF, 
                       __ZTI20PCAssertionException, __ZTI20PGARBFragmentProgram, 
                       __ZTI20PSOwnedObjectWrapper, __ZTI20PSPaintPType_Factory, 
                       __ZTI20PSReplicator_Factory, __ZTI20PVOwnedBufferStorage, 
                       __ZTI20TXTextLayout_Factory, __ZTI21HConvolvePass8Tap8Bit, 
                       __ZTI21OZChannelBase_Factory, __ZTI21OZChannelBool_Factory, 
                       __ZTI21OZChannelCrop_Factory, __ZTI21OZChannelEnum_Factory, 
                       __ZTI21OZChannelFont_Factory, __ZTI21OZChannelProgressInfo, 
                       __ZTI21OZChannelQuad_Factory, __ZTI21OZChannelSeed_Factory, 
                       __ZTI21OZChannelText_Factory, __ZTI21OZChannelTimecodeImpl, 
                       __ZTI21OZChannelTimecodeInfo, __ZTI21OZCurveIntSplineState, 
                       __ZTI21OZFxGenerator_Factory, __ZTI21OZFxPlugRenderContext, 
                       __ZTI21OZPanBehavior_Factory, __ZTI21OZProjectNode_Factory, 
                       __ZTI21OZRigBehavior_Factory, __ZTI21OZZoomObjectCacheItem, 
                       __ZTI21TXChannelFont_Factory, __ZTI22HOutlineGradientStroke, 
                       __ZTI22OZChannelAngle_Factory, __ZTI22OZChannelColor_Factory, 
                       __ZTI22OZChannelCurve_Factory, __ZTI22OZChannelEnumDimension, 
                       __ZTI22OZChannelFrame_Factory, __ZTI22OZChannelScale_Factory, 
                       __ZTI22OZChannelShape_Factory, __ZTI22OZChannelShear_Factory, 
                       __ZTI22OZChannelTimeConverter, __ZTI22OZCurveBoolSplineState, 
                       __ZTI22OZCurveEnumSplineState, __ZTI22OZFootageLayer_Factory, 
                       __ZTI22OZImageElement_Factory, __ZTI22OZLinkBehavior_Factory, 
                       __ZTI22OZNULLBehavior_Factory, __ZTI22OZRampBehavior_Factory, 
                       __ZTI22OZRateBehavior_Factory, __ZTI22OZSingleChanBehaviorIF, 
                       __ZTI22OZSpinBehavior_Factory, __ZTI22OZStopBehavior_Factory, 
                       __ZTI22OZWindBehavior_Factory, __ZTI22PCException_WriteError, 
                       __ZTI22PCMatrixErrorException, __ZTI22PCNullPointerException, 
                       __ZTI22PSParticleType_Factory, __ZTI22TXTextBehavior_Factory, 
                       __ZTI22TXTextGeneratorFactory, __ZTI23HColorAndGradientStroke, 
                       __ZTI23OZChanObjectRef_Factory, __ZTI23OZChannelBool3D_Factory, 
                       __ZTI23OZChannelButton_Factory, __ZTI23OZChannelDouble_Factory, 
                       __ZTI23OZChannelFolder_Factory, __ZTI23OZChannelLevels_Factory, 
                       __ZTI23OZChannelShearAngleImpl, __ZTI23OZChannelShearAngleInfo, 
                       __ZTI23OZChannelUint16_Factory, __ZTI23OZChannelUint32_Factory, 
                       __ZTI23OZClampBehavior_Factory, __ZTI23OZCurveAngleSplineState, 
                       __ZTI23OZDynamicCurveInterface, __ZTI23OZFocusBehavior_Factory, 
                       __ZTI23OZShapeBehavior_Factory, __ZTI23OZThrowBehavior_Factory, 
                       __ZTI23OZTranscriptionDelegate, __ZTI23OZTransformNode_Factory, 
                       __ZTI23PCDivideByZeroException, __ZTI23PCSerializerWriteStream, 
                       __ZTI23PC_Sp_counted_base_impl, __ZTI23TXChannelString_Factory, 
                       __ZTI23TXTextGenerator_Factory, __ZTI24OZChannelAspectRatioImpl, 
                       __ZTI24OZChannelAspectRatioInfo, __ZTI24OZChannelBehaviorFactory, 
                       __ZTI24OZChannelDecibel_Factory, __ZTI24OZChannelPercent_Factory, 
                       __ZTI24OZChannelScale3D_Factory, __ZTI24OZCloneGenerator_Factory, 
                       __ZTI24OZCurveDoubleSplineState, __ZTI24OZLightingFolder_Factory, 
                       __ZTI24OZMoveToBehavior_Factory, __ZTI24OZNegateBehavior_Factory, 
                       __ZTI24OZSpringBehavior_Factory, __ZTI24OZVortexBehavior_Factory, 
                       __ZTI24PCRenderAbortedException, __ZTI24PVDeferredBitmapProvider, 
                       __ZTI24TXTypeOnBehavior_Factory, __ZTI25OZAlignToBehavior_Factory, 
                       __ZTI25OZAverageBehavior_Factory, __ZTI25OZChannelBehavior_Factory, 
                       __ZTI25OZChannelGammaFootageImpl, __ZTI25OZChannelGammaFootageInfo, 
                       __ZTI25OZChannelGradient_Factory, __ZTI25OZChannelPosition_Factory, 
                       __ZTI25OZChannelProgress_Factory, __ZTI25OZChannelTimecode_Factory, 
                       __ZTI25OZCompoundChannel_Factory, __ZTI25OZCurvePercentSplineState, 
                       __ZTI25OZFramingBehavior_Factory, __ZTI25OZGenericBehavior_Factory, 
                       __ZTI25OZGravityBehavior_Factory, __ZTI25OZLayeredMaterial_Factory, 
                       __ZTI25OZLiHePixelTransformFixer, __ZTI25OZPointAtBehavior_Factory, 
                       __ZTI25OZRepelorBehavior_Factory, __ZTI25OZReverseBehavior_Factory, 
                       __ZTI25OZWriggleBehavior_Factory, __ZTI25OZWriteOnBehavior_Factory, 
                       __ZTI25PSPenTiltBehavior_Factory, __ZTI25PSReplicatorPType_Factory, 
                       __ZTI25PVCameraPreviewRenderNode, __ZTI25TXNumberGenerator_Factory, 
                       __ZTI26LiFilteredPolygon_Geometry, __ZTI26OZAlignSimBehavior_Factory, 
                       __ZTI26OZBrownianBehavior_Factory, __ZTI26OZChanFootageRefWithPicker, 
                       __ZTI26OZChanRotoshapeRef_Factory, __ZTI26OZChanSceneNodeRef_Factory, 
                       __ZTI26OZChannelAffectedNodesImpl, __ZTI26OZChannelAffectedNodesInfo, 
                       __ZTI26OZChannelBlendMode_Factory, __ZTI26OZChannelEnumLayer_Factory, 
                       __ZTI26OZChannelHistogram_Factory, __ZTI26OZChannelSceneNode_Factory, 
                       __ZTI26OZDiscreteBehavior_Factory, __ZTI26OZMaterialSpecularFinishIF, 
                       __ZTI26OZRetimingBehavior_Factory, __ZTI26PCException_ScopeUndefined, 
                       __ZTI26PCIllegalArgumentException, __ZTI26PSPenSpeedBehavior_Factory, 
                       __ZTI26PSSequenceBehavior_Factory, __ZTI26TXChannelAlignment_Factory, 
                       __ZTI26TXScrollUpBehavior_Factory, __ZTI26TXSequenceBehavior_Factory, 
                       __ZTI27BHOvershootBehavior_Factory, __ZTI27OZ3DEngineSceneFile_Factory, 
                       __ZTI27OZAttractorBehavior_Factory, __ZTI27OZChannelEnumRetime_Factory, 
                       __ZTI27OZChannelHelpButton_Factory, __ZTI27OZChannelObjectRoot_Factory, 
                       __ZTI27OZChannelPosition3D_Factory, __ZTI27OZChannelRotation3D_Factory, 
                       __ZTI27OZChannelShearAngle_Factory, __ZTI27OZChannelStringEnum_Factory, 
                       __ZTI27OZCollisionBehavior_Factory, __ZTI27OZFadeInOutBehavior_Factory, 
                       __ZTI27OZGenericBehaviorV1_Factory, __ZTI27OZGenericBehaviorV2_Factory, 
                       __ZTI27OZGradientGenerator_Factory, __ZTI27OZMaterialFlatLayer_Factory, 
                       __ZTI27OZOscillateBehavior_Factory, __ZTI27OZRandomizeBehavior_Factory, 
                       __ZTI27OZReflexiveBehavior_Factory, __ZTI27OZRepelFromBehavior_Factory, 
                       __ZTI27OZSnapAlignBehavior_Factory, __ZTI27OZZoomInOutBehavior_Factory, 
                       __ZTI27TXCrawlLeftBehavior_Factory, __ZTI27TXTimeDateGenerator_Factory, 
                       __ZTI27TXTimecodeGenerator_Factory, __ZTI28LiFilteredPolygon_GeometryGL, 
                       __ZTI28OZChanObjectManipRef_Factory, __ZTI28OZChanSceneNodeRefWithPicker, 
                       __ZTI28OZChannel2DOverRange_Factory, __ZTI28OZChannelAspectRatio_Factory, 
                       __ZTI28OZChannelRetimeFrame_Factory, __ZTI28OZDollyInOutBehavior_Factory, 
                       __ZTI28OZGrowShrinkBehavior_Factory, __ZTI28OZMaterialGenericSubstanceIF, 
                       __ZTI28OZMotionPathBehavior_Factory, __ZTI28OZSimulationBehavior_Factory, 
                       __ZTI28OZTransitiveBehavior_Factory, __ZTI28OZZoomObjectBehavior_Factory, 
                       __ZTI28PCException_NoElementDefined, __ZTI28PCICCTransferFunctionVisitor, 
                       __ZTI28PVPreviewInputBitmapProvider, __ZTI28TXCrawlRightBehavior_Factory, 
                       __ZTI28TXScrollDownBehavior_Factory, __ZTI28TXTextScrollBehavior_Factory, 
                       __ZTI29OZAttractedToBehavior_Factory, __ZTI29OZChannelBehaviorRoot_Factory, 
                       __ZTI29OZChannelColorNoAlpha_Factory, __ZTI29OZChannelEnumWithList_Factory, 
                       __ZTI29OZChannelGammaFootage_Factory, __ZTI29OZChannelMaterialRoot_Factory, 
                       __ZTI29OZChannelVertexFolder_Factory, __ZTI29OZExponentialBehavior_Factory, 
                       __ZTI29OZLogarithmicBehavior_Factory, __ZTI29OZViscousDragBehavior_Factory, 
                       __ZTI29PSPenPressureBehavior_Factory, __ZTI29PSPenPropertyBehavior_Factory, 
                       __ZTI30OZ3DEngineSceneElement_Factory, __ZTI30OZChannelAffectedNodes_Factory, 
                       __ZTI30OZChannelDiscreteColor_Factory, __ZTI30OZChannelEnumDimension_Factory, 
                       __ZTI30OZChannelMoveableImage_Factory, __ZTI30OZChannelScaleOverLife_Factory, 
                       __ZTI30OZChannelVaryingFolder_Factory, __ZTI30OZFolderElementShadows_Factory, 
                       __ZTI30OZMaterialBumpMapLayer_Factory, __ZTI30OZMaterialDiffuseLayer_Factory, 
                       __ZTI30OZMaterialLayersFolder_Factory, __ZTI30OZRigWidgetAspectRatio_Factory, 
                       __ZTI30OZVortexAroundBehavior_Factory, __ZTI30PCException_AttributeUndefined, 
                       __ZTI30PSSpinOverLifeBehavior_Factory, __ZTI30TXParagraphStyleFolder_Factory, 
                       __ZTI30TXTextSequenceBehavior_Factory, __ZTI30TXTextTrackingBehavior_Factory, 
                       __ZTI31LiFilteredPolygon_GeometryMetal, __ZTI31OZ3DExtrusionProperties_Factory, 
                       __ZTI31OZChannelAngleOverRange_Factory, __ZTI31OZChannelAspectRatioFootageImpl, 
                       __ZTI31OZChannelAspectRatioFootageInfo, __ZTI31OZChannelEnumInterpMode_Factory, 
                       __ZTI31OZChannelGradientExtras_Factory, __ZTI31OZChannelGradientSample_Factory, 
                       __ZTI31OZChannelObjectRootBase_Factory, __ZTI31OZChannelScaleOverRange_Factory, 
                       __ZTI31OZMaterialEmissiveLayer_Factory, __ZTI31OZMaterialSpecularLayer_Factory, 
                       __ZTI31OZShapeBehaviorVertexCacheEntry, __ZTI31OZSingleChannelBehavior_Factory, 
                       __ZTI31PCUnsupportedOperationException, __ZTI31PSEmitterMoToFoBehavior_Factory, 
                       __ZTI31PSPaintSequenceBehavior_Factory, __ZTI31PSScaleOverLifeBehavior_Factory, 
                       __ZTI31TXTextFromFileGenerator_Factory, __ZTI32OZChannelDoubleOverRange_Factory, 
                       __ZTI32OZChannelHistogramSample_Factory, __ZTI32OZChannelPositionPercent_Factory, 
                       __ZTI32OZChannelTransformSwitch_Factory, __ZTI32OZDriftAttractorBehavior_Factory, 
                       __ZTI32OZMaterialSubstanceLayer_Factory, __ZTI32OZMotionToForcesBehavior_Factory, 
                       __ZTI32OZRotationalDragBehavior_Factory, __ZTI32PVMtlTexturePoolAllocationPolicy, 
                       __ZTI32PVPreviewInstructionGraphContext, __ZTI32TXTranscriptionGenerator_Factory, 
                       __ZTI33OZBoundsCollisionBehavior_Factory, __ZTI33OZChanElementOrFootageRef_Factory, 
                       __ZTI33OZChanObjectRefWithPicker_Factory, __ZTI33OZChannelImageWithOptions_Factory, 
                       __ZTI33OZChannelMaterialLayerMap_Factory, __ZTI33OZChannelMaterialMapScale_Factory, 
                       __ZTI33OZChannelPercentOverRange_Factory, __ZTI33OZSimSystemMoToFoBehavior_Factory, 
                       __ZTI34OZChanFootageRefWithPicker_Factory, __ZTI34OZChannelGradientRGBFolder_Factory, 
                       __ZTI34OZChannelGradientSampleRGB_Factory, __ZTI34OZChannelGradientWithAngle_Factory, 
                       __ZTI34OZDriftAttractedToBehavior_Factory, __ZTI35OZChannelAspectRatioFootage_Factory, 
                       __ZTI35OZChannelGradientPositioned_Factory, __ZTI35OZChannelImageWithTransform_Factory, 
                       __ZTI35OZMaterialFinishLayerSequenceFolder, __ZTI36OZChan3DEngineSceneFileRefWithPicker, 
                       __ZTI36OZChanRotoshapeRefWithPicker_Factory, __ZTI36OZChanSceneNodeRefWithPicker_Factory, 
                       __ZTI36OZChannelGradientAlphaFolder_Factory, __ZTI36OZChannelGradientSampleAlpha_Factory, 
                       __ZTI36OZMaterialBumpMapLayerSequenceFolder, __ZTI36OZMaterialDiffuseLayerSequenceFolder, 
                       __ZTI37OZChannelMaterialMapTransform_Factory, __ZTI37OZMaterialEmissiveLayerSequenceFolder, 
                       __ZTI37OZMaterialSpecularLayerSequenceFolder, __ZTI38OZMaterialSubstanceLayerSequenceFolder, 
                       __ZTI39OZLayeredMaterialSequenceFolder_Factory, __ZTI41OZChannelImageForImageWithOptions_Factory, 
                       __ZTI44OZChan3DEngineSceneFileRefWithPicker_Factory, __ZTI44OZMaterialBumpMapLayerSequenceFolder_Factory, 
                       __ZTI44OZMaterialDiffuseLayerSequenceFolder_Factory, __ZTI45OZMaterialEmissiveLayerSequenceFolder_Factory, 
                       __ZTI45OZMaterialSpecularLayerSequenceFolder_Factory, __ZTI46OZMaterialSubstanceLayerSequenceFolder_Factory, 
                       __ZTI5OMPie, __ZTI6OZMask, __ZTI6PCRectIdE, __ZTI6PCSafe, 
                       __ZTI7HLevels, __ZTI7LiAgent, __ZTI7OMHisto, __ZTI7PCArrayI14ShadowMapsLazy14PCArray_TraitsIS0_EE, 
                       __ZTI7PCArrayI15LiClipPlaneInfo14PCArray_TraitsIS0_EE, __ZTI7PCArrayI19LiGraphBuilderGroup14PCArray_TraitsIS0_EE, 
                       __ZTI7PCArrayI19LiMultiBlenderLayer14PCArray_TraitsIS0_EE, 
                       __ZTI7PCArrayI22LiLightScaledElementID14PCArray_TraitsIS0_EE, 
                       __ZTI7PCArrayI5HGRefI6HGNodeE14PCArray_TraitsIS2_EE, __ZTI7PCArrayI5PCPtrI13LiImageFilterE14PCArray_TraitsIS2_EE, 
                       __ZTI7PCArrayI5PCPtrI13LiSceneObjectE14PCArray_TraitsIS2_EE, 
                       __ZTI7PCArrayI5PCPtrI16LiMaterialFilterE14PCArray_TraitsIS2_EE, 
                       __ZTI7PCArrayI7LiLight14PCArray_TraitsIS0_EE, __ZTI7PCArrayI7PCPlaneIdE14PCArray_TraitsIS1_EE, 
                       __ZTI7PCArrayI8LiString14PCArray_TraitsIS0_EE, __ZTI7PCArrayI9PCVector3IdE14PCArray_TraitsIS1_EE, 
                       __ZTI7PCArrayI9PCVector4IdE14PCArray_TraitsIS1_EE, __ZTI7PCArrayI9ShadowMap14PCArray_TraitsIS0_EE, 
                       __ZTI7PCArrayIN10LiMaterial12UniformValueE14PCArray_TraitsIS1_EE, 
                       __ZTI7PCArrayIN13LiDrawnRegion4RectE14PCArray_TraitsIS1_EE, 
                       __ZTI7PCArrayIN13LiSceneDrawer10DrawObjectE14PCArray_TraitsIS1_EE, 
                       __ZTI7PCArrayIN15LiSceneIteratorI17LiLayeredMaterial21LiSceneIteratorAlwaysE3ObjE14PCArray_TraitsIS4_EE, 
                       __ZTI7PCArrayIN15LiSceneIteratorI7LiGeode21LiSceneIteratorAlwaysE3ObjE14PCArray_TraitsIS4_EE, 
                       __ZTI7PCArrayIN15LiSceneIteratorI7LiGroup21LiSceneIteratorAlwaysE3ObjE14PCArray_TraitsIS4_EE, 
                       __ZTI7PCArrayIN15LiSceneIteratorI7LiLight21LiSceneIteratorAlwaysE3ObjE14PCArray_TraitsIS4_EE, 
                       __ZTI7PCArrayIN15LiSceneIteratorI7LiLight23LiSceneIteratorShineOutE3ObjE14PCArray_TraitsIS4_EE, 
                       __ZTI7PCArrayIN15LiSceneIteratorI7LiSolid21LiSceneIteratorAlwaysE3ObjE14PCArray_TraitsIS4_EE, 
                       __ZTI7PCArrayIN18OZSceneArrangement7ElementE14PCArray_TraitsIS1_EE, 
                       __ZTI7PCArrayIN8ProShade12VariableList13VariableEntryE14PCArray_TraitsIS2_EE, 
                       __ZTI7PCArrayIN8ProShade15UniformVariableE14PCArray_TraitsIS1_EE, 
                       __ZTI7PCArrayIN8ProShade4VarTINS0_4NodeEEE14PCArray_TraitsIS3_EE, 
                       __ZTI7PCArrayIN8ProShade5ValueE14PCArray_TraitsIS1_EE, __ZTI7PCArrayIN8ProShade6OutputE14PCArray_TraitsIS1_EE, 
                       __ZTI7PCArrayIN8ProShade7SamplerE14PCArray_TraitsIS1_EE, __ZTI7PCArrayIN8ProShade8External8ArgumentE14PCArray_TraitsIS2_EE, 
                       __ZTI7PCArrayIP11LiLightInfo14PCArray_TraitsIS1_EE, __ZTI7PCArrayIP13LiPlanarGroup19PCArray_Traits_ZeroIS1_EE, 
                       __ZTI7PCArrayIP6HGNode14PCArray_TraitsIS1_EE, __ZTI7PCArrayIP6LiSeam19PCArray_Traits_ZeroIS1_EE, 
                       __ZTI7PCArrayIP7LiShard19PCArray_Traits_ZeroIS1_EE, __ZTI7PCArrayIP8LiDrawer19PCArray_Traits_ZeroIS1_EE, 
                       __ZTI7PCArrayIPN8ProShade10ProgramVarE14PCArray_TraitsIS2_EE, 
                       __ZTI7PCArrayIb14PCArray_TraitsIbEE, __ZTI7PCArrayId14PCArray_TraitsIdEE, 
                       __ZTI7PCArrayIi14PCArray_TraitsIiEE, __ZTI7PCArrayIm14PCArray_TraitsImEE, 
                       __ZTI8HBadFilm, __ZTI8LiHeGrid, __ZTI8LiHelium, __ZTI8PCShared, 
                       __ZTI8PGShader, __ZTI8PSShaderILj35632EE, __ZTI8PSShaderILj35633EE, 
                       __ZTI9HMaskElem, __ZTI9OMSamples, __ZTI9OZLocking, __ZTIF7PCCFRefIPK8__CTFontERK8PCStringdbRK17CGAffineTransformE, 
                       __ZTIF7PCNSRefIP12NSColorSpaceEP12CGColorSpaceE, __ZTIF9PCHash128RK18PCColorSpaceHandleE, 
                       __ZTIFNSt3__110shared_ptrI15vImageConverterEEP12CGColorSpaceS4_E, 
                       __ZTIN11OZRigWidget27OZRigWidget_valueDoubleImplE, __ZTIN11OZRigWidget27OZRigWidget_valueDoubleInfoE, 
                       __ZTIN11OZRigWidget30OZRigWidget_pSliderMaxChanImplE, __ZTIN11OZRigWidget30OZRigWidget_pSliderMinChanImplE, 
                       __ZTIN11OZRigWidget32OZRigWidget_valueAspectRatioImplE, __ZTIN11OZRigWidget32OZRigWidget_valueAspectRatioInfoE, 
                       __ZTIN11OZRigWidget36OZRigWidget_activeSnapshotIDChanImplE, 
                       __ZTIN11PVPerfStats21FrameStatsDescriptionE, __ZTIN11TXTextStyle20TXTextStyle_sizeInfoE, 
                       __ZTIN11TXTextStyle21TXTextStyle_slantImplE, __ZTIN11TXTextStyle21TXTextStyle_slantInfoE, 
                       __ZTIN11TXTextStyle23TXTextStyle_kerningImplE, __ZTIN11TXTextStyle23TXTextStyle_kerningInfoE, 
                       __ZTIN11TXTextStyle24TXTextStyle_baselineInfoE, __ZTIN11TXTextStyle24TXTextStyle_faceBlurImplE, 
                       __ZTIN11TXTextStyle24TXTextStyle_faceBlurInfoE, __ZTIN11TXTextStyle24TXTextStyle_glowBlurImplE, 
                       __ZTIN11TXTextStyle24TXTextStyle_glowBlurInfoE, __ZTIN11TXTextStyle24TXTextStyle_trackingImplE, 
                       __ZTIN11TXTextStyle24TXTextStyle_trackingInfoE, __ZTIN11TXTextStyle26TXTextStyle_V4TrackingImplE, 
                       __ZTIN11TXTextStyle26TXTextStyle_V4TrackingInfoE, __ZTIN11TXTextStyle26TXTextStyle_glowRadiusImplE, 
                       __ZTIN11TXTextStyle26TXTextStyle_glowRadiusInfoE, __ZTIN11TXTextStyle27TXTextStyle_allCapsSizeImplE, 
                       __ZTIN11TXTextStyle27TXTextStyle_oldTrackingInfoE, __ZTIN11TXTextStyle27TXTextStyle_outlineBlurImplE, 
                       __ZTIN11TXTextStyle27TXTextStyle_outlineBlurInfoE, __ZTIN11TXTextStyle28TXTextStyle_outlineWidthImplE, 
                       __ZTIN11TXTextStyle28TXTextStyle_outlineWidthInfoE, __ZTIN11TXTextStyle30TXTextStyle_dropShadowBlurImplE, 
                       __ZTIN11TXTextStyle30TXTextStyle_dropShadowBlurInfoE, __ZTIN11TXTextStyle31TXTextStyle_dropShadowAngleImplE, 
                       __ZTIN11TXTextStyle33TXTextStyle_dropShadowOpacityImplE, __ZTIN11TXTextStyle34TXTextStyle_dropShadowDistanceImplE, 
                       __ZTIN11TXTextStyle34TXTextStyle_dropShadowDistanceInfoE, 
                       __ZTIN12LiSolidUtils24TransparencyCountProgramE, __ZTIN12LiSolidUtils25CirclesOfConfusionProgramE, 
                       __ZTIN12PSHeliumNode11BatcherBaseE, __ZTIN12TXTextLayout23TXTextLayout_radiusImplE, 
                       __ZTIN12TXTextLayout23TXTextLayout_radiusInfoE, __ZTIN12TXTextLayout24TXTextLayout_versionImplE, 
                       __ZTIN12TXTextLayout25TXTextLayout_rectSizeImplE, __ZTIN12TXTextLayout25TXTextLayout_rectSizeInfoE, 
                       __ZTIN12TXTextLayout25TXTextLayout_trackingImplE, __ZTIN12TXTextLayout25TXTextLayout_trackingInfoE, 
                       __ZTIN12TXTextLayout26TXTextLayout_topMarginImplE, __ZTIN12TXTextLayout27TXTextLayout_leftMarginImplE, 
                       __ZTIN12TXTextLayout27TXTextLayout_pathOffsetImplE, __ZTIN12TXTextLayout27TXTextLayout_pathOffsetInfoE, 
                       __ZTIN12TXTextLayout27TXTextLayout_showRulersImplE, __ZTIN12TXTextLayout28TXTextLayout_oldTrackingInfoE, 
                       __ZTIN12TXTextLayout28TXTextLayout_rightMarginImplE, __ZTIN12TXTextLayout28TXTextLayout_waveDampingImplE, 
                       __ZTIN12TXTextLayout28TXTextLayout_waveDampingInfoE, __ZTIN12TXTextLayout29TXTextLayout_bottomMarginImplE, 
                       __ZTIN12TXTextLayout30TXTextLayout_waveAmplitudeImplE, __ZTIN12TXTextLayout30TXTextLayout_waveAmplitudeInfoE, 
                       __ZTIN12TXTextLayout30TXTextLayout_waveFrequencyImplE, __ZTIN12TXTextLayout30TXTextLayout_waveFrequencyInfoE, 
                       __ZTIN12TXTextLayout31TXTextLayout_showScrollBarsImplE, __ZTIN12TXTextLayout36TXTextLayout_lineSpacingObsoleteInfoE, 
                       __ZTIN13OZChannelCrop23OZChannelCrop_valueImplE, __ZTIN13OZChannelEnum23OZChannelEnum_valueImplE, 
                       __ZTIN13OZChannelEnum23OZChannelEnum_valueInfoE, __ZTIN13OZRigSnapshot27OZRigSnapshot_valueChanImplE, 
                       __ZTIN13OZRigSnapshot35OZRigSnapshot_interpolationChanImplE, 
                       __ZTIN14OZChannelColor24OZChannelColor_alphaInfoE, __ZTIN14OZChannelColor28OZChannelColor_alpha_oneImplE, 
                       __ZTIN14OZChannelColor29OZChannelColor_alpha_zeroImplE, __ZTIN14OZChannelScale24OZChannelScale_valueImplE, 
                       __ZTIN14OZChannelScale24OZChannelScale_valueInfoE, __ZTIN14OZImageElement24OZImageElement_layerImplE, 
                       __ZTIN14OZImageElement24OZImageElement_layerInfoE, __ZTIN14OZImageElement26OZImageElement_dropPanImplE, 
                       __ZTIN14OZImageElement26OZImageElement_dropPanInfoE, __ZTIN14OZImageElement28OZImageElement_dropScaleImplE, 
                       __ZTIN14OZImageElement28OZImageElement_dropWidthImplE, __ZTIN14OZImageElement28OZImageElement_dropWidthInfoE, 
                       __ZTIN14OZImageElement28OZImageElement_timeScaleImplE, __ZTIN14OZImageElement29OZImageElement_dropHeightImplE, 
                       __ZTIN14OZImageElement29OZImageElement_dropHeightInfoE, __ZTIN14OZImageElement29OZImageElement_pageNumberImplE, 
                       __ZTIN14OZImageElement29OZImageElement_pageNumberInfoE, __ZTIN14OZImageElement30OZImageElement_dropInputIDImplE, 
                       __ZTIN14OZImageElement30OZImageElement_dropInputIDInfoE, __ZTIN14OZImageElement31OZImageElement_loopDurationImplE, 
                       __ZTIN14OZImageElement33OZImageElement_dropFillOpaqueImplE, 
                       __ZTIN14OZImageElement35OZImageElement_retimeFrameCacheImplE, 
                       __ZTIN14OZLinkBehavior28OZLinkBehavior_scaleChanImplE, __ZTIN14OZLinkBehavior28OZLinkBehavior_scaleChanInfoE, 
                       __ZTIN14OZLinkBehavior30OZLinkBehavior_mixModeChanImplE, __ZTIN14OZLinkBehavior32OZLinkBehavior_applyModeChanImplE, 
                       __ZTIN14OZLinkBehavior32OZLinkBehavior_customMixChanImplE, 
                       __ZTIN14OZLinkBehavior32OZLinkBehavior_customMixChanInfoE, 
                       __ZTIN14OZLinkBehavior32OZLinkBehavior_easeRangeChanImplE, 
                       __ZTIN14OZLinkBehavior32OZLinkBehavior_easeRangeChanInfoE, 
                       __ZTIN14OZLinkBehavior36OZLinkBehavior_applyLinkWhenChanImplE, 
                       __ZTIN14OZRenderParams10SharedInfoE, __ZTIN14OZRetimingUtil14StaticListNodeINS_16RetimingExaminerEEE, 
                       __ZTIN14OZRetimingUtil24RetimingExaminerTemplateI14OZImageElementEE, 
                       __ZTIN14OZRetimingUtil24RetimingExaminerTemplateI16OZCloneGeneratorEE, 
                       __ZTIN14OZRetimingUtil24RetimingExaminerTemplateI22OZ3DEngineSceneElementEE, 
                       __ZTIN14PSParticleType27PSParticleType_spinChanInfoE, __ZTIN14PSParticleType28PSParticleType_shapeChanImplE, 
                       __ZTIN14PSParticleType28PSParticleType_speedChanImplE, __ZTIN14PSParticleType28PSParticleType_speedChanInfoE, 
                       __ZTIN14PSParticleType29PSParticleType_rotVarChanInfoE, __ZTIN14PSParticleType30PSParticleType_spinVarChanImplE, 
                       __ZTIN14PSParticleType30PSParticleType_spinVarChanInfoE, __ZTIN14PSParticleType30PSParticleType_versionChanImplE, 
                       __ZTIN14PSParticleType31PSParticleType_lifetimeChanImplE, 
                       __ZTIN14PSParticleType31PSParticleType_lifetimeChanInfoE, 
                       __ZTIN14PSParticleType31PSParticleType_scaleVarChanImplE, 
                       __ZTIN14PSParticleType31PSParticleType_scaleVarChanInfoE, 
                       __ZTIN14PSParticleType31PSParticleType_speedVarChanImplE, 
                       __ZTIN14PSParticleType31PSParticleType_speedVarChanInfoE, 
                       __ZTIN14PSParticleType32PSParticleType_birthRateChanImplE, 
                       __ZTIN14PSParticleType32PSParticleType_birthRateChanInfoE, 
                       __ZTIN14PSParticleType32PSParticleType_colorModeChanImplE, 
                       __ZTIN14PSParticleType32PSParticleType_pointSizeChanImplE, 
                       __ZTIN14PSParticleType32PSParticleType_pointSizeChanInfoE, 
                       __ZTIN14PSParticleType33PSParticleType_initialNumChanImplE, 
                       __ZTIN14PSParticleType34PSParticleType_lifetimeVarChanImplE, 
                       __ZTIN14PSParticleType35PSParticleType_anchorDabsToChanImplE, 
                       __ZTIN14PSParticleType35PSParticleType_birthRateVarChanImplE, 
                       __ZTIN14PSParticleType35PSParticleType_pointSpacingChanImplE, 
                       __ZTIN14PSParticleType35PSParticleType_pointSpacingChanInfoE, 
                       __ZTIN14PSParticleType35PSParticleType_posOffsetVarChanImplE, 
                       __ZTIN14PSParticleType36PSParticleType_strokeWidthOSChanImplE, 
                       __ZTIN14PSParticleType36PSParticleType_strokeWidthOSChanInfoE, 
                       __ZTIN14PSParticleType37PSParticleType_pointSpacingOSChanImplE, 
                       __ZTIN14PSParticleType37PSParticleType_pointSpacingOSChanInfoE, 
                       __ZTIN14PSParticleType39PSParticleType_colorRepetitionsChanInfoE, 
                       __ZTIN14PSParticleType39PSParticleType_sourceHoldFramesChanImplE, 
                       __ZTIN14PSParticleType39PSParticleType_sourceStartFrameChanImplE, 
                       __ZTIN14PSParticleType39PSParticleType_sourceStartFrameChanInfoE, 
                       __ZTIN14PSParticleType41PSParticleType_sourceStartFrameOSChanImplE, 
                       __ZTIN14PSParticleType41PSParticleType_sourceStartFrameOSChanInfoE, 
                       __ZTIN15OZDynamicVertex24OZDynamicVertex_biasImplE, __ZTIN15OZDynamicVertex26OZDynamicVertex_tanInVImplE, 
                       __ZTIN15OZDynamicVertex27OZDynamicVertex_enabledImplE, __ZTIN15OZDynamicVertex27OZDynamicVertex_tanOutVImplE, 
                       __ZTIN16OZLightingFolder42OZLightingFolder_channelShininessIndexImplE, 
                       __ZTIN16OZLightingFolder42OZLightingFolder_channelShininessIndexInfoE, 
                       __ZTIN16TXParagraphStyle32TXParagraphStyle_lineSpacingInfoE, 
                       __ZTIN17BumpMaterialLayer8MultiplyE, __ZTIN17OZChannelGradient27OZChannelGradient_gammaImplE, 
                       __ZTIN17OZChannelGradient34OZChannelGradient_colorSpaceIDImplE, 
                       __ZTIN17OZChannelPosition27OZChannelPosition_valueImplE, __ZTIN17OZChannelPosition27OZChannelPosition_valueInfoE, 
                       __ZTIN18OZBrownianBehavior31OZBrownianBehavior_dragChanInfoE, 
                       __ZTIN18OZBrownianBehavior36OZBrownianBehavior_frequencyChanImplE, 
                       __ZTIN18OZBrownianBehavior36OZBrownianBehavior_frequencyChanInfoE, 
                       __ZTIN18OZBrownianBehavior36OZBrownianBehavior_magnitudeChanImplE, 
                       __ZTIN18OZBrownianBehavior36OZBrownianBehavior_magnitudeChanInfoE, 
                       __ZTIN18OZBrownianBehavior40OZBrownianBehavior_amplitudeStepChanImplE, 
                       __ZTIN18OZBrownianBehavior40OZBrownianBehavior_amplitudeStepChanInfoE, 
                       __ZTIN18TXSequenceChannels31TXSequenceChannels_faceBlurImplE, 
                       __ZTIN18TXSequenceChannels31TXSequenceChannels_faceBlurInfoE, 
                       __ZTIN18TXSequenceChannels31TXSequenceChannels_glowBlurImplE, 
                       __ZTIN18TXSequenceChannels31TXSequenceChannels_glowBlurInfoE, 
                       __ZTIN18TXSequenceChannels31TXSequenceChannels_trackingImplE, 
                       __ZTIN18TXSequenceChannels31TXSequenceChannels_trackingInfoE, 
                       __ZTIN18TXSequenceChannels33TXSequenceChannels_glowRadiusImplE, 
                       __ZTIN18TXSequenceChannels33TXSequenceChannels_glowRadiusInfoE, 
                       __ZTIN18TXSequenceChannels34TXSequenceChannels_outlineBlurImplE, 
                       __ZTIN18TXSequenceChannels34TXSequenceChannels_outlineBlurInfoE, 
                       __ZTIN18TXSequenceChannels35TXSequenceChannels_outlineWidthImplE, 
                       __ZTIN18TXSequenceChannels35TXSequenceChannels_outlineWidthInfoE, 
                       __ZTIN18TXSequenceChannels37TXSequenceChannels_dropShadowBlurImplE, 
                       __ZTIN18TXSequenceChannels37TXSequenceChannels_dropShadowBlurInfoE, 
                       __ZTIN18TXSequenceChannels38TXSequenceChannels_characterOffsetImplE, 
                       __ZTIN18TXSequenceChannels38TXSequenceChannels_characterOffsetInfoE, 
                       __ZTIN18TXSequenceChannels39TXSequenceChannels_glowBlurObsoleteImplE, 
                       __ZTIN18TXSequenceChannels41TXSequenceChannels_dropShadowDistanceImplE, 
                       __ZTIN18TXSequenceChannels41TXSequenceChannels_dropShadowDistanceInfoE, 
                       __ZTIN19OZFadeInOutBehavior38OZFadeInOutBehavior_fadeInTimeChanImplE, 
                       __ZTIN19OZFadeInOutBehavior39OZFadeInOutBehavior_fadeOutTimeChanImplE, 
                       __ZTIN19OZFadeInOutBehavior41OZFadeInOutBehavior_endTimeOffsetChanImplE, 
                       __ZTIN19OZFadeInOutBehavior43OZFadeInOutBehavior_startTimeOffsetChanImplE, 
                       __ZTIN19TXTimeDateGenerator27TXTimeDateGenerator_endImplE, 
                       __ZTIN19TXTimeDateGenerator29TXTimeDateGenerator_startImplE, 
                       __ZTIN19TXTimeDateGenerator29TXTimeDateGenerator_valueInfoE, 
                       __ZTIN19TXTimeDateGenerator33TXTimeDateGenerator_dateStyleImplE, 
                       __ZTIN19TXTimeDateGenerator33TXTimeDateGenerator_timeStyleImplE, 
                       __ZTIN20OZGrowShrinkBehavior38OZGrowShrinkBehavior_scaleDestChanImplE, 
                       __ZTIN20OZGrowShrinkBehavior38OZGrowShrinkBehavior_scaleDestChanInfoE, 
                       __ZTIN20OZGrowShrinkBehavior38OZGrowShrinkBehavior_scaleRateChanImplE, 
                       __ZTIN20OZGrowShrinkBehavior38OZGrowShrinkBehavior_scaleRateChanInfoE, 
                       __ZTIN20OZGrowShrinkBehavior42OZGrowShrinkBehavior_endTimeOffsetChanImplE, 
                       __ZTIN20OZGrowShrinkBehavior42OZGrowShrinkBehavior_hudValueScaleChanImplE, 
                       __ZTIN20OZGrowShrinkBehavior42OZGrowShrinkBehavior_incrementTypeChanImplE, 
                       __ZTIN20OZGrowShrinkBehavior44OZGrowShrinkBehavior_curvatureFactorChanImplE, 
                       __ZTIN20OZMotionPathBehavior31OZMotionPathBehavior_offsetImplE, 
                       __ZTIN20OZMotionPathBehavior31OZMotionPathBehavior_radiusImplE, 
                       __ZTIN20OZMotionPathBehavior31OZMotionPathBehavior_radiusInfoE, 
                       __ZTIN20OZMotionPathBehavior33OZMotionPathBehavior_rectSizeImplE, 
                       __ZTIN20OZMotionPathBehavior33OZMotionPathBehavior_rectSizeInfoE, 
                       __ZTIN20OZMotionPathBehavior34OZMotionPathBehavior_frequencyImplE, 
                       __ZTIN20OZMotionPathBehavior34OZMotionPathBehavior_frequencyInfoE, 
                       __ZTIN20OZMotionPathBehavior34OZMotionPathBehavior_wavePhaseInfoE, 
                       __ZTIN20OZMotionPathBehavior36OZMotionPathBehavior_waveDampingImplE, 
                       __ZTIN20OZMotionPathBehavior36OZMotionPathBehavior_waveDampingInfoE, 
                       __ZTIN20OZMotionPathBehavior38OZMotionPathBehavior_waveAmplitudeImplE, 
                       __ZTIN20OZMotionPathBehavior38OZMotionPathBehavior_waveAmplitudeInfoE, 
                       __ZTIN20OZMotionPathBehavior38OZMotionPathBehavior_waveFrequencyImplE, 
                       __ZTIN20OZMotionPathBehavior38OZMotionPathBehavior_waveFrequencyInfoE, 
                       __ZTIN20OZMotionPathBehavior42OZMotionPathBehavior_endTimeOffsetChanImplE, 
                       __ZTIN21OZChannelColorNoAlpha30OZChannelColorNoAlpha_greyImplE, 
                       __ZTIN21OZChannelColorNoAlpha31OZChannelColorNoAlpha_blackImplE, 
                       __ZTIN21OZChannelColorNoAlpha31OZChannelColorNoAlpha_colorInfoE, 
                       __ZTIN21OZChannelColorNoAlpha31OZChannelColorNoAlpha_gammaImplE, 
                       __ZTIN21OZChannelColorNoAlpha31OZChannelColorNoAlpha_whiteImplE, 
                       __ZTIN21OZChannelColorNoAlpha36OZChannelColorNoAlpha_redSample1ImplE, 
                       __ZTIN21OZChannelColorNoAlpha36OZChannelColorNoAlpha_redSample2ImplE, 
                       __ZTIN21OZChannelColorNoAlpha37OZChannelColorNoAlpha_blueSample1ImplE, 
                       __ZTIN21OZChannelColorNoAlpha37OZChannelColorNoAlpha_blueSample2ImplE, 
                       __ZTIN21OZChannelColorNoAlpha38OZChannelColorNoAlpha_colorSpaceIDImplE, 
                       __ZTIN21OZChannelColorNoAlpha38OZChannelColorNoAlpha_greenSample1ImplE, 
                       __ZTIN21OZChannelColorNoAlpha38OZChannelColorNoAlpha_greenSample2ImplE, 
                       __ZTIN21OZViscousDragBehavior31OZViscousDragBehavior_kChanImplE, 
                       __ZTIN21OZViscousDragBehavior31OZViscousDragBehavior_kChanInfoE, 
                       __ZTIN23OZChannelGradientExtras40OZChannelGradientExtras_gradientTypeImplE, 
                       __ZTIN23OZChannelGradientSample41OZChannelGradientSample_interpolationImplE, 
                       __ZTIN23PSScaleOverLifeBehavior41PSScaleOverLifeBehavior_scaleRateChanImplE, 
                       __ZTIN23PSScaleOverLifeBehavior41PSScaleOverLifeBehavior_scaleRateChanInfoE, 
                       __ZTIN23PSScaleOverLifeBehavior43PSScaleOverLifeBehavior_customScaleChanInfoE, 
                       __ZTIN23PSScaleOverLifeBehavior45PSScaleOverLifeBehavior_incrementTypeChanImplE, 
                       __ZTIN25OZChannelImageWithOptions35OZChannelImageWithOptions_frameImplE, 
                       __ZTIN25OZChannelImageWithOptions35OZChannelImageWithOptions_frameInfoE, 
                       __ZTIN26OZChannelGradientWithAngle36OZChannelGradientWithAngle_angleImplE, 
                       __ZTIN26OZFolderMaterialProperties52OZFolderMaterialProperties_channelShininessIndexImplE, 
                       __ZTIN26OZFolderMaterialProperties52OZFolderMaterialProperties_channelShininessIndexInfoE, 
                       __ZTIN28OZShapeReparametrizedContour40OZShapeReparametrizedContour_contourImplE, 
                       __ZTIN2cc5curve11evaluator_tIddEE, __ZTIN2cc5curve14evaluator_1d_tIdLj1024EEE, 
                       __ZTIN2cc5curve7aspline13offsetcolor_tIdEE, __ZTIN2cc5curve7aspline15_vertices_ctx_tIdEE, 
                       __ZTIN2cc5curve7aspline17_curve_base_itf_tIdEE, __ZTIN2cc5curve7aspline5hue_tIdEE, 
                       __ZTIN2cc5curve7aspline7color_tIdEE, __ZTIN2cc5curve7aspline8bezier_tIdLb0EEE, 
                       __ZTIN2cc5curve7aspline8bezier_tIdLb1EEE, __ZTIN2cc7point_tIdLb0ELb0EEE, 
                       __ZTIN5ProGL12TextureOwnerE, __ZTIN5ProGL12UniformArrayI9PCVector2IfELm16EEE, 
                       __ZTIN5ProGL12UniformArrayIfLm16EEE, __ZTIN5ProGL14UniformSamplerILj35678EEE, 
                       __ZTIN5ProGL7Private15ProgramFactory0I10CompShaderEE, __ZTIN5ProGL7Private15ProgramFactory0I10CopyShaderEE, 
                       __ZTIN5ProGL7Private15ProgramFactory0I18DepthFilterProgramEE, 
                       __ZTIN5ProGL7Private15ProgramFactory0IN12LiSolidUtils24TransparencyCountProgramEEE, 
                       __ZTIN5ProGL7Private15ProgramFactory0IN12LiSolidUtils25CirclesOfConfusionProgramEEE, 
                       __ZTIN5ProGL7Private17ProgramHandleImpl7FactoryE, __ZTIN5ProGL7Private21TexCoordAttributeBaseI9PCVector2IfEEE, 
                       __ZTIN5ProGL7Private27VectorTexCoordAttributeBaseI9PCVector2IfEEE, 
                       __ZTIN5ProGL7Private3Any10HolderBaseE, __ZTIN5ProGL7Private3Any6HolderI18PCColorSpaceHandleEE, 
                       __ZTIN5ProGL7Private3Any6HolderI6PCRectIdEEE, __ZTIN5ProGL7Private3Any6HolderIbEE, 
                       __ZTIN5ProGL7UniformI14PCMatrix44TmplIfEEE, __ZTIN5ProGL7UniformIfEE, 
                       __ZTIN5ProGL7UniformIiEE, __ZTIN5ProGL9AttributeI9PCVector2IfENS_7Private27VectorTexCoordAttributeBaseEEE, 
                       __ZTIN6HGPool16AllocationPolicyIN18HGMetalTexturePool10DescriptorEEE, 
                       __ZTIN7OZGroup19OZGroup_versionImplE, __ZTIN7OZGroup22OZGroup_fixedWidthImplE, 
                       __ZTIN7OZGroup22OZGroup_fixedWidthInfoE, __ZTIN7OZGroup23OZGroup_fixedHeightImplE, 
                       __ZTIN7OZGroup23OZGroup_fixedHeightInfoE, __ZTIN7OZGroup25OZGroup_dimensionTypeImplE, 
                       __ZTIN7OZShape18OZShape_closedImplE, __ZTIN7OZShape20OZShape_boxPivotImplE, 
                       __ZTIN7OZShape21OZShape_roundnessImplE, __ZTIN7OZShape21OZShape_roundnessInfoE, 
                       __ZTIN7OZShape22OZShape_boxTopLeftImplE, __ZTIN7OZShape23OZShape_boxRotationImplE, 
                       __ZTIN7OZShape23OZShape_boxTopRightImplE, __ZTIN7OZShape23OZShape_shapeRadiusImplE, 
                       __ZTIN7OZShape23OZShape_shapeRadiusInfoE, __ZTIN7OZShape23OZShape_strokeJointImplE, 
                       __ZTIN7OZShape23OZShape_strokeWidthImplE, __ZTIN7OZShape23OZShape_strokeWidthInfoE, 
                       __ZTIN7OZShape25OZShape_boxBottomLeftImplE, __ZTIN7OZShape25OZShape_initialScaleXImplE, 
                       __ZTIN7OZShape25OZShape_initialScaleYImplE, __ZTIN7OZShape25OZShape_strokeLeftCapImplE, 
                       __ZTIN7OZShape26OZShape_boxBottomRightImplE, __ZTIN7OZShape26OZShape_softEdgeKernelImplE, 
                       __ZTIN7OZShape26OZShape_softEdgeRadiusImplE, __ZTIN7OZShape26OZShape_softEdgeRadiusInfoE, 
                       __ZTIN7OZShape26OZShape_strokeRightCapImplE, __ZTIN7OZShape27OZShape_initialPositionImplE, 
                       __ZTIN7OZShape27OZShape_softEdgeFalloffImplE, __ZTIN7OZShape27OZShape_softEdgeFalloffInfoE, 
                       __ZTIN7OZShape28OZShape_ellipseCurvatureImplE, __ZTIN7OZShape28OZShape_pixelAspectRatioImplE, 
                       __ZTIN7OZShape29OZShape_interpolationModeImplE, __ZTIN7OZShape31OZShape_strokeCapArrowWidthImplE, 
                       __ZTIN7OZShape31OZShape_strokeCapArrowWidthInfoE, __ZTIN7OZShape32OZShape_strokeCapArrowLengthImplE, 
                       __ZTIN7OZShape32OZShape_strokeCapArrowLengthInfoE, __ZTIN7OZShape34OZShape_disableAntialiasingiOSImplE, 
                       __ZTIN8Interval10DistortionE, __ZTIN8OZCamera19OZCamera_dofFarImplE, 
                       __ZTIN8OZCamera19OZCamera_dofFarInfoE, __ZTIN8OZCamera20OZCamera_dofNearImplE, 
                       __ZTIN8OZCamera20OZCamera_dofNearInfoE, __ZTIN8OZCamera20OZCamera_farFadeImplE, 
                       __ZTIN8OZCamera20OZCamera_farFadeInfoE, __ZTIN8OZCamera21OZCamera_apertureImplE, 
                       __ZTIN8OZCamera21OZCamera_apertureInfoE, __ZTIN8OZCamera21OZCamera_farPlaneImplE, 
                       __ZTIN8OZCamera21OZCamera_farPlaneInfoE, __ZTIN8OZCamera21OZCamera_nearFadeImplE, 
                       __ZTIN8OZCamera21OZCamera_nearFadeInfoE, __ZTIN8OZCamera22OZCamera_dofFilterImplE, 
                       __ZTIN8OZCamera22OZCamera_dofOffsetInfoE, __ZTIN8OZCamera22OZCamera_nearPlaneImplE, 
                       __ZTIN8OZCamera22OZCamera_nearPlaneInfoE, __ZTIN8OZCamera23OZCamera_cameraTypeImplE, 
                       __ZTIN8OZCamera24OZCamera_angleOfViewImplE, __ZTIN8OZCamera24OZCamera_angleOfViewInfoE, 
                       __ZTIN8OZCamera25OZCamera_dofDepthModeImplE, __ZTIN8OZCamera27OZCamera_dofFilterShapeImplE, 
                       __ZTIN8OZCamera27OZCamera_dofFilterSidesImplE, __ZTIN8OZCamera27OZCamera_dofFilterSidesInfoE, 
                       __ZTIN8ProShade10Uniform44fE, __ZTIN8ProShade11TextureDataE, 
                       __ZTIN8ProShade13InsertVaryingE, __ZTIN8ProShade13SubstituteVarE, 
                       __ZTIN8ProShade15UniformBaseNodeE, __ZTIN8ProShade17SamplerCubeShadowE, 
                       __ZTIN8ProShade4FuncINS_10Func_crossEEE, __ZTIN8ProShade4FuncINS_11Func_lengthEEE, 
                       __ZTIN8ProShade4FuncINS_12Func_inverseEEE, __ZTIN8ProShade4FuncINS_12Func_reflectEEE, 
                       __ZTIN8ProShade4FuncINS_14Func_normalizeEEE, __ZTIN8ProShade4FuncINS_15Func_ftransformEEE, 
                       __ZTIN8ProShade4FuncINS_22ScalarFunctionTraits_1INS_10abs_traitsEEEEE, 
                       __ZTIN8ProShade4FuncINS_22ScalarFunctionTraits_1INS_10cos_traitsEEEEE, 
                       __ZTIN8ProShade4FuncINS_22ScalarFunctionTraits_1INS_10exp_traitsEEEEE, 
                       __ZTIN8ProShade4FuncINS_22ScalarFunctionTraits_1INS_10sin_traitsEEEEE, 
                       __ZTIN8ProShade4FuncINS_22ScalarFunctionTraits_1INS_11acos_traitsEEEEE, 
                       __ZTIN8ProShade4FuncINS_22ScalarFunctionTraits_1INS_11asin_traitsEEEEE, 
                       __ZTIN8ProShade4FuncINS_22ScalarFunctionTraits_1INS_11atan_traitsEEEEE, 
                       __ZTIN8ProShade4FuncINS_22ScalarFunctionTraits_1INS_11sqrt_traitsEEEEE, 
                       __ZTIN8ProShade4FuncINS_22ScalarFunctionTraits_1INS_12floor_traitsEEEEE, 
                       __ZTIN8ProShade4FuncINS_22ScalarFunctionTraits_2INS_10max_traitsEEEEE, 
                       __ZTIN8ProShade4FuncINS_22ScalarFunctionTraits_2INS_10min_traitsEEEEE, 
                       __ZTIN8ProShade4FuncINS_22ScalarFunctionTraits_2INS_10pow_traitsEEEEE, 
                       __ZTIN8ProShade4FuncINS_22ScalarFunctionTraits_2INS_11step_traitsEEEEE, 
                       __ZTIN8ProShade4FuncINS_22ScalarFunctionTraits_2INS_12equal_traitsEEEEE, 
                       __ZTIN8ProShade4FuncINS_22ScalarFunctionTraits_2INS_15lessThan_traitsEEEEE, 
                       __ZTIN8ProShade4FuncINS_22ScalarFunctionTraits_2INS_15notEqual_traitsEEEEE, 
                       __ZTIN8ProShade4FuncINS_22ScalarFunctionTraits_2INS_18greaterThan_traitsEEEEE, 
                       __ZTIN8ProShade4FuncINS_22ScalarFunctionTraits_2INS_20lessThanEqual_traitsEEEEE, 
                       __ZTIN8ProShade4FuncINS_22ScalarFunctionTraits_2INS_23greaterThanEqual_traitsEEEEE, 
                       __ZTIN8ProShade4FuncINS_22ScalarFunctionTraits_3INS_10mix_traitsEEEEE, 
                       __ZTIN8ProShade4FuncINS_22ScalarFunctionTraits_3INS_12clamp_traitsEEEEE, 
                       __ZTIN8ProShade4FuncINS_22ScalarFunctionTraits_3INS_17smoothstep_traitsEEEEE, 
                       __ZTIN8ProShade4FuncINS_8Func_dotEEE, __ZTIN8ProShade4FuncINS_9Func_condEEE, 
                       __ZTIN8ProShade4FuncINS_9Func_dFdxEEE, __ZTIN8ProShade4FuncINS_9Func_dFdyEEE, 
                       __ZTIN8ProShade4Mat4E, __ZTIN8ProShade4VarTINS_11SamplerNodeEEE, 
                       __ZTIN8ProShade4VarTINS_11UniformNodeEEE, __ZTIN8ProShade4VarTINS_4NodeEEE, 
                       __ZTIN8ProShade4VarTINS_5ConstEEE, __ZTIN8ProShade4VarTINS_8SelectorEEE, 
                       __ZTIN8ProShade4Vec2E, __ZTIN8ProShade4Vec3E, __ZTIN8ProShade4Vec4E, 
                       __ZTIN8ProShade5ConstE, __ZTIN8ProShade5FloatE, __ZTIN8ProShade6OutputE, 
                       __ZTIN8ProShade7SamplerE, __ZTIN8ProShade7UnaryOpINS_3NotEEE, 
                       __ZTIN8ProShade7UnaryOpINS_6NegateEEE, __ZTIN8ProShade7UniformE, 
                       __ZTIN8ProShade7VarBaseE, __ZTIN8ProShade8BinaryOpINS_11GreaterThanEEE, 
                       __ZTIN8ProShade8BinaryOpINS_14LessThanEqualsEEE, __ZTIN8ProShade8BinaryOpINS_17GreaterThanEqualsEEE, 
                       __ZTIN8ProShade8BinaryOpINS_3AddEEE, __ZTIN8ProShade8BinaryOpINS_6DivideEEE, 
                       __ZTIN8ProShade8BinaryOpINS_6EqualsEEE, __ZTIN8ProShade8BinaryOpINS_8LessThanEEE, 
                       __ZTIN8ProShade8BinaryOpINS_8MultiplyEEE, __ZTIN8ProShade8BinaryOpINS_8SubtractEEE, 
                       __ZTIN8ProShade8BinaryOpINS_9NotEqualsEEE, __ZTIN8ProShade8NamedVarE, 
                       __ZTIN8ProShade8SamplerTILi34067ELb1ELb0ELb0EEE, __ZTIN8ProShade8SamplerTILi3553ELb0ELb0ELb0EEE, 
                       __ZTIN8ProShade9PerVertexE, __ZTIN8ProShade9Sampler2DE, __ZTIN8ProShade9Uniform4fE, 
                       __ZTIN9OZElement18OZElement_cropInfoE, __ZTIN9OZElement20OZElement_lrSizeImplE, 
                       __ZTIN9OZElement20OZElement_lrSizeInfoE, __ZTIN9OZElement23OZElement_lrOpacityImplE, 
                       __ZTIN9OZElement25OZElement_lrIntensityImplE, __ZTIN9OZElement26OZElement_reflectivityImplE, 
                       __ZTIN9OZElement28OZElement_dropShadowBlurImplE, __ZTIN9OZElement28OZElement_dropShadowBlurInfoE, 
                       __ZTIN9OZElement28OZElement_reflectionBlurImplE, __ZTIN9OZElement29OZElement_castsReflectionImplE, 
                       __ZTIN9OZElement29OZElement_dropShadowAngleImplE, __ZTIN9OZElement31OZElement_dropShadowOpacityImplE, 
                       __ZTIN9OZElement32OZElement_dropShadowDistanceImplE, __ZTIN9OZElement34OZElement_reflectionEndFalloffImplE, 
                       __ZTIN9OZElement34OZElement_reflectionEndFalloffInfoE, __ZTIN9OZElement36OZElement_reflectionBeginFalloffImplE, 
                       __ZTIN9OZElement36OZElement_reflectionBeginFalloffInfoE, __ZTIN9OZElement39OZElement_reflectionFalloffExponentImplE, 
                       __ZTIN9OZElement39OZElement_reflectionFalloffExponentInfoE, 
                       __ZTIN9OZFootage19OZFootage_defogInfoE, __ZTIN9OZFootage21OZFootage_kneeLowInfoE, 
                       __ZTIN9OZFootage22OZFootage_exposureInfoE, __ZTIN9OZFootage22OZFootage_kneeHighInfoE, 
                       __ZTIN9OZFootage24OZFootage_fixedWidthInfoE, __ZTIN9OZFootage25OZFootage_fixedHeightInfoE, 
                       __ZTIN9PSEmitter22PSEmitter_spinChanImplE, __ZTIN9PSEmitter22PSEmitter_spinChanInfoE, 
                       __ZTIN9PSEmitter23PSEmitter_speedChanImplE, __ZTIN9PSEmitter23PSEmitter_speedChanInfoE, 
                       __ZTIN9PSEmitter24PSEmitter_radiusChanImplE, __ZTIN9PSEmitter24PSEmitter_radiusChanInfoE, 
                       __ZTIN9PSEmitter26PSEmitter_lifetimeChanImplE, __ZTIN9PSEmitter26PSEmitter_lifetimeChanInfoE, 
                       __ZTIN9PSEmitter26PSEmitter_rectSizeChanImplE, __ZTIN9PSEmitter26PSEmitter_rectSizeChanInfoE, 
                       __ZTIN9PSEmitter27PSEmitter_birthRateChanImplE, __ZTIN9PSEmitter27PSEmitter_birthRateChanInfoE, 
                       __ZTIN9PSEmitter27PSEmitter_numPointsChanImplE, __ZTIN9PSEmitter27PSEmitter_numPointsChanInfoE, 
                       __ZTIN9PSEmitter27PSEmitter_rectWidthChanImplE, __ZTIN9PSEmitter27PSEmitter_wavePhaseChanInfoE, 
                       __ZTIN9PSEmitter28PSEmitter_initialNumChanImplE, __ZTIN9PSEmitter28PSEmitter_numPointsUChanImplE, 
                       __ZTIN9PSEmitter28PSEmitter_numPointsUChanInfoE, __ZTIN9PSEmitter28PSEmitter_numPointsVChanImplE, 
                       __ZTIN9PSEmitter28PSEmitter_numPointsVChanInfoE, __ZTIN9PSEmitter28PSEmitter_numPointsWChanImplE, 
                       __ZTIN9PSEmitter28PSEmitter_numPointsWChanInfoE, __ZTIN9PSEmitter28PSEmitter_tileOffsetChanImplE, 
                       __ZTIN9PSEmitter28PSEmitter_tileOffsetChanInfoE, __ZTIN9PSEmitter28PSEmitter_tintAmountChanImplE, 
                       __ZTIN9PSEmitter29PSEmitter_emitPatternChanImplE, __ZTIN9PSEmitter29PSEmitter_renderSpaceChanImplE, 
                       __ZTIN9PSEmitter29PSEmitter_spiralCoeffChanImplE, __ZTIN9PSEmitter29PSEmitter_spiralCoeffChanInfoE, 
                       __ZTIN9PSEmitter29PSEmitter_strokeWidthChanImplE, __ZTIN9PSEmitter29PSEmitter_strokeWidthChanInfoE, 
                       __ZTIN9PSEmitter29PSEmitter_waveDampingChanImplE, __ZTIN9PSEmitter29PSEmitter_waveDampingChanInfoE, 
                       __ZTIN9PSEmitter30PSEmitter_pointsPerArmChanImplE, __ZTIN9PSEmitter30PSEmitter_pointsPerArmChanInfoE, 
                       __ZTIN9PSEmitter31PSEmitter_boxBuildStyleChanImplE, __ZTIN9PSEmitter31PSEmitter_emissionRangeChanImplE, 
                       __ZTIN9PSEmitter31PSEmitter_numRadialArmsChanImplE, __ZTIN9PSEmitter31PSEmitter_numRadialArmsChanInfoE, 
                       __ZTIN9PSEmitter31PSEmitter_outlineOffsetChanImplE, __ZTIN9PSEmitter31PSEmitter_outlineOffsetChanInfoE, 
                       __ZTIN9PSEmitter31PSEmitter_strokeWidthOSChanImplE, __ZTIN9PSEmitter31PSEmitter_strokeWidthOSChanInfoE, 
                       __ZTIN9PSEmitter31PSEmitter_waveAmplitudeChanImplE, __ZTIN9PSEmitter31PSEmitter_waveFrequencyChanImplE, 
                       __ZTIN9PSEmitter31PSEmitter_waveFrequencyChanInfoE, __ZTIN9PSEmitter32PSEmitter_boxBuildOriginChanImplE, 
                       __ZTIN9PSEmitter32PSEmitter_rectBuildStyleChanImplE, __ZTIN9PSEmitter33PSEmitter_openBuildOriginChanImplE, 
                       __ZTIN9PSEmitter33PSEmitter_rectBuildOriginChanImplE, __ZTIN9PSEmitter34PSEmitter_emissionLatitudeChanImplE, 
                       __ZTIN9PSEmitter35PSEmitter_closedBuildOriginChanImplE, __ZTIN9PSEmitter35PSEmitter_emissionLongitudeChanImplE, 
                       __ZTIN9PSEmitter35PSEmitter_radialBuildOriginChanImplE, __ZTINSt3__110__back_refIcEE, 
                       __ZTINSt3__110__function6__baseIF7PCCFRefIPK8__CTFontERK8PCStringdbRK17CGAffineTransformEEE, 
                       __ZTINSt3__110__function6__baseIF7PCNSRefIP12NSColorSpaceEP12CGColorSpaceEEE, 
                       __ZTINSt3__110__function6__baseIF9PCHash128RK18PCColorSpaceHandleEEE, 
                       __ZTINSt3__110__function6__baseIFNS_10shared_ptrI15vImageConverterEEP12CGColorSpaceS6_EEE, 
                       __ZTINSt3__110__function6__funcIPF7PCCFRefIPK8__CTFontERK8PCStringdbRK17CGAffineTransformENS_9allocatorISE_EESD_EE, 
                       __ZTINSt3__110__function6__funcIPF7PCNSRefIP12NSColorSpaceEP12CGColorSpaceENS_9allocatorIS9_EES8_EE, 
                       __ZTINSt3__110__function6__funcIPF9PCHash128RK18PCColorSpaceHandleENS_9allocatorIS7_EES6_EE, 
                       __ZTINSt3__110__function6__funcIPFNS_10shared_ptrI15vImageConverterEEP12CGColorSpaceS6_ENS_9allocatorIS8_EES7_EE, 
                       __ZTINSt3__110__l_anchorIcEE, __ZTINSt3__110__r_anchorIcEE, 
                       __ZTINSt3__111__alternateIcEE, __ZTINSt3__111__end_stateIcEE, 
                       __ZTINSt3__111__lookaheadIcNS_12regex_traitsIcEEEE, __ZTINSt3__111__match_anyIcEE, 
                       __ZTINSt3__112__match_charIcEE, __ZTINSt3__113__empty_stateIcEE, 
                       __ZTINSt3__113__vector_baseIN2cc7point_tIdLb0ELb0EEENS_9allocatorIS3_EEEE, 
                       __ZTINSt3__115__has_one_stateIcEE, __ZTINSt3__115__word_boundaryIcNS_12regex_traitsIcEEEE, 
                       __ZTINSt3__115basic_stringbufIcNS_11char_traitsIcEENS_9allocatorIcEEEE, 
                       __ZTINSt3__116__back_ref_icaseIcNS_12regex_traitsIcEEEE, __ZTINSt3__116__owns_one_stateIcEE, 
                       __ZTINSt3__117__owns_two_statesIcEE, __ZTINSt3__117__repeat_one_loopIcEE, 
                       __ZTINSt3__117bad_function_callE, __ZTINSt3__118__back_ref_collateIcNS_12regex_traitsIcEEEE, 
                       __ZTINSt3__118__match_char_icaseIcNS_12regex_traitsIcEEEE, 
                       __ZTINSt3__118basic_stringstreamIcNS_11char_traitsIcEENS_9allocatorIcEEEE, 
                       __ZTINSt3__119basic_ostringstreamIcNS_11char_traitsIcEENS_9allocatorIcEEEE, 
                       __ZTINSt3__120__bracket_expressionIcNS_12regex_traitsIcEEEE, 
                       __ZTINSt3__120__match_char_collateIcNS_12regex_traitsIcEEEE, 
                       __ZTINSt3__120__shared_ptr_emplaceI10PCBitmap_tI11PCGrayPixelIN7ProCore7Private17PixelInfoTemplateILN13PCPixelFormat12ChannelOrderE11EEEEENS_9allocatorISA_EEEE, 
                       __ZTINSt3__120__shared_ptr_emplaceI10PCBitmap_tI11PCGrayPixelIN7ProCore7Private17PixelInfoTemplateILN13PCPixelFormat12ChannelOrderE14EEEEENS_9allocatorISA_EEEE, 
                       __ZTINSt3__120__shared_ptr_emplaceI10PCBitmap_tI11PCGrayPixelIN7ProCore7Private17PixelInfoTemplateILN13PCPixelFormat12ChannelOrderE1EEEEENS_9allocatorISA_EEEE, 
                       __ZTINSt3__120__shared_ptr_emplaceI10PCBitmap_tI11PCGrayPixelIN7ProCore7Private17PixelInfoTemplateILN13PCPixelFormat12ChannelOrderE7EEEEENS_9allocatorISA_EEEE, 
                       __ZTINSt3__120__shared_ptr_emplaceI10PCBitmap_tI16PCGrayAlphaPixelIN7ProCore7Private17PixelInfoTemplateILN13PCPixelFormat12ChannelOrderE12EEEEENS_9allocatorISA_EEEE, 
                       __ZTINSt3__120__shared_ptr_emplaceI10PCBitmap_tI16PCGrayAlphaPixelIN7ProCore7Private17PixelInfoTemplateILN13PCPixelFormat12ChannelOrderE15EEEEENS_9allocatorISA_EEEE, 
                       __ZTINSt3__120__shared_ptr_emplaceI10PCBitmap_tI16PCGrayAlphaPixelIN7ProCore7Private17PixelInfoTemplateILN13PCPixelFormat12ChannelOrderE2EEEEENS_9allocatorISA_EEEE, 
                       __ZTINSt3__120__shared_ptr_emplaceI10PCBitmap_tI16PCGrayAlphaPixelIN7ProCore7Private17PixelInfoTemplateILN13PCPixelFormat12ChannelOrderE8EEEEENS_9allocatorISA_EEEE, 
                       __ZTINSt3__120__shared_ptr_emplaceI10PCBitmap_tI8PCPixel3IN7ProCore7Private17PixelInfoTemplateILN13PCPixelFormat12ChannelOrderE9EEEEENS_9allocatorISA_EEEE, 
                       __ZTINSt3__120__shared_ptr_emplaceI10PCBitmap_tI8PCPixel4IN7ProCore7Private17PixelInfoTemplateILN13PCPixelFormat12ChannelOrderE10EEEEENS_9allocatorISA_EEEE, 
                       __ZTINSt3__120__shared_ptr_emplaceI10PCBitmap_tI8PCPixel4IN7ProCore7Private17PixelInfoTemplateILN13PCPixelFormat12ChannelOrderE13EEEEENS_9allocatorISA_EEEE, 
                       __ZTINSt3__120__shared_ptr_emplaceI10PCBitmap_tI8PCPixel4IN7ProCore7Private17PixelInfoTemplateILN13PCPixelFormat12ChannelOrderE16EEEEENS_9allocatorISA_EEEE, 
                       __ZTINSt3__120__shared_ptr_emplaceI10PCBitmap_tI8PCPixel4IN7ProCore7Private17PixelInfoTemplateILN13PCPixelFormat12ChannelOrderE17EEEEENS_9allocatorISA_EEEE, 
                       __ZTINSt3__120__shared_ptr_emplaceI10PCBitmap_tI8PCPixel4IN7ProCore7Private17PixelInfoTemplateILN13PCPixelFormat12ChannelOrderE3EEEEENS_9allocatorISA_EEEE, 
                       __ZTINSt3__120__shared_ptr_emplaceI10PCBitmap_tI8PCPixel4IN7ProCore7Private17PixelInfoTemplateILN13PCPixelFormat12ChannelOrderE4EEEEENS_9allocatorISA_EEEE, 
                       __ZTINSt3__120__shared_ptr_emplaceI10PCBitmap_tI8PCPixel4IN7ProCore7Private17PixelInfoTemplateILN13PCPixelFormat12ChannelOrderE5EEEEENS_9allocatorISA_EEEE, 
                       __ZTINSt3__120__shared_ptr_emplaceI10PCBitmap_tI8PCPixel4IN7ProCore7Private17PixelInfoTemplateILN13PCPixelFormat12ChannelOrderE6EEEEENS_9allocatorISA_EEEE, 
                       __ZTINSt3__120__shared_ptr_emplaceI11TXTextStyleNS_9allocatorIS1_EEEE, 
                       __ZTINSt3__120__shared_ptr_emplaceI12TXTextObjectNS_9allocatorIS1_EEEE, 
                       __ZTINSt3__120__shared_ptr_emplaceI14PCWorkingColorNS_9allocatorIS1_EEEE, 
                       __ZTINSt3__120__shared_ptr_emplaceI14PGMetalTextureNS_9allocatorIS1_EEEE, 
                       __ZTINSt3__120__shared_ptr_emplaceI15BumpTextureImplNS_9allocatorIS1_EEEE, 
                       __ZTINSt3__120__shared_ptr_emplaceI15CubeTextureImplNS_9allocatorIS1_EEEE, 
                       __ZTINSt3__120__shared_ptr_emplaceI17SimpleTextureImplNS_9allocatorIS1_EEEE, 
                       __ZTINSt3__120__shared_ptr_emplaceI23LiTextureStoreTokenImplNS_9allocatorIS1_EEEE, 
                       __ZTINSt3__120__shared_ptr_emplaceI24SpecularAngleTextureImplNS_9allocatorIS1_EEEE, 
                       __ZTINSt3__120__shared_ptr_emplaceI25LiRenderQueueTextureOwnerNS_9allocatorIS1_EEEE, 
                       __ZTINSt3__120__shared_ptr_emplaceI32PVMtlTexturePoolAllocationPolicyNS_9allocatorIS1_EEEE, 
                       __ZTINSt3__120__shared_ptr_emplaceI7PCMutexNS_9allocatorIS1_EEEE, 
                       __ZTINSt3__120__shared_ptr_emplaceIN5ProGL12ObjectHandle4DataENS_9allocatorIS3_EEEE, 
                       __ZTINSt3__120__shared_ptr_emplaceIN5ProGL17BitmapTextureDataENS_9allocatorIS2_EEEE, 
                       __ZTINSt3__120__shared_ptr_pointerIP10CompShaderNS_10shared_ptrIN5ProGL7ProgramEE27__shared_ptr_default_deleteIS5_S1_EENS_9allocatorIS1_EEEE, 
                       __ZTINSt3__120__shared_ptr_pointerIP10CopyShaderNS_10shared_ptrIN5ProGL7ProgramEE27__shared_ptr_default_deleteIS5_S1_EENS_9allocatorIS1_EEEE, 
                       __ZTINSt3__120__shared_ptr_pointerIP10HGRendererNS_10shared_ptrIS1_E27__shared_ptr_default_deleteIS1_S1_EENS_9allocatorIS1_EEEE, 
                       __ZTINSt3__120__shared_ptr_pointerIP10HGRendererPFvS2_ENS_9allocatorIS1_EEEE, 
                       __ZTINSt3__120__shared_ptr_pointerIP10PCBitmap_tI11PCGrayPixelIN7ProCore7Private17PixelInfoTemplateILN13PCPixelFormat12ChannelOrderE1EEEEENS_10shared_ptrI8PCBitmapE27__shared_ptr_default_deleteISD_SA_EENS_9allocatorISA_EEEE, 
                       __ZTINSt3__120__shared_ptr_pointerIP10PCBitmap_tI11PCGrayPixelIN7ProCore7Private17PixelInfoTemplateILN13PCPixelFormat12ChannelOrderE7EEEEENS_10shared_ptrI8PCBitmapE27__shared_ptr_default_deleteISD_SA_EENS_9allocatorISA_EEEE, 
                       __ZTINSt3__120__shared_ptr_pointerIP10PCBitmap_tI8PCPixel4IN7ProCore7Private17PixelInfoTemplateILN13PCPixelFormat12ChannelOrderE10EEEEENS_10shared_ptrI8PCBitmapE27__shared_ptr_default_deleteISD_SA_EENS_9allocatorISA_EEEE, 
                       __ZTINSt3__120__shared_ptr_pointerIP10PCBitmap_tI8PCPixel4IN7ProCore7Private17PixelInfoTemplateILN13PCPixelFormat12ChannelOrderE3EEEEENS_10shared_ptrI8PCBitmapE27__shared_ptr_default_deleteISD_SA_EENS_9allocatorISA_EEEE, 
                       __ZTINSt3__120__shared_ptr_pointerIP10PCBitmap_tI8PCPixel4IN7ProCore7Private17PixelInfoTemplateILN13PCPixelFormat12ChannelOrderE5EEEEENS_10shared_ptrI8PCBitmapE27__shared_ptr_default_deleteISD_SA_EENS_9allocatorISA_EEEE, 
                       __ZTINSt3__120__shared_ptr_pointerIP11PGTexture1D15PGTextureHelperNS_9allocatorIS1_EEEE, 
                       __ZTINSt3__120__shared_ptr_pointerIP11PGTexture2D15PGTextureHelperNS_9allocatorIS1_EEEE, 
                       __ZTINSt3__120__shared_ptr_pointerIP11TXTextStyleNS_10shared_ptrIS1_E27__shared_ptr_default_deleteIS1_S1_EENS_9allocatorIS1_EEEE, 
                       __ZTINSt3__120__shared_ptr_pointerIP13PGTextureRect15PGTextureHelperNS_9allocatorIS1_EEEE, 
                       __ZTINSt3__120__shared_ptr_pointerIP13TXHeliumGlyphNS_10shared_ptrIS1_E27__shared_ptr_default_deleteIS1_S1_EENS_9allocatorIS1_EEEE, 
                       __ZTINSt3__120__shared_ptr_pointerIP14CGDataProviderPFvS2_ENS_9allocatorIS1_EEEE, 
                       __ZTINSt3__120__shared_ptr_pointerIP14__CFDictionaryPFvPKvENS_9allocatorIS1_EEEE, 
                       __ZTINSt3__120__shared_ptr_pointerIP15vImageConverterPFvS2_ENS_9allocatorIS1_EEEE, 
                       __ZTINSt3__120__shared_ptr_pointerIP16PGTextureCubeMap15PGTextureHelperNS_9allocatorIS1_EEEE, 
                       __ZTINSt3__120__shared_ptr_pointerIP18CGImageDestinationPFvPKvENS_9allocatorIS1_EEEE, 
                       __ZTINSt3__120__shared_ptr_pointerIP18DepthFilterProgramNS_10shared_ptrIN5ProGL7ProgramEE27__shared_ptr_default_deleteIS5_S1_EENS_9allocatorIS1_EEEE, 
                       __ZTINSt3__120__shared_ptr_pointerIP18PGFramebufferStackNS_10shared_ptrIS1_E27__shared_ptr_default_deleteIS1_S1_EENS_9allocatorIS1_EEEE, 
                       __ZTINSt3__120__shared_ptr_pointerIP18TXCoreTextTypefaceNS_10shared_ptrI10OZFontFaceE27__shared_ptr_default_deleteIS4_S1_EENS_9allocatorIS1_EEEE, 
                       __ZTINSt3__120__shared_ptr_pointerIP18TXCoreTextTypefaceNS_10shared_ptrIS1_E27__shared_ptr_default_deleteIS1_S1_EENS_9allocatorIS1_EEEE, 
                       __ZTINSt3__120__shared_ptr_pointerIP29DeleteRenderbufferInstructionNS_10shared_ptrIN5ProGL19DeletionInstructionEE27__shared_ptr_default_deleteIS5_S1_EENS_9allocatorIS1_EEEE, 
                       __ZTINSt3__120__shared_ptr_pointerIP5PCURLNS_10shared_ptrIS1_E27__shared_ptr_default_deleteIS1_S1_EENS_9allocatorIS1_EEEE, 
                       __ZTINSt3__120__shared_ptr_pointerIP7CGColorPFvPKvENS_9allocatorIS1_EEEE, 
                       __ZTINSt3__120__shared_ptr_pointerIP7CGImagePFvS2_ENS_9allocatorIS1_EEEE, 
                       __ZTINSt3__120__shared_ptr_pointerIP7PCCacheI9PCHash128N14PGTextureCache9CacheDataE10PCSpinLockENS_10shared_ptrIS6_E27__shared_ptr_default_deleteIS6_S6_EENS_9allocatorIS6_EEEE, 
                       __ZTINSt3__120__shared_ptr_pointerIP7PCCacheI9PCHash128N19OZMetalTextureCache9CacheDataE10PCSpinLockENS_10shared_ptrIS6_E27__shared_ptr_default_deleteIS6_S6_EENS_9allocatorIS6_EEEE, 
                       __ZTINSt3__120__shared_ptr_pointerIP7PCMutexNS_10shared_ptrIS1_E27__shared_ptr_default_deleteIS1_S1_EENS_9allocatorIS1_EEEE, 
                       __ZTINSt3__120__shared_ptr_pointerIP7__sFILEPFiS2_ENS_9allocatorIS1_EEEE, 
                       __ZTINSt3__120__shared_ptr_pointerIP8PCBitmapNS_10shared_ptrIS1_E27__shared_ptr_default_deleteIS1_S1_EENS_9allocatorIS1_EEEE, 
                       __ZTINSt3__120__shared_ptr_pointerIP8PCStringNS_10shared_ptrIS1_E27__shared_ptr_default_deleteIS1_S1_EENS_9allocatorIS1_EEEE, 
                       __ZTINSt3__120__shared_ptr_pointerIP9CGContextPFvS2_ENS_9allocatorIS1_EEEE, 
                       __ZTINSt3__120__shared_ptr_pointerIP9PGContext16PGContextDeleterNS_9allocatorIS1_EEEE, 
                       __ZTINSt3__120__shared_ptr_pointerIPK10__CFStringPFvPKvENS_9allocatorIS2_EEEE, 
                       __ZTINSt3__120__shared_ptr_pointerIPN12LiSolidUtils24TransparencyCountProgramENS_10shared_ptrIN5ProGL7ProgramEE27__shared_ptr_default_deleteIS6_S2_EENS_9allocatorIS2_EEEE, 
                       __ZTINSt3__120__shared_ptr_pointerIPN12LiSolidUtils25CirclesOfConfusionProgramENS_10shared_ptrIN5ProGL7ProgramEE27__shared_ptr_default_deleteIS6_S2_EENS_9allocatorIS2_EEEE, 
                       __ZTINSt3__120__shared_ptr_pointerIPN5ProGL7Private13NSContextImplENS_10shared_ptrINS2_11ContextImplEE27__shared_ptr_default_deleteIS6_S3_EENS_9allocatorIS3_EEEE, 
                       __ZTINSt3__120__shared_ptr_pointerIPN5ProGL7Private14CGLContextImplENS_10shared_ptrINS2_11ContextImplEE27__shared_ptr_default_deleteIS6_S3_EENS_9allocatorIS3_EEEE, 
                       __ZTINSt3__120__shared_ptr_pointerIPN5ProGL7Private15LazyTextureImplENS_10shared_ptrIS3_E27__shared_ptr_default_deleteIS3_S3_EENS_9allocatorIS3_EEEE, 
                       __ZTINSt3__120__shared_ptr_pointerIPN5ProGL7Private15ProgramFactory0I10CompShaderEENS_10shared_ptrINS2_17ProgramHandleImpl7FactoryEE27__shared_ptr_default_deleteIS9_S5_EENS_9allocatorIS5_EEEE, 
                       __ZTINSt3__120__shared_ptr_pointerIPN5ProGL7Private15ProgramFactory0I10CopyShaderEENS_10shared_ptrINS2_17ProgramHandleImpl7FactoryEE27__shared_ptr_default_deleteIS9_S5_EENS_9allocatorIS5_EEEE, 
                       __ZTINSt3__120__shared_ptr_pointerIPN5ProGL7Private15ProgramFactory0I18DepthFilterProgramEENS_10shared_ptrINS2_17ProgramHandleImpl7FactoryEE27__shared_ptr_default_deleteIS9_S5_EENS_9allocatorIS5_EEEE, 
                       __ZTINSt3__120__shared_ptr_pointerIPN5ProGL7Private15ProgramFactory0IN12LiSolidUtils24TransparencyCountProgramEEENS_10shared_ptrINS2_17ProgramHandleImpl7FactoryEE27__shared_ptr_default_deleteISA_S6_EENS_9allocatorIS6_EEEE, 
                       __ZTINSt3__120__shared_ptr_pointerIPN5ProGL7Private15ProgramFactory0IN12LiSolidUtils25CirclesOfConfusionProgramEEENS_10shared_ptrINS2_17ProgramHandleImpl7FactoryEE27__shared_ptr_default_deleteISA_S6_EENS_9allocatorIS6_EEEE, 
                       __ZTINSt3__120__shared_ptr_pointerIPN5ProGL7Private16RenderbufferImplENS_10shared_ptrIS3_E27__shared_ptr_default_deleteIS3_S3_EENS_9allocatorIS3_EEEE, 
                       __ZTINSt3__120__shared_ptr_pointerIPN5ProGL7Private17ProgramHandleImplENS_10shared_ptrIS3_E27__shared_ptr_default_deleteIS3_S3_EENS_9allocatorIS3_EEEE, 
                       __ZTINSt3__120__shared_ptr_pointerIPN5ProGL7Private6ShaderENS_10shared_ptrIS3_E27__shared_ptr_default_deleteIS3_S3_EENS_9allocatorIS3_EEEE, 
                       __ZTINSt3__120__shared_ptr_pointerIPNS_12basic_stringIcNS_11char_traitsIcEENS_9allocatorIcEEEENS_10shared_ptrIS6_E27__shared_ptr_default_deleteIS6_S6_EENS4_IS6_EEEE, 
                       __ZTINSt3__120__shared_ptr_pointerIPNS_13__empty_stateIcEENS_10shared_ptrIS2_E27__shared_ptr_default_deleteIS2_S2_EENS_9allocatorIS2_EEEE, 
                       __ZTINSt3__120__shared_ptr_pointerIPNS_6vectorIhNS_9allocatorIhEEEENS_10shared_ptrIS4_E27__shared_ptr_default_deleteIS4_S4_EENS2_IS4_EEEE, 
                       __ZTINSt3__120__shared_ptr_pointerIPcNS_10shared_ptrIcE27__shared_ptr_default_deleteIccEENS_9allocatorIcEEEE, 
                       __ZTINSt3__120__vector_base_commonILb1EEE, __ZTINSt3__121__empty_non_own_stateIcEE, 
                       __ZTINSt3__123__match_any_but_newlineIcEE, __ZTINSt3__123enable_shared_from_thisI7OZStyleEE, 
                       __ZTINSt3__123enable_shared_from_thisI7PCImageEE, __ZTINSt3__126__end_marked_subexpressionIcEE, 
                       __ZTINSt3__128__begin_marked_subexpressionIcEE, __ZTINSt3__13setI12OZTimeMarkerNS_4lessIS1_EENS_9allocatorIS1_EEEE, 
                       __ZTINSt3__13setI7OZGuideNS_4lessIS1_EENS_9allocatorIS1_EEEE, 
                       __ZTINSt3__16__loopIcEE, __ZTINSt3__16__nodeIcEE, __ZTINSt3__16vectorIN2cc7point_tIdLb0ELb0EEENS_9allocatorIS3_EEEE, 
                       __ZTIPF7PCCFRefIPK8__CTFontERK8PCStringdbRK17CGAffineTransformE, 
                       __ZTIPF7PCNSRefIP12NSColorSpaceEP12CGColorSpaceE, __ZTIPF9PCHash128RK18PCColorSpaceHandleE, 
                       __ZTIPFNSt3__110shared_ptrI15vImageConverterEEP12CGColorSpaceS4_E, 
                       __ZTS10CompShader, __ZTS10CopyShader, __ZTS10HCopyAlpha, __ZTS10HLumaKeyer, 
                       __ZTS10OZCurveInt, __ZTS10PCBitmap_tI11PCGrayPixelIN7ProCore7Private17PixelInfoTemplateILN13PCPixelFormat12ChannelOrderE11EEEEE, 
                       __ZTS10PCBitmap_tI11PCGrayPixelIN7ProCore7Private17PixelInfoTemplateILN13PCPixelFormat12ChannelOrderE14EEEEE, 
                       __ZTS10PCBitmap_tI11PCGrayPixelIN7ProCore7Private17PixelInfoTemplateILN13PCPixelFormat12ChannelOrderE1EEEEE, 
                       __ZTS10PCBitmap_tI11PCGrayPixelIN7ProCore7Private17PixelInfoTemplateILN13PCPixelFormat12ChannelOrderE7EEEEE, 
                       __ZTS10PCBitmap_tI16PCGrayAlphaPixelIN7ProCore7Private17PixelInfoTemplateILN13PCPixelFormat12ChannelOrderE12EEEEE, 
                       __ZTS10PCBitmap_tI16PCGrayAlphaPixelIN7ProCore7Private17PixelInfoTemplateILN13PCPixelFormat12ChannelOrderE15EEEEE, 
                       __ZTS10PCBitmap_tI16PCGrayAlphaPixelIN7ProCore7Private17PixelInfoTemplateILN13PCPixelFormat12ChannelOrderE2EEEEE, 
                       __ZTS10PCBitmap_tI16PCGrayAlphaPixelIN7ProCore7Private17PixelInfoTemplateILN13PCPixelFormat12ChannelOrderE8EEEEE, 
                       __ZTS10PCBitmap_tI8PCPixel3IN7ProCore7Private17PixelInfoTemplateILN13PCPixelFormat12ChannelOrderE9EEEEE, 
                       __ZTS10PCBitmap_tI8PCPixel4IN7ProCore7Private17PixelInfoTemplateILN13PCPixelFormat12ChannelOrderE10EEEEE, 
                       __ZTS10PCBitmap_tI8PCPixel4IN7ProCore7Private17PixelInfoTemplateILN13PCPixelFormat12ChannelOrderE13EEEEE, 
                       __ZTS10PCBitmap_tI8PCPixel4IN7ProCore7Private17PixelInfoTemplateILN13PCPixelFormat12ChannelOrderE16EEEEE, 
                       __ZTS10PCBitmap_tI8PCPixel4IN7ProCore7Private17PixelInfoTemplateILN13PCPixelFormat12ChannelOrderE17EEEEE, 
                       __ZTS10PCBitmap_tI8PCPixel4IN7ProCore7Private17PixelInfoTemplateILN13PCPixelFormat12ChannelOrderE3EEEEE, 
                       __ZTS10PCBitmap_tI8PCPixel4IN7ProCore7Private17PixelInfoTemplateILN13PCPixelFormat12ChannelOrderE4EEEEE, 
                       __ZTS10PCBitmap_tI8PCPixel4IN7ProCore7Private17PixelInfoTemplateILN13PCPixelFormat12ChannelOrderE5EEEEE, 
                       __ZTS10PCBitmap_tI8PCPixel4IN7ProCore7Private17PixelInfoTemplateILN13PCPixelFormat12ChannelOrderE6EEEEE, 
                       __ZTS10PCPtrArrayI13LiPlanarGroupE, __ZTS10PCPtrArrayI6LiSeamE, 
                       __ZTS10PCPtrArrayI7LiShardE, __ZTS10PCPtrArrayI8LiDrawerE, 
                       __ZTS11HAlphaKeyer, __ZTS11HWrapMirror, __ZTS11HWrapRepeat, 
                       __ZTS11LiAgentData, __ZTS11OZCurveBool, __ZTS11OZCurveEnum, 
                       __ZTS11PAEKeyerPie, __ZTS11PCBitmapRep, __ZTS12HMaskCompAdd, 
                       __ZTS12LiHeMaxBlend, __ZTS12OZCurveAngle, __ZTS12OZRenderNode, 
                       __ZTS12OZValueCacheI17OZBoundsCacheItemE, __ZTS12OZValueCacheI18OZFramingCacheItemE, 
                       __ZTS12OZValueCacheI18OZPointAtCacheItemE, __ZTS12OZValueCacheI21OZZoomObjectCacheItemE, 
                       __ZTS12PCArray_base, __ZTS12PCSerializer, __ZTS12PGHGImageRef, 
                       __ZTS13FilterProgram, __ZTS13HChannelMixer, __ZTS13OMAutoSamples, 
                       __ZTS13OMSamplesElem, __ZTS13OZCPPObserver, __ZTS13OZCoreGlobals, 
                       __ZTS13OZCurveDouble, __ZTS13OZFactoryBase, __ZTS13OZOrthoCamera, 
                       __ZTS13OZRig_Factory, __ZTS13OZSplineState, __ZTS13PCShared_base, 
                       __ZTS14OZCurvePercent, __ZTS14OZStyleFactory, __ZTS14PCBlendOptions, 
                       __ZTS14PGTextureCache, __ZTS14PSTextureCache, __ZTS14PokeDistortion, 
                       __ZTS14ShadowMapsLazy, __ZTS15HGComputeDevice, __ZTS15OZCurrentThread, 
                       __ZTS15OZEffectFactory, __ZTS15OZGroup_Factory, __ZTS15OZLayer_Factory, 
                       __ZTS15OZLight_Factory, __ZTS15PCGLSLException, __ZTS15PCIgnoreElement, 
                       __ZTS15PGTextureHelper, __ZTS15PSPaint_Factory, __ZTS15PVRenderLinkJob, 
                       __ZTS16HBackgroundColor, __ZTS16HMaskCompReplace, __ZTS16OMHisto_16x16x16, 
                       __ZTS16OMHisto_32x32x32, __ZTS16OZCamera_Factory, __ZTS16OZChannelFactory, 
                       __ZTS16OZCurveInterface, __ZTS16OZEffect_Factory, __ZTS16OZMaterialBumpIF, 
                       __ZTS16OZValueCacheItem, __ZTS16PCRecursiveMutex, __ZTS16PGContextDeleter, 
                       __ZTS16TXSelectionRange, __ZTS17HMaskCompSubtract, __ZTS17LiAgentMatrixData, 
                       __ZTS17LiCachingDelegate, __ZTS17LiDrawerCollector, __ZTS17OZAddRemoveChanIF, 
                       __ZTS17OZBehaviorFactory, __ZTS17OZBoundsCacheItem, __ZTS17OZChannelBoolInfo, 
                       __ZTS17OZChannelSeedImpl, __ZTS17OZChannelSeedInfo, __ZTS17OZChannelTextInfo, 
                       __ZTS17OZChannel_Factory, __ZTS17OZElement_Factory, __ZTS17OZFootage_Factory, 
                       __ZTS17OZMaterialFactory, __ZTS17OZParticlePaintIF, __ZTS17OZSimulatedObject, 
                       __ZTS17OZSimulatedSystem, __ZTS17OZStringTablesMap, __ZTS17PAEKeyerOMKeyer2D, 
                       __ZTS17PCSingletonObjectI7PCMutexN13PCConsoleLock12SingletonTagELi1000000000EE, 
                       __ZTS17PCSystemException, __ZTS17PSEmitter_Factory, __ZTS18DepthFilterProgram, 
                       __ZTS18HGCPUComputeDevice, __ZTS18HGInternalCompNode, __ZTS18HMaskCompFirstPass, 
                       __ZTS18HMaskCompIntersect, __ZTS18LiGradientEnvCache, __ZTS18LiHeShadowBlendAdd, 
                       __ZTS18LiTextureStoreImpl, __ZTS18OZBehavior_Factory, __ZTS18OZChannelAngleImpl, 
                       __ZTS18OZChannelAngleInfo, __ZTS18OZChannelCurveInfo, __ZTS18OZChannelEnumLayer, 
                       __ZTS18OZChannelFrameImpl, __ZTS18OZChannelFrameInfo, __ZTS18OZFramingCacheItem, 
                       __ZTS18OZFxFilter_Factory, __ZTS18OZPointAtCacheItem, __ZTS18OZSceneNodeFactory, 
                       __ZTS18PCColorSpaceHandle, __ZTS18PCLightWrapOptions, __ZTS18PC_Sp_counted_base, 
                       __ZTS18TXTextStyleManager, __ZTS19LoadableInstruction, __ZTS19OZChanObjectRefInfo, 
                       __ZTS19OZChannel2D_Factory, __ZTS19OZChannel3D_Factory, __ZTS19OZChannelButtonInfo, 
                       __ZTS19OZChannelDoubleImpl, __ZTS19OZChannelDoubleInfo, __ZTS19OZChannelEnumRetime, 
                       __ZTS19OZChannelUint16Impl, __ZTS19OZChannelUint16Info, __ZTS19OZChannelUint32Impl, 
                       __ZTS19OZChannelUint32Info, __ZTS19OZImageMask_Factory, __ZTS19OZMetalTextureCache, 
                       __ZTS19OZRigWidget_Factory, __ZTS19OZRotoshape_Factory, __ZTS19OZSceneNode_Factory, 
                       __ZTS19PCBadIndexException, __ZTS19PVCVPixelBufferPool, __ZTS19TXTextInput_Factory, 
                       __ZTS19TXTextStyle_Factory, __ZTS20LiAgentTransformData, __ZTS20OZChannelDecibelImpl, 
                       __ZTS20OZChannelDecibelInfo, __ZTS20OZChannelPercentInfo, 
                       __ZTS20OZCustomInterpolator, __ZTS20OZGetStateBehaviorIF, 
                       __ZTS20PCAssertionException, __ZTS20PGARBFragmentProgram, 
                       __ZTS20PSOwnedObjectWrapper, __ZTS20PSPaintPType_Factory, 
                       __ZTS20PSReplicator_Factory, __ZTS20PVOwnedBufferStorage, 
                       __ZTS20TXTextLayout_Factory, __ZTS21HConvolvePass8Tap8Bit, 
                       __ZTS21OZChannelBase_Factory, __ZTS21OZChannelBool_Factory, 
                       __ZTS21OZChannelCrop_Factory, __ZTS21OZChannelEnum_Factory, 
                       __ZTS21OZChannelFont_Factory, __ZTS21OZChannelProgressInfo, 
                       __ZTS21OZChannelQuad_Factory, __ZTS21OZChannelSeed_Factory, 
                       __ZTS21OZChannelText_Factory, __ZTS21OZChannelTimecodeImpl, 
                       __ZTS21OZChannelTimecodeInfo, __ZTS21OZCurveIntSplineState, 
                       __ZTS21OZFxGenerator_Factory, __ZTS21OZFxPlugRenderContext, 
                       __ZTS21OZPanBehavior_Factory, __ZTS21OZProjectNode_Factory, 
                       __ZTS21OZRigBehavior_Factory, __ZTS21OZZoomObjectCacheItem, 
                       __ZTS21TXChannelFont_Factory, __ZTS22HOutlineGradientStroke, 
                       __ZTS22OZChannelAngle_Factory, __ZTS22OZChannelColor_Factory, 
                       __ZTS22OZChannelCurve_Factory, __ZTS22OZChannelEnumDimension, 
                       __ZTS22OZChannelFrame_Factory, __ZTS22OZChannelScale_Factory, 
                       __ZTS22OZChannelShape_Factory, __ZTS22OZChannelShear_Factory, 
                       __ZTS22OZChannelTimeConverter, __ZTS22OZCurveBoolSplineState, 
                       __ZTS22OZCurveEnumSplineState, __ZTS22OZFootageLayer_Factory, 
                       __ZTS22OZImageElement_Factory, __ZTS22OZLinkBehavior_Factory, 
                       __ZTS22OZNULLBehavior_Factory, __ZTS22OZRampBehavior_Factory, 
                       __ZTS22OZRateBehavior_Factory, __ZTS22OZSingleChanBehaviorIF, 
                       __ZTS22OZSpinBehavior_Factory, __ZTS22OZStopBehavior_Factory, 
                       __ZTS22OZWindBehavior_Factory, __ZTS22PCException_WriteError, 
                       __ZTS22PCMatrixErrorException, __ZTS22PCNullPointerException, 
                       __ZTS22PSParticleType_Factory, __ZTS22TXTextBehavior_Factory, 
                       __ZTS22TXTextGeneratorFactory, __ZTS23HColorAndGradientStroke, 
                       __ZTS23OZChanObjectRef_Factory, __ZTS23OZChannelBool3D_Factory, 
                       __ZTS23OZChannelButton_Factory, __ZTS23OZChannelDouble_Factory, 
                       __ZTS23OZChannelFolder_Factory, __ZTS23OZChannelLevels_Factory, 
                       __ZTS23OZChannelShearAngleImpl, __ZTS23OZChannelShearAngleInfo, 
                       __ZTS23OZChannelUint16_Factory, __ZTS23OZChannelUint32_Factory, 
                       __ZTS23OZClampBehavior_Factory, __ZTS23OZCurveAngleSplineState, 
                       __ZTS23OZDynamicCurveInterface, __ZTS23OZFocusBehavior_Factory, 
                       __ZTS23OZShapeBehavior_Factory, __ZTS23OZThrowBehavior_Factory, 
                       __ZTS23OZTranscriptionDelegate, __ZTS23OZTransformNode_Factory, 
                       __ZTS23PCDivideByZeroException, __ZTS23PCSerializerWriteStream, 
                       __ZTS23PC_Sp_counted_base_impl, __ZTS23TXChannelString_Factory, 
                       __ZTS23TXTextGenerator_Factory, __ZTS24OZChannelAspectRatioImpl, 
                       __ZTS24OZChannelAspectRatioInfo, __ZTS24OZChannelBehaviorFactory, 
                       __ZTS24OZChannelDecibel_Factory, __ZTS24OZChannelPercent_Factory, 
                       __ZTS24OZChannelScale3D_Factory, __ZTS24OZCloneGenerator_Factory, 
                       __ZTS24OZCurveDoubleSplineState, __ZTS24OZLightingFolder_Factory, 
                       __ZTS24OZMoveToBehavior_Factory, __ZTS24OZNegateBehavior_Factory, 
                       __ZTS24OZSpringBehavior_Factory, __ZTS24OZVortexBehavior_Factory, 
                       __ZTS24PCRenderAbortedException, __ZTS24PVDeferredBitmapProvider, 
                       __ZTS24TXTypeOnBehavior_Factory, __ZTS25OZAlignToBehavior_Factory, 
                       __ZTS25OZAverageBehavior_Factory, __ZTS25OZChannelBehavior_Factory, 
                       __ZTS25OZChannelGammaFootageImpl, __ZTS25OZChannelGammaFootageInfo, 
                       __ZTS25OZChannelGradient_Factory, __ZTS25OZChannelPosition_Factory, 
                       __ZTS25OZChannelProgress_Factory, __ZTS25OZChannelTimecode_Factory, 
                       __ZTS25OZCompoundChannel_Factory, __ZTS25OZCurvePercentSplineState, 
                       __ZTS25OZFramingBehavior_Factory, __ZTS25OZGenericBehavior_Factory, 
                       __ZTS25OZGravityBehavior_Factory, __ZTS25OZLayeredMaterial_Factory, 
                       __ZTS25OZLiHePixelTransformFixer, __ZTS25OZPointAtBehavior_Factory, 
                       __ZTS25OZRepelorBehavior_Factory, __ZTS25OZReverseBehavior_Factory, 
                       __ZTS25OZWriggleBehavior_Factory, __ZTS25OZWriteOnBehavior_Factory, 
                       __ZTS25PSPenTiltBehavior_Factory, __ZTS25PSReplicatorPType_Factory, 
                       __ZTS25PVCameraPreviewRenderNode, __ZTS25TXNumberGenerator_Factory, 
                       __ZTS26LiFilteredPolygon_Geometry, __ZTS26OZAlignSimBehavior_Factory, 
                       __ZTS26OZBrownianBehavior_Factory, __ZTS26OZChanFootageRefWithPicker, 
                       __ZTS26OZChanRotoshapeRef_Factory, __ZTS26OZChanSceneNodeRef_Factory, 
                       __ZTS26OZChannelAffectedNodesImpl, __ZTS26OZChannelAffectedNodesInfo, 
                       __ZTS26OZChannelBlendMode_Factory, __ZTS26OZChannelEnumLayer_Factory, 
                       __ZTS26OZChannelHistogram_Factory, __ZTS26OZChannelSceneNode_Factory, 
                       __ZTS26OZDiscreteBehavior_Factory, __ZTS26OZMaterialSpecularFinishIF, 
                       __ZTS26OZRetimingBehavior_Factory, __ZTS26PCException_ScopeUndefined, 
                       __ZTS26PCIllegalArgumentException, __ZTS26PSPenSpeedBehavior_Factory, 
                       __ZTS26PSSequenceBehavior_Factory, __ZTS26TXChannelAlignment_Factory, 
                       __ZTS26TXScrollUpBehavior_Factory, __ZTS26TXSequenceBehavior_Factory, 
                       __ZTS27BHOvershootBehavior_Factory, __ZTS27OZ3DEngineSceneFile_Factory, 
                       __ZTS27OZAttractorBehavior_Factory, __ZTS27OZChannelEnumRetime_Factory, 
                       __ZTS27OZChannelHelpButton_Factory, __ZTS27OZChannelObjectRoot_Factory, 
                       __ZTS27OZChannelPosition3D_Factory, __ZTS27OZChannelRotation3D_Factory, 
                       __ZTS27OZChannelShearAngle_Factory, __ZTS27OZChannelStringEnum_Factory, 
                       __ZTS27OZCollisionBehavior_Factory, __ZTS27OZFadeInOutBehavior_Factory, 
                       __ZTS27OZGenericBehaviorV1_Factory, __ZTS27OZGenericBehaviorV2_Factory, 
                       __ZTS27OZGradientGenerator_Factory, __ZTS27OZMaterialFlatLayer_Factory, 
                       __ZTS27OZOscillateBehavior_Factory, __ZTS27OZRandomizeBehavior_Factory, 
                       __ZTS27OZReflexiveBehavior_Factory, __ZTS27OZRepelFromBehavior_Factory, 
                       __ZTS27OZSnapAlignBehavior_Factory, __ZTS27OZZoomInOutBehavior_Factory, 
                       __ZTS27TXCrawlLeftBehavior_Factory, __ZTS27TXTimeDateGenerator_Factory, 
                       __ZTS27TXTimecodeGenerator_Factory, __ZTS28LiFilteredPolygon_GeometryGL, 
                       __ZTS28OZChanObjectManipRef_Factory, __ZTS28OZChanSceneNodeRefWithPicker, 
                       __ZTS28OZChannel2DOverRange_Factory, __ZTS28OZChannelAspectRatio_Factory, 
                       __ZTS28OZChannelRetimeFrame_Factory, __ZTS28OZDollyInOutBehavior_Factory, 
                       __ZTS28OZGrowShrinkBehavior_Factory, __ZTS28OZMaterialGenericSubstanceIF, 
                       __ZTS28OZMotionPathBehavior_Factory, __ZTS28OZSimulationBehavior_Factory, 
                       __ZTS28OZTransitiveBehavior_Factory, __ZTS28OZZoomObjectBehavior_Factory, 
                       __ZTS28PCException_NoElementDefined, __ZTS28PCICCTransferFunctionVisitor, 
                       __ZTS28PVPreviewInputBitmapProvider, __ZTS28TXCrawlRightBehavior_Factory, 
                       __ZTS28TXScrollDownBehavior_Factory, __ZTS28TXTextScrollBehavior_Factory, 
                       __ZTS29OZAttractedToBehavior_Factory, __ZTS29OZChannelBehaviorRoot_Factory, 
                       __ZTS29OZChannelColorNoAlpha_Factory, __ZTS29OZChannelEnumWithList_Factory, 
                       __ZTS29OZChannelGammaFootage_Factory, __ZTS29OZChannelMaterialRoot_Factory, 
                       __ZTS29OZChannelVertexFolder_Factory, __ZTS29OZExponentialBehavior_Factory, 
                       __ZTS29OZLogarithmicBehavior_Factory, __ZTS29OZViscousDragBehavior_Factory, 
                       __ZTS29PSPenPressureBehavior_Factory, __ZTS29PSPenPropertyBehavior_Factory, 
                       __ZTS30OZ3DEngineSceneElement_Factory, __ZTS30OZChannelAffectedNodes_Factory, 
                       __ZTS30OZChannelDiscreteColor_Factory, __ZTS30OZChannelEnumDimension_Factory, 
                       __ZTS30OZChannelMoveableImage_Factory, __ZTS30OZChannelScaleOverLife_Factory, 
                       __ZTS30OZChannelVaryingFolder_Factory, __ZTS30OZFolderElementShadows_Factory, 
                       __ZTS30OZMaterialBumpMapLayer_Factory, __ZTS30OZMaterialDiffuseLayer_Factory, 
                       __ZTS30OZMaterialLayersFolder_Factory, __ZTS30OZRigWidgetAspectRatio_Factory, 
                       __ZTS30OZVortexAroundBehavior_Factory, __ZTS30PCException_AttributeUndefined, 
                       __ZTS30PSSpinOverLifeBehavior_Factory, __ZTS30TXParagraphStyleFolder_Factory, 
                       __ZTS30TXTextSequenceBehavior_Factory, __ZTS30TXTextTrackingBehavior_Factory, 
                       __ZTS31LiFilteredPolygon_GeometryMetal, __ZTS31OZ3DExtrusionProperties_Factory, 
                       __ZTS31OZChannelAngleOverRange_Factory, __ZTS31OZChannelAspectRatioFootageImpl, 
                       __ZTS31OZChannelAspectRatioFootageInfo, __ZTS31OZChannelEnumInterpMode_Factory, 
                       __ZTS31OZChannelGradientExtras_Factory, __ZTS31OZChannelGradientSample_Factory, 
                       __ZTS31OZChannelObjectRootBase_Factory, __ZTS31OZChannelScaleOverRange_Factory, 
                       __ZTS31OZMaterialEmissiveLayer_Factory, __ZTS31OZMaterialSpecularLayer_Factory, 
                       __ZTS31OZShapeBehaviorVertexCacheEntry, __ZTS31OZSingleChannelBehavior_Factory, 
                       __ZTS31PCUnsupportedOperationException, __ZTS31PSEmitterMoToFoBehavior_Factory, 
                       __ZTS31PSPaintSequenceBehavior_Factory, __ZTS31PSScaleOverLifeBehavior_Factory, 
                       __ZTS31TXTextFromFileGenerator_Factory, __ZTS32OZChannelDoubleOverRange_Factory, 
                       __ZTS32OZChannelHistogramSample_Factory, __ZTS32OZChannelPositionPercent_Factory, 
                       __ZTS32OZChannelTransformSwitch_Factory, __ZTS32OZDriftAttractorBehavior_Factory, 
                       __ZTS32OZMaterialSubstanceLayer_Factory, __ZTS32OZMotionToForcesBehavior_Factory, 
                       __ZTS32OZRotationalDragBehavior_Factory, __ZTS32PVMtlTexturePoolAllocationPolicy, 
                       __ZTS32PVPreviewInstructionGraphContext, __ZTS32TXTranscriptionGenerator_Factory, 
                       __ZTS33OZBoundsCollisionBehavior_Factory, __ZTS33OZChanElementOrFootageRef_Factory, 
                       __ZTS33OZChanObjectRefWithPicker_Factory, __ZTS33OZChannelImageWithOptions_Factory, 
                       __ZTS33OZChannelMaterialLayerMap_Factory, __ZTS33OZChannelMaterialMapScale_Factory, 
                       __ZTS33OZChannelPercentOverRange_Factory, __ZTS33OZSimSystemMoToFoBehavior_Factory, 
                       __ZTS34OZChanFootageRefWithPicker_Factory, __ZTS34OZChannelGradientRGBFolder_Factory, 
                       __ZTS34OZChannelGradientSampleRGB_Factory, __ZTS34OZChannelGradientWithAngle_Factory, 
                       __ZTS34OZDriftAttractedToBehavior_Factory, __ZTS35OZChannelAspectRatioFootage_Factory, 
                       __ZTS35OZChannelGradientPositioned_Factory, __ZTS35OZChannelImageWithTransform_Factory, 
                       __ZTS35OZMaterialFinishLayerSequenceFolder, __ZTS36OZChan3DEngineSceneFileRefWithPicker, 
                       __ZTS36OZChanRotoshapeRefWithPicker_Factory, __ZTS36OZChanSceneNodeRefWithPicker_Factory, 
                       __ZTS36OZChannelGradientAlphaFolder_Factory, __ZTS36OZChannelGradientSampleAlpha_Factory, 
                       __ZTS36OZMaterialBumpMapLayerSequenceFolder, __ZTS36OZMaterialDiffuseLayerSequenceFolder, 
                       __ZTS37OZChannelMaterialMapTransform_Factory, __ZTS37OZMaterialEmissiveLayerSequenceFolder, 
                       __ZTS37OZMaterialSpecularLayerSequenceFolder, __ZTS38OZMaterialSubstanceLayerSequenceFolder, 
                       __ZTS39OZLayeredMaterialSequenceFolder_Factory, __ZTS41OZChannelImageForImageWithOptions_Factory, 
                       __ZTS44OZChan3DEngineSceneFileRefWithPicker_Factory, __ZTS44OZMaterialBumpMapLayerSequenceFolder_Factory, 
                       __ZTS44OZMaterialDiffuseLayerSequenceFolder_Factory, __ZTS45OZMaterialEmissiveLayerSequenceFolder_Factory, 
                       __ZTS45OZMaterialSpecularLayerSequenceFolder_Factory, __ZTS46OZMaterialSubstanceLayerSequenceFolder_Factory, 
                       __ZTS5OMPie, __ZTS6OZMask, __ZTS6PCRectIdE, __ZTS6PCSafe, 
                       __ZTS7HLevels, __ZTS7LiAgent, __ZTS7OMHisto, __ZTS7PCArrayI14ShadowMapsLazy14PCArray_TraitsIS0_EE, 
                       __ZTS7PCArrayI15LiClipPlaneInfo14PCArray_TraitsIS0_EE, __ZTS7PCArrayI19LiGraphBuilderGroup14PCArray_TraitsIS0_EE, 
                       __ZTS7PCArrayI19LiMultiBlenderLayer14PCArray_TraitsIS0_EE, 
                       __ZTS7PCArrayI22LiLightScaledElementID14PCArray_TraitsIS0_EE, 
                       __ZTS7PCArrayI5HGRefI6HGNodeE14PCArray_TraitsIS2_EE, __ZTS7PCArrayI5PCPtrI13LiImageFilterE14PCArray_TraitsIS2_EE, 
                       __ZTS7PCArrayI5PCPtrI13LiSceneObjectE14PCArray_TraitsIS2_EE, 
                       __ZTS7PCArrayI5PCPtrI16LiMaterialFilterE14PCArray_TraitsIS2_EE, 
                       __ZTS7PCArrayI7LiLight14PCArray_TraitsIS0_EE, __ZTS7PCArrayI7PCPlaneIdE14PCArray_TraitsIS1_EE, 
                       __ZTS7PCArrayI8LiString14PCArray_TraitsIS0_EE, __ZTS7PCArrayI9PCVector3IdE14PCArray_TraitsIS1_EE, 
                       __ZTS7PCArrayI9PCVector4IdE14PCArray_TraitsIS1_EE, __ZTS7PCArrayI9ShadowMap14PCArray_TraitsIS0_EE, 
                       __ZTS7PCArrayIN10LiMaterial12UniformValueE14PCArray_TraitsIS1_EE, 
                       __ZTS7PCArrayIN13LiDrawnRegion4RectE14PCArray_TraitsIS1_EE, 
                       __ZTS7PCArrayIN13LiSceneDrawer10DrawObjectE14PCArray_TraitsIS1_EE, 
                       __ZTS7PCArrayIN15LiSceneIteratorI17LiLayeredMaterial21LiSceneIteratorAlwaysE3ObjE14PCArray_TraitsIS4_EE, 
                       __ZTS7PCArrayIN15LiSceneIteratorI7LiGeode21LiSceneIteratorAlwaysE3ObjE14PCArray_TraitsIS4_EE, 
                       __ZTS7PCArrayIN15LiSceneIteratorI7LiGroup21LiSceneIteratorAlwaysE3ObjE14PCArray_TraitsIS4_EE, 
                       __ZTS7PCArrayIN15LiSceneIteratorI7LiLight21LiSceneIteratorAlwaysE3ObjE14PCArray_TraitsIS4_EE, 
                       __ZTS7PCArrayIN15LiSceneIteratorI7LiLight23LiSceneIteratorShineOutE3ObjE14PCArray_TraitsIS4_EE, 
                       __ZTS7PCArrayIN15LiSceneIteratorI7LiSolid21LiSceneIteratorAlwaysE3ObjE14PCArray_TraitsIS4_EE, 
                       __ZTS7PCArrayIN18OZSceneArrangement7ElementE14PCArray_TraitsIS1_EE, 
                       __ZTS7PCArrayIN8ProShade12VariableList13VariableEntryE14PCArray_TraitsIS2_EE, 
                       __ZTS7PCArrayIN8ProShade15UniformVariableE14PCArray_TraitsIS1_EE, 
                       __ZTS7PCArrayIN8ProShade4VarTINS0_4NodeEEE14PCArray_TraitsIS3_EE, 
                       __ZTS7PCArrayIN8ProShade5ValueE14PCArray_TraitsIS1_EE, __ZTS7PCArrayIN8ProShade6OutputE14PCArray_TraitsIS1_EE, 
                       __ZTS7PCArrayIN8ProShade7SamplerE14PCArray_TraitsIS1_EE, __ZTS7PCArrayIN8ProShade8External8ArgumentE14PCArray_TraitsIS2_EE, 
                       __ZTS7PCArrayIP11LiLightInfo14PCArray_TraitsIS1_EE, __ZTS7PCArrayIP13LiPlanarGroup19PCArray_Traits_ZeroIS1_EE, 
                       __ZTS7PCArrayIP6HGNode14PCArray_TraitsIS1_EE, __ZTS7PCArrayIP6LiSeam19PCArray_Traits_ZeroIS1_EE, 
                       __ZTS7PCArrayIP7LiShard19PCArray_Traits_ZeroIS1_EE, __ZTS7PCArrayIP8LiDrawer19PCArray_Traits_ZeroIS1_EE, 
                       __ZTS7PCArrayIPN8ProShade10ProgramVarE14PCArray_TraitsIS2_EE, 
                       __ZTS7PCArrayIb14PCArray_TraitsIbEE, __ZTS7PCArrayId14PCArray_TraitsIdEE, 
                       __ZTS7PCArrayIi14PCArray_TraitsIiEE, __ZTS7PCArrayIm14PCArray_TraitsImEE, 
                       __ZTS8HBadFilm, __ZTS8LiHeGrid, __ZTS8LiHelium, __ZTS8PCShared, 
                       __ZTS8PGShader, __ZTS8PSShaderILj35632EE, __ZTS8PSShaderILj35633EE, 
                       __ZTS9HMaskElem, __ZTS9OMSamples, __ZTS9OZLocking, __ZTSF7PCCFRefIPK8__CTFontERK8PCStringdbRK17CGAffineTransformE, 
                       __ZTSF7PCNSRefIP12NSColorSpaceEP12CGColorSpaceE, __ZTSF9PCHash128RK18PCColorSpaceHandleE, 
                       __ZTSFNSt3__110shared_ptrI15vImageConverterEEP12CGColorSpaceS4_E, 
                       __ZTSN11OZRigWidget27OZRigWidget_valueDoubleImplE, __ZTSN11OZRigWidget27OZRigWidget_valueDoubleInfoE, 
                       __ZTSN11OZRigWidget30OZRigWidget_pSliderMaxChanImplE, __ZTSN11OZRigWidget30OZRigWidget_pSliderMinChanImplE, 
                       __ZTSN11OZRigWidget32OZRigWidget_valueAspectRatioImplE, __ZTSN11OZRigWidget32OZRigWidget_valueAspectRatioInfoE, 
                       __ZTSN11OZRigWidget36OZRigWidget_activeSnapshotIDChanImplE, 
                       __ZTSN11PVPerfStats21FrameStatsDescriptionE, __ZTSN11TXTextStyle20TXTextStyle_sizeInfoE, 
                       __ZTSN11TXTextStyle21TXTextStyle_slantImplE, __ZTSN11TXTextStyle21TXTextStyle_slantInfoE, 
                       __ZTSN11TXTextStyle23TXTextStyle_kerningImplE, __ZTSN11TXTextStyle23TXTextStyle_kerningInfoE, 
                       __ZTSN11TXTextStyle24TXTextStyle_baselineInfoE, __ZTSN11TXTextStyle24TXTextStyle_faceBlurImplE, 
                       __ZTSN11TXTextStyle24TXTextStyle_faceBlurInfoE, __ZTSN11TXTextStyle24TXTextStyle_glowBlurImplE, 
                       __ZTSN11TXTextStyle24TXTextStyle_glowBlurInfoE, __ZTSN11TXTextStyle24TXTextStyle_trackingImplE, 
                       __ZTSN11TXTextStyle24TXTextStyle_trackingInfoE, __ZTSN11TXTextStyle26TXTextStyle_V4TrackingImplE, 
                       __ZTSN11TXTextStyle26TXTextStyle_V4TrackingInfoE, __ZTSN11TXTextStyle26TXTextStyle_glowRadiusImplE, 
                       __ZTSN11TXTextStyle26TXTextStyle_glowRadiusInfoE, __ZTSN11TXTextStyle27TXTextStyle_allCapsSizeImplE, 
                       __ZTSN11TXTextStyle27TXTextStyle_oldTrackingInfoE, __ZTSN11TXTextStyle27TXTextStyle_outlineBlurImplE, 
                       __ZTSN11TXTextStyle27TXTextStyle_outlineBlurInfoE, __ZTSN11TXTextStyle28TXTextStyle_outlineWidthImplE, 
                       __ZTSN11TXTextStyle28TXTextStyle_outlineWidthInfoE, __ZTSN11TXTextStyle30TXTextStyle_dropShadowBlurImplE, 
                       __ZTSN11TXTextStyle30TXTextStyle_dropShadowBlurInfoE, __ZTSN11TXTextStyle31TXTextStyle_dropShadowAngleImplE, 
                       __ZTSN11TXTextStyle33TXTextStyle_dropShadowOpacityImplE, __ZTSN11TXTextStyle34TXTextStyle_dropShadowDistanceImplE, 
                       __ZTSN11TXTextStyle34TXTextStyle_dropShadowDistanceInfoE, 
                       __ZTSN12LiSolidUtils24TransparencyCountProgramE, __ZTSN12LiSolidUtils25CirclesOfConfusionProgramE, 
                       __ZTSN12PSHeliumNode11BatcherBaseE, __ZTSN12TXTextLayout23TXTextLayout_radiusImplE, 
                       __ZTSN12TXTextLayout23TXTextLayout_radiusInfoE, __ZTSN12TXTextLayout24TXTextLayout_versionImplE, 
                       __ZTSN12TXTextLayout25TXTextLayout_rectSizeImplE, __ZTSN12TXTextLayout25TXTextLayout_rectSizeInfoE, 
                       __ZTSN12TXTextLayout25TXTextLayout_trackingImplE, __ZTSN12TXTextLayout25TXTextLayout_trackingInfoE, 
                       __ZTSN12TXTextLayout26TXTextLayout_topMarginImplE, __ZTSN12TXTextLayout27TXTextLayout_leftMarginImplE, 
                       __ZTSN12TXTextLayout27TXTextLayout_pathOffsetImplE, __ZTSN12TXTextLayout27TXTextLayout_pathOffsetInfoE, 
                       __ZTSN12TXTextLayout27TXTextLayout_showRulersImplE, __ZTSN12TXTextLayout28TXTextLayout_oldTrackingInfoE, 
                       __ZTSN12TXTextLayout28TXTextLayout_rightMarginImplE, __ZTSN12TXTextLayout28TXTextLayout_waveDampingImplE, 
                       __ZTSN12TXTextLayout28TXTextLayout_waveDampingInfoE, __ZTSN12TXTextLayout29TXTextLayout_bottomMarginImplE, 
                       __ZTSN12TXTextLayout30TXTextLayout_waveAmplitudeImplE, __ZTSN12TXTextLayout30TXTextLayout_waveAmplitudeInfoE, 
                       __ZTSN12TXTextLayout30TXTextLayout_waveFrequencyImplE, __ZTSN12TXTextLayout30TXTextLayout_waveFrequencyInfoE, 
                       __ZTSN12TXTextLayout31TXTextLayout_showScrollBarsImplE, __ZTSN12TXTextLayout36TXTextLayout_lineSpacingObsoleteInfoE, 
                       __ZTSN13OZChannelCrop23OZChannelCrop_valueImplE, __ZTSN13OZChannelEnum23OZChannelEnum_valueImplE, 
                       __ZTSN13OZChannelEnum23OZChannelEnum_valueInfoE, __ZTSN13OZRigSnapshot27OZRigSnapshot_valueChanImplE, 
                       __ZTSN13OZRigSnapshot35OZRigSnapshot_interpolationChanImplE, 
                       __ZTSN14OZChannelColor24OZChannelColor_alphaInfoE, __ZTSN14OZChannelColor28OZChannelColor_alpha_oneImplE, 
                       __ZTSN14OZChannelColor29OZChannelColor_alpha_zeroImplE, __ZTSN14OZChannelScale24OZChannelScale_valueImplE, 
                       __ZTSN14OZChannelScale24OZChannelScale_valueInfoE, __ZTSN14OZImageElement24OZImageElement_layerImplE, 
                       __ZTSN14OZImageElement24OZImageElement_layerInfoE, __ZTSN14OZImageElement26OZImageElement_dropPanImplE, 
                       __ZTSN14OZImageElement26OZImageElement_dropPanInfoE, __ZTSN14OZImageElement28OZImageElement_dropScaleImplE, 
                       __ZTSN14OZImageElement28OZImageElement_dropWidthImplE, __ZTSN14OZImageElement28OZImageElement_dropWidthInfoE, 
                       __ZTSN14OZImageElement28OZImageElement_timeScaleImplE, __ZTSN14OZImageElement29OZImageElement_dropHeightImplE, 
                       __ZTSN14OZImageElement29OZImageElement_dropHeightInfoE, __ZTSN14OZImageElement29OZImageElement_pageNumberImplE, 
                       __ZTSN14OZImageElement29OZImageElement_pageNumberInfoE, __ZTSN14OZImageElement30OZImageElement_dropInputIDImplE, 
                       __ZTSN14OZImageElement30OZImageElement_dropInputIDInfoE, __ZTSN14OZImageElement31OZImageElement_loopDurationImplE, 
                       __ZTSN14OZImageElement33OZImageElement_dropFillOpaqueImplE, 
                       __ZTSN14OZImageElement35OZImageElement_retimeFrameCacheImplE, 
                       __ZTSN14OZLinkBehavior28OZLinkBehavior_scaleChanImplE, __ZTSN14OZLinkBehavior28OZLinkBehavior_scaleChanInfoE, 
                       __ZTSN14OZLinkBehavior30OZLinkBehavior_mixModeChanImplE, __ZTSN14OZLinkBehavior32OZLinkBehavior_applyModeChanImplE, 
                       __ZTSN14OZLinkBehavior32OZLinkBehavior_customMixChanImplE, 
                       __ZTSN14OZLinkBehavior32OZLinkBehavior_customMixChanInfoE, 
                       __ZTSN14OZLinkBehavior32OZLinkBehavior_easeRangeChanImplE, 
                       __ZTSN14OZLinkBehavior32OZLinkBehavior_easeRangeChanInfoE, 
                       __ZTSN14OZLinkBehavior36OZLinkBehavior_applyLinkWhenChanImplE, 
                       __ZTSN14OZRenderParams10SharedInfoE, __ZTSN14OZRetimingUtil14StaticListNodeINS_16RetimingExaminerEEE, 
                       __ZTSN14OZRetimingUtil24RetimingExaminerTemplateI14OZImageElementEE, 
                       __ZTSN14OZRetimingUtil24RetimingExaminerTemplateI16OZCloneGeneratorEE, 
                       __ZTSN14OZRetimingUtil24RetimingExaminerTemplateI22OZ3DEngineSceneElementEE, 
                       __ZTSN14PSParticleType27PSParticleType_spinChanInfoE, __ZTSN14PSParticleType28PSParticleType_shapeChanImplE, 
                       __ZTSN14PSParticleType28PSParticleType_speedChanImplE, __ZTSN14PSParticleType28PSParticleType_speedChanInfoE, 
                       __ZTSN14PSParticleType29PSParticleType_rotVarChanInfoE, __ZTSN14PSParticleType30PSParticleType_spinVarChanImplE, 
                       __ZTSN14PSParticleType30PSParticleType_spinVarChanInfoE, __ZTSN14PSParticleType30PSParticleType_versionChanImplE, 
                       __ZTSN14PSParticleType31PSParticleType_lifetimeChanImplE, 
                       __ZTSN14PSParticleType31PSParticleType_lifetimeChanInfoE, 
                       __ZTSN14PSParticleType31PSParticleType_scaleVarChanImplE, 
                       __ZTSN14PSParticleType31PSParticleType_scaleVarChanInfoE, 
                       __ZTSN14PSParticleType31PSParticleType_speedVarChanImplE, 
                       __ZTSN14PSParticleType31PSParticleType_speedVarChanInfoE, 
                       __ZTSN14PSParticleType32PSParticleType_birthRateChanImplE, 
                       __ZTSN14PSParticleType32PSParticleType_birthRateChanInfoE, 
                       __ZTSN14PSParticleType32PSParticleType_colorModeChanImplE, 
                       __ZTSN14PSParticleType32PSParticleType_pointSizeChanImplE, 
                       __ZTSN14PSParticleType32PSParticleType_pointSizeChanInfoE, 
                       __ZTSN14PSParticleType33PSParticleType_initialNumChanImplE, 
                       __ZTSN14PSParticleType34PSParticleType_lifetimeVarChanImplE, 
                       __ZTSN14PSParticleType35PSParticleType_anchorDabsToChanImplE, 
                       __ZTSN14PSParticleType35PSParticleType_birthRateVarChanImplE, 
                       __ZTSN14PSParticleType35PSParticleType_pointSpacingChanImplE, 
                       __ZTSN14PSParticleType35PSParticleType_pointSpacingChanInfoE, 
                       __ZTSN14PSParticleType35PSParticleType_posOffsetVarChanImplE, 
                       __ZTSN14PSParticleType36PSParticleType_strokeWidthOSChanImplE, 
                       __ZTSN14PSParticleType36PSParticleType_strokeWidthOSChanInfoE, 
                       __ZTSN14PSParticleType37PSParticleType_pointSpacingOSChanImplE, 
                       __ZTSN14PSParticleType37PSParticleType_pointSpacingOSChanInfoE, 
                       __ZTSN14PSParticleType39PSParticleType_colorRepetitionsChanInfoE, 
                       __ZTSN14PSParticleType39PSParticleType_sourceHoldFramesChanImplE, 
                       __ZTSN14PSParticleType39PSParticleType_sourceStartFrameChanImplE, 
                       __ZTSN14PSParticleType39PSParticleType_sourceStartFrameChanInfoE, 
                       __ZTSN14PSParticleType41PSParticleType_sourceStartFrameOSChanImplE, 
                       __ZTSN14PSParticleType41PSParticleType_sourceStartFrameOSChanInfoE, 
                       __ZTSN15OZDynamicVertex24OZDynamicVertex_biasImplE, __ZTSN15OZDynamicVertex26OZDynamicVertex_tanInVImplE, 
                       __ZTSN15OZDynamicVertex27OZDynamicVertex_enabledImplE, __ZTSN15OZDynamicVertex27OZDynamicVertex_tanOutVImplE, 
                       __ZTSN16OZLightingFolder42OZLightingFolder_channelShininessIndexImplE, 
                       __ZTSN16OZLightingFolder42OZLightingFolder_channelShininessIndexInfoE, 
                       __ZTSN16TXParagraphStyle32TXParagraphStyle_lineSpacingInfoE, 
                       __ZTSN17BumpMaterialLayer8MultiplyE, __ZTSN17OZChannelGradient27OZChannelGradient_gammaImplE, 
                       __ZTSN17OZChannelGradient34OZChannelGradient_colorSpaceIDImplE, 
                       __ZTSN17OZChannelPosition27OZChannelPosition_valueImplE, __ZTSN17OZChannelPosition27OZChannelPosition_valueInfoE, 
                       __ZTSN18OZBrownianBehavior31OZBrownianBehavior_dragChanInfoE, 
                       __ZTSN18OZBrownianBehavior36OZBrownianBehavior_frequencyChanImplE, 
                       __ZTSN18OZBrownianBehavior36OZBrownianBehavior_frequencyChanInfoE, 
                       __ZTSN18OZBrownianBehavior36OZBrownianBehavior_magnitudeChanImplE, 
                       __ZTSN18OZBrownianBehavior36OZBrownianBehavior_magnitudeChanInfoE, 
                       __ZTSN18OZBrownianBehavior40OZBrownianBehavior_amplitudeStepChanImplE, 
                       __ZTSN18OZBrownianBehavior40OZBrownianBehavior_amplitudeStepChanInfoE, 
                       __ZTSN18TXSequenceChannels31TXSequenceChannels_faceBlurImplE, 
                       __ZTSN18TXSequenceChannels31TXSequenceChannels_faceBlurInfoE, 
                       __ZTSN18TXSequenceChannels31TXSequenceChannels_glowBlurImplE, 
                       __ZTSN18TXSequenceChannels31TXSequenceChannels_glowBlurInfoE, 
                       __ZTSN18TXSequenceChannels31TXSequenceChannels_trackingImplE, 
                       __ZTSN18TXSequenceChannels31TXSequenceChannels_trackingInfoE, 
                       __ZTSN18TXSequenceChannels33TXSequenceChannels_glowRadiusImplE, 
                       __ZTSN18TXSequenceChannels33TXSequenceChannels_glowRadiusInfoE, 
                       __ZTSN18TXSequenceChannels34TXSequenceChannels_outlineBlurImplE, 
                       __ZTSN18TXSequenceChannels34TXSequenceChannels_outlineBlurInfoE, 
                       __ZTSN18TXSequenceChannels35TXSequenceChannels_outlineWidthImplE, 
                       __ZTSN18TXSequenceChannels35TXSequenceChannels_outlineWidthInfoE, 
                       __ZTSN18TXSequenceChannels37TXSequenceChannels_dropShadowBlurImplE, 
                       __ZTSN18TXSequenceChannels37TXSequenceChannels_dropShadowBlurInfoE, 
                       __ZTSN18TXSequenceChannels38TXSequenceChannels_characterOffsetImplE, 
                       __ZTSN18TXSequenceChannels38TXSequenceChannels_characterOffsetInfoE, 
                       __ZTSN18TXSequenceChannels39TXSequenceChannels_glowBlurObsoleteImplE, 
                       __ZTSN18TXSequenceChannels41TXSequenceChannels_dropShadowDistanceImplE, 
                       __ZTSN18TXSequenceChannels41TXSequenceChannels_dropShadowDistanceInfoE, 
                       __ZTSN19OZFadeInOutBehavior38OZFadeInOutBehavior_fadeInTimeChanImplE, 
                       __ZTSN19OZFadeInOutBehavior39OZFadeInOutBehavior_fadeOutTimeChanImplE, 
                       __ZTSN19OZFadeInOutBehavior41OZFadeInOutBehavior_endTimeOffsetChanImplE, 
                       __ZTSN19OZFadeInOutBehavior43OZFadeInOutBehavior_startTimeOffsetChanImplE, 
                       __ZTSN19TXTimeDateGenerator27TXTimeDateGenerator_endImplE, 
                       __ZTSN19TXTimeDateGenerator29TXTimeDateGenerator_startImplE, 
                       __ZTSN19TXTimeDateGenerator29TXTimeDateGenerator_valueInfoE, 
                       __ZTSN19TXTimeDateGenerator33TXTimeDateGenerator_dateStyleImplE, 
                       __ZTSN19TXTimeDateGenerator33TXTimeDateGenerator_timeStyleImplE, 
                       __ZTSN20OZGrowShrinkBehavior38OZGrowShrinkBehavior_scaleDestChanImplE, 
                       __ZTSN20OZGrowShrinkBehavior38OZGrowShrinkBehavior_scaleDestChanInfoE, 
                       __ZTSN20OZGrowShrinkBehavior38OZGrowShrinkBehavior_scaleRateChanImplE, 
                       __ZTSN20OZGrowShrinkBehavior38OZGrowShrinkBehavior_scaleRateChanInfoE, 
                       __ZTSN20OZGrowShrinkBehavior42OZGrowShrinkBehavior_endTimeOffsetChanImplE, 
                       __ZTSN20OZGrowShrinkBehavior42OZGrowShrinkBehavior_hudValueScaleChanImplE, 
                       __ZTSN20OZGrowShrinkBehavior42OZGrowShrinkBehavior_incrementTypeChanImplE, 
                       __ZTSN20OZGrowShrinkBehavior44OZGrowShrinkBehavior_curvatureFactorChanImplE, 
                       __ZTSN20OZMotionPathBehavior31OZMotionPathBehavior_offsetImplE, 
                       __ZTSN20OZMotionPathBehavior31OZMotionPathBehavior_radiusImplE, 
                       __ZTSN20OZMotionPathBehavior31OZMotionPathBehavior_radiusInfoE, 
                       __ZTSN20OZMotionPathBehavior33OZMotionPathBehavior_rectSizeImplE, 
                       __ZTSN20OZMotionPathBehavior33OZMotionPathBehavior_rectSizeInfoE, 
                       __ZTSN20OZMotionPathBehavior34OZMotionPathBehavior_frequencyImplE, 
                       __ZTSN20OZMotionPathBehavior34OZMotionPathBehavior_frequencyInfoE, 
                       __ZTSN20OZMotionPathBehavior34OZMotionPathBehavior_wavePhaseInfoE, 
                       __ZTSN20OZMotionPathBehavior36OZMotionPathBehavior_waveDampingImplE, 
                       __ZTSN20OZMotionPathBehavior36OZMotionPathBehavior_waveDampingInfoE, 
                       __ZTSN20OZMotionPathBehavior38OZMotionPathBehavior_waveAmplitudeImplE, 
                       __ZTSN20OZMotionPathBehavior38OZMotionPathBehavior_waveAmplitudeInfoE, 
                       __ZTSN20OZMotionPathBehavior38OZMotionPathBehavior_waveFrequencyImplE, 
                       __ZTSN20OZMotionPathBehavior38OZMotionPathBehavior_waveFrequencyInfoE, 
                       __ZTSN20OZMotionPathBehavior42OZMotionPathBehavior_endTimeOffsetChanImplE, 
                       __ZTSN21OZChannelColorNoAlpha30OZChannelColorNoAlpha_greyImplE, 
                       __ZTSN21OZChannelColorNoAlpha31OZChannelColorNoAlpha_blackImplE, 
                       __ZTSN21OZChannelColorNoAlpha31OZChannelColorNoAlpha_colorInfoE, 
                       __ZTSN21OZChannelColorNoAlpha31OZChannelColorNoAlpha_gammaImplE, 
                       __ZTSN21OZChannelColorNoAlpha31OZChannelColorNoAlpha_whiteImplE, 
                       __ZTSN21OZChannelColorNoAlpha36OZChannelColorNoAlpha_redSample1ImplE, 
                       __ZTSN21OZChannelColorNoAlpha36OZChannelColorNoAlpha_redSample2ImplE, 
                       __ZTSN21OZChannelColorNoAlpha37OZChannelColorNoAlpha_blueSample1ImplE, 
                       __ZTSN21OZChannelColorNoAlpha37OZChannelColorNoAlpha_blueSample2ImplE, 
                       __ZTSN21OZChannelColorNoAlpha38OZChannelColorNoAlpha_colorSpaceIDImplE, 
                       __ZTSN21OZChannelColorNoAlpha38OZChannelColorNoAlpha_greenSample1ImplE, 
                       __ZTSN21OZChannelColorNoAlpha38OZChannelColorNoAlpha_greenSample2ImplE, 
                       __ZTSN21OZViscousDragBehavior31OZViscousDragBehavior_kChanImplE, 
                       __ZTSN21OZViscousDragBehavior31OZViscousDragBehavior_kChanInfoE, 
                       __ZTSN23OZChannelGradientExtras40OZChannelGradientExtras_gradientTypeImplE, 
                       __ZTSN23OZChannelGradientSample41OZChannelGradientSample_interpolationImplE, 
                       __ZTSN23PSScaleOverLifeBehavior41PSScaleOverLifeBehavior_scaleRateChanImplE, 
                       __ZTSN23PSScaleOverLifeBehavior41PSScaleOverLifeBehavior_scaleRateChanInfoE, 
                       __ZTSN23PSScaleOverLifeBehavior43PSScaleOverLifeBehavior_customScaleChanInfoE, 
                       __ZTSN23PSScaleOverLifeBehavior45PSScaleOverLifeBehavior_incrementTypeChanImplE, 
                       __ZTSN25OZChannelImageWithOptions35OZChannelImageWithOptions_frameImplE, 
                       __ZTSN25OZChannelImageWithOptions35OZChannelImageWithOptions_frameInfoE, 
                       __ZTSN26OZChannelGradientWithAngle36OZChannelGradientWithAngle_angleImplE, 
                       __ZTSN26OZFolderMaterialProperties52OZFolderMaterialProperties_channelShininessIndexImplE, 
                       __ZTSN26OZFolderMaterialProperties52OZFolderMaterialProperties_channelShininessIndexInfoE, 
                       __ZTSN28OZShapeReparametrizedContour40OZShapeReparametrizedContour_contourImplE, 
                       __ZTSN2cc5curve11evaluator_tIddEE, __ZTSN2cc5curve14evaluator_1d_tIdLj1024EEE, 
                       __ZTSN2cc5curve7aspline13offsetcolor_tIdEE, __ZTSN2cc5curve7aspline15_vertices_ctx_tIdEE, 
                       __ZTSN2cc5curve7aspline17_curve_base_itf_tIdEE, __ZTSN2cc5curve7aspline5hue_tIdEE, 
                       __ZTSN2cc5curve7aspline7color_tIdEE, __ZTSN2cc5curve7aspline8bezier_tIdLb0EEE, 
                       __ZTSN2cc5curve7aspline8bezier_tIdLb1EEE, __ZTSN2cc7point_tIdLb0ELb0EEE, 
                       __ZTSN5ProGL12TextureOwnerE, __ZTSN5ProGL12UniformArrayI9PCVector2IfELm16EEE, 
                       __ZTSN5ProGL12UniformArrayIfLm16EEE, __ZTSN5ProGL14UniformSamplerILj35678EEE, 
                       __ZTSN5ProGL7Private15ProgramFactory0I10CompShaderEE, __ZTSN5ProGL7Private15ProgramFactory0I10CopyShaderEE, 
                       __ZTSN5ProGL7Private15ProgramFactory0I18DepthFilterProgramEE, 
                       __ZTSN5ProGL7Private15ProgramFactory0IN12LiSolidUtils24TransparencyCountProgramEEE, 
                       __ZTSN5ProGL7Private15ProgramFactory0IN12LiSolidUtils25CirclesOfConfusionProgramEEE, 
                       __ZTSN5ProGL7Private17ProgramHandleImpl7FactoryE, __ZTSN5ProGL7Private21TexCoordAttributeBaseI9PCVector2IfEEE, 
                       __ZTSN5ProGL7Private27VectorTexCoordAttributeBaseI9PCVector2IfEEE, 
                       __ZTSN5ProGL7Private3Any10HolderBaseE, __ZTSN5ProGL7Private3Any6HolderI18PCColorSpaceHandleEE, 
                       __ZTSN5ProGL7Private3Any6HolderI6PCRectIdEEE, __ZTSN5ProGL7Private3Any6HolderIbEE, 
                       __ZTSN5ProGL7UniformI14PCMatrix44TmplIfEEE, __ZTSN5ProGL7UniformIfEE, 
                       __ZTSN5ProGL7UniformIiEE, __ZTSN5ProGL9AttributeI9PCVector2IfENS_7Private27VectorTexCoordAttributeBaseEEE, 
                       __ZTSN6HGPool16AllocationPolicyIN18HGMetalTexturePool10DescriptorEEE, 
                       __ZTSN7OZGroup19OZGroup_versionImplE, __ZTSN7OZGroup22OZGroup_fixedWidthImplE, 
                       __ZTSN7OZGroup22OZGroup_fixedWidthInfoE, __ZTSN7OZGroup23OZGroup_fixedHeightImplE, 
                       __ZTSN7OZGroup23OZGroup_fixedHeightInfoE, __ZTSN7OZGroup25OZGroup_dimensionTypeImplE, 
                       __ZTSN7OZShape18OZShape_closedImplE, __ZTSN7OZShape20OZShape_boxPivotImplE, 
                       __ZTSN7OZShape21OZShape_roundnessImplE, __ZTSN7OZShape21OZShape_roundnessInfoE, 
                       __ZTSN7OZShape22OZShape_boxTopLeftImplE, __ZTSN7OZShape23OZShape_boxRotationImplE, 
                       __ZTSN7OZShape23OZShape_boxTopRightImplE, __ZTSN7OZShape23OZShape_shapeRadiusImplE, 
                       __ZTSN7OZShape23OZShape_shapeRadiusInfoE, __ZTSN7OZShape23OZShape_strokeJointImplE, 
                       __ZTSN7OZShape23OZShape_strokeWidthImplE, __ZTSN7OZShape23OZShape_strokeWidthInfoE, 
                       __ZTSN7OZShape25OZShape_boxBottomLeftImplE, __ZTSN7OZShape25OZShape_initialScaleXImplE, 
                       __ZTSN7OZShape25OZShape_initialScaleYImplE, __ZTSN7OZShape25OZShape_strokeLeftCapImplE, 
                       __ZTSN7OZShape26OZShape_boxBottomRightImplE, __ZTSN7OZShape26OZShape_softEdgeKernelImplE, 
                       __ZTSN7OZShape26OZShape_softEdgeRadiusImplE, __ZTSN7OZShape26OZShape_softEdgeRadiusInfoE, 
                       __ZTSN7OZShape26OZShape_strokeRightCapImplE, __ZTSN7OZShape27OZShape_initialPositionImplE, 
                       __ZTSN7OZShape27OZShape_softEdgeFalloffImplE, __ZTSN7OZShape27OZShape_softEdgeFalloffInfoE, 
                       __ZTSN7OZShape28OZShape_ellipseCurvatureImplE, __ZTSN7OZShape28OZShape_pixelAspectRatioImplE, 
                       __ZTSN7OZShape29OZShape_interpolationModeImplE, __ZTSN7OZShape31OZShape_strokeCapArrowWidthImplE, 
                       __ZTSN7OZShape31OZShape_strokeCapArrowWidthInfoE, __ZTSN7OZShape32OZShape_strokeCapArrowLengthImplE, 
                       __ZTSN7OZShape32OZShape_strokeCapArrowLengthInfoE, __ZTSN7OZShape34OZShape_disableAntialiasingiOSImplE, 
                       __ZTSN8Interval10DistortionE, __ZTSN8OZCamera19OZCamera_dofFarImplE, 
                       __ZTSN8OZCamera19OZCamera_dofFarInfoE, __ZTSN8OZCamera20OZCamera_dofNearImplE, 
                       __ZTSN8OZCamera20OZCamera_dofNearInfoE, __ZTSN8OZCamera20OZCamera_farFadeImplE, 
                       __ZTSN8OZCamera20OZCamera_farFadeInfoE, __ZTSN8OZCamera21OZCamera_apertureImplE, 
                       __ZTSN8OZCamera21OZCamera_apertureInfoE, __ZTSN8OZCamera21OZCamera_farPlaneImplE, 
                       __ZTSN8OZCamera21OZCamera_farPlaneInfoE, __ZTSN8OZCamera21OZCamera_nearFadeImplE, 
                       __ZTSN8OZCamera21OZCamera_nearFadeInfoE, __ZTSN8OZCamera22OZCamera_dofFilterImplE, 
                       __ZTSN8OZCamera22OZCamera_dofOffsetInfoE, __ZTSN8OZCamera22OZCamera_nearPlaneImplE, 
                       __ZTSN8OZCamera22OZCamera_nearPlaneInfoE, __ZTSN8OZCamera23OZCamera_cameraTypeImplE, 
                       __ZTSN8OZCamera24OZCamera_angleOfViewImplE, __ZTSN8OZCamera24OZCamera_angleOfViewInfoE, 
                       __ZTSN8OZCamera25OZCamera_dofDepthModeImplE, __ZTSN8OZCamera27OZCamera_dofFilterShapeImplE, 
                       __ZTSN8OZCamera27OZCamera_dofFilterSidesImplE, __ZTSN8OZCamera27OZCamera_dofFilterSidesInfoE, 
                       __ZTSN8ProShade10Uniform44fE, __ZTSN8ProShade11TextureDataE, 
                       __ZTSN8ProShade13InsertVaryingE, __ZTSN8ProShade13SubstituteVarE, 
                       __ZTSN8ProShade15UniformBaseNodeE, __ZTSN8ProShade17SamplerCubeShadowE, 
                       __ZTSN8ProShade4FuncINS_10Func_crossEEE, __ZTSN8ProShade4FuncINS_11Func_lengthEEE, 
                       __ZTSN8ProShade4FuncINS_12Func_inverseEEE, __ZTSN8ProShade4FuncINS_12Func_reflectEEE, 
                       __ZTSN8ProShade4FuncINS_14Func_normalizeEEE, __ZTSN8ProShade4FuncINS_15Func_ftransformEEE, 
                       __ZTSN8ProShade4FuncINS_22ScalarFunctionTraits_1INS_10abs_traitsEEEEE, 
                       __ZTSN8ProShade4FuncINS_22ScalarFunctionTraits_1INS_10cos_traitsEEEEE, 
                       __ZTSN8ProShade4FuncINS_22ScalarFunctionTraits_1INS_10exp_traitsEEEEE, 
                       __ZTSN8ProShade4FuncINS_22ScalarFunctionTraits_1INS_10sin_traitsEEEEE, 
                       __ZTSN8ProShade4FuncINS_22ScalarFunctionTraits_1INS_11acos_traitsEEEEE, 
                       __ZTSN8ProShade4FuncINS_22ScalarFunctionTraits_1INS_11asin_traitsEEEEE, 
                       __ZTSN8ProShade4FuncINS_22ScalarFunctionTraits_1INS_11atan_traitsEEEEE, 
                       __ZTSN8ProShade4FuncINS_22ScalarFunctionTraits_1INS_11sqrt_traitsEEEEE, 
                       __ZTSN8ProShade4FuncINS_22ScalarFunctionTraits_1INS_12floor_traitsEEEEE, 
                       __ZTSN8ProShade4FuncINS_22ScalarFunctionTraits_2INS_10max_traitsEEEEE, 
                       __ZTSN8ProShade4FuncINS_22ScalarFunctionTraits_2INS_10min_traitsEEEEE, 
                       __ZTSN8ProShade4FuncINS_22ScalarFunctionTraits_2INS_10pow_traitsEEEEE, 
                       __ZTSN8ProShade4FuncINS_22ScalarFunctionTraits_2INS_11step_traitsEEEEE, 
                       __ZTSN8ProShade4FuncINS_22ScalarFunctionTraits_2INS_12equal_traitsEEEEE, 
                       __ZTSN8ProShade4FuncINS_22ScalarFunctionTraits_2INS_15lessThan_traitsEEEEE, 
                       __ZTSN8ProShade4FuncINS_22ScalarFunctionTraits_2INS_15notEqual_traitsEEEEE, 
                       __ZTSN8ProShade4FuncINS_22ScalarFunctionTraits_2INS_18greaterThan_traitsEEEEE, 
                       __ZTSN8ProShade4FuncINS_22ScalarFunctionTraits_2INS_20lessThanEqual_traitsEEEEE, 
                       __ZTSN8ProShade4FuncINS_22ScalarFunctionTraits_2INS_23greaterThanEqual_traitsEEEEE, 
                       __ZTSN8ProShade4FuncINS_22ScalarFunctionTraits_3INS_10mix_traitsEEEEE, 
                       __ZTSN8ProShade4FuncINS_22ScalarFunctionTraits_3INS_12clamp_traitsEEEEE, 
                       __ZTSN8ProShade4FuncINS_22ScalarFunctionTraits_3INS_17smoothstep_traitsEEEEE, 
                       __ZTSN8ProShade4FuncINS_8Func_dotEEE, __ZTSN8ProShade4FuncINS_9Func_condEEE, 
                       __ZTSN8ProShade4FuncINS_9Func_dFdxEEE, __ZTSN8ProShade4FuncINS_9Func_dFdyEEE, 
                       __ZTSN8ProShade4Mat4E, __ZTSN8ProShade4VarTINS_11SamplerNodeEEE, 
                       __ZTSN8ProShade4VarTINS_11UniformNodeEEE, __ZTSN8ProShade4VarTINS_4NodeEEE, 
                       __ZTSN8ProShade4VarTINS_5ConstEEE, __ZTSN8ProShade4VarTINS_8SelectorEEE, 
                       __ZTSN8ProShade4Vec2E, __ZTSN8ProShade4Vec3E, __ZTSN8ProShade4Vec4E, 
                       __ZTSN8ProShade5ConstE, __ZTSN8ProShade5FloatE, __ZTSN8ProShade6OutputE, 
                       __ZTSN8ProShade7SamplerE, __ZTSN8ProShade7UnaryOpINS_3NotEEE, 
                       __ZTSN8ProShade7UnaryOpINS_6NegateEEE, __ZTSN8ProShade7UniformE, 
                       __ZTSN8ProShade7VarBaseE, __ZTSN8ProShade8BinaryOpINS_11GreaterThanEEE, 
                       __ZTSN8ProShade8BinaryOpINS_14LessThanEqualsEEE, __ZTSN8ProShade8BinaryOpINS_17GreaterThanEqualsEEE, 
                       __ZTSN8ProShade8BinaryOpINS_3AddEEE, __ZTSN8ProShade8BinaryOpINS_6DivideEEE, 
                       __ZTSN8ProShade8BinaryOpINS_6EqualsEEE, __ZTSN8ProShade8BinaryOpINS_8LessThanEEE, 
                       __ZTSN8ProShade8BinaryOpINS_8MultiplyEEE, __ZTSN8ProShade8BinaryOpINS_8SubtractEEE, 
                       __ZTSN8ProShade8BinaryOpINS_9NotEqualsEEE, __ZTSN8ProShade8NamedVarE, 
                       __ZTSN8ProShade8SamplerTILi34067ELb1ELb0ELb0EEE, __ZTSN8ProShade8SamplerTILi3553ELb0ELb0ELb0EEE, 
                       __ZTSN8ProShade9PerVertexE, __ZTSN8ProShade9Sampler2DE, __ZTSN8ProShade9Uniform4fE, 
                       __ZTSN9OZElement18OZElement_cropInfoE, __ZTSN9OZElement20OZElement_lrSizeImplE, 
                       __ZTSN9OZElement20OZElement_lrSizeInfoE, __ZTSN9OZElement23OZElement_lrOpacityImplE, 
                       __ZTSN9OZElement25OZElement_lrIntensityImplE, __ZTSN9OZElement26OZElement_reflectivityImplE, 
                       __ZTSN9OZElement28OZElement_dropShadowBlurImplE, __ZTSN9OZElement28OZElement_dropShadowBlurInfoE, 
                       __ZTSN9OZElement28OZElement_reflectionBlurImplE, __ZTSN9OZElement29OZElement_castsReflectionImplE, 
                       __ZTSN9OZElement29OZElement_dropShadowAngleImplE, __ZTSN9OZElement31OZElement_dropShadowOpacityImplE, 
                       __ZTSN9OZElement32OZElement_dropShadowDistanceImplE, __ZTSN9OZElement34OZElement_reflectionEndFalloffImplE, 
                       __ZTSN9OZElement34OZElement_reflectionEndFalloffInfoE, __ZTSN9OZElement36OZElement_reflectionBeginFalloffImplE, 
                       __ZTSN9OZElement36OZElement_reflectionBeginFalloffInfoE, __ZTSN9OZElement39OZElement_reflectionFalloffExponentImplE, 
                       __ZTSN9OZElement39OZElement_reflectionFalloffExponentInfoE, 
                       __ZTSN9OZFootage19OZFootage_defogInfoE, __ZTSN9OZFootage21OZFootage_kneeLowInfoE, 
                       __ZTSN9OZFootage22OZFootage_exposureInfoE, __ZTSN9OZFootage22OZFootage_kneeHighInfoE, 
                       __ZTSN9OZFootage24OZFootage_fixedWidthInfoE, __ZTSN9OZFootage25OZFootage_fixedHeightInfoE, 
                       __ZTSN9PSEmitter22PSEmitter_spinChanImplE, __ZTSN9PSEmitter22PSEmitter_spinChanInfoE, 
                       __ZTSN9PSEmitter23PSEmitter_speedChanImplE, __ZTSN9PSEmitter23PSEmitter_speedChanInfoE, 
                       __ZTSN9PSEmitter24PSEmitter_radiusChanImplE, __ZTSN9PSEmitter24PSEmitter_radiusChanInfoE, 
                       __ZTSN9PSEmitter26PSEmitter_lifetimeChanImplE, __ZTSN9PSEmitter26PSEmitter_lifetimeChanInfoE, 
                       __ZTSN9PSEmitter26PSEmitter_rectSizeChanImplE, __ZTSN9PSEmitter26PSEmitter_rectSizeChanInfoE, 
                       __ZTSN9PSEmitter27PSEmitter_birthRateChanImplE, __ZTSN9PSEmitter27PSEmitter_birthRateChanInfoE, 
                       __ZTSN9PSEmitter27PSEmitter_numPointsChanImplE, __ZTSN9PSEmitter27PSEmitter_numPointsChanInfoE, 
                       __ZTSN9PSEmitter27PSEmitter_rectWidthChanImplE, __ZTSN9PSEmitter27PSEmitter_wavePhaseChanInfoE, 
                       __ZTSN9PSEmitter28PSEmitter_initialNumChanImplE, __ZTSN9PSEmitter28PSEmitter_numPointsUChanImplE, 
                       __ZTSN9PSEmitter28PSEmitter_numPointsUChanInfoE, __ZTSN9PSEmitter28PSEmitter_numPointsVChanImplE, 
                       __ZTSN9PSEmitter28PSEmitter_numPointsVChanInfoE, __ZTSN9PSEmitter28PSEmitter_numPointsWChanImplE, 
                       __ZTSN9PSEmitter28PSEmitter_numPointsWChanInfoE, __ZTSN9PSEmitter28PSEmitter_tileOffsetChanImplE, 
                       __ZTSN9PSEmitter28PSEmitter_tileOffsetChanInfoE, __ZTSN9PSEmitter28PSEmitter_tintAmountChanImplE, 
                       __ZTSN9PSEmitter29PSEmitter_emitPatternChanImplE, __ZTSN9PSEmitter29PSEmitter_renderSpaceChanImplE, 
                       __ZTSN9PSEmitter29PSEmitter_spiralCoeffChanImplE, __ZTSN9PSEmitter29PSEmitter_spiralCoeffChanInfoE, 
                       __ZTSN9PSEmitter29PSEmitter_strokeWidthChanImplE, __ZTSN9PSEmitter29PSEmitter_strokeWidthChanInfoE, 
                       __ZTSN9PSEmitter29PSEmitter_waveDampingChanImplE, __ZTSN9PSEmitter29PSEmitter_waveDampingChanInfoE, 
                       __ZTSN9PSEmitter30PSEmitter_pointsPerArmChanImplE, __ZTSN9PSEmitter30PSEmitter_pointsPerArmChanInfoE, 
                       __ZTSN9PSEmitter31PSEmitter_boxBuildStyleChanImplE, __ZTSN9PSEmitter31PSEmitter_emissionRangeChanImplE, 
                       __ZTSN9PSEmitter31PSEmitter_numRadialArmsChanImplE, __ZTSN9PSEmitter31PSEmitter_numRadialArmsChanInfoE, 
                       __ZTSN9PSEmitter31PSEmitter_outlineOffsetChanImplE, __ZTSN9PSEmitter31PSEmitter_outlineOffsetChanInfoE, 
                       __ZTSN9PSEmitter31PSEmitter_strokeWidthOSChanImplE, __ZTSN9PSEmitter31PSEmitter_strokeWidthOSChanInfoE, 
                       __ZTSN9PSEmitter31PSEmitter_waveAmplitudeChanImplE, __ZTSN9PSEmitter31PSEmitter_waveFrequencyChanImplE, 
                       __ZTSN9PSEmitter31PSEmitter_waveFrequencyChanInfoE, __ZTSN9PSEmitter32PSEmitter_boxBuildOriginChanImplE, 
                       __ZTSN9PSEmitter32PSEmitter_rectBuildStyleChanImplE, __ZTSN9PSEmitter33PSEmitter_openBuildOriginChanImplE, 
                       __ZTSN9PSEmitter33PSEmitter_rectBuildOriginChanImplE, __ZTSN9PSEmitter34PSEmitter_emissionLatitudeChanImplE, 
                       __ZTSN9PSEmitter35PSEmitter_closedBuildOriginChanImplE, __ZTSN9PSEmitter35PSEmitter_emissionLongitudeChanImplE, 
                       __ZTSN9PSEmitter35PSEmitter_radialBuildOriginChanImplE, __ZTSNSt3__110__back_refIcEE, 
                       __ZTSNSt3__110__function6__baseIF7PCCFRefIPK8__CTFontERK8PCStringdbRK17CGAffineTransformEEE, 
                       __ZTSNSt3__110__function6__baseIF7PCNSRefIP12NSColorSpaceEP12CGColorSpaceEEE, 
                       __ZTSNSt3__110__function6__baseIF9PCHash128RK18PCColorSpaceHandleEEE, 
                       __ZTSNSt3__110__function6__baseIFNS_10shared_ptrI15vImageConverterEEP12CGColorSpaceS6_EEE, 
                       __ZTSNSt3__110__function6__funcIPF7PCCFRefIPK8__CTFontERK8PCStringdbRK17CGAffineTransformENS_9allocatorISE_EESD_EE, 
                       __ZTSNSt3__110__function6__funcIPF7PCNSRefIP12NSColorSpaceEP12CGColorSpaceENS_9allocatorIS9_EES8_EE, 
                       __ZTSNSt3__110__function6__funcIPF9PCHash128RK18PCColorSpaceHandleENS_9allocatorIS7_EES6_EE, 
                       __ZTSNSt3__110__function6__funcIPFNS_10shared_ptrI15vImageConverterEEP12CGColorSpaceS6_ENS_9allocatorIS8_EES7_EE, 
                       __ZTSNSt3__110__l_anchorIcEE, __ZTSNSt3__110__r_anchorIcEE, 
                       __ZTSNSt3__110shared_ptrI10HGRendererE27__shared_ptr_default_deleteIS1_S1_EE, 
                       __ZTSNSt3__110shared_ptrI10OZFontFaceE27__shared_ptr_default_deleteIS1_18TXCoreTextTypefaceEE, 
                       __ZTSNSt3__110shared_ptrI11TXTextStyleE27__shared_ptr_default_deleteIS1_S1_EE, 
                       __ZTSNSt3__110shared_ptrI13TXHeliumGlyphE27__shared_ptr_default_deleteIS1_S1_EE, 
                       __ZTSNSt3__110shared_ptrI18PGFramebufferStackE27__shared_ptr_default_deleteIS1_S1_EE, 
                       __ZTSNSt3__110shared_ptrI18TXCoreTextTypefaceE27__shared_ptr_default_deleteIS1_S1_EE, 
                       __ZTSNSt3__110shared_ptrI5PCURLE27__shared_ptr_default_deleteIS1_S1_EE, 
                       __ZTSNSt3__110shared_ptrI7PCCacheI9PCHash128N14PGTextureCache9CacheDataE10PCSpinLockEE27__shared_ptr_default_deleteIS6_S6_EE, 
                       __ZTSNSt3__110shared_ptrI7PCCacheI9PCHash128N19OZMetalTextureCache9CacheDataE10PCSpinLockEE27__shared_ptr_default_deleteIS6_S6_EE, 
                       __ZTSNSt3__110shared_ptrI7PCMutexE27__shared_ptr_default_deleteIS1_S1_EE, 
                       __ZTSNSt3__110shared_ptrI8PCBitmapE27__shared_ptr_default_deleteIS1_10PCBitmap_tI11PCGrayPixelIN7ProCore7Private17PixelInfoTemplateILN13PCPixelFormat12ChannelOrderE1EEEEEEE, 
                       __ZTSNSt3__110shared_ptrI8PCBitmapE27__shared_ptr_default_deleteIS1_10PCBitmap_tI11PCGrayPixelIN7ProCore7Private17PixelInfoTemplateILN13PCPixelFormat12ChannelOrderE7EEEEEEE, 
                       __ZTSNSt3__110shared_ptrI8PCBitmapE27__shared_ptr_default_deleteIS1_10PCBitmap_tI8PCPixel4IN7ProCore7Private17PixelInfoTemplateILN13PCPixelFormat12ChannelOrderE10EEEEEEE, 
                       __ZTSNSt3__110shared_ptrI8PCBitmapE27__shared_ptr_default_deleteIS1_10PCBitmap_tI8PCPixel4IN7ProCore7Private17PixelInfoTemplateILN13PCPixelFormat12ChannelOrderE3EEEEEEE, 
                       __ZTSNSt3__110shared_ptrI8PCBitmapE27__shared_ptr_default_deleteIS1_10PCBitmap_tI8PCPixel4IN7ProCore7Private17PixelInfoTemplateILN13PCPixelFormat12ChannelOrderE5EEEEEEE, 
                       __ZTSNSt3__110shared_ptrI8PCBitmapE27__shared_ptr_default_deleteIS1_S1_EE, 
                       __ZTSNSt3__110shared_ptrI8PCStringE27__shared_ptr_default_deleteIS1_S1_EE, 
                       __ZTSNSt3__110shared_ptrIN5ProGL19DeletionInstructionEE27__shared_ptr_default_deleteIS2_29DeleteRenderbufferInstructionEE, 
                       __ZTSNSt3__110shared_ptrIN5ProGL7Private11ContextImplEE27__shared_ptr_default_deleteIS3_NS2_13NSContextImplEEE, 
                       __ZTSNSt3__110shared_ptrIN5ProGL7Private11ContextImplEE27__shared_ptr_default_deleteIS3_NS2_14CGLContextImplEEE, 
                       __ZTSNSt3__110shared_ptrIN5ProGL7Private15LazyTextureImplEE27__shared_ptr_default_deleteIS3_S3_EE, 
                       __ZTSNSt3__110shared_ptrIN5ProGL7Private16RenderbufferImplEE27__shared_ptr_default_deleteIS3_S3_EE, 
                       __ZTSNSt3__110shared_ptrIN5ProGL7Private17ProgramHandleImpl7FactoryEE27__shared_ptr_default_deleteIS4_NS2_15ProgramFactory0I10CompShaderEEEE, 
                       __ZTSNSt3__110shared_ptrIN5ProGL7Private17ProgramHandleImpl7FactoryEE27__shared_ptr_default_deleteIS4_NS2_15ProgramFactory0I10CopyShaderEEEE, 
                       __ZTSNSt3__110shared_ptrIN5ProGL7Private17ProgramHandleImpl7FactoryEE27__shared_ptr_default_deleteIS4_NS2_15ProgramFactory0I18DepthFilterProgramEEEE, 
                       __ZTSNSt3__110shared_ptrIN5ProGL7Private17ProgramHandleImpl7FactoryEE27__shared_ptr_default_deleteIS4_NS2_15ProgramFactory0IN12LiSolidUtils24TransparencyCountProgramEEEEE, 
                       __ZTSNSt3__110shared_ptrIN5ProGL7Private17ProgramHandleImpl7FactoryEE27__shared_ptr_default_deleteIS4_NS2_15ProgramFactory0IN12LiSolidUtils25CirclesOfConfusionProgramEEEEE, 
                       __ZTSNSt3__110shared_ptrIN5ProGL7Private17ProgramHandleImplEE27__shared_ptr_default_deleteIS3_S3_EE, 
                       __ZTSNSt3__110shared_ptrIN5ProGL7Private6ShaderEE27__shared_ptr_default_deleteIS3_S3_EE, 
                       __ZTSNSt3__110shared_ptrIN5ProGL7ProgramEE27__shared_ptr_default_deleteIS2_10CompShaderEE, 
                       __ZTSNSt3__110shared_ptrIN5ProGL7ProgramEE27__shared_ptr_default_deleteIS2_10CopyShaderEE, 
                       __ZTSNSt3__110shared_ptrIN5ProGL7ProgramEE27__shared_ptr_default_deleteIS2_18DepthFilterProgramEE, 
                       __ZTSNSt3__110shared_ptrIN5ProGL7ProgramEE27__shared_ptr_default_deleteIS2_N12LiSolidUtils24TransparencyCountProgramEEE, 
                       __ZTSNSt3__110shared_ptrIN5ProGL7ProgramEE27__shared_ptr_default_deleteIS2_N12LiSolidUtils25CirclesOfConfusionProgramEEE, 
                       __ZTSNSt3__110shared_ptrINS_12basic_stringIcNS_11char_traitsIcEENS_9allocatorIcEEEEE27__shared_ptr_default_deleteIS6_S6_EE, 
                       __ZTSNSt3__110shared_ptrINS_13__empty_stateIcEEE27__shared_ptr_default_deleteIS2_S2_EE, 
                       __ZTSNSt3__110shared_ptrINS_6vectorIhNS_9allocatorIhEEEEE27__shared_ptr_default_deleteIS4_S4_EE, 
                       __ZTSNSt3__110shared_ptrIcE27__shared_ptr_default_deleteIccEE, 
                       __ZTSNSt3__111__alternateIcEE, __ZTSNSt3__111__end_stateIcEE, 
                       __ZTSNSt3__111__lookaheadIcNS_12regex_traitsIcEEEE, __ZTSNSt3__111__match_anyIcEE, 
                       __ZTSNSt3__112__match_charIcEE, __ZTSNSt3__113__empty_stateIcEE, 
                       __ZTSNSt3__113__vector_baseIN2cc7point_tIdLb0ELb0EEENS_9allocatorIS3_EEEE, 
                       __ZTSNSt3__115__has_one_stateIcEE, __ZTSNSt3__115__word_boundaryIcNS_12regex_traitsIcEEEE, 
                       __ZTSNSt3__115basic_stringbufIcNS_11char_traitsIcEENS_9allocatorIcEEEE, 
                       __ZTSNSt3__116__back_ref_icaseIcNS_12regex_traitsIcEEEE, __ZTSNSt3__116__owns_one_stateIcEE, 
                       __ZTSNSt3__117__owns_two_statesIcEE, __ZTSNSt3__117__repeat_one_loopIcEE, 
                       __ZTSNSt3__117bad_function_callE, __ZTSNSt3__118__back_ref_collateIcNS_12regex_traitsIcEEEE, 
                       __ZTSNSt3__118__match_char_icaseIcNS_12regex_traitsIcEEEE, 
                       __ZTSNSt3__118basic_stringstreamIcNS_11char_traitsIcEENS_9allocatorIcEEEE, 
                       __ZTSNSt3__119basic_ostringstreamIcNS_11char_traitsIcEENS_9allocatorIcEEEE, 
                       __ZTSNSt3__120__bracket_expressionIcNS_12regex_traitsIcEEEE, 
                       __ZTSNSt3__120__match_char_collateIcNS_12regex_traitsIcEEEE, 
                       __ZTSNSt3__120__shared_ptr_emplaceI10PCBitmap_tI11PCGrayPixelIN7ProCore7Private17PixelInfoTemplateILN13PCPixelFormat12ChannelOrderE11EEEEENS_9allocatorISA_EEEE, 
                       __ZTSNSt3__120__shared_ptr_emplaceI10PCBitmap_tI11PCGrayPixelIN7ProCore7Private17PixelInfoTemplateILN13PCPixelFormat12ChannelOrderE14EEEEENS_9allocatorISA_EEEE, 
                       __ZTSNSt3__120__shared_ptr_emplaceI10PCBitmap_tI11PCGrayPixelIN7ProCore7Private17PixelInfoTemplateILN13PCPixelFormat12ChannelOrderE1EEEEENS_9allocatorISA_EEEE, 
                       __ZTSNSt3__120__shared_ptr_emplaceI10PCBitmap_tI11PCGrayPixelIN7ProCore7Private17PixelInfoTemplateILN13PCPixelFormat12ChannelOrderE7EEEEENS_9allocatorISA_EEEE, 
                       __ZTSNSt3__120__shared_ptr_emplaceI10PCBitmap_tI16PCGrayAlphaPixelIN7ProCore7Private17PixelInfoTemplateILN13PCPixelFormat12ChannelOrderE12EEEEENS_9allocatorISA_EEEE, 
                       __ZTSNSt3__120__shared_ptr_emplaceI10PCBitmap_tI16PCGrayAlphaPixelIN7ProCore7Private17PixelInfoTemplateILN13PCPixelFormat12ChannelOrderE15EEEEENS_9allocatorISA_EEEE, 
                       __ZTSNSt3__120__shared_ptr_emplaceI10PCBitmap_tI16PCGrayAlphaPixelIN7ProCore7Private17PixelInfoTemplateILN13PCPixelFormat12ChannelOrderE2EEEEENS_9allocatorISA_EEEE, 
                       __ZTSNSt3__120__shared_ptr_emplaceI10PCBitmap_tI16PCGrayAlphaPixelIN7ProCore7Private17PixelInfoTemplateILN13PCPixelFormat12ChannelOrderE8EEEEENS_9allocatorISA_EEEE, 
                       __ZTSNSt3__120__shared_ptr_emplaceI10PCBitmap_tI8PCPixel3IN7ProCore7Private17PixelInfoTemplateILN13PCPixelFormat12ChannelOrderE9EEEEENS_9allocatorISA_EEEE, 
                       __ZTSNSt3__120__shared_ptr_emplaceI10PCBitmap_tI8PCPixel4IN7ProCore7Private17PixelInfoTemplateILN13PCPixelFormat12ChannelOrderE10EEEEENS_9allocatorISA_EEEE, 
                       __ZTSNSt3__120__shared_ptr_emplaceI10PCBitmap_tI8PCPixel4IN7ProCore7Private17PixelInfoTemplateILN13PCPixelFormat12ChannelOrderE13EEEEENS_9allocatorISA_EEEE, 
                       __ZTSNSt3__120__shared_ptr_emplaceI10PCBitmap_tI8PCPixel4IN7ProCore7Private17PixelInfoTemplateILN13PCPixelFormat12ChannelOrderE16EEEEENS_9allocatorISA_EEEE, 
                       __ZTSNSt3__120__shared_ptr_emplaceI10PCBitmap_tI8PCPixel4IN7ProCore7Private17PixelInfoTemplateILN13PCPixelFormat12ChannelOrderE17EEEEENS_9allocatorISA_EEEE, 
                       __ZTSNSt3__120__shared_ptr_emplaceI10PCBitmap_tI8PCPixel4IN7ProCore7Private17PixelInfoTemplateILN13PCPixelFormat12ChannelOrderE3EEEEENS_9allocatorISA_EEEE, 
                       __ZTSNSt3__120__shared_ptr_emplaceI10PCBitmap_tI8PCPixel4IN7ProCore7Private17PixelInfoTemplateILN13PCPixelFormat12ChannelOrderE4EEEEENS_9allocatorISA_EEEE, 
                       __ZTSNSt3__120__shared_ptr_emplaceI10PCBitmap_tI8PCPixel4IN7ProCore7Private17PixelInfoTemplateILN13PCPixelFormat12ChannelOrderE5EEEEENS_9allocatorISA_EEEE, 
                       __ZTSNSt3__120__shared_ptr_emplaceI10PCBitmap_tI8PCPixel4IN7ProCore7Private17PixelInfoTemplateILN13PCPixelFormat12ChannelOrderE6EEEEENS_9allocatorISA_EEEE, 
                       __ZTSNSt3__120__shared_ptr_emplaceI11TXTextStyleNS_9allocatorIS1_EEEE, 
                       __ZTSNSt3__120__shared_ptr_emplaceI12TXTextObjectNS_9allocatorIS1_EEEE, 
                       __ZTSNSt3__120__shared_ptr_emplaceI14PCWorkingColorNS_9allocatorIS1_EEEE, 
                       __ZTSNSt3__120__shared_ptr_emplaceI14PGMetalTextureNS_9allocatorIS1_EEEE, 
                       __ZTSNSt3__120__shared_ptr_emplaceI15BumpTextureImplNS_9allocatorIS1_EEEE, 
                       __ZTSNSt3__120__shared_ptr_emplaceI15CubeTextureImplNS_9allocatorIS1_EEEE, 
                       __ZTSNSt3__120__shared_ptr_emplaceI17SimpleTextureImplNS_9allocatorIS1_EEEE, 
                       __ZTSNSt3__120__shared_ptr_emplaceI23LiTextureStoreTokenImplNS_9allocatorIS1_EEEE, 
                       __ZTSNSt3__120__shared_ptr_emplaceI24SpecularAngleTextureImplNS_9allocatorIS1_EEEE, 
                       __ZTSNSt3__120__shared_ptr_emplaceI25LiRenderQueueTextureOwnerNS_9allocatorIS1_EEEE, 
                       __ZTSNSt3__120__shared_ptr_emplaceI32PVMtlTexturePoolAllocationPolicyNS_9allocatorIS1_EEEE, 
                       __ZTSNSt3__120__shared_ptr_emplaceI7PCMutexNS_9allocatorIS1_EEEE, 
                       __ZTSNSt3__120__shared_ptr_emplaceIN5ProGL12ObjectHandle4DataENS_9allocatorIS3_EEEE, 
                       __ZTSNSt3__120__shared_ptr_emplaceIN5ProGL17BitmapTextureDataENS_9allocatorIS2_EEEE, 
                       __ZTSNSt3__120__shared_ptr_pointerIP10CompShaderNS_10shared_ptrIN5ProGL7ProgramEE27__shared_ptr_default_deleteIS5_S1_EENS_9allocatorIS1_EEEE, 
                       __ZTSNSt3__120__shared_ptr_pointerIP10CopyShaderNS_10shared_ptrIN5ProGL7ProgramEE27__shared_ptr_default_deleteIS5_S1_EENS_9allocatorIS1_EEEE, 
                       __ZTSNSt3__120__shared_ptr_pointerIP10HGRendererNS_10shared_ptrIS1_E27__shared_ptr_default_deleteIS1_S1_EENS_9allocatorIS1_EEEE, 
                       __ZTSNSt3__120__shared_ptr_pointerIP10HGRendererPFvS2_ENS_9allocatorIS1_EEEE, 
                       __ZTSNSt3__120__shared_ptr_pointerIP10PCBitmap_tI11PCGrayPixelIN7ProCore7Private17PixelInfoTemplateILN13PCPixelFormat12ChannelOrderE1EEEEENS_10shared_ptrI8PCBitmapE27__shared_ptr_default_deleteISD_SA_EENS_9allocatorISA_EEEE, 
                       __ZTSNSt3__120__shared_ptr_pointerIP10PCBitmap_tI11PCGrayPixelIN7ProCore7Private17PixelInfoTemplateILN13PCPixelFormat12ChannelOrderE7EEEEENS_10shared_ptrI8PCBitmapE27__shared_ptr_default_deleteISD_SA_EENS_9allocatorISA_EEEE, 
                       __ZTSNSt3__120__shared_ptr_pointerIP10PCBitmap_tI8PCPixel4IN7ProCore7Private17PixelInfoTemplateILN13PCPixelFormat12ChannelOrderE10EEEEENS_10shared_ptrI8PCBitmapE27__shared_ptr_default_deleteISD_SA_EENS_9allocatorISA_EEEE, 
                       __ZTSNSt3__120__shared_ptr_pointerIP10PCBitmap_tI8PCPixel4IN7ProCore7Private17PixelInfoTemplateILN13PCPixelFormat12ChannelOrderE3EEEEENS_10shared_ptrI8PCBitmapE27__shared_ptr_default_deleteISD_SA_EENS_9allocatorISA_EEEE, 
                       __ZTSNSt3__120__shared_ptr_pointerIP10PCBitmap_tI8PCPixel4IN7ProCore7Private17PixelInfoTemplateILN13PCPixelFormat12ChannelOrderE5EEEEENS_10shared_ptrI8PCBitmapE27__shared_ptr_default_deleteISD_SA_EENS_9allocatorISA_EEEE, 
                       __ZTSNSt3__120__shared_ptr_pointerIP11PGTexture1D15PGTextureHelperNS_9allocatorIS1_EEEE, 
                       __ZTSNSt3__120__shared_ptr_pointerIP11PGTexture2D15PGTextureHelperNS_9allocatorIS1_EEEE, 
                       __ZTSNSt3__120__shared_ptr_pointerIP11TXTextStyleNS_10shared_ptrIS1_E27__shared_ptr_default_deleteIS1_S1_EENS_9allocatorIS1_EEEE, 
                       __ZTSNSt3__120__shared_ptr_pointerIP13PGTextureRect15PGTextureHelperNS_9allocatorIS1_EEEE, 
                       __ZTSNSt3__120__shared_ptr_pointerIP13TXHeliumGlyphNS_10shared_ptrIS1_E27__shared_ptr_default_deleteIS1_S1_EENS_9allocatorIS1_EEEE, 
                       __ZTSNSt3__120__shared_ptr_pointerIP14CGDataProviderPFvS2_ENS_9allocatorIS1_EEEE, 
                       __ZTSNSt3__120__shared_ptr_pointerIP14__CFDictionaryPFvPKvENS_9allocatorIS1_EEEE, 
                       __ZTSNSt3__120__shared_ptr_pointerIP15vImageConverterPFvS2_ENS_9allocatorIS1_EEEE, 
                       __ZTSNSt3__120__shared_ptr_pointerIP16PGTextureCubeMap15PGTextureHelperNS_9allocatorIS1_EEEE, 
                       __ZTSNSt3__120__shared_ptr_pointerIP18CGImageDestinationPFvPKvENS_9allocatorIS1_EEEE, 
                       __ZTSNSt3__120__shared_ptr_pointerIP18DepthFilterProgramNS_10shared_ptrIN5ProGL7ProgramEE27__shared_ptr_default_deleteIS5_S1_EENS_9allocatorIS1_EEEE, 
                       __ZTSNSt3__120__shared_ptr_pointerIP18PGFramebufferStackNS_10shared_ptrIS1_E27__shared_ptr_default_deleteIS1_S1_EENS_9allocatorIS1_EEEE, 
                       __ZTSNSt3__120__shared_ptr_pointerIP18TXCoreTextTypefaceNS_10shared_ptrI10OZFontFaceE27__shared_ptr_default_deleteIS4_S1_EENS_9allocatorIS1_EEEE, 
                       __ZTSNSt3__120__shared_ptr_pointerIP18TXCoreTextTypefaceNS_10shared_ptrIS1_E27__shared_ptr_default_deleteIS1_S1_EENS_9allocatorIS1_EEEE, 
                       __ZTSNSt3__120__shared_ptr_pointerIP29DeleteRenderbufferInstructionNS_10shared_ptrIN5ProGL19DeletionInstructionEE27__shared_ptr_default_deleteIS5_S1_EENS_9allocatorIS1_EEEE, 
                       __ZTSNSt3__120__shared_ptr_pointerIP5PCURLNS_10shared_ptrIS1_E27__shared_ptr_default_deleteIS1_S1_EENS_9allocatorIS1_EEEE, 
                       __ZTSNSt3__120__shared_ptr_pointerIP7CGColorPFvPKvENS_9allocatorIS1_EEEE, 
                       __ZTSNSt3__120__shared_ptr_pointerIP7CGImagePFvS2_ENS_9allocatorIS1_EEEE, 
                       __ZTSNSt3__120__shared_ptr_pointerIP7PCCacheI9PCHash128N14PGTextureCache9CacheDataE10PCSpinLockENS_10shared_ptrIS6_E27__shared_ptr_default_deleteIS6_S6_EENS_9allocatorIS6_EEEE, 
                       __ZTSNSt3__120__shared_ptr_pointerIP7PCCacheI9PCHash128N19OZMetalTextureCache9CacheDataE10PCSpinLockENS_10shared_ptrIS6_E27__shared_ptr_default_deleteIS6_S6_EENS_9allocatorIS6_EEEE, 
                       __ZTSNSt3__120__shared_ptr_pointerIP7PCMutexNS_10shared_ptrIS1_E27__shared_ptr_default_deleteIS1_S1_EENS_9allocatorIS1_EEEE, 
                       __ZTSNSt3__120__shared_ptr_pointerIP7__sFILEPFiS2_ENS_9allocatorIS1_EEEE, 
                       __ZTSNSt3__120__shared_ptr_pointerIP8PCBitmapNS_10shared_ptrIS1_E27__shared_ptr_default_deleteIS1_S1_EENS_9allocatorIS1_EEEE, 
                       __ZTSNSt3__120__shared_ptr_pointerIP8PCStringNS_10shared_ptrIS1_E27__shared_ptr_default_deleteIS1_S1_EENS_9allocatorIS1_EEEE, 
                       __ZTSNSt3__120__shared_ptr_pointerIP9CGContextPFvS2_ENS_9allocatorIS1_EEEE, 
                       __ZTSNSt3__120__shared_ptr_pointerIP9PGContext16PGContextDeleterNS_9allocatorIS1_EEEE, 
                       __ZTSNSt3__120__shared_ptr_pointerIPK10__CFStringPFvPKvENS_9allocatorIS2_EEEE, 
                       __ZTSNSt3__120__shared_ptr_pointerIPN12LiSolidUtils24TransparencyCountProgramENS_10shared_ptrIN5ProGL7ProgramEE27__shared_ptr_default_deleteIS6_S2_EENS_9allocatorIS2_EEEE, 
                       __ZTSNSt3__120__shared_ptr_pointerIPN12LiSolidUtils25CirclesOfConfusionProgramENS_10shared_ptrIN5ProGL7ProgramEE27__shared_ptr_default_deleteIS6_S2_EENS_9allocatorIS2_EEEE, 
                       __ZTSNSt3__120__shared_ptr_pointerIPN5ProGL7Private13NSContextImplENS_10shared_ptrINS2_11ContextImplEE27__shared_ptr_default_deleteIS6_S3_EENS_9allocatorIS3_EEEE, 
                       __ZTSNSt3__120__shared_ptr_pointerIPN5ProGL7Private14CGLContextImplENS_10shared_ptrINS2_11ContextImplEE27__shared_ptr_default_deleteIS6_S3_EENS_9allocatorIS3_EEEE, 
                       __ZTSNSt3__120__shared_ptr_pointerIPN5ProGL7Private15LazyTextureImplENS_10shared_ptrIS3_E27__shared_ptr_default_deleteIS3_S3_EENS_9allocatorIS3_EEEE, 
                       __ZTSNSt3__120__shared_ptr_pointerIPN5ProGL7Private15ProgramFactory0I10CompShaderEENS_10shared_ptrINS2_17ProgramHandleImpl7FactoryEE27__shared_ptr_default_deleteIS9_S5_EENS_9allocatorIS5_EEEE, 
                       __ZTSNSt3__120__shared_ptr_pointerIPN5ProGL7Private15ProgramFactory0I10CopyShaderEENS_10shared_ptrINS2_17ProgramHandleImpl7FactoryEE27__shared_ptr_default_deleteIS9_S5_EENS_9allocatorIS5_EEEE, 
                       __ZTSNSt3__120__shared_ptr_pointerIPN5ProGL7Private15ProgramFactory0I18DepthFilterProgramEENS_10shared_ptrINS2_17ProgramHandleImpl7FactoryEE27__shared_ptr_default_deleteIS9_S5_EENS_9allocatorIS5_EEEE, 
                       __ZTSNSt3__120__shared_ptr_pointerIPN5ProGL7Private15ProgramFactory0IN12LiSolidUtils24TransparencyCountProgramEEENS_10shared_ptrINS2_17ProgramHandleImpl7FactoryEE27__shared_ptr_default_deleteISA_S6_EENS_9allocatorIS6_EEEE, 
                       __ZTSNSt3__120__shared_ptr_pointerIPN5ProGL7Private15ProgramFactory0IN12LiSolidUtils25CirclesOfConfusionProgramEEENS_10shared_ptrINS2_17ProgramHandleImpl7FactoryEE27__shared_ptr_default_deleteISA_S6_EENS_9allocatorIS6_EEEE, 
                       __ZTSNSt3__120__shared_ptr_pointerIPN5ProGL7Private16RenderbufferImplENS_10shared_ptrIS3_E27__shared_ptr_default_deleteIS3_S3_EENS_9allocatorIS3_EEEE, 
                       __ZTSNSt3__120__shared_ptr_pointerIPN5ProGL7Private17ProgramHandleImplENS_10shared_ptrIS3_E27__shared_ptr_default_deleteIS3_S3_EENS_9allocatorIS3_EEEE, 
                       __ZTSNSt3__120__shared_ptr_pointerIPN5ProGL7Private6ShaderENS_10shared_ptrIS3_E27__shared_ptr_default_deleteIS3_S3_EENS_9allocatorIS3_EEEE, 
                       __ZTSNSt3__120__shared_ptr_pointerIPNS_12basic_stringIcNS_11char_traitsIcEENS_9allocatorIcEEEENS_10shared_ptrIS6_E27__shared_ptr_default_deleteIS6_S6_EENS4_IS6_EEEE, 
                       __ZTSNSt3__120__shared_ptr_pointerIPNS_13__empty_stateIcEENS_10shared_ptrIS2_E27__shared_ptr_default_deleteIS2_S2_EENS_9allocatorIS2_EEEE, 
                       __ZTSNSt3__120__shared_ptr_pointerIPNS_6vectorIhNS_9allocatorIhEEEENS_10shared_ptrIS4_E27__shared_ptr_default_deleteIS4_S4_EENS2_IS4_EEEE, 
                       __ZTSNSt3__120__shared_ptr_pointerIPcNS_10shared_ptrIcE27__shared_ptr_default_deleteIccEENS_9allocatorIcEEEE, 
                       __ZTSNSt3__120__vector_base_commonILb1EEE, __ZTSNSt3__121__empty_non_own_stateIcEE, 
                       __ZTSNSt3__123__match_any_but_newlineIcEE, __ZTSNSt3__123enable_shared_from_thisI7OZStyleEE, 
                       __ZTSNSt3__123enable_shared_from_thisI7PCImageEE, __ZTSNSt3__126__end_marked_subexpressionIcEE, 
                       __ZTSNSt3__128__begin_marked_subexpressionIcEE, __ZTSNSt3__13setI12OZTimeMarkerNS_4lessIS1_EENS_9allocatorIS1_EEEE, 
                       __ZTSNSt3__13setI7OZGuideNS_4lessIS1_EENS_9allocatorIS1_EEEE, 
                       __ZTSNSt3__16__loopIcEE, __ZTSNSt3__16__nodeIcEE, __ZTSNSt3__16vectorIN2cc7point_tIdLb0ELb0EEENS_9allocatorIS3_EEEE, 
                       __ZTSP11AbsorbLayer, __ZTSP12FresnelLayer, __ZTSP13LiSceneObject, 
                       __ZTSP17BumpMaterialLayer, __ZTSP17FlatMaterialLayer, __ZTSP20DiffuseMaterialLayer, 
                       __ZTSP21EmissiveMaterialLayer, __ZTSP21SpecularMaterialLayer, 
                       __ZTSP7LiGroup, __ZTSPF7PCCFRefIPK8__CTFontERK8PCStringdbRK17CGAffineTransformE, 
                       __ZTSPF7PCNSRefIP12NSColorSpaceEP12CGColorSpaceE, __ZTSPF9PCHash128RK18PCColorSpaceHandleE, 
                       __ZTSPFNSt3__110shared_ptrI15vImageConverterEEP12CGColorSpaceS4_E, 
                       __ZTSPFiP7__sFILEE, __ZTSPFvP10HGRendererE, __ZTSPFvP14CGDataProviderE, 
                       __ZTSPFvP15vImageConverterE, __ZTSPFvP7CGImageE, __ZTSPFvP9CGContextE, 
                       __ZTSPFvPKvE ]
  - targets:         [ x86_64-macos, arm64e-macos, arm64-macos ]
    symbols:         [ _AppStartupActionPreferenceKey, _CGAffineTransformFromPVAnimInfo, 
                       _CGAffineTransformFromPointWithPVAnimInfo, _CreatePVLPThrottlingControlParameters, 
                       _FiltersLiteVersionNumber, _FiltersLiteVersionString, _FirstFrameNumberPreferenceKey, 
                       _FxDebugAssert, _FxDebugLog, _FxDeviceAreInSamePeerGroup, 
                       _FxDeviceAreMatchingGPUs, _FxDeviceAreSameGPUs, _FxDeviceComputeActiveGPUsSet, 
                       _FxDeviceComputeWorkingSet, _FxDeviceCountDevicesInSet, _FxDeviceGetAllDevices, 
                       _FxDeviceGetAllGPUs, _FxDeviceGetCPUDevice, _FxDeviceGetDeviceAtIndex, 
                       _FxDeviceGetEmptyDeviceSet, _FxDeviceGetGPUForMetalDevice, 
                       _FxDeviceGetLogString, _FxDeviceGetMemorySize, _FxDeviceGetMetalDevice, 
                       _FxDeviceGetRegistryID, _FxDeviceGetVirtualScreen, _FxDeviceIsCPU, 
                       _FxDeviceIsDiscrete, _FxDeviceIsDisplayAttached, _FxDeviceIsGPU, 
                       _FxDeviceIsHeadless, _FxDeviceIsIntegrated, _FxDeviceIsInternal, 
                       _FxDeviceIsLoggingEnabled, _FxDeviceIsMuxConfig, _FxDeviceIsRemovable, 
                       _FxDeviceIsSharedGPU, _FxDeviceIsThisMetalDevice, _FxDeviceIsValid, 
                       _FxDeviceLogActiveSet, _FxDeviceLogWorkingSet, _FxDeviceMakeSetByAddingDeviceToSet, 
                       _FxDeviceMakeSetByIntersectingSets, _FxDeviceSetContainsDevice, 
                       _FxDeviceSetsAreEquivalent, _FxIsDebugFlagOn, _FxPlugErrorDomain, 
                       _FxPlugFrameworkLiteVersionNumber, _FxPlugFrameworkLiteVersionString, 
                       _LithiumLiteVersionNumber, _LithiumLiteVersionString, _MGLibraryDisplayPreferencesDidChangeNotification, 
                       _Motion3DTextExtrusionChannelAttributeName, _Motion3DTextExtrusionChannelSetterAttributeName, 
                       _Motion3DTextLayerDictionary_LayerChannelSetterKey, _Motion3DTextLayerDictionary_LayerChannelsKey, 
                       _Motion3DTextLayerDictionary_LayerClassKey, _Motion3DTextLayerDictionary_LayerFlagsKey, 
                       _Motion3DTextLayerDictionary_LayerTypeKey, _Motion3DTextMaterialChannelAttributeName, 
                       _Motion3DTextMaterialChannelSetterAttributeName, _Motion3DTextMaterialDictionary_LayersKey, 
                       _Motion3DTextMaterialDictionary_MaterialChannelSetterKey, 
                       _Motion3DTextMaterialDictionary_MaterialChannelsKey, _Motion3DTextMaterialDictionary_MaterialFlagsKey, 
                       _Motion3DTextMaterialDictionary_MaterialNameKey, _MotionTextStyleAllCapsAttributeName, 
                       _MyDataProviderReleaser, _NSStringFromPVCGPointQuad, _NSStringFromPVTransformAnimationInfo, 
                       _NSStringFromPVTransformInfo, _NSStringFromSIMDDouble2, _NSStringFromSIMDDouble3, 
                       _NSStringFromSIMDDouble3x3, _NSStringFromSIMDDouble4, _NSStringFromSIMDDouble4x4, 
                       _NSStringFromSIMDDouble8, _NSStringFromSIMDFloat16, _NSStringFromSIMDFloat2, 
                       _NSStringFromSIMDFloat3, _NSStringFromSIMDFloat3x3, _NSStringFromSIMDFloat4, 
                       _NSStringFromSIMDFloat4x4, _NSStringFromSIMDFloat8, _NSStringFromSIMDQuatD, 
                       _NSStringFromSIMDQuatF, _OZChannelFolderScope, _OZChannelVertexFolderScope, 
                       _OZDocumentScope, _OZInspectorScope, _OZMaterialAddRemoveNotification, 
                       _OZMsgTracerEnableLogging, _OZMsgTracerIsLoggingEnabled, _OZMsgTracerLogAppStats, 
                       _OZMsgTracerLogFeatureUsage, _OZMsgTracerLogFxPlugUsage, _OZMsgTracerLogMediaUsage, 
                       _OZMsgTracerLogMotionEffectUsageV2, _OZMsgTracerLogNewProjectInfo, 
                       _OZMsgTracerLogShareDestination, _OZMsgTracerLogShareRenderSettings, 
                       _OZMsgTracerLogTextLanguage, _OZMsgTracerLogUIUsage, _OZXCleanup, 
                       _OZXCloseDocumentMedia, _OZXCopyDocument, _OZXDropZoneCount, 
                       _OZXFreeAudioBuffer, _OZXFreeBitmap, _OZXFreeDocument, _OZXFreeTexture, 
                       _OZXGetAudio, _OZXGetAudio2, _OZXGetDocInfo, _OZXGetDropZone, 
                       _OZXGetDropZoneFootage, _OZXGetDropZoneIDMap, _OZXGetDropZoneIndex, 
                       _OZXGetFrame, _OZXGetFrameAsBitmap, _OZXGetFrameAsTexture, 
                       _OZXGetMarker, _OZXGetMarkerFigTime, _OZXGetObjectDisplayName, 
                       _OZXGetReferencedMedia, _OZXGetURLInfo, _OZXInitialize, _OZXInitializeWithDelegateAndBundlePath, 
                       _OZXInitializeWithPath, _OZXIsFloatRenderingAvailable, _OZXIsValidFootage, 
                       _OZXLoadDocument, _OZXMarkerCount, _OZXNewDocument, _OZXOpenDocumentMedia, 
                       _OZXSaveDocument, _OZXSetAbortFunction, _OZXSetCacheControl, 
                       _OZXSetDropZoneCrop, _OZXSetDropZoneFootage, _OZXSetDropZoneOpacityAnimation, 
                       _OZXSetDropZonePan, _OZXSetDropZonePanAtTime, _OZXSetDropZoneScale, 
                       _OZXSetDropZoneScaleAnimation, _OZXSetDropZoneScaleAtTime, 
                       _OZXSetDropZoneTranslation, _OZXSetDropZoneTranslationAnimation, 
                       _OZXSetDropZoneTranslationAtTime, _OZXSetDropZoneZoom, _OZXSetDropZoneZoomAtTime, 
                       _OZXSetImageSequencePath, _OZXSetLoadCallbackPtr, _OZXSetShapeRGBColor, 
                       _OZXSetShapeVertices, _OZXSetStickerPath, _OZXSetTargetDisplayAspectRatio, 
                       _OZXVersion, _OzoneLiteVersionNumber, _OzoneLiteVersionString, 
                       _PCCreateStringFromMD5Hash, _PCDebugger, _PCGamutIsHDRColorSpace, 
                       _PCGetColorGamut, _PCGetColorGamutFromNCLC, _PCGetColorSpaceLuminanceCoefficients, 
                       _PCGetDefaultWorkingColorSpace, _PCGetGamutColorSpace, _PCGetGamutColorSpaceLuminanceCoefficients, 
                       _PCGetOutputColorSpace, _PCGetProCoreSignPostEnableMask, _PCGetUIColorSpace, 
                       _PCGetUIColorSpaceID, _PCGetUINSColorSpace, _PCGetWorkingColorSpace, 
                       _PCGetWorkingColorSpaceGammaEquivalent, _PCGetWorkingColorSpaceLuminanceCoefficients, 
                       _PCGetWorkingColorSpaceRGBToYCbCrMatrix, _PCGetWorkingColorSpaceYCbCrToRGBMatrix, 
                       _PCGetWorkingGamut, _PCGetWorkingGamutFromNCLC, _PCHash128Add, 
                       _PCHash128Aligned32, _PCHash128Aligned64, _PCHash128AlignedLocal, 
                       _PCHash128Compare, _PCHash128CreateCString, _PCHash128StateNull, 
                       _PCInDebugger, _PCInfo_IsUnitTesting, _PCInfo_ShouldEnableMetalLayerEDRContent, 
                       _PCMD5HashFromCFString, _PCMD5HashFromNSString, _PCMD5HashToString, 
                       _PCMD5HashWithBytes, _PCMD5HashWithCFString, _PCMD5HashWithFloat64, 
                       _PCMD5HashWithInt32, _PCMD5HashWithInt64, _PCMD5HashWithNSString, 
                       _PCMD5HashWithObject, _PCMD5HashWithPointer, _PCMatrixAxisX, 
                       _PCMatrixAxisY, _PCMatrixAxisZ, _PCPrint, _PCPrintIndent, 
                       _PCPrintStack, _PCPrintStackStart, _PCPrintStackStop, _PCPrintVA, 
                       _PGLCleanup, _PGLCreateSharedCGLContextObj, _PGLCreateSharedNSOGLContext, 
                       _PGLInit, _PGLMasterCGLContext, _PGLMasterCGLPixelFormat, 
                       _PGLMasterNSOGLContext, _PGLMasterNSOGLPixelFormat, _PGLMasterPixelFormatAttributes, 
                       _PROPlugBundleDictionaryVersion, _PROPlugBundleDynamicRegistration, 
                       _PROPlugBundlePlugInGroupList, _PROPlugBundlePlugInList, _PROPlugBundleProtocolList, 
                       _PROPlugErrorDomain, _PROPlugGroupName, _PROPlugGroupUUID, 
                       _PROPlugInClassNameKey, _PROPlugInDisplayNameKey, _PROPlugInGroupKey, 
                       _PROPlugInHelpURLKey, _PROPlugInIconFileKey, _PROPlugInImplementedProtocolsKey, 
                       _PROPlugInInfoStringKey, _PROPlugInLocalizationTableKey, _PROPlugInUUIDKey, 
                       _PROPlugInVendorNameKey, _PROPlugInVersionKey, _PROPlugProtocolName, 
                       _PROPlugProtocolVersions, _PVCGPointQuadZero, _PVGetMemUsageStats, 
                       _PVGetMemUsageString, _PVLogMemUsage, _PVNumbersAreEqualAsBooleans, 
                       _PVNumbersAreEqualAsDoubles, _PVNumbersAreEqualAsIntegers, 
                       _PVThermalMonitorLevelChangedNewLevelKey, _PVThermalMonitorLevelChangedNotification, 
                       _PVThermalMonitorLevelChangedPreviousLevelKey, _PVThermalMonitorLevelName, 
                       _PVThermalMonitorNextLevel, _PVThermalMonitorPreviousLevel, 
                       _PVTransformAnimationInfoForLiveCapture, _PVTransformAnimationInfoForPlayback, 
                       _PVTransformAnimationInfoIdentity, _PVTransformAnimationInfoIsIdentity, 
                       _PVValuesAreEqualAsCGSizes, _PVVideoCompositingContextBufferFormatKey, 
                       _PVVideoCompositingContextConcatentationKey, _PVVideoCompositingContextDeviceIDKey, 
                       _PVVideoCompositingContextDotGraphLevelKey, _PVVideoCompositingContextDynamicPlaybackKey, 
                       _PVVideoCompositingContextFilterModeKey, _PVVideoCompositingContextGPURenderAPIKey, 
                       _PVVideoCompositingContextGraphDumpLevelKey, _PVVideoCompositingContextInstructionGraphDotTreeLevelKey, 
                       _PVVideoCompositingContextInstructionGraphDumpLevelKey, _PVVideoCompositingContextNumCPUThreadsKey, 
                       _PVVideoCompositingContextPMRLevelKey, _PVVideoCompositingContextPageSizeKey, 
                       _PVVideoCompositingContextPerfStatsLogLevelKey, _PVVideoCompositingContextPowerFriendlyExport, 
                       _PVVideoCompositingContextShaderFormatKey, _PVVideoCompositingContextSignPostLevelKey, 
                       _PVVideoCompositingContextStatsFlagKey, _PVVideoCompositingContextStatsMaxValsKey, 
                       _PVVideoCompositingContextStatsWarmUpKey, _PVVideoCompositingContextTextureBorderKey, 
                       _PVVideoCompositingContextTileSizeKey, _PVVideoCompositingContextTraceGLLevelKey, 
                       _PVVideoCompositingContextTraceMetalLevelKey, _PluginManagerLiteVersionNumber, 
                       _PluginManagerLiteVersionString, _ProAppsFxSupportLiteVersionNumber, 
                       _ProAppsFxSupportLiteVersionString, _ProChannelLiteVersionNumber, 
                       _ProChannelLiteVersionString, _ProCoreLiteVersionNumber, _ProCoreLiteVersionString, 
                       _ProGLLiteVersionNumber, _ProGLLiteVersionString, _ProPlugInCopyCFString, 
                       _ProPlugInCreateInstance, _ProPlugInGetClass, _ProPlugInHasProtocol, 
                       _ProPlugInRelease, _ProPlugInRetain, _ProPlugScan, _ProShapesLiteXVersionNumber, 
                       _ProShapesLiteXVersionString, _ProVideoVersionNumber, _ProVideoVersionString, 
                       _TXPasteEntryType, _TimeDisplayModePreferenceKey, __PCBreakUnderDebugger, 
                       __PCLogAssertionBreak, __PCLogMessage, __PCNSLog, __PCPrintBacktrace, 
                       __PCSetCrashReporterMessage, __Z10FFReadLockP14FFMotionEffect, 
                       __Z10MyCG_CloseRK19PMFormatDescriptionPv, __Z10Vec2fLessYRK5Vec2fS1_, 
                       __Z10applyClampRK5HGRefI6HGNodeE, __Z10blendNodesP10HGRendererRK5HGRefI6HGNodeES5_11PCBlendModefdbb, 
                       __Z10liIsConvexRK10LiChannelTI9PCVector2IdEE, __Z10solveCubicddddPiPd, 
                       __Z10wrapHeightff, __Z11FFWriteLockP14FFMotionEffect, __Z11GetHostTimev, 
                       __Z11MyCG_CreateRK18PMVideoDescriptionRK18PMAudioDescriptionP19PMFormatDescriptionRK5PCURLPPv, 
                       __Z11PCPlaneTypeRK9PCVector4IdE, __Z11_CheckRangeiiiPKcS0_i, 
                       __Z11inversesqrtf, __Z11signed_areaRK10LiChannelTI9PCVector2IdEE, 
                       __Z11solveLinearddPiPd, __Z12FFReadUnlockP14FFMotionEffect, 
                       __Z12IntRetrievalPU37objcproto26FxParameterRetrievalAPI_v511objc_objectj6CMTime, 
                       __Z12MyCG_CanReadP17PMPluginInterfaceRK5PCURLRK8PCString, 
                       __Z12MyCG_GetInfoP19PMFormatDescriptionRK5PCURLPv, __Z12MyCG_GetNameP17PMPluginInterface, 
                       __Z12MyCG_IsStillv, __Z12OZBezierEvalPKdd, __Z12PCLoadBitmapPK7__CFURL, 
                       __Z12PCMakeTRCTagRK21PCICCTransferFunctionR8PCICCTag12PCICCTRCName, 
                       __Z12RGBRetrievalPU37objcproto26FxParameterRetrievalAPI_v511objc_objectj6CMTime, 
                       __Z12_PCMod_errorPKcS0_i, __Z12calcRotationRK9PCVector3IdES2_S2_S2_d, 
                       __Z12circumscribeRNSt3__16vectorI9PCVector2IdENS_9allocatorIS2_EEEERS2_Rd, 
                       __Z12is_clockwiseRK10LiChannelTI9PCVector2IdEE, __Z12pv_is_finite10simd_quatd, 
                       __Z12pv_is_finite10simd_quatf, __Z12pv_is_finite13PVCGPointQuad, 
                       __Z12pv_is_finite13simd_float3x3, __Z12pv_is_finite13simd_float4x4, 
                       __Z12pv_is_finite14simd_double3x3, __Z12pv_is_finite14simd_double4x4, 
                       __Z12pv_is_finite15PVTransformInfo, __Z12pv_is_finiteDv16_f, 
                       __Z12pv_is_finiteDv2_d, __Z12pv_is_finiteDv2_f, __Z12pv_is_finiteDv3_d, 
                       __Z12pv_is_finiteDv3_f, __Z12pv_is_finiteDv4_d, __Z12pv_is_finiteDv4_f, 
                       __Z12pv_is_finiteDv8_d, __Z12pv_is_finiteDv8_f, __Z12pv_simd_lerpDv16_fS_f, 
                       __Z12pv_simd_lerpDv2_dS_d, __Z12pv_simd_lerpDv2_fS_f, __Z12pv_simd_lerpDv3_dS_d, 
                       __Z12pv_simd_lerpDv3_fS_f, __Z12pv_simd_lerpDv4_dS_d, __Z12pv_simd_lerpDv4_fS_f, 
                       __Z12pv_simd_lerpDv8_dS_d, __Z12pv_simd_lerpDv8_fS_f, __Z12rotateVectorN8ProShade4VarTINS_4NodeEEES2_S2_, 
                       __Z12satMapRegionN8ProShade4VarTINS_4NodeEEES2_NS_7SamplerES2_, 
                       __Z12solveQuarticdddddPiPd, __Z13AbsoluteNSURLP8NSStringS0_, 
                       __Z13BoolRetrievalPU37objcproto26FxParameterRetrievalAPI_v511objc_objectj6CMTime, 
                       __Z13FFWriteUnlockP14FFMotionEffect, __Z13FontRetrievalPU37objcproto26FxParameterRetrievalAPI_v511objc_objectj6CMTime, 
                       __Z13IsAbsoluteURLP8NSString, __Z13MyCG_AddFrameRK19PMFormatDescriptionRK5PCURLP8PCBitmapPv, 
                       __Z13MyCG_CanWriteP17PMPluginInterface, __Z13MyCG_GetFrameRK19PMFormatDescriptionRK5PCURLRK7FigTimeR14PMFrameRequestRP12CGColorSpaceR5HGRefI6HGNodeEP14PCMatrix44TmplIdEPv, 
                       __Z13MyCG_MakeIdleRK19PMFormatDescriptionPv, __Z13NoOpRetrievalPU37objcproto26FxParameterRetrievalAPI_v511objc_objectj6CMTime, 
                       __Z13OZGetAssetURLP12NSDictionary, __Z13OZRandomFloatff, __Z13OZXFindFilterPvR8PCStringP11OZXFxFilter, 
                       __Z13PCWriteBitmapRK8PCBitmapP8NSStringP12NSDictionary, __Z13PCWriteBitmapRK8PCBitmapPKc, 
                       __Z13PCWriteBitmapRK8PCBitmapPKcPK14__CFDictionary, __Z13PGCreateImageRK17PCImageAttributes, 
                       __Z13PGFindContextP17_CGLContextObject, __Z13PGFindContextRKN5ProGL2GLE, 
                       __Z13PGGenTexturesiPj, __Z13PMCacheBitmapRK9PCHash128RKNSt3__110shared_ptrI8PCBitmapEEd, 
                       __Z13PathRetrievalPU37objcproto26FxParameterRetrievalAPI_v511objc_objectj6CMTime, 
                       __Z13RGBARetrievalPU37objcproto26FxParameterRetrievalAPI_v511objc_objectj6CMTime, 
                       __Z13compareVertex12PCEdgeVertexS_, __Z13cropToPolygonP10HGRendererRK5HGRefI6HGNodeERK14LiImagePolygonbS5_11PCBlendModefdbb, 
                       __Z13cropToPolygonP10HGRendererRK5HGRefI6HGNodeERK14LiImagePolygonbbb, 
                       __Z13dumpSCNMatrix13CATransform3D, __Z13getFxTimeZerov, __Z13isoWardShaderR17LiLightPropertiesRKN8ProShade4VarTINS1_4NodeEEE, 
                       __Z13planarInverseP14PCMatrix44TmplIdERK9PCVector4IdERKS0_RK9PCVector3IdEPd, 
                       __Z13showHideParamP13OZChannelBaseb, __Z13toFxImageInfoPv, 
                       __Z13zIntersectionRK9PCVector4IdES2_, __Z14FloatRetrievalPU37objcproto26FxParameterRetrievalAPI_v511objc_objectj6CMTime, 
                       __Z14Fx_smearToRectRK5HGRefI6HGNodeERK6PCRectIdE, __Z14OZAddGamutClipRK5HGRefI6HGNodeEP12CGColorSpaceS5_, 
                       __Z14OZFileToStringPKc, __Z14OZGetAssetNameP12NSDictionary, 
                       __Z14OZGetMaskAssetP12NSDictionary, __Z14OZGetNewFontIDPK10__CFString, 
                       __Z14OZXSetDurationPvRK6CMTime, __Z14OZXSetRigValuePvd, __Z14PCCreateBitmapjjN13PCPixelFormat12ChannelOrderEP12CGColorSpacej, 
                       __Z14PCCreateBitmapjjN13PCPixelFormat12ChannelOrderERK18PCColorSpaceHandlej, 
                       __Z14PCCreateBitmapjjN13PCPixelFormat12ChannelOrderEj, __Z14PCRectClipTestddPdS_, 
                       __Z14PCTransformXYZRK14PCMatrix33TmplIdERK10PCXYZColorRS3_, 
                       __Z14PGInitTexturesv, __Z14PointRetrievalPU37objcproto26FxParameterRetrievalAPI_v511objc_objectj6CMTime, 
                       __Z14TransformPointRK9PCVector4IfES2_S2_S2_S2_S2_, __Z14buildSCNLightsRK10LiLightSetP12CGColorSpaceS3_14PCMatrix44TmplIdE, 
                       __Z14compareOrderedR9PCVector2IdERKS0_, __Z14fxSimpleBorderRK5HGRefI6HGNodeERK6PCRectIdEffRK9PCVector4IdERK14PCMatrix44TmplIdE18FxSimpleBorderType, 
                       __Z14isoPhongShaderR17LiLightPropertiesRKN8ProShade4VarTINS1_4NodeEEE, 
                       __Z14make_clockwiseR10LiChannelTI9PCVector2IdEE, __Z14pointInPolygonRK9PCVector2IdEPS0_i, 
                       __Z14pv_simd_negate13simd_float3x3, __Z14pv_simd_negate13simd_float4x4, 
                       __Z14pv_simd_negate14simd_double3x3, __Z14pv_simd_negate14simd_double4x4, 
                       __Z14shortest_slerpRK6PCQuatIdES0_d, __Z14solveQuadraticdddPiPd, 
                       __Z14toFxRenderInfoPv, __Z15CTToTXAlignmentj, __Z15CustomRetrievalPU37objcproto26FxParameterRetrievalAPI_v511objc_objectj6CMTime, 
                       __Z15FigTimeToFrames7FigTimePK7OZSceneP14FFMotionEffect, __Z15FramesToFigTimedPK7OZSceneP14FFMotionEffect, 
                       __Z15FxDeviceGetNamePK8FxDevice, __Z15GetTXUnicodeSet16TXUnicodeSetName, 
                       __Z15LiPlaneEquationRK9PCVector3IdES2_, __Z15MyCG_GetVersionP17PMPluginInterface, 
                       __Z15OZGetAssetWidthP12NSDictionary, __Z15OZGetImageAssetP12NSDictionary, 
                       __Z15OZXCreateCameraPv8PCStringRj, __Z15OZXEnableCameraPvjb, 
                       __Z15OZXSetSeedValuePvj, __Z15PCCalcAxisAngleRK9PCVector3IdES2_PS0_Pd, 
                       __Z15PCComparePlanesRK9PCVector4IdES2_, __Z15PCEstimateGammaP12CGColorSpace, 
                       __Z15PCEstimateGammaRK12PCICCProfile, __Z15PCGetBitmapSizejjN13PCPixelFormat12ChannelOrderEj, 
                       __Z15PGInitPGContextv, __Z15PGMake1DTexturelP12CGColorSpaceiijj, 
                       __Z15PGMake1DTexturelRK18PCColorSpaceHandleiijj, __Z15PGMake2DTexturellP12CGColorSpaceiiijj, 
                       __Z15PGMake2DTexturellRK18PCColorSpaceHandleiiijj, __Z15StringRetrievalPU37objcproto26FxParameterRetrievalAPI_v511objc_objectj6CMTime, 
                       __Z15TXToNSAlignmentj, __Z15anisoWardShaderR17LiLightPropertiesRKN8ProShade4VarTINS1_4NodeEEE, 
                       __Z15frameDifferencePU26objcproto15PROAPIAccessing11objc_object6CMTimeS1_, 
                       __Z15heBeginCallbackjPv, __Z15isSimplePolygonRNSt3__16vectorI9PCVector2IdENS_9allocatorIS2_EEEE, 
                       __Z15pv_almost_equal13PVCGPointQuadS_d, __Z15subtractFxTimes6FxTimeS_PS_, 
                       __Z16CGRectFromHGRect6HGRect, __Z16Effect_toPCRectiRK6HGRect, 
                       __Z16HGRectFromCGRect6CGRect, __Z16OZBezierGetRootsPKddPd, 
                       __Z16OZGetAssetHeightP12NSDictionary, __Z16OZGetAssetSubdirP12NSDictionary, 
                       __Z16OZGetRAMCacheKeyRK14OZRenderParamsP12OZRenderNode, __Z16OZGetRAMCacheKeyRK14OZRenderParamsP7OZScene, 
                       __Z16OZXSetTextStringPvjP8NSString, __Z16PCGetMatrixValuePK10__CFString, 
                       __Z16PCLoadICCProfilePKc, __Z16PGDeleteTexturesiPj, __Z16PGMakeCGLContextRK19PGContextAttributes, 
                       __Z16RunIsLeftToRightPK7__CTRun, __Z16applyAlphaIgnoreRK5HGRefI6HGNodeE, 
                       __Z16applyAlphaInvertRK5HGRefI6HGNodeE, __Z16applyPremultiplyRK5HGRefI6HGNodeE, 
                       __Z16getFxTimeInvalidv, __Z16heVertexCallbackPKdPv, __Z17ColorConformInput5HGRefI6HGNodeEP12PVColorSpaceS3_25PVColorSpaceConformIntentPU15__autoreleasingP7NSError, 
                       __Z17LiLoadBitmapAsyncRK9PCHash128RK5PCURLN13PCPixelFormat12ChannelOrderERK18PCColorSpaceHandleb, 
                       __Z17MyCG_GetExtensionP17PMPluginInterface, __Z17OZFxPlug_GetScaleRK7LiAgent, 
                       __Z17OZFxPlug_GetScaleRK7LiAgentP9PCVector3IdE, __Z17OZFxPlug_GetScaleRK7LiAgentPdS2_, 
                       __Z17OZShowErrorDialogRK8PCStringS1_bPS0_, __Z17OZXGetRenderGraphP7OZScene14OZRenderParamsP11FFSVContextR10GLRendererbP10HGRenderer, 
                       __Z17OZXSetShapePointsPvP7NSArrayb13_OZXShapeInfo, __Z17PCGetMatrixString13PCMatrixValue, 
                       __Z17PCNCLCCodeIsKnown16PCPrimariesValue23PCTransferFunctionValue13PCMatrixValue, 
                       __Z17PCNCLCCodeIsKnownRK10PCNCLCCode, __Z17PGMakeNSGLContextRK19PGContextAttributes, 
                       __Z17PGMakeRectTexturellP12CGColorSpaceliijjPv, __Z17PGMakeRectTexturellRK18PCColorSpaceHandleliijjPv, 
                       __Z17PMAcquireRendererv, __Z17PMGetCachedBitmapRK9PCHash128, 
                       __Z17PMIsBitmapInCacheRK9PCHash128, __Z17PVCreate420PlanesRK5HGRefI6HGNodeEPK13PVNCLCTripletjRNSt3__16vectorIS1_NS7_9allocatorIS1_EEEE, 
                       __Z17getProgBlurCoeffsv, __Z17getScaleTranslateRK14PCMatrix44TmplIdEP9PCVector3IdES5_, 
                       __Z17getScaleTranslateRK14PCMatrix44TmplIdERK9PCVector3IdEPS4_S7_, 
                       __Z17getScaleTranslateRK14PCMatrix44TmplIdERK9PCVector3IdES6_PS4_S7_, 
                       __Z17getWarningProgramv, __Z17liFindMatrixPlaneRK14PCMatrix44TmplIdER9PCVector4IdE, 
                       __Z17printLiveContextsv, __Z17pv_simd_normalize13simd_float3x3, 
                       __Z17pv_simd_normalize13simd_float4x4, __Z17pv_simd_normalize14simd_double3x3, 
                       __Z17pv_simd_normalize14simd_double4x4, __Z17unbindAllTexturesv, 
                       __Z18CTToTXTabAlignmentj, __Z18ChanCanBeSequencedP13OZChannelBase, 
                       __Z18FxMatrixToPCMatrixP10FxMatrix44, __Z18GetLayeredMaterialP13OZChannelBase, 
                       __Z18HistogramRetrievalPU37objcproto26FxParameterRetrievalAPI_v511objc_objectj6CMTime, 
                       __Z18LockAndRenderMetalP12HGGLRenderer6HGRect8HGFormatRK5HGRefI6HGNodeES2_, 
                       __Z18OZFxPlug_IsEmitterP11OZSceneNode, __Z18OZGetGradientAssetP12NSDictionary, 
                       __Z18OZGetTimeInSecondsv, __Z18OZXGetObjectBoundsPvRK7FigTimejmR6PCRectIdE, 
                       __Z18PCClassifyTransferf, __Z18PCClipPointToPlaneRK7PCPlaneIdERK9PCVector3IdE, 
                       __Z18PCMakeCheckerImagePvjj, __Z18PCNSStringFromDataP6NSData, 
                       __Z18PCRayIntersectsBoxRK6PCRay3IdERK5PCBoxIdER9PCVector3IdE, 
                       __Z18PGCleanupPGContextv, __Z18PGPrintAllTexturesv, __Z18PMBitmapToHGBitmapRKNSt3__110shared_ptrI8PCBitmapEE, 
                       __Z18PMClearBitmapCachev, __Z18PMLockImageInCacheRK9PCHash128, 
                       __Z18PMMakeHeliumFormatN13PCPixelFormat12ChannelOrderE, __Z18TXTGGetRangeOfWordPK24TXTranscriptionGeneratorj, 
                       __Z18applyUnpremultiplyRK5HGRefI6HGNodeE, __Z18createColorBalance5HGRefI6HGNodeEPKdS3_S3_ddddb, 
                       __Z18createPGContextPtrRKN5ProGL13ContextHandleE, __Z18finderInitFunctionv, 
                       __Z18getInterBlurCoeffsv, __Z18getMotionBlurTimesRK7FigTimeidbP14OZImageElementP9OZFootageP7OZSceneRNSt3__16vectorINS8_4pairIS_dEENS8_9allocatorISB_EEEE, 
                       __Z18liPolygonIntersectRK10LiChannelTI9PCVector2IdEES4_RS2_, 
                       __Z18liPolygonPlaneClipRN9LiPolygon8PosFacetERN14LiImagePolygon9EdgeFacetERK9PCVector4IdEi, 
                       __Z18liTransformAndClipRK6PCRectIdERK14PCMatrix44TmplIdER14LiImagePolygon, 
                       __Z18liTransformAndClipRK6PCRectIdERK14PCMatrix44TmplIdER9LiPolygon, 
                       __Z18liTransformAndClipRK6PCRectIdERK14PCMatrix44TmplIdERS0_, 
                       __Z18pv_bounding_CGRect13PVCGPointQuad, __Z18pv_bounding_CGRectP7NSArrayIP7NSValueE, 
                       __Z18pv_ndc_to_viewportDv3_dDv2_d6_PVNDCbb, __Z18pv_ndc_to_viewportDv3_fDv2_f6_PVNDCbb, 
                       __Z18pv_near_plane_lrtbddd, __Z18pv_near_plane_lrtbfff, __Z18pv_viewport_to_ndcDv3_dDv2_d6_PVNDCbb, 
                       __Z18pv_viewport_to_ndcDv3_fDv2_f6_PVNDCbb, __Z18renderNodeToBitmapP12HGGLRendererRK5HGRefI6HGNodeERK6HGRectP12CGColorSpace, 
                       __Z18toFxImageInfoConstPv, __Z19Effect_ShowGLErrorsv, __Z19FxApplyAlphaRequestRK5HGRefI6HGNodeE18FxAlphaRequestTypebb, 
                       __Z19FxDeviceGetHGDevicePK8FxDevice, __Z19GetNumBytesForGlyphPK7__CTRunlPKl, 
                       __Z19MyCG_GetAlphaFormatRK19PMFormatDescriptionRK5PCURLjP11PMAlphaTypePbPv, 
                       __Z19NewEquirectWrapNodeRK9PCVector2IfERK9PCVector4IfES6_S6_S6_, 
                       __Z19OZFxPlug_CallRenderPvP11objc_objectPK16OZProcessControlP7FxImageS6_12FxRenderInfoRK14OZRenderParams, 
                       __Z19OZGetAssetExtensionP12NSDictionary, __Z19OZXGetObjectOpacityPvRK7FigTimejRd, 
                       __Z19OZXSetObjectOpacityPvRK7FigTimejd, __Z19OZXSetTranscriptionPvS_PK10__CFStringRK6CMTimeb, 
                       __Z19PCClassifyPrimariesRK16PCChromaticities, __Z19PCClipLineToPlane2DRK7PCPlaneIdERK9PCVector2IdES6_, 
                       __Z19PCClipLineToPlane3DRK7PCPlaneIdERK9PCVector3IdES6_, __Z19PCGetChromaticitiesRK12PCICCProfileR16PCChromaticities, 
                       __Z19PCGetNCLCColorSpaceRK10PCNCLCCode, __Z19PCGetPrimariesValuePK10__CFString, 
                       __Z19PCGetRGBToXYZMatrixRK16PCChromaticitiesR14PCMatrix33TmplIfE, 
                       __Z19PCPrimariesToMatrix16PCPrimariesValue, __Z19PCSetColorWellColorP11NSColorWellP7NSColor, 
                       __Z19PCSetColorWellColorP11NSColorWellRK7PCColor, __Z19PGCreatePooledImageRK17PCImageAttributes, 
                       __Z19PGDumpTextureToTIFFjjiibP12CGColorSpaceRKNSt3__110shared_ptrI9PGContextEE, 
                       __Z19PGDumpTextureToTIFFjjiibRK18PCColorSpaceHandleRKNSt3__110shared_ptrI9PGContextEE, 
                       __Z19PGPrintLiveTexturesv, __Z19PVCGPointQuad_scale13PVCGPointQuad7CGPoint, 
                       __Z19TXDrawGlyphToBitmapPK7TXGlyphPK14TXCoreTextFontjdbdP12CGColorSpacebPPvR6PCRectIdERdP14PCMatrix33TmplIdEbb, 
                       __Z19TXDrawGlyphToBitmapRK16TXCGRenderParamsP12CGColorSpacePPv, 
                       __Z19TXOffsetUnicodeCharjj, __Z19calcFramingRotationRK9PCVector3IdES2_S2_d, 
                       __Z19fx_RenderToEquirectP6HGNodeS0_S0_S0_S0_S0_iiiRK14PCMatrix44TmplIdES4_S4_S4_S4_S4_S4_, 
                       __Z19getBezierFromRasterRKNSt3__16vectorI6Point2NS_9allocatorIS1_EEEEdRS4_, 
                       __Z19getDefaultsIntValueP12NSDictionaryP8NSStringi, __Z19getProChannelBundlev, 
                       __Z19getSceneBoundingBoxP8SCNScene, __Z19isoBlinnPhongShaderR17LiLightPropertiesRKN8ProShade4VarTINS1_4NodeEEE, 
                       __Z19liClipLineToPolygonR6PCRay3IdERKN9LiPolygon8PosFacetERdS6_, 
                       __Z19liDoPolygonsOverlapPK9LiPolygonS1_, __Z19liDoPolygonsOverlapRK10LiChannelTI9PCVector2IdEES4_, 
                       __Z19liPolygonDimensionsP9LiPolygonP9PCVector2IdES3_PdS4_, 
                       __Z19liPolygonPlaneSplitRKN9LiPolygon8PosFacetERK9PCVector4IdER9PCVector3IdES9_R10LiChannelTIiESC_bR11LiPolyOrderd, 
                       __Z19perspectiveToAffineRK14PCMatrix44TmplIdERK9PCVector3IdEPS0_, 
                       __Z19pv_simd_matrix_lerp13simd_float4x4S_fb, __Z19pv_simd_matrix_lerp14simd_double4x4S_db, 
                       __Z19toFxRenderInfoConstPv, __Z20Add1DNoiseToMaterialP10LiMaterialRKNSt3__110shared_ptrIK18HGGPUComputeDeviceEER29OZChannelMaterialMapTransformS9_fRN8ProShade9Sampler2DERNSA_7UniformERK14PCMatrix44TmplIdENSA_21TextureTransformBasisE, 
                       __Z20AddTextureToMaterialRN19OZMaterialLayerBase19LayeredMaterialInfoER25OZChannelMaterialLayerMapR29OZChannelMaterialMapTransformR22LiMaterialLayerUniformRN8ProShade9Sampler2DERNS8_7UniformERK14PCMatrix44TmplIdENS8_21TextureTransformBasisE10CheckTrans, 
                       __Z20FxMatrixFromPCMatrixRK14PCMatrix44TmplIdE, __Z20LiCachingDelegateAddRK19LiTextureCacheEntryiRK9PCHash128d, 
                       __Z20LiCachingDelegateGetiRK9PCHash128R19LiTextureCacheEntry, 
                       __Z20LiSetCachingDelegateP17LiCachingDelegate, __Z20LoadSCNSceneFromFileP5NSURL, 
                       __Z20MyCG_SetVideoOptionsP19PMFormatDescription, __Z20NumLinesInParagraphsP12TXTextLayout, 
                       __Z20OZFxPlug_IsTextLayerPK11OZSceneNode, __Z20OZShowTooLargeDialogRK8PCStringS1_bN10PCBitDepth4TypeEl, 
                       __Z20OZXClearCachedRenderPvj, __Z20OZXGetThreadRendererv, 
                       __Z20OZXSetPublishedPopupPvR8PCStringj, __Z20OZXSetThreadRendererP10HGRenderer, 
                       __Z20OZXSetUseRenderCachePvjb, __Z20OZX_prepareForRenderPv7FigTime16OZXRenderQualitybff14OZXRenderDepthP12CGColorSpaceS4_13OZXRenderTypebiR14OZRenderParams, 
                       __Z20PCClipLinesToPlane2DRK7PCPlaneIdEPK9PCVector2IdEiPS4_RNSt3__16vectorIbNS8_9allocatorIbEEEE, 
                       __Z20PCClipLinesToPlane3DRK7PCPlaneIdERKNSt3__16vectorI9PCVector3IdENS3_9allocatorIS6_EEEERS9_RNS4_IbNS7_IbEEEE, 
                       __Z20PCGetPrimariesString16PCPrimariesValue, __Z20PCMakeColorantICCTagR8PCICCTag17PCICCColorantNameRK10PCXYZColor, 
                       __Z20PCSameColorTransformRK12PCICCProfileS1_, __Z20PGMakeCubeMapTexturelP12CGColorSpaceliijjPPKv, 
                       __Z20PGMakeCubeMapTexturelRK18PCColorSpaceHandleliijjPPKv, 
                       __Z20PMBitmapToHeliumNodeRKNSt3__110shared_ptrI8PCBitmapEE, 
                       __Z20TXCreateFontWithNamePK10__CFStringdPK17CGAffineTransform, 
                       __Z20TXGetGlyphBitmapInfoPK7TXGlyphPK14TXCoreTextFontdbdR6PCRectIdERdP14PCMatrix33TmplIdER14TXGlyphMetricsS8_Rtb, 
                       __Z20getAttributeForLayerjjj, __Z20getDefaultsBoolValueP12NSDictionaryP8NSStringb, 
                       __Z20pv_CGRect_to_NSArray6CGRect, __Z20pv_adjust_intrinsics13simd_float3x3Dv2_fS0_23_PVInterfaceOrientationS1_20_PVRotationDirection, 
                       __Z20pv_adjust_intrinsics14simd_double3x3Dv2_dS0_23_PVInterfaceOrientationS1_20_PVRotationDirection, 
                       __Z20pv_simd_matrix_scale13simd_float4x4fff, __Z20pv_simd_matrix_scale14simd_double4x4ddd, 
                       __Z20pv_simd_vector_scaleDv3_dd, __Z20pv_simd_vector_scaleDv3_ff, 
                       __Z20pv_simd_vector_scaleDv4_dd, __Z20pv_simd_vector_scaleDv4_ff, 
                       __Z20rayIntersectsFrustumRK6PCRay3IdEdddddP9PCVector3IdE, 
                       __Z21AddGradientToMaterialRK7FigTimeRKNSt3__110shared_ptrIK18HGGPUComputeDeviceEEP10LiMaterialRN8ProShade9Sampler2DERNSB_7UniformER30OZChannelGradientWithTransformRK6PCRectIdEd10CheckTransP12CGColorSpacef, 
                       __Z21HGXFormForHGTransform5HGRefI6HGNodeES_I11HGTransformEb, 
                       __Z21LockAndRenderHardwareP12HGGLRenderer6HGRect8HGFormatRK5HGRefI6HGNodeES2_, 
                       __Z21MyCG_GetComponentTypeP17PMPluginInterface, __Z21OZBezierFindParameterPKdd, 
                       __Z21OZXClearTranscriptionPv, __Z21OZXGetCameraTransformPvjR14PCMatrix44TmplIdE, 
                       __Z21OZXGetIsCameraEnabledPvjRb, __Z21OZXGetObjectTransformPvRK7FigTimejR14PCMatrix44TmplIdE, 
                       __Z21OZXGetObjectTransformPvRK7FigTimemjR14PCMatrix44TmplIdE, 
                       __Z21OZXGetPosterFrameTimePvP7FigTime, __Z21OZXGetTopLevelGroupIDPvRj, 
                       __Z21OZXSetCameraTransformPvjRK14PCMatrix44TmplIdE, __Z21OZXSetObjectTransformPvRK7FigTimejR14PCMatrix44TmplIdE, 
                       __Z21PCGetRGBToYCbCrMatrixRK16PCChromaticitiesR14PCMatrix33TmplIfE, 
                       __Z21PCGetYCbCrToRGBMatrixRK16PCChromaticitiesR14PCMatrix33TmplIfE, 
                       __Z21PCMakeCopyrightICCTagR8PCICCTagPKc, __Z21PGGetPerThreadContextv, 
                       __Z21PMTextureToHeliumNodeRKN5ProGL13TextureHandleEP12HGGLRenderer, 
                       __Z21SetGLColorFromNSColorP7NSColor, __Z21TXFontGetPathFontSizev, 
                       __Z21anisoBlinnPhongShaderR17LiLightPropertiesRKN8ProShade4VarTINS1_4NodeEEE, 
                       __Z21createContrastRGBNode5HGRefI6HGNodeEddbbd, __Z21getDefaultsFloatValueP12NSDictionaryP8NSStringf, 
                       __Z21getNSColorInSRGBSpacedddd, __Z21getScaleTranslateFlipRK14PCMatrix44TmplIdEP9PCVector3IdES5_, 
                       __Z21getScaleTranslateFlipRK14PCMatrix44TmplIdERK9PCVector3IdEPS4_S7_, 
                       __Z21getScaleTranslateFlipRK14PCMatrix44TmplIdERK9PCVector3IdES6_PS4_S7_, 
                       __Z21normalPointsOnEllipseRK9PCVector2IfES2_S2_S2_R7PCArrayIS0_14PCArray_TraitsIS0_EE, 
                       __Z21pv_is_CGPoint_in_quad7CGPoint13PVCGPointQuad, __Z21pv_simd_matrix_rotate13simd_float4x410simd_quatf, 
                       __Z21pv_simd_matrix_rotate13simd_float4x4fDv3_f, __Z21pv_simd_matrix_rotate14simd_double4x410simd_quatd, 
                       __Z21pv_simd_matrix_rotate14simd_double4x4dDv3_d, __Z21rayIntersectsGeometryRK6PCRay3IdERK5PCBoxIdEP9PCVector3IdE, 
                       __Z21showNewerVersionAlertR8PCString, __Z22FigTimeCopyDescriptionPK13__CFAllocatorRK7FigTime, 
                       __Z22FontTransactionFactoryP13OZChannelBasej6CMTimemP8NSStringm, 
                       __Z22HGXFormForSIMDFloat4x45HGRefI6HGNodeE13simd_float4x4b, 
                       __Z22LockAndRenderIOSurfaceP12HGGLRenderer6HGRect8HGFormatRK5HGRefI6HGNodeES2_, 
                       __Z22NewEquirectProjectNodefffffRK14PCMatrix44TmplIdES2_S2_b, 
                       __Z22OZAudioFrameFromSampledfibPd, __Z22OZAudioSampleFromFramedibfd, 
                       __Z22OZFxPlug_GetSharedBasePv, __Z22OZXGetCameraProjectionPvjR14PCMatrix44TmplIdE, 
                       __Z22OZXGetPublishedSettingPvR8PCString7FigTimeb, __Z22OZXSetCameraProjectionPvjRK14PCMatrix44TmplIdE, 
                       __Z22OZXSetCameraQuaternionPvRK7FigTimeR6PCQuatIdE, __Z22OZXSetCutawayFadeInOutPvRK7FigTimeS2_, 
                       __Z22OZXSetRigValueWithNamePvR8PCStringd, __Z22PCBitmapFromCGImageRefP7CGImageP12CGColorSpace, 
                       __Z22PCEstimateGammaFromTagRK8PCICCTag, __Z22PCGetRec709YCbCrMatrixv, 
                       __Z22PGFreePerThreadContextv, __Z22PathTransactionFactoryP13OZChannelBasej6CMTimemP8NSStringm, 
                       __Z22TXKerningResetCallbackP13OZChannelBasePv, __Z22createContrastLumaNode5HGRefI6HGNodeEddbbd, 
                       __Z22getColorSpaceOverridesv, __Z22getNSColorInColorSpaceddddP12CGColorSpace, 
                       __Z22getNSColorInColorSpaceddddP12NSColorSpace, __Z22liImagePolygonsOverlapPK14LiImagePolygonS1_d, 
                       __Z22pv_fov_from_intrinsics13simd_float3x3Dv2_f, __Z22pv_fov_from_intrinsics14simd_double3x3Dv2_d, 
                       __Z22pv_fov_from_projection13simd_float4x4, __Z22pv_fov_from_projection14simd_double4x4, 
                       __Z22pv_simd_matrix_get_row13simd_float3x3i, __Z22pv_simd_matrix_get_row13simd_float4x4i, 
                       __Z22pv_simd_matrix_get_row14simd_double3x3i, __Z22pv_simd_matrix_get_row14simd_double4x4i, 
                       __Z22pv_simd_matrix_projectDv3_d14simd_double4x4S0_Dv2_d6_PVNDCbbPS_, 
                       __Z22pv_simd_matrix_projectDv3_f13simd_float4x4S0_Dv2_f6_PVNDCbbPS_, 
                       __Z22pv_simd_matrix_set_row13simd_float3x3Dv3_fi, __Z22pv_simd_matrix_set_row13simd_float4x4Dv4_fi, 
                       __Z22pv_simd_matrix_set_row14simd_double3x3Dv3_di, __Z22pv_simd_matrix_set_row14simd_double4x4Dv4_di, 
                       __Z22pv_transform_info_lerp15PVTransformInfoS_db, __Z22pv_transform_info_make13simd_float4x4P15PVTransformInfo, 
                       __Z22pv_transform_info_make14simd_double4x4P15PVTransformInfo, 
                       __Z22subtractFramesFromTimePU26objcproto15PROAPIAccessing11objc_objectd6FxTimePS1_, 
                       __Z23FxDeviceGetLogStdStringPK8FxDevice, __Z23FxPlugBufferTexturePairP12HGGLRendererRK6HGRectb, 
                       __Z23GroupTransactionFactoryP13OZChannelBasej6CMTimemP8NSStringm, 
                       __Z23HGXFormForSIMDDouble4x45HGRefI6HGNodeE14simd_double4x4b, 
                       __Z23ImageTransactionFactoryP13OZChannelBasej6CMTimemP8NSStringm, 
                       __Z23LiCreateBumpBitmapAsync9PCHash128NSt3__113shared_futureINS0_10shared_ptrI8PCBitmapEEEERK17LiBumpTextureInfo, 
                       __Z23MakeOZFillSelectionPairP25OZChannelImageWithOptionsP13OZChannelBase, 
                       __Z23MultiplyByExternalAlphaP7NSColord, __Z23OZFxPlug_IsSpecialLayerPK11OZSceneNode, 
                       __Z23OZGetAssetIsTransparentP12NSDictionary, __Z23OZGetSpecularAngleAssetP12NSDictionary, 
                       __Z23OZXCreateGroupWithGroupPv8PCStringj17_OZXDimensionTypeRj, 
                       __Z23OZXGetPublishedSettingsPv, __Z23OZXGetTextEditingBoundsPvRK7FigTimejR6PCRectIdEb, 
                       __Z23OZXSetPublishedCheckBoxPvR8PCStringb, __Z23OZXSetPublishedPositionPvR8PCStringdd, 
                       __Z23OZXSetPublishedRGBColorPvR8PCStringddd, __Z23OZXSetPublishedSettingsPvP12NSDictionaryIP8NSStringP8NSObjectE, 
                       __Z23OZXSetPublishedTextFontPvR8PCStringP8NSString, __Z23OZXSetPublishedTextSizePvR8PCStringf, 
                       __Z23OZXSetSelfieRollRadiansPvd, __Z23OZXSetTranscriptionTextPvP8NSString, 
                       __Z23PCGetDefaultRenderModelv, __Z23PCIntersectRayWithPlaneRK6PCRay3IdERK7PCPlaneIdER9PCVector3IdE, 
                       __Z23PCMakeDisplayRGBProfileRK16PCChromaticitiesRK21PCICCTransferFunction, 
                       __Z23PCMakeDisplayRGBProfileRK16PCChromaticitiesRK21PCICCTransferFunctionPKcS6_, 
                       __Z23PCMakeDisplayRGBProfileRK16PCChromaticitiesf, __Z23PCMakeDisplayRGBProfileRK16PCChromaticitiesfPKcS3_, 
                       __Z23PMRemoveBitmapFromCacheRK9PCHash128, __Z23PointTransactionFactoryP13OZChannelBasej6CMTimemP8NSStringm, 
                       __Z23TXCharacterSetIsNewlinej, __Z23TXEnumerateRunsInStringPK20__CFAttributedStringU13block_pointerFvPK7__CTRunlE, 
                       __Z23TXIsFontAppleColorEmojiPK8__CTFont, __Z23createPlaceHolderBitmapiiddP12CGColorSpace, 
                       __Z23getScaleTranslateRotateRK14PCMatrix44TmplIdEP9PCVector3IdES5_Pd, 
                       __Z23getScaleTranslateRotateRK14PCMatrix44TmplIdERK9PCVector3IdEPS4_S7_Pd, 
                       __Z23getScaleTranslateRotateRK14PCMatrix44TmplIdERK9PCVector3IdES6_PS4_S7_Pd, 
                       __Z23liSafeGetTransformationR14PCMatrix44TmplIdER20PCMatrix44ParametersIdE, 
                       __Z23liSafeGetTransformationR14PCMatrix44TmplIdER20PCMatrix44ParametersIdER6PCQuatIdE, 
                       __Z23render3DEngineThumbnailP8NSStringii, __Z24AddBumpTextureToMaterialRN19OZMaterialLayerBase19LayeredMaterialInfoEP16OZMaterialBumpIFiRK14PCMatrix44TmplIdEN8ProShade21TextureTransformBasisE10CheckTransd, 
                       __Z24EnvironmentResetCallbackP13OZChannelBasePv, __Z24IsMaterialSequenceFolderP15OZChannelFolder, 
                       __Z24LiMakeBumpTextureFactoryRK5PCURLRK17LiBumpTextureInfo, 
                       __Z24LiMakeMaskTextureFactoryRK5PCURLP12CGColorSpace, __Z24MyCG_GetLayerDescriptionRK19PMFormatDescriptionP18PMLayerDescriptionjRK5PCURLPv, 
                       __Z24New3DEngineSceneFileImplR19OZ3DEngineSceneFileRK5PCURL, 
                       __Z24OZFxPlug_GetBlendOptionsP11objc_object6FxTime, __Z24OZGetCornersFromBounds3dRK6PCRectIdEPA3_f, 
                       __Z24OZGetCornersFromBounds3dffffPA3_f, __Z24OZXGetFrameAsRenderGraphPv7FigTimeNSt3__13mapIj5HGRefI6HGNodeENS1_4lessIjEENS1_9allocatorINS1_4pairIKjS5_EEEEEENS2_IjjS7_NS8_INS9_ISA_jEEEEEENS2_Ij6PCRectIdES7_NS8_INS9_ISA_SI_EEEEEENS2_Ij14PCMatrix44TmplIdES7_NS8_INS9_ISA_SN_EEEEEERK16_OZXRenderParamsRKSN_P11FFSVContextP10HGRendererRS5_, 
                       __Z24OZXSetPublishedTextScalePvR8PCStringf, __Z24OZX_getRenderEngineMutexv, 
                       __Z24PCIntersectRayWithSphereRK6PCRay3IdERK9PCVector3IdEdRK14PCMatrix44TmplIdESA_Rd, 
                       __Z24PCMakeColorSpaceFromNCLC16PCPrimariesValue23PCTransferFunctionValue13PCMatrixValuef, 
                       __Z24PCMakeColorSpaceFromNCLCPK10__CFStringS1_S1_PK10__CFNumber, 
                       __Z24PCMakeDisplayGrayProfileffRK21PCICCTransferFunction, 
                       __Z24PCMakeDisplayGrayProfileffRK21PCICCTransferFunctionPKcS3_, 
                       __Z24PCMakeDisplayGrayProfilefff, __Z24PCMakeDisplayGrayProfilefffPKcS0_, 
                       __Z24PCSetColorWellColorSpaceP11NSColorWellP12NSColorSpace, 
                       __Z24PMCreateColorConformNodeRK5HGRefI6HGNodeEP12CGColorSpacebS5_b, 
                       __Z24PVCGPointQuad_to_NSArray13PVCGPointQuad, __Z24PVCanCreateCVPixelBuffer6CGSize, 
                       __Z24StringTransactionFactoryP13OZChannelBasej6CMTimemP8NSStringm, 
                       __Z24StyleWillReplaceMaterialRK11TXTextStyleS1_, __Z24__OZXGetPublishedChannelPvRK8PCStringPP9OZChannel, 
                       __Z24initMyCoreGraphicsPluginP14PMMediaManager, __Z24pv_CGPoint_scale_polygonP7NSArrayIP7NSValueE7CGPoint, 
                       __Z24pv_CGPoint_scale_polygonPK7CGPointjS_PS_, __Z24pv_is_CGPoint_in_polygon7CGPointP7NSArrayIP7NSValueE, 
                       __Z24pv_simd_matrix_unprojectDv3_d14simd_double4x4S0_Dv2_d6_PVNDCbbPS_, 
                       __Z24pv_simd_matrix_unprojectDv3_f13simd_float4x4S0_Dv2_f6_PVNDCbbPS_, 
                       __Z24transformWorldRayToLocalP9OZElementR6PCRay3IdERK13OZRenderStateP14PCMatrix44TmplIdE, 
                       __Z25CreateCGImageFromPCBitmapRKNSt3__110shared_ptrI8PCBitmapEEN13PCPixelFormat12ChannelOrderE, 
                       __Z25FxDeviceGetHGDeviceForCPUPK8FxDevice, __Z25FxDeviceGetHGDeviceForGPUPK8FxDevice, 
                       __Z25MyCG_SupportsVideoOptionsP17PMPluginInterface, __Z25OZFxPlug_DepthFromFxDepthm, 
                       __Z25OZFxPlug_FxDepthFromDepthi, __Z25OZFxPlug_GetAgentBoundaryP7LiAgentR6PCRectIiE, 
                       __Z25OZXDisableRenderingObjectPvjb, __Z25OZXSetDimensionTypeOnNodePv17_OZXDimensionTypej, 
                       __Z25OZXSetImageElementFootagePvjPcib, __Z25OZXSetPublishedTextStringPvR8PCStringS0_, 
                       __Z25OZXSetTranscriptionLocalePvP8NSString, __Z25PCGetNCLCFromCGColorSpaceP12CGColorSpaceP16PCPrimariesValueP23PCTransferFunctionValueP13PCMatrixValue, 
                       __Z25PCMatrix44_planarInverseZR14PCMatrix44TmplIdERKS0_d, 
                       __Z25PCPrintProfileDifferencesRNSt3__113basic_ostreamIcNS_11char_traitsIcEEEERK12PCICCProfileS7_, 
                       __Z25PGCreateTextureFromBitmapRKNSt3__110shared_ptrI8PCBitmapEERN5ProGL2GLEbi, 
                       __Z25PVCGPointQuad_from_CGRect6CGRect, __Z25TXCharacterSetIsLowercasej, 
                       __Z25__OZXGetPublishedSettingsPvb7FigTimebS0_, __Z25_pcCheckGetTransformationbPKci, 
                       __Z25postProcessLoadedSCNSceneP15Li3DEngineScene, __Z25pv_simd_line_intersectionDv2_dS_S_S_PS_, 
                       __Z25pv_simd_line_intersectionDv2_fS_S_S_PS_, __Z26GradientTransactionFactoryP13OZChannelBasej6CMTimemP8NSStringm, 
                       __Z26HGTransformForSIMDFloat4x413simd_float4x4, __Z26IsMaterialSequenceFolderIDj, 
                       __Z26LiCachingDelegateAddBitmapRKNSt3__110shared_ptrI8PCBitmapEERK9PCHash128d, 
                       __Z26LiCachingDelegateGetBitmapRK9PCHash128, __Z26LiMakeAbsorbTextureFactoryRK5PCURLP12CGColorSpace, 
                       __Z26OZFigTimeForChannelSecondsdi, __Z26OZShowBitmapTooLargeDialogRK8PCStringS1_bN10PCBitDepth4TypeE, 
                       __Z26OZXGetTextAttributedStringPvjP25NSMutableAttributedString, 
                       __Z26OZXGetWorldToFilmTransformPvRK7FigTimeR14PCMatrix44TmplIdE, 
                       __Z26OZXSetTextAttributedStringPvjP18NSAttributedString, __Z26PCChromaticityMathSelfTestv, 
                       __Z26PCGetDescriptionForProfileRK16PCChromaticitiesRK21PCICCTransferFunction, 
                       __Z26PCGetLuminanceCoefficientsRK16PCChromaticities, __Z26PCGetNCLCCodeForColorSpaceP12CGColorSpace, 
                       __Z26PCGetTransferFunctionValuePK10__CFStringb, __Z26PCIntersectRayWithTriangleRK6PCRay3IdERK9PCVector3IdES6_S6_RS4_, 
                       __Z26PMGetColorSpaceDescription16PCPrimariesValue23PCTransferFunctionValue13PCMatrixValueP12CGColorSpace, 
                       __Z26PMGetColorSpaceDescriptionP12CGColorSpace, __Z26RGBColorTransactionFactoryP13OZChannelBasej6CMTimemP8NSStringm, 
                       __Z26TXCharacterSetIsWhitespacej, __Z26convertPCMatrixToSCNMatrixRK14PCMatrix44TmplIfE, 
                       __Z26convertSCNMatrixToPCMatrixRK13CATransform3D, __Z26get3DEngineCGColorspaceRefv, 
                       __Z26heShapeTesselationCallbackPdPS_PfS0_Pv, __Z26isPunctOrAnyWhiteSpaceChart, 
                       __Z26pv_CGPoint_get_quad_center13PVCGPointQuad, __Z26pv_PCQuatd_from_simd_quatd10simd_quatdPv, 
                       __Z26pv_simd_quatd_from_PCQuatdPKv, __Z27CGAffineTransformFromStringP8NSString, 
                       __Z27FxApplyGradientBlendRequestRK5HGRefI6HGNodeES3_, __Z27HGTransformForSIMDDouble4x414simd_double4x4, 
                       __Z27HGXFormForCGAffineTransform5HGRefI6HGNodeE17CGAffineTransformb, 
                       __Z27HistogramTransactionFactoryP13OZChannelBasej6CMTimemP8NSStringm, 
                       __Z27IntSliderTransactionFactoryP13OZChannelBasej6CMTimemP8NSStringm, 
                       __Z27LiMakeCubeMapTextureFactoryRK17LiCubeTextureInfoP12CGColorSpace, 
                       __Z27LiMakeDiffuseTextureFactoryRK5PCURLP12CGColorSpace, __Z27MaterialSequenceIDIncrementv, 
                       __Z27MyCG_SupportsMultipleFramesP17PMPluginInterface, __Z27OZFxPlug_CalculateImageInfoP18OZFxPlugSharedBaseP11OZSceneNodeiiibbb7FigTime, 
                       __Z27OZGetPaintLayerDescriptionsv, __Z27OZGetSpecularIntensityAssetP12NSDictionary, 
                       __Z27OZGetSpecularShininessAssetP12NSDictionary, __Z27OZXGetTranscriptionDurationPvR7FigTime, 
                       __Z27PCGetTransferFunctionString23PCTransferFunctionValue, 
                       __Z27PCLoadColorSpaceFromProfilePK7__CFURL, __Z27PCLoadColorSpaceFromProfilePKc, 
                       __Z27PCMakeColorSpaceFromProfileRK12PCICCProfile, __Z27PCMakeMediaWhitePointICCTagR8PCICCTagRK10PCXYZColor, 
                       __Z27PCProjectionMapQuadToSquareRK9PCVector2IdES2_S2_S2_S2_RS0_, 
                       __Z27PCProjectionMapSquareToQuadRK9PCVector2IdES2_S2_S2_S2_RS0_, 
                       __Z27PVCreateHGBitmapWithStorage6HGRect8HGFormatP12PVColorSpace, 
                       __Z27PopupMenuTransactionFactoryP13OZChannelBasej6CMTimemP8NSStringm, 
                       __Z27RGBAColorTransactionFactoryP13OZChannelBasej6CMTimemP8NSStringm, 
                       __Z27ReplaceAllMaterialsInStylesP12TXTextLayoutPKNSt3__16vectorIP14OZMaterialBaseNS1_9allocatorIS4_EEEE, 
                       __Z27TXCharacterSetIsPunctuationj, __Z27createContrastBezierRGBNode5HGRefI6HGNodeES1_ddbbd, 
                       __Z27pv_CGPoint_polygon_centroidP7NSArrayIP7NSValueE, __Z28FxDeviceGetDeviceForHGDeviceRKNSt3__110shared_ptrIK15HGComputeDeviceEE, 
                       __Z28HGXFormHoistingForYUVConform5HGRefI6HGNodeES_I11HGTransformEb, 
                       __Z28HelpButtonTransactionFactoryP13OZChannelBasej6CMTimemP8NSStringm, 
                       __Z28OZFixRenderParamsForRAMCacheR14OZRenderParams, __Z28OZGetDistressLayerDictionaryv, 
                       __Z28OZGetFinishLayerDescriptionsv, __Z28OZXTranscriptionGetLineCountPvPj, 
                       __Z28PCCalcUnitScaleForProjectionRK9PCVector3IdERK14PCMatrix44TmplIdES6_, 
                       __Z28PCComputeChromaticAdaptationRK10PCXYZColorS1_R14PCMatrix33TmplIdE, 
                       __Z28PCConvertChromaticitiesToXYZRK16PCChromaticitiesR10PCXYZColorS3_S3_S3_, 
                       __Z28PCGetTransferFunctionFromTagRK8PCICCTag, __Z28PCReplaceUnsupportedXMLCharsP8NSStringS0_, 
                       __Z28PGTakeOwnershipOfNSGLContextP15NSOpenGLContext, __Z28PVPixelBufferCreationOptionsv, 
                       __Z28PushButtonTransactionFactoryP13OZChannelBasej6CMTimemP8NSStringm, 
                       __Z28applyPremultiplyWhiteToBlackRK5HGRefI6HGNodeE, __Z28createContrastBezierLumaNode5HGRefI6HGNodeES1_ddbbd, 
                       __Z28getOZChannelBool_FactoryBasev, __Z28getOZChannelEnum_FactoryBasev, 
                       __Z28getOZChannelSeed_FactoryBasev, __Z28getOZChannelText_FactoryBasev, 
                       __Z28getOverrideColorSpaceFromTagi, __Z28liCalcUnitScaleForProjectionRK9PCVector3IdERK14PCMatrix44TmplIdES6_, 
                       __Z28pv_get_string_representation10simd_quatdPcmj, __Z28pv_get_string_representation10simd_quatfPcmj, 
                       __Z28pv_get_string_representation13PVCGPointQuadPcmj, __Z28pv_get_string_representation13simd_float3x3Pcmj, 
                       __Z28pv_get_string_representation13simd_float4x4Pcmj, __Z28pv_get_string_representation14simd_double3x3Pcmj, 
                       __Z28pv_get_string_representation14simd_double4x4Pcmj, __Z28pv_get_string_representation15PVTransformInfoPcmj, 
                       __Z28pv_get_string_representation24PVTransformAnimationInfoPcmj, 
                       __Z28pv_get_string_representationDv16_fPcmj, __Z28pv_get_string_representationDv2_dPcmj, 
                       __Z28pv_get_string_representationDv2_fPcmj, __Z28pv_get_string_representationDv3_dPcmj, 
                       __Z28pv_get_string_representationDv3_fPcmj, __Z28pv_get_string_representationDv4_dPcmj, 
                       __Z28pv_get_string_representationDv4_fPcmj, __Z28pv_get_string_representationDv8_dPcmj, 
                       __Z28pv_get_string_representationDv8_fPcmj, __Z28pv_projected_pixels_per_unitDv3_d14simd_double4x4S0_S0_Dv2_d6_PVNDCPd, 
                       __Z28pv_projected_pixels_per_unitDv3_f13simd_float4x4S0_S0_Dv2_f6_PVNDCPf, 
                       __Z28throw_PCNullPointerExceptionb, __Z29AddMaterialToSequenceChannelsP18TXSequenceChannelsP14OZMaterialBasej, 
                       __Z29AngleSliderTransactionFactoryP13OZChannelBasej6CMTimemP8NSStringm, 
                       __Z29FloatSliderTransactionFactoryP13OZChannelBasej6CMTimemP8NSStringm, 
                       __Z29LiCachingDelegateEnableLimitsv, __Z29OZClampBoundsToMaxTextureSizeRK8PCStringP6PCRectIdEN10PCBitDepth4TypeE, 
                       __Z29OZClampBoundsToMaxTextureSizeRK8PCStringPdS2_N10PCBitDepth4TypeE, 
                       __Z29OZClampBoundsToMaxTextureSizeRK8PCStringPjS2_N10PCBitDepth4TypeE, 
                       __Z29OZFxPlug_GetScaleAndTranslateP7LiAgentP9PCVector3IdES3_, 
                       __Z29OZFxPlug_IsCloneTextSceneNodePK11OZSceneNode, __Z29OZGetSubstanceLayerDictionaryv, 
                       __Z29OwningMaterialLayerMapChannelP9OZChannel, __Z29PCColorSpaceUsesExtendedRangeP12CGColorSpace, 
                       __Z29PGCreateTextureFromPGLTextureRKN5ProGL13TextureHandleE, 
                       __Z29TXGetSystemFontWeightFromNamePK10__CFString, __Z29__OZXGetTranscriptionDelegatePvPP23OZTranscriptionDelegate, 
                       __Z29getOZChannelAngle_FactoryBasev, __Z29getOZChannelCurve_FactoryBasev, 
                       __Z29getOZChannelFrame_FactoryBasev, __Z29getOZChannelShape_FactoryBasev, 
                       __Z29heShapeTesselationEndCallbackPv, __Z29pv_simd_almost_equal_elements15PVTransformInfoS_d, 
                       __Z29setWorkingGamutForSceneObjectP13LiSceneObject19PCWorkingGamutValue, 
                       __Z30LiCachingDelegateDisableLimitsv, __Z30NormalizationForEnvironmentMapRK13OZChannelEnum, 
                       __Z30OZBezierSanitizeControlPolygonPdS_, __Z30OZFxPlug_ColorInfoToColorSpacemmP12CGColorSpace, 
                       __Z30OZFxPlug_IsSceneNodeFlexoMediaP11OZSceneNode, __Z30OZXResetToDefaultTranscriptionPv, 
                       __Z30OZXSetTranscriptionMediaOffsetPvRK6CMTime, __Z30PCMakeDeviceManufacturerICCTagR8PCICCTagPKc, 
                       __Z30PCMakeProfileDescriptionICCTagR8PCICCTagPKc, __Z30PVImagePropertiesForColorSpaceP12PVColorSpaceb, 
                       __Z30ToggleButtonTransactionFactoryP13OZChannelBasej6CMTimemP8NSStringm, 
                       __Z30getOZChannelButton_FactoryBasev, __Z30getOZChannelDouble_FactoryBasev, 
                       __Z30getOZChannelUint16_FactoryBasev, __Z30getOZChannelUint32_FactoryBasev, 
                       __Z30heShapeTesselationEdgeCallbackhPv, __Z30pv_simd_make_quatd_with_eulersDv3_d16_PVRotationOrder, 
                       __Z30pv_simd_make_quatf_with_eulersDv3_f16_PVRotationOrder, 
                       __Z31HGTransformForCGAffineTransform17CGAffineTransform, __Z31NextAvailableMaterialSequenceIDR18TXSequenceChannels, 
                       __Z31OZFxPlug_PixelFormatFromFxDepthm, __Z31OZGetSubstanceLayerDescriptionsP8NSString, 
                       __Z31OZXEnableTextDynamicLineSpacingPvR8PCStringb, __Z31OZXSetBorderScaleAndTranslationPvdddd, 
                       __Z31OZXSetTextOneLineScaleThresholdPvR8PCStringd, __Z31PCMakeChromaticAdaptationICCTagR8PCICCTagRK14PCMatrix33TmplIdE, 
                       __Z31PercentSliderTransactionFactoryP13OZChannelBasej6CMTimemP8NSStringm, 
                       __Z31getOZChannelDecibel_FactoryBasev, __Z31getOZChannelPercent_FactoryBasev, 
                       __Z31getRenderPassLoadColorLoadDepthPU21objcproto10MTLTexture11objc_objectS0_S0_, 
                       __Z31pv_PCVector3d_from_simd_double3Dv3_dPv, __Z31pv_PCVector4d_from_simd_double4Dv4_dPv, 
                       __Z31pv_adjust_transform_orientation13simd_float4x423_PVInterfaceOrientationS0_20_PVRotationDirection, 
                       __Z31pv_adjust_transform_orientation14simd_double4x423_PVInterfaceOrientationS0_20_PVRotationDirection, 
                       __Z31pv_focal_length_from_intrinsics13simd_float3x3, __Z31pv_focal_length_from_intrinsics14simd_double3x3, 
                       __Z31pv_simd_double3_from_PCVector3dPKv, __Z31pv_simd_double4_from_PCVector4dPKv, 
                       __Z31pv_simd_matrix_get_euler_angles13simd_float3x316_PVRotationOrderPDv3_f, 
                       __Z31pv_simd_matrix_get_euler_angles13simd_float4x416_PVRotationOrderPDv3_f, 
                       __Z31pv_simd_matrix_get_euler_angles14simd_double3x316_PVRotationOrderPDv3_d, 
                       __Z31pv_simd_matrix_get_euler_angles14simd_double4x416_PVRotationOrderPDv3_d, 
                       __Z31pv_simd_matrix_make_perspective13simd_float3x3Dv2_fS0_23_PVInterfaceOrientationS1_20_PVRotationDirectionff6_PVNDC, 
                       __Z31pv_simd_matrix_make_perspective14simd_double3x3Dv2_dS0_23_PVInterfaceOrientationS1_20_PVRotationDirectiondd6_PVNDC, 
                       __Z31pv_simd_matrix_make_perspectivedddd6_PVNDC, __Z31pv_simd_matrix_make_perspectivedddddd6_PVNDC, 
                       __Z31pv_simd_matrix_make_perspectiveffff6_PVNDC, __Z31pv_simd_matrix_make_perspectiveffffff6_PVNDC, 
                       __Z31pv_simd_matrix_transform_vector13simd_float4x4Dv3_f, 
                       __Z31pv_simd_matrix_transform_vector13simd_float4x4Dv4_f, 
                       __Z31pv_simd_matrix_transform_vector14simd_double4x4Dv3_d, 
                       __Z31pv_simd_matrix_transform_vector14simd_double4x4Dv4_d, 
                       __Z31transform_PCPlane_invert_failedv, __Z32AppendFlatLayerToLayeredMaterialP28OZMaterialGenericSubstanceIFRN19OZMaterialLayerBase19LayeredMaterialInfoE, 
                       __Z32OZFxPlug_ChannelOrderFromFxDepthm, __Z32PCGetRec709LuminanceCoefficientsv, 
                       __Z32PCGetSMPTECLuminanceCoefficientsv, __Z32PCSetColorWellColorAndColorSpaceP11NSColorWellRK7PCColor, 
                       __Z32PVCGPointQuad_get_point_at_index13PVCGPointQuadj, __Z32PVCGPointQuad_set_point_at_indexP13PVCGPointQuad7CGPointj, 
                       __Z32PVIsMultiplaneCoreVideo420Formatj, __Z32__OZXAddPublishedSettingsToArrayP14NSMutableArrayIP12NSDictionaryIP8NSStringP8NSObjectEEP19OZXDocumentInternalP13OZChannelBaseS2_7FigTimebSD_, 
                       __Z32getOZChannelTimecode_FactoryBasev, __Z32pv_focal_length_for_fov_and_sidedd, 
                       __Z32pv_focal_length_for_fov_and_sideff, __Z32pv_fov_for_focal_length_and_sidedd, 
                       __Z32pv_fov_for_focal_length_and_sideff, __Z32pv_simd_matrix_make_orthographicdddddd6_PVNDC, 
                       __Z32pv_simd_matrix_make_orthographicffffff6_PVNDC, __Z33AddAllMaterialsToSequenceChannelsRKNSt3__110shared_ptrI11TXTextStyleEEP18TXSequenceChannels, 
                       __Z33CustomParameterTransactionFactoryP13OZChannelBasej6CMTimemP8NSStringm, 
                       __Z33LiMakeSpecularAngleTextureFactoryRK5PCURL, __Z33OZFxPlug_GenerateFailedRenderNodePvjjP12CGColorSpaceP5HGRefI6HGNodeE, 
                       __Z33OZXSetLoopMarkerFromTranscriptionPv, __Z33OwningMaterialMapTransformChannelP9OZChannel, 
                       __Z33PCCreateDescriptionFromColorSpaceP12CGColorSpace, __Z33PCCreateDescriptionFromNCLCValues16PCPrimariesValue23PCTransferFunctionValue13PCMatrixValue, 
                       __Z33PCGetEBU3213LuminanceCoefficientsv, __Z33PCGetGenericLuminanceCoefficientsv, 
                       __Z33getOZChannelBlendMode_FactoryBasev, __Z33getOZChannelEnumLayer_FactoryBasev, 
                       __Z33getRenderPassClearColorClearDepthPU21objcproto10MTLTexture11objc_objectS0_S0_, 
                       __Z33pv_adjust_intrinsics_for_viewport13simd_float3x3Dv2_fS0_, 
                       __Z33pv_adjust_intrinsics_for_viewport14simd_double3x3Dv2_dS0_, 
                       __Z33pv_convert_homography_coordinates13simd_float3x36CGRectS0_, 
                       __Z33pv_convert_homography_coordinates14simd_double3x36CGRectS0_, 
                       __Z33pv_simd_matrix_convert_projection13simd_float4x46_PVNDCS0_, 
                       __Z33pv_simd_matrix_convert_projection14simd_double4x46_PVNDCS0_, 
                       __Z33pv_simd_matrix_unproject_to_planeDv3_d7_PVAxis14simd_double4x4S1_S1_Dv2_d6_PVNDCbbPS_, 
                       __Z33pv_simd_matrix_unproject_to_planeDv3_f7_PVAxis13simd_float4x4S1_S1_Dv2_f6_PVNDCbbPS_, 
                       __Z34AddAllMaterialsToSequenceBehaviorsP12TXTextLayoutRKNSt3__110shared_ptrI11TXTextStyleEE, 
                       __Z34OZFxPlug_ClampRectToMaxTextureSizeRK6PCRectIdEN13PCPixelFormat12ChannelOrderE, 
                       __Z34OZMaterialRootChannelResetCallbackP13OZChannelBasePv, 
                       __Z34PCCreateDescriptionFromNCLCStringsPK10__CFStringS1_S1_, 
                       __Z34PCMakeColorSpaceFromChromaticitiesRK16PCChromaticitiesf, 
                       __Z34PVCreateDeferredNodeForPixelBufferP10__CVBuffer6CMTimeP20HGCVGLTextureFactory5HGRefI25PVInstructionGraphContextEPN11PVPerfStats10FrameStatsE, 
                       __Z34RemoveMaterialFromSequenceChannelsP18TXSequenceChannelsj, 
                       __Z34__OZXGetPublishedSettingDictionaryP8NSStringP8NSNumberS0_P8NSObjectP7NSArrayS0_, 
                       __Z34compareChannelsForRemoveCurveNodesP13OZChannelBaseS0_b, 
                       __Z34getOZChannelEnumRetime_FactoryBasev, __Z34getOZChannelShearAngle_FactoryBasev, 
                       __Z34pv_PCMatrix44d_from_simd_double4x414simd_double4x4Pv, 
                       __Z34pv_near_far_planes_from_projection13simd_float4x46_PVNDC, 
                       __Z34pv_near_far_planes_from_projection14simd_double4x46_PVNDC, 
                       __Z34pv_principal_point_from_intrinsics13simd_float3x3, __Z34pv_principal_point_from_intrinsics14simd_double3x3, 
                       __Z34pv_principal_point_from_resolutionDv2_d, __Z34pv_principal_point_from_resolutionDv2_f, 
                       __Z34pv_resolution_from_principal_pointDv2_d, __Z34pv_resolution_from_principal_pointDv2_f, 
                       __Z34pv_simd_double4x4_from_PCMatrix44dPKv, __Z34pv_simd_matrix_get_rotation_matrix13simd_float3x3, 
                       __Z34pv_simd_matrix_get_rotation_matrix13simd_float4x4, __Z34pv_simd_matrix_get_rotation_matrix14simd_double3x3, 
                       __Z34pv_simd_matrix_get_rotation_matrix14simd_double4x4, __Z35AppendBumpMapLayerToLayeredMaterialP16OZMaterialBumpIFRN19OZMaterialLayerBase19LayeredMaterialInfoEb, 
                       __Z35AppendDiffuseLayerToLayeredMaterialP28OZMaterialGenericSubstanceIFRN19OZMaterialLayerBase19LayeredMaterialInfoE, 
                       __Z35AppendFresnelLayerToLayeredMaterialP19OZMaterialFresnelIFRN19OZMaterialLayerBase19LayeredMaterialInfoE, 
                       __Z35FxDeviceCopyDeviceSetToHGDeviceListPK11FxDeviceSet, __Z35FxDeviceGetComputeDeviceForRendererPK10HGRenderer, 
                       __Z35MoveMaterialLayerInSequenceChannelsP18TXSequenceChannelsjjjj, 
                       __Z35OZFxPlug_EmitterThatNeedsResamplingP11OZSceneNode, __Z35OZFxPlug_GenerateFailedRenderBitmapPvjjhP12CGColorSpace, 
                       __Z35OZFxPlug_GetTransformForImageSourceP11OZSceneNode5PCPtrI13LiImageSourceERK14OZRenderParams, 
                       __Z35OZXDisableElementWithPublishedParamPvR8PCStringb, __Z35OZXSetStickerPathWithPublishedParamPvR8PCStringS1_, 
                       __Z35PCComputeQuadToQuadProjectionMatrixRK9PCVector2IdES2_S2_S2_S2_S2_S2_S2_R14PCMatrix44TmplIdE, 
                       __Z35PCEstimateGammaFromTransferFunctionRK21PCICCTransferFunction, 
                       __Z35PVCreateCGImageRefFromCVPixelBuffer5HGRefI15HGCVPixelBufferE17PVImageProperties, 
                       __Z35PVCreateCVPixelBufferFromCGImageRefP7CGImage17PVImageProperties5HGRefI19HGCVPixelBufferPoolE, 
                       __Z35TXCharacterSetIsWhitespaceOrNewlinej, __Z35TXTextStylePtrFromObjectManipulatorP19OZObjectManipulator, 
                       __Z35computeDistanceToEquirectImagePlaneff, __Z35getOZChannelAspectRatio_FactoryBasev, 
                       __Z35getOZChannelRetimeFrame_FactoryBasev, __Z35pv_side_length_for_fov_and_distancedd, 
                       __Z35pv_side_length_for_fov_and_distanceff, __Z35pv_simd_quaternion_get_euler_angles10simd_quatd16_PVRotationOrderPDv3_d, 
                       __Z35pv_simd_quaternion_get_euler_angles10simd_quatf16_PVRotationOrderPDv3_f, 
                       __Z35writeOutStaticHashesOfSceneContentsP7OZScene, __Z36AppendSpecularLayerToLayeredMaterialP26OZMaterialSpecularFinishIFRN19OZMaterialLayerBase19LayeredMaterialInfoE, 
                       __Z36OZFxPlug_GenerateFailedRenderTexturePvNSt3__110shared_ptrI9PGTextureEE, 
                       __Z36getOZChannelGammaFootage_FactoryBasev, __Z37FirstIndividualFacetInFacetAssignmentj, 
                       __Z37LiMakeSpecularIntensityTextureFactoryRK5PCURLP12CGColorSpace, 
                       __Z37LiMakeSpecularShininessTextureFactoryRK5PCURLP12CGColorSpace, 
                       __Z37OZInsertLayerBelowGroupAffectedByBumpR17LiLayeredMaterialRK5PCPtrI15LiMaterialLayerE, 
                       __Z37OZXEquirectProjectFilterSetQuaternionPvP11OZXFxFilterdddd, 
                       __Z37PCComputeQuadToSquareProjectionMatrixRK9PCVector2IdES2_S2_S2_R14PCMatrix44TmplIdE, 
                       __Z37PCComputeSquareToQuadProjectionMatrixRK9PCVector2IdES2_S2_S2_R14PCMatrix44TmplIdE, 
                       __Z37PVBackfillBlackBackgroundFor420PlanesRK5HGRefI10HGRendererERKS_I6HGNodeEff, 
                       __Z37getOZChannelAffectedNodes_FactoryBasev, __Z37getOZChannelDiscreteColor_FactoryBasev, 
                       __Z37getOZChannelEnumDimension_FactoryBasev, __Z37getOZChannelScaleOverLife_FactoryBasev, 
                       __Z37tailIntentFromAttributedStringAtRangeP18NSAttributedString8_NSRange, 
                       __Z38PCMakeDisplayGrayProfileFromRGBProfileRK12PCICCProfile, 
                       __Z38PCMakeDisplayRGBProfileFromGrayProfileRK12PCICCProfile, 
                       __Z38PVCreateOutputBufferForHGCVPixelBufferP10__CVBufferPK15HGRenderContextP20HGCVGLTextureFactoryRNSt3__16vectorI5HGRefI8HGBitmapENS6_9allocatorISA_EEEE, 
                       __Z38PVIs10BitMultiplaneCoreVideoX420Formatj, __Z38RemoveAllMaterialsFromSequenceChannelsP18TXSequenceChannels, 
                       __Z38getOZChannelEnumInterpMode_FactoryBasev, __Z38pv_adjust_intrinsics_by_cardinal_angle13simd_float3x3Dv2_f16_PVCardinalAngle, 
                       __Z38pv_adjust_intrinsics_by_cardinal_angle14simd_double3x3Dv2_d16_PVCardinalAngle, 
                       __Z38pv_projected_bounding_box_around_pointDv3_dS_14simd_double4x4S0_Dv2_d6_PVNDCbbPS_, 
                       __Z38pv_projected_bounding_box_around_pointDv3_fS_13simd_float4x4S0_Dv2_f6_PVNDCbbPS_, 
                       __Z38pv_simd_matrix_convert_proj_handedness13simd_float4x4, 
                       __Z38pv_simd_matrix_convert_proj_handedness14simd_double4x4, 
                       __Z39PCCreatePrivateColorSpaceFromColorSpacePKcP12CGColorSpace, 
                       __Z39RemoveAllMaterialsFromSequenceBehaviorsP12TXTextLayout, 
                       __Z39RemoveMaterialLayerFromSequenceChannelsP18TXSequenceChannelsjj, 
                       __Z39getRenderPassClearColorLoadDepthResolvePU21objcproto10MTLTexture11objc_objectS0_S0_, 
                       __Z39pv_projected_bounding_rect_around_pointDv3_dDv2_d14simd_double4x4S1_S0_6_PVNDCbbPS_, 
                       __Z39pv_projected_bounding_rect_around_pointDv3_fDv2_f13simd_float4x4S1_S0_6_PVNDCbbPS_, 
                       __Z39pv_simd_float4x4_from_pv_transform_info15PVTransformInfo, 
                       __Z39pv_simd_matrix_make_projection_infinite13simd_float4x4f6_PVNDC, 
                       __Z39pv_simd_matrix_make_projection_infinite14simd_double4x4d6_PVNDC, 
                       __Z3adjRK5Mat3f, __Z3adjRK5Mat4f, __Z3colRK10SparseMatfi, 
                       __Z3colRK4Matfi, __Z3colRK7SubMatfi, __Z3cosN5boost7numeric8intervalIdNS0_12interval_lib8policiesINS2_12rounded_mathIdEENS2_15checking_strictIdEEEEEE, 
                       __Z3detRK5Mat2f, __Z3detRK5Mat3f, __Z3detRK5Mat4f, __Z3dotRK10SparseVecfRK4Vecf, 
                       __Z3dotRK10SparseVecfS1_, __Z3dotRK4VecfS1_, __Z3invRK10SparseMatfPff, 
                       __Z3invRK4MatfPff, __Z3invRK5Mat2f, __Z3invRK5Mat3f, __Z3invRK5Mat4f, 
                       __Z3lenRK10SparseVecf, __Z3mix9PCVector2IfES0_f, __Z3rowRK4Matfi, 
                       __Z3rowRK7SubMatfi, __Z3sin9PCVector2IfE, __Z3sinN5boost7numeric8intervalIdNS0_12interval_lib8policiesINS2_12rounded_mathIdEENS2_15checking_strictIdEEEEEE, 
                       __Z3subRK10SparseMatfii, __Z3subRK10SparseMatfiiii, __Z3subRK10SparseVecfii, 
                       __Z3subRK4Matfii, __Z3subRK4Matfiiii, __Z3subRK7SubMatfii, 
                       __Z3subRK7SubMatfiiii, __Z40FxDeviceGetVirtualScreenForComputeDeviceRKNSt3__110shared_ptrIK15HGComputeDeviceEE, 
                       __Z40OZFxPlug_InputWillBeScaledBasedOnChannelP11OZSceneNode, 
                       __Z40PVAddColorSpaceAttributesToCVPixelBufferP10__CVBufferP12PVColorSpace, 
                       __Z40__OZXGetPublishedSettingForOZChannelBoolP19OZXDocumentInternalP13OZChannelBoolP8NSStringS4_7FigTime, 
                       __Z40__OZXGetPublishedSettingForOZChannelEnumP19OZXDocumentInternalP13OZChannelEnumP8NSStringS4_7FigTime, 
                       __Z40__OZXGetPublishedSettingForOZChannelTextP19OZXDocumentInternalP13OZChannelTextP8NSStringS4_7FigTime, 
                       __Z40getRenderPassClearColorClearDepthResolvePU21objcproto10MTLTexture11objc_objectS0_S0_, 
                       __Z40pv_buffer_size_for_string_representation10simd_quatdj, 
                       __Z40pv_buffer_size_for_string_representation10simd_quatfj, 
                       __Z40pv_buffer_size_for_string_representation13PVCGPointQuadj, 
                       __Z40pv_buffer_size_for_string_representation13simd_float3x3j, 
                       __Z40pv_buffer_size_for_string_representation13simd_float4x4j, 
                       __Z40pv_buffer_size_for_string_representation14simd_double3x3j, 
                       __Z40pv_buffer_size_for_string_representation14simd_double4x4j, 
                       __Z40pv_buffer_size_for_string_representation15PVTransformInfoj, 
                       __Z40pv_buffer_size_for_string_representation24PVTransformAnimationInfoj, 
                       __Z40pv_buffer_size_for_string_representationDv16_fj, __Z40pv_buffer_size_for_string_representationDv2_dj, 
                       __Z40pv_buffer_size_for_string_representationDv2_fj, __Z40pv_buffer_size_for_string_representationDv3_dj, 
                       __Z40pv_buffer_size_for_string_representationDv3_fj, __Z40pv_buffer_size_for_string_representationDv4_dj, 
                       __Z40pv_buffer_size_for_string_representationDv4_fj, __Z40pv_buffer_size_for_string_representationDv8_dj, 
                       __Z40pv_buffer_size_for_string_representationDv8_fj, __Z40pv_simd_double4x4_from_pv_transform_info15PVTransformInfo, 
                       __Z40pv_simd_matrix_convert_coordinate_system13simd_float4x425_PVCoordinateSystemOriginDv2_fS0_S1_, 
                       __Z40pv_simd_matrix_convert_coordinate_system14simd_double4x425_PVCoordinateSystemOriginDv2_dS0_S1_, 
                       __Z41OZFxPlug_GetPixelAspectRatioFromSceneNodeP11OZSceneNode, 
                       __Z41PVCreateHGBitmapFromCGImageRefWithStorageP7CGImageP12PVColorSpace, 
                       __Z41__OZXGetPublishedSettingForOZChannelScaleP19OZXDocumentInternalP14OZChannelScaleP8NSStringS4_7FigTime, 
                       __Z41__OZXGetPublishedSettingForOZChannelShapeP19OZXDocumentInternalP14OZChannelShapeP8NSStringS4_7FigTime, 
                       __Z41pixelFormatFromRendererIntermediateFormatP10HGRenderer, 
                       __Z41pv_adjust_intrinsics_origin_to_lower_left13simd_float3x3Dv2_f, 
                       __Z41pv_adjust_intrinsics_origin_to_lower_left14simd_double3x3Dv2_d, 
                       __Z42AddMaterialLayerToMaterialSequenceChannelsP18TXSequenceChannelsP19OZMaterialLayerBasejj, 
                       __Z42SetSaveWhenAtDefaultStateFlagOnDescendantsP15OZChannelFolder, 
                       __Z42__OZXGetPublishedSettingForOZChannelDoubleP19OZXDocumentInternalP15OZChannelDoubleP8NSStringS4_7FigTime, 
                       __Z42__OZXGetPublishedSettingForOZChannelUint32P19OZXDocumentInternalP15OZChannelUint32P8NSStringS4_7FigTime, 
                       __Z42getOZChannelAspectRatioFootage_FactoryBasev, __Z42pv_intrinsics_from_fov_side_and_resolutionddDv2_d, 
                       __Z42pv_intrinsics_from_fov_side_and_resolutionffDv2_f, __Z43PVCreateCGImageRefByConvertingCVPixelBuffer5HGRefI15HGCVPixelBufferE, 
                       __Z43TX3DExtrusionPropertiesChannelResetCallbackP13OZChannelBasePv, 
                       __Z45AppendMaterialLayerToMaterialSequenceChannelsP18TXSequenceChannelsP19OZMaterialLayerBasej, 
                       __Z45OZFxPlug_setPixelTransformToRestrictInputSizeR7LiAgentRK6PCRectIdEbPd, 
                       __Z46__OZXGetPublishedSettingForOZChannelObjectRootP19OZXDocumentInternalP19OZChannelObjectRootP8NSStringS4_, 
                       __Z46pv_intrinsics_from_focal_length_and_resolutionDv2_dS_, 
                       __Z46pv_intrinsics_from_focal_length_and_resolutionDv2_fS_, 
                       __Z47CreateAttributedStringCopyForCaretInsertionInfoPK20__CFAttributedString, 
                       __Z47OZXAdjustTranscriptionLineSpacingForCurrentFontPvRK8PCString, 
                       __Z47RemoveAllMaterialSequenceFoldersFromRootChannelP15OZChannelFolder, 
                       __Z48__OZXGetPublishedSettingForOZChannelColorNoAlphaP19OZXDocumentInternalP21OZChannelColorNoAlphaP8NSStringS4_7FigTime, 
                       __Z4diagRK10SparseMatfi, __Z4diagRK4Matfi, __Z4diagRK7SubMatfi, 
                       __Z4frac9PCVector2IfE, __Z4normRK10SparseVecf, __Z4projRK5Vec4f, 
                       __Z4stepff, __Z4vabs9PCVector2IfE, __Z50RemoveAllMaterialsFromSequenceBehaviorRootChannelsP12TXTextLayout, 
                       __Z50__OZXGetTranscriptionDelegateAndLineSpacingChannelPvRK8PCStringPP23OZTranscriptionDelegatePP15OZChannelDouble, 
                       __Z51pv_intrinsics_from_focal_length_and_principal_pointDv2_dS_, 
                       __Z51pv_intrinsics_from_focal_length_and_principal_pointDv2_fS_, 
                       __Z52OZFxPlug_GetAnchoredObjectContainerForTimeConversionP16FFAnchoredObject, 
                       __Z53pv_transform_PVCGPointQuad_between_coordinate_systems13PVCGPointQuad6CGSize25_PVCoordinateSystemOriginS0_S1_, 
                       __Z54pv_projected_screen_aligned_bounding_rect_around_pointDv3_dDv2_d14simd_double4x4S1_S1_S0_6_PVNDCbbPDv4_d, 
                       __Z54pv_projected_screen_aligned_bounding_rect_around_pointDv3_fDv2_f13simd_float4x4S1_S1_S0_6_PVNDCbbPDv4_f, 
                       __Z5clamp9PCVector2IfEff, __Z5crossRK5Vec4fS1_S1_, __Z5floor9PCVector2IN5boost7numeric8intervalIdNS1_12interval_lib8policiesINS3_12rounded_mathIdEENS3_15checking_strictIdEEEEEEE, 
                       __Z5floorN5boost7numeric8intervalIdNS0_12interval_lib8policiesINS2_12rounded_mathIdEENS2_15checking_strictIdEEEEEE, 
                       __Z5fract9PCVector2IN5boost7numeric8intervalIdNS1_12interval_lib8policiesINS3_12rounded_mathIdEENS3_15checking_strictIdEEEEEEE, 
                       __Z5oprodRK10SparseVecfS1_, __Z5oprodRK4VecfS1_, __Z5oprodRK5Vec2fS1_, 
                       __Z5oprodRK5Vec3fS1_, __Z5oprodRK5Vec4fS1_, __Z5traceRK10SparseMatf, 
                       __Z5traceRK4Matf, __Z5traceRK5Mat3f, __Z5traceRK5Mat4f, __Z5transRK10SparseMatf, 
                       __Z5transRK4Matf, __Z5transRK5Mat3f, __Z5transRK5Mat4f, __Z6PCInitv, 
                       __Z6oprodsRK4VecfS1_, __Z6sqrlenRK10SparseVecf, __Z7_AssertiPKcS0_i, 
                       __Z7_ExpectiPKcS0_i, __Z7clampedRK4Matf, __Z7clampedRK4Matff, 
                       __Z7clampedRK4Vecf, __Z7clampedRK4Vecff, __Z7compareRK9PCHash128S1_, 
                       __Z7liDebugPKc, __Z7projectRK9PCVector3IdERK14PCMatrix44TmplIdES6_RK9PCVector4IiE, 
                       __Z7stricmpPKcS0_, __Z8_svdCallR5PCSvdIdERK11PCGenMatrixIdE, 
                       __Z8_svdCallR5PCSvdIdERK11PCGenMatrixIdERK11PCGenVectorIdE, 
                       __Z8_svdCallR5PCSvdIfERK11PCGenMatrixIfE, __Z8_svdCallR5PCSvdIfERK11PCGenMatrixIfERK11PCGenVectorIfE, 
                       __Z8getScaleRK14PCMatrix44TmplIdEP9PCVector3IdE, __Z8getScaleRK14PCMatrix44TmplIdERK9PCVector3IdEPS4_, 
                       __Z8getScaleRK14PCMatrix44TmplIdERK9PCVector3IdES6_PS4_b, 
                       __Z8mix_hull9PCVector2IN5boost7numeric8intervalIdNS1_12interval_lib8policiesINS3_12rounded_mathIdEENS3_15checking_strictIdEEEEEEESB_SB_, 
                       __Z8pcIndentRNSt3__113basic_ostreamIcNS_11char_traitsIcEEEE, 
                       __Z9MyCG_OpenRK19PMFormatDescriptionRK5PCURLPPv, __Z9OZGetTimev, 
                       __Z9PCCleanupv, __Z9PMHGXformRK5HGRefI6HGNodeERK14PCMatrix44TmplIdE, 
                       __Z9blueNoisev, __Z9inverse2DP14PCMatrix44TmplIdERKS0_Pd, 
                       __Z9printBitsPc4half, __Z9printBitsPcf, __Z9printBitsRNSt3__113basic_ostreamIcNS_11char_traitsIcEEEE4half, 
                       __Z9printBitsRNSt3__113basic_ostreamIcNS_11char_traitsIcEEEEf, 
                       __Z9transformRK14PCMatrix44TmplIdER9LiClipSet, __Z9transformRK14PCMatrix44TmplIdER9LiFrustum, 
                       __Z9transformRK14PCMatrix44TmplIdER9LiPolygon, __Z9wrapWidthff, 
                       __ZN10ColorHisto22calculateCenterSamplesERNSt3__16vectorIiNS0_9allocatorIiEEEEf, 
                       __ZN10GLRenderer11cacheBitmapEP7OZSceneR14OZRenderParams, 
                       __ZN10GLRenderer12getFrameNodeEP12OZRenderNodeR14OZRenderParamsP10HGRendererPl, 
                       __ZN10GLRenderer12getFrameNodeEP7OZSceneR14OZRenderParamsP10HGRendererPl, 
                       __ZN10GLRenderer16kUseROIParameterE, __ZN10GLRenderer17canRenderThisSizeEiii, 
                       __ZN10GLRenderer17inDesperationModeEv, __ZN10GLRenderer19renderImageFromNodeERK5HGRefI6HGNodeER14OZRenderParamsP10HGRenderer, 
                       __ZN10GLRenderer20convertTextureFormatERKNSt3__110shared_ptrI9PGTextureEER14OZRenderParams, 
                       __ZN10GLRenderer20enterDesperationModeEP7OZScene, __ZN10GLRenderer20leaveDesperationModeEP7OZScene, 
                       __ZN10GLRenderer25getFrameNodeForSingleTimeEP7OZSceneR14OZRenderParamsP10HGRendererddPl, 
                       __ZN10GLRenderer25getSceneHeNodeFromLiWorldEP7OZSceneRK15OZSceneSettingsR14OZRenderParams5PCPtrI7LiGroupEP10HGRendererddRP12CGColorSpacePl, 
                       __ZN10GLRenderer26getFrameNodeWithMotionBlurEP7OZSceneR14OZRenderParamsP10HGRendererPl, 
                       __ZN10GLRenderer27getFrameNodeIncludingFieldsEP7OZSceneR14OZRenderParamsP10HGRendererPl, 
                       __ZN10GLRenderer36renderSingleDocumentObjectWithHeliumEP12OZRenderNodeR14OZRenderParams, 
                       __ZN10GLRenderer6renderEP12OZRenderNodeR14OZRenderParams, 
                       __ZN10GLRenderer6renderEP7OZSceneR14OZRenderParams, __ZN10GLRendererC1Eii, 
                       __ZN10GLRendererC2Eii, __ZN10GLRendererD1Ev, __ZN10GLRendererD2Ev, 
                       __ZN10HBlackHole10RenderTileEP6HGTile, __ZN10HBlackHole14TransformPointERK9PCVector2IdES3_fffS3_S3_, 
                       __ZN10HBlackHole17setPixelTransformERK14PCMatrix44TmplIdE, 
                       __ZN10HBlackHole24setInversePixelTransformERK14PCMatrix44TmplIdE, 
                       __ZN10HBlackHole6GetDODEP10HGRendereri6HGRect, __ZN10HBlackHole6GetROIEP10HGRendereri6HGRect, 
                       __ZN10HBlackHole9GetOutputEP10HGRenderer, __ZN10HComicTown10RenderPageEP6HGPage, 
                       __ZN10HComicTown6GetDODEP10HGRendereri6HGRect, __ZN10HComicTown6GetROIEP10HGRendereri6HGRect, 
                       __ZN10HComicTown9GetOutputEP10HGRenderer, __ZN10HComicTownC1EP13TDreamManager, 
                       __ZN10HComicTownC2EP13TDreamManager, __ZN10HComicTownD0Ev, 
                       __ZN10HComicTownD1Ev, __ZN10HComicTownD2Ev, __ZN10HMaskAlpha15RenderPageMetalEP6HGPage, 
                       __ZN10HMaskAlpha6GetDODEP10HGRendereri6HGRect, __ZN10HMaskAlphaC1Ej, 
                       __ZN10HMaskAlphaC1Ev, __ZN10HMaskAlphaC2Ej, __ZN10HMaskAlphaC2Ev, 
                       __ZN10HPixellate6GetDODEP10HGRendereri6HGRect, __ZN10HPixellate6GetROIEP10HGRendereri6HGRect, 
                       __ZN10HPixellate9GetOutputEP10HGRenderer, __ZN10HSoftFocus4initEffffb, 
                       __ZN10HSoftFocus9GetOutputEP10HGRenderer, __ZN10HSoftFocusC1Ev, 
                       __ZN10HSoftFocusC2Ev, __ZN10HSoftFocusD0Ev, __ZN10HSoftFocusD1Ev, 
                       __ZN10HSoftFocusD2Ev, __ZN10HStarburst6GetDODEP10HGRendereri6HGRect, 
                       __ZN10HStarburst6GetROIEP10HGRendereri6HGRect, __ZN10HStarburst7SetRectERK7HGRectf, 
                       __ZN10HStarburst9GetOutputEP10HGRenderer, __ZN10HgcBadFilm10GetProgramEP10HGRenderer, 
                       __ZN10HgcBadFilm10RenderTileEP6HGTile, __ZN10HgcBadFilm11BindTextureEP9HGHandleri, 
                       __ZN10HgcBadFilm12GetParameterEiPf, __ZN10HgcBadFilm12SetParameterEiffff, 
                       __ZN10HgcBadFilm4BindEP9HGHandler, __ZN10HgcBadFilm6GetDODEP10HGRendereri6HGRect, 
                       __ZN10HgcBadFilm6GetROIEP10HGRendereri6HGRect, __ZN10HgcBadFilm9GetOutputEP10HGRenderer, 
                       __ZN10HgcBadFilmC1Ev, __ZN10HgcBadFilmC2Ev, __ZN10HgcBadFilmD0Ev, 
                       __ZN10HgcBadFilmD1Ev, __ZN10HgcBadFilmD2Ev, __ZN10HgcBumpMap10GetProgramEP10HGRenderer, 
                       __ZN10HgcBumpMap10RenderTileEP6HGTile, __ZN10HgcBumpMap11BindTextureEP9HGHandleri, 
                       __ZN10HgcBumpMap12GetParameterEiPf, __ZN10HgcBumpMap12SetParameterEiffff, 
                       __ZN10HgcBumpMap4BindEP9HGHandler, __ZN10HgcBumpMap6GetDODEP10HGRendereri6HGRect, 
                       __ZN10HgcBumpMap6GetROIEP10HGRendereri6HGRect, __ZN10HgcBumpMap9GetOutputEP10HGRenderer, 
                       __ZN10HgcBumpMapC1Ev, __ZN10HgcBumpMapC2Ev, __ZN10HgcBumpMapD0Ev, 
                       __ZN10HgcBumpMapD1Ev, __ZN10HgcBumpMapD2Ev, __ZN10HgcLumaKey10GetProgramEP10HGRenderer, 
                       __ZN10HgcLumaKey10RenderTileEP6HGTile, __ZN10HgcLumaKey11BindTextureEP9HGHandleri, 
                       __ZN10HgcLumaKey12GetParameterEiPf, __ZN10HgcLumaKey12SetParameterEiffff, 
                       __ZN10HgcLumaKey4BindEP9HGHandler, __ZN10HgcLumaKey6GetDODEP10HGRendereri6HGRect, 
                       __ZN10HgcLumaKey6GetROIEP10HGRendereri6HGRect, __ZN10HgcLumaKey9GetOutputEP10HGRenderer, 
                       __ZN10HgcLumaKeyC1Ev, __ZN10HgcLumaKeyC2Ev, __ZN10HgcLumaKeyD0Ev, 
                       __ZN10HgcLumaKeyD1Ev, __ZN10HgcLumaKeyD2Ev, __ZN10HgcSharpen10GetProgramEP10HGRenderer, 
                       __ZN10HgcSharpen10RenderTileEP6HGTile, __ZN10HgcSharpen11BindTextureEP9HGHandleri, 
                       __ZN10HgcSharpen12GetParameterEiPf, __ZN10HgcSharpen12SetParameterEiffff, 
                       __ZN10HgcSharpen4BindEP9HGHandler, __ZN10HgcSharpen6GetDODEP10HGRendereri6HGRect, 
                       __ZN10HgcSharpen6GetROIEP10HGRendereri6HGRect, __ZN10HgcSharpen9GetOutputEP10HGRenderer, 
                       __ZN10HgcSharpenC1Ev, __ZN10HgcSharpenC2Ev, __ZN10HgcSharpenD0Ev, 
                       __ZN10HgcSharpenD1Ev, __ZN10HgcSharpenD2Ev, __ZN10HgcStripes10GetProgramEP10HGRenderer, 
                       __ZN10HgcStripes10RenderTileEP6HGTile, __ZN10HgcStripes11BindTextureEP9HGHandleri, 
                       __ZN10HgcStripes12GetParameterEiPf, __ZN10HgcStripes12SetParameterEiffff, 
                       __ZN10HgcStripes4BindEP9HGHandler, __ZN10HgcStripes6GetDODEP10HGRendereri6HGRect, 
                       __ZN10HgcStripes6GetROIEP10HGRendereri6HGRect, __ZN10HgcStripes9GetOutputEP10HGRenderer, 
                       __ZN10HgcStripesC1Ev, __ZN10HgcStripesC2Ev, __ZN10HgcStripesD0Ev, 
                       __ZN10HgcStripesD1Ev, __ZN10HgcStripesD2Ev, __ZN10HgcTXAlpha10GetProgramEP10HGRenderer, 
                       __ZN10HgcTXAlpha10RenderTileEP6HGTile, __ZN10HgcTXAlpha11BindTextureEP9HGHandleri, 
                       __ZN10HgcTXAlpha12GetParameterEiPf, __ZN10HgcTXAlpha12SetParameterEiffff, 
                       __ZN10HgcTXAlpha4BindEP9HGHandler, __ZN10HgcTXAlpha5SetupEPv, 
                       __ZN10HgcTXAlpha6GetDODEP10HGRendereri6HGRect, __ZN10HgcTXAlpha6GetROIEP10HGRendereri6HGRect, 
                       __ZN10HgcTXAlpha9GetOutputEP10HGRenderer, __ZN10HgcTXAlphaC1Ev, 
                       __ZN10HgcTXAlphaC2Ev, __ZN10HgcTXAlphaD0Ev, __ZN10HgcTXAlphaD1Ev, 
                       __ZN10HgcTXAlphaD2Ev, __ZN10HgcTXColor10GetProgramEP10HGRenderer, 
                       __ZN10HgcTXColor10RenderTileEP6HGTile, __ZN10HgcTXColor11BindTextureEP9HGHandleri, 
                       __ZN10HgcTXColor12GetParameterEiPf, __ZN10HgcTXColor12SetParameterEiffff, 
                       __ZN10HgcTXColor4BindEP9HGHandler, __ZN10HgcTXColor5SetupEPv, 
                       __ZN10HgcTXColor6GetDODEP10HGRendereri6HGRect, __ZN10HgcTXColor6GetROIEP10HGRendereri6HGRect, 
                       __ZN10HgcTXColor9GetOutputEP10HGRenderer, __ZN10HgcTXColorC1Ev, 
                       __ZN10HgcTXColorC2Ev, __ZN10HgcTXColorD0Ev, __ZN10HgcTXColorD1Ev, 
                       __ZN10HgcTXColorD2Ev, __ZN10LiLightSet3addERK7LiLight, __ZN10LiLightSet3addERKS_, 
                       __ZN10LiMaterial10getProgramERK9LiContextN8ProShade7Program14CodePreferenceE, 
                       __ZN10LiMaterial10setTextureERKN8ProShade7SamplerE5PCPtrI13LiImageSourceEP12CGColorSpacedPK9PCHash128, 
                       __ZN10LiMaterial10setTextureERKN8ProShade7SamplerERK19LiTextureStoreTokenbRK14PCMatrix44TmplIdE, 
                       __ZN10LiMaterial10setTextureERKN8ProShade7SamplerERKN5ProGL13TextureHandleERK14PCMatrix44TmplIdE, 
                       __ZN10LiMaterial11setUniformsERK20LiTextureCoordinator, __ZN10LiMaterial12printShadersEv, 
                       __ZN10LiMaterial15containsUniformERKN8ProShade7UniformE, __ZN10LiMaterial15getProgramCacheEv, 
                       __ZN10LiMaterial15setPrintShadersEb, __ZN10LiMaterial16initProgramCacheER7PCCacheINS_9ShaderKeyE5PCPtrIN8ProShade7ProgramEE8PCNoLockE, 
                       __ZN10LiMaterial16localBoundingBoxER5PCBoxIdE, __ZN10LiMaterial17obtainSamplerInfoEPKN8ProShade11SamplerNodeE, 
                       __ZN10LiMaterial4castERK6PCRay3IdEP15LiSceneInstance, __ZN10LiMaterial5planeEv, 
                       __ZN10LiMaterial8setAlphaE15LiMaterialAlpha, __ZN10LiMaterialC2Ev, 
                       __ZN10LiMaterialD0Ev, __ZN10LiMaterialD1Ev, __ZN10LiMaterialD2Ev, 
                       __ZN10LiPadImage11getBoundaryER7LiAgentP6PCRectIdE, __ZN10LiPadImage21pixelTransformSupportERK18LiRenderParameters, 
                       __ZN10LiPadImage6SetDODERK6PCRectIdE, __ZN10LiPadImage9getHeliumER7LiAgent, 
                       __ZN10LiPadImageC1Ev, __ZN10LiPadImageC2Ev, __ZN10LiPadImageD0Ev, 
                       __ZN10LiPadImageD1Ev, __ZN10LiPadImageD2Ev, __ZN10LiRenderer11getBoundaryER7LiAgentP6PCRectIdE, 
                       __ZN10LiRenderer11setBoundaryERK6PCRectIdE, __ZN10LiRenderer13setBackgroundEP13LiImageSource, 
                       __ZN10LiRenderer15doOneFaceRenderER7LiAgentPK8LiCameraRK6PCQuatIdE, 
                       __ZN10LiRenderer15doSixFaceRenderER7LiAgent, __ZN10LiRenderer16setRootTransformERK14PCMatrix44TmplIdE, 
                       __ZN10LiRenderer20estimateRenderMemoryERNSt3__13setI9PCHash128NS0_4lessIS2_EENS0_9allocatorIS2_EEEE, 
                       __ZN10LiRenderer21applyRenderToEquirectEii, __ZN10LiRenderer21pixelTransformSupportERK18LiRenderParameters, 
                       __ZN10LiRenderer9addFilterEP13LiImageFilter, __ZN10LiRenderer9getHeliumER7LiAgent, 
                       __ZN10LiRendererC1Ev, __ZN10LiRendererC2Ev, __ZN10LiRendererD0Ev, 
                       __ZN10LiRendererD1Ev, __ZN10LiRendererD2Ev, __ZN10OZBehavior10deleteThisEP13OZChannelBase, 
                       __ZN10OZBehavior10parseBeginER22PCSerializerReadStream, __ZN10OZBehavior11writeHeaderER23PCSerializerWriteStreamb, 
                       __ZN10OZBehavior12getSceneNodeEv, __ZN10OZBehavior12parseElementER22PCSerializerReadStreamR15PCStreamElement, 
                       __ZN10OZBehavior13getPasteEntryEP13OZChannelBase, __ZN10OZBehavior14calcStaticHashER23PCSerializerWriteStreamRNSt3__14listIP19OZObjectManipulatorNS2_9allocatorIS5_EEEE, 
                       __ZN10OZBehavior16calcHashForStateER23PCSerializerWriteStreamRK14OZRenderParamsRNSt3__14listIP19OZObjectManipulatorNS5_9allocatorIS8_EEEE, 
                       __ZN10OZBehavior17CanAddToSceneNodeERK6PCUUIDPK11OZSceneNode, 
                       __ZN10OZBehavior17canAddToSceneNodeEP11OZSceneNode, __ZN10OZBehavior18getNaturalDurationEv, 
                       __ZN10OZBehavior20performDragOperationEP13OZFactoryBaseP13OZChannelBasejjjjRK7FigTime, 
                       __ZN10OZBehavior22IsChanAAffectedByChanBEPK13OZChannelBaseS2_RNSt3__14listIP19OZObjectManipulatorNS3_9allocatorIS6_EEEE, 
                       __ZN10OZBehavior22getSourceOperationMaskEP13OZChannelBaseb, 
                       __ZN10OZBehavior22isUltimatelyAffectedByEPK13OZChannelBaseRNSt3__14listIP19OZObjectManipulatorNS3_9allocatorIS6_EEEE, 
                       __ZN10OZBehavior22isUltimatelyAffectedByEPK9OZChannelRNSt3__14listIP19OZObjectManipulatorNS3_9allocatorIS6_EEEE, 
                       __ZN10OZBehavior23prepareForDragOperationEP11OZPasteListP13OZChannelBasejj, 
                       __ZN10OZBehavior24isEnabledAndUseBehaviorsEv, __ZN10OZBehavior28GetBehaviorsAffectingChannelEPK13OZChannelBaseRNSt3__14listIPS_NS3_9allocatorIS5_EEEEb, 
                       __ZN10OZBehavior28IsChannelAffectedByBehaviorsEPK13OZChannelBaseb, 
                       __ZN10OZBehavior29markFactoriesForSerializationER23PCSerializerWriteStreamb, 
                       __ZN10OZBehavior4copyEP13OZChannelBase, __ZN10OZBehavior5dirtyEv, 
                       __ZN10OZBehavior5pasteEP13OZChannelBase, __ZN10OZBehavior6renameEP13OZChannelBaseP8PCString, 
                       __ZN10OZBehavior6selectEv, __ZN10OZBehavior8deselectEv, __ZN10OZBehavior8parseEndER22PCSerializerReadStream, 
                       __ZN10OZBehavior9allowDragEP13OZFactoryBaseP13OZChannelBasejPjS4_j, 
                       __ZN10OZBehavior9writeBodyER23PCSerializerWriteStreambbb, 
                       __ZN10OZBehaviorC1EP9OZFactoryRK8PCStringj, __ZN10OZBehaviorC1ERKS_, 
                       __ZN10OZBehaviorC1ERKS_j, __ZN10OZBehaviorC2EP9OZFactoryRK8PCStringj, 
                       __ZN10OZBehaviorC2ERKS_, __ZN10OZBehaviorC2ERKS_j, __ZN10OZBehaviorD0Ev, 
                       __ZN10OZBehaviorD1Ev, __ZN10OZBehaviorD2Ev, __ZN10OZBehavioraSERKS_, 
                       __ZN10OZCacheKey6getKeyERK7FigTime, __ZN10OZDocument10parseBeginER22PCSerializerReadStream, 
                       __ZN10OZDocument10resetSceneEv, __ZN10OZDocument10setIsReadyEb, 
                       __ZN10OZDocument11importFilesEj, __ZN10OZDocument11writeHeaderER23PCSerializerWriteStreamb, 
                       __ZN10OZDocument12endUndoGroupEv, __ZN10OZDocument12parseElementER22PCSerializerReadStreamR15PCStreamElement, 
                       __ZN10OZDocument13resetFilenameEv, __ZN10OZDocument14addCPPObserverEP13OZCPPObserverl, 
                       __ZN10OZDocument14beginUndoGroupERK8PCString, __ZN10OZDocument14hasCPPObserverEP13OZCPPObserver, 
                       __ZN10OZDocument14ignoreObserverEPvbj, __ZN10OZDocument15addObjCObserverEPvl, 
                       __ZN10OZDocument15getAllSequencesERNSt3__16vectorI8PCStringNS0_9allocatorIS2_EEEE, 
                       __ZN10OZDocument15hasObjCObserverEPv, __ZN10OZDocument15localizeContentERK5PCURL, 
                       __ZN10OZDocument16addDefaultCameraEv, __ZN10OZDocument16isSystemTemplateEv, 
                       __ZN10OZDocument16postNotificationEj, __ZN10OZDocument17removeCPPObserverEP13OZCPPObserver, 
                       __ZN10OZDocument17willModifyChannelEPK13OZChannelBasej, __ZN10OZDocument18getUndoDescriptionEv, 
                       __ZN10OZDocument18ignoreObserverOnceEPvj, __ZN10OZDocument18pauseNotificationsEv, 
                       __ZN10OZDocument18removeObjCObserverEPv, __ZN10OZDocument18setUndoDescriptionERK8PCString, 
                       __ZN10OZDocument19resumeNotificationsEv, __ZN10OZDocument20getProjectPanelStateEv, 
                       __ZN10OZDocument20makeFCPv1CorrectionsEv, __ZN10OZDocument20makeFCPv2CorrectionsEv, 
                       __ZN10OZDocument20makeFCPv3CorrectionsEv, __ZN10OZDocument20unignoreObserverOnceEPvj, 
                       __ZN10OZDocument21correct4CornerChannelER17OZChannelPositiondd, 
                       __ZN10OZDocument23checkForSupportedConfigEv, __ZN10OZDocument23clearTemporaryUndoItemsEv, 
                       __ZN10OZDocument24setOverrideFCPColorSpaceEb, __ZN10OZDocument25checkVersionForReadStreamER22PCSerializerReadStream, 
                       __ZN10OZDocument26endCaptureModifiedChannelsEv, __ZN10OZDocument26setIsTemplateDesignedFor4kEb, 
                       __ZN10OZDocument28startCaptureModifiedChannelsERK8PCString, 
                       __ZN10OZDocument29markFactoriesForSerializationER23PCSerializerWriteStreamb, 
                       __ZN10OZDocument33adjustCanvasStateFor360ProjectionEv, __ZN10OZDocument41setIsProcessingNotificationsAutomaticallyEb, 
                       __ZN10OZDocument4openERK5PCURL, __ZN10OZDocument4saveERK5PCURLS2_, 
                       __ZN10OZDocument6importERNSt3__16vectorI8PCStringNS0_9allocatorIS2_EEEEP7OZGroupRK9PCVector2IfEbj7FigTimeP11OZSceneNode, 
                       __ZN10OZDocument8parseEndER22PCSerializerReadStream, __ZN10OZDocument8postLoadEv, 
                       __ZN10OZDocument9addToUndoEP12OZUndoActionRK8PCString, __ZN10OZDocument9copySceneEP7OZScene, 
                       __ZN10OZDocument9isRedoingEv, __ZN10OZDocument9isUndoingEv, 
                       __ZN10OZDocument9writeBodyER23PCSerializerWriteStreambbb, 
                       __ZN10OZDocumentC1ERKS_b, __ZN10OZDocumentC1Eb, __ZN10OZDocumentC2ERKS_b, 
                       __ZN10OZDocumentC2Eb, __ZN10OZDocumentD0Ev, __ZN10OZDocumentD1Ev, 
                       __ZN10OZDocumentD2Ev, __ZN10OZFontFaceC1ERK8PCStringS2_P12OZFontFamily, 
                       __ZN10OZFontFaceC2ERK8PCStringS2_P12OZFontFamily, __ZN10OZFontFaceD0Ev, 
                       __ZN10OZFontFaceD1Ev, __ZN10OZFontFaceD2Ev, __ZN10OZFxFilter10offsetNodeERK5HGRefI6HGNodeERK7LiAgentRK9PCVector2IdE20OZFieldRenderingMode, 
                       __ZN10OZFxFilter10parseBeginER22PCSerializerReadStream, __ZN10OZFxFilter10renderNodeERK7LiAgentRK5HGRefI6HGNodeEP12CGColorSpaceRK6PCRectIiEN13PCPixelFormat12ChannelOrderEbPvPNSt3__110shared_ptrI7PCImageEEP11PCImageTypePj, 
                       __ZN10OZFxFilter10renumberIDEPj, __ZN10OZFxFilter10willRemoveEv, 
                       __ZN10OZFxFilter11remapTokensERK14OZRenderParamsRNSt3__16vectorINS3_4pairI7FigTimeNS4_IS6_NS3_9allocatorIS6_EEEEEENS7_ISA_EEEER14PMFrameRequest, 
                       __ZN10OZFxFilter11renumberIDsEPNSt3__13mapIjjNS0_4lessIjEENS0_9allocatorINS0_4pairIKjjEEEEEEb, 
                       __ZN10OZFxFilter11writeHeaderER23PCSerializerWriteStreamb, 
                       __ZN10OZFxFilter12FilterBounds6setAllERK6PCRectIdE, __ZN10OZFxFilter12didAddToNodeEP11OZSceneNodeb, 
                       __ZN10OZFxFilter12parseElementER22PCSerializerReadStreamR15PCStreamElement, 
                       __ZN10OZFxFilter12rescaleInputER7LiAgent7FigTimeRK5PCPtrI13LiImageSourceERK14OZRenderParamsRK6PCRectIdE, 
                       __ZN10OZFxFilter12rescaleInputER7LiAgentRK9PCVector2IdE, __ZN10OZFxFilter12unOffsetNodeERK5HGRefI6HGNodeERK7LiAgentRK9PCVector2IdE20OZFieldRenderingMode, 
                       __ZN10OZFxFilter13finalizeImageERK7LiAgentP7FxImagePvRK14OZRenderParams, 
                       __ZN10OZFxFilter13needsToRenderE7FigTime, __ZN10OZFxFilter14calcStaticHashER23PCSerializerWriteStreamRNSt3__14listIP19OZObjectManipulatorNS2_9allocatorIS5_EEEE, 
                       __ZN10OZFxFilter14getRenderScaleERK7LiAgentRK14OZRenderParams, 
                       __ZN10OZFxFilter14setupObserversEP7OZScene, __ZN10OZFxFilter15getCenterOffsetERK7LiAgentRK6PCRectIdE7FigTime, 
                       __ZN10OZFxFilter15getInternalNameEv, __ZN10OZFxFilter15setInternalNameERK8PCString, 
                       __ZN10OZFxFilter16calcHashForStateER23PCSerializerWriteStreamRK14OZRenderParamsRNSt3__14listIP19OZObjectManipulatorNS5_9allocatorIS8_EEEE, 
                       __ZN10OZFxFilter16setInputImageDODERK7LiAgentRK5HGRefI6HGNodeERK6PCRectIiEP7FxImageRK14OZRenderParams, 
                       __ZN10OZFxFilter17setOutputImageDODERK6PCRectIiEdP7FxImage, 
                       __ZN10OZFxFilter17updateParameterIDEP13OZChannelBasePjj, __ZN10OZFxFilter18createInputFxImageERK7LiAgentPNSt3__110shared_ptrI7PCImageEEPjPvS9_RK5HGRefI6HGNodeEPSC_RKNS_12FilterBoundsEibbRK9PCVector2IdERK14OZRenderParams, 
                       __ZN10OZFxFilter18disableRootChannelEv, __ZN10OZFxFilter19createOutputFxImageEPvS0_RK7LiAgentRKNS_12FilterBoundsEjbRK14OZRenderParams, 
                       __ZN10OZFxFilter19initialRescaleInputER7LiAgent, __ZN10OZFxFilter20completeConstructionEv, 
                       __ZN10OZFxFilter20createNewLithiumNodeERK14OZRenderParams, 
                       __ZN10OZFxFilter21createRawInputFxImageERK7LiAgentPNSt3__110shared_ptrI7PCImageEEPjPvS9_RK5HGRefI6HGNodeEP12CGColorSpacePSC_RKNS_12FilterBoundsEbbRK9PCVector2IdERK14OZRenderParams, 
                       __ZN10OZFxFilter21didChangeChannelStateEP13OZChannelBase, 
                       __ZN10OZFxFilter21getBoundingRectanglesER7LiAgentRK14OZRenderParams7FigTime, 
                       __ZN10OZFxFilter21makeRenderImageSourceER14OZRenderParamsRK18OZRenderGraphStateb, 
                       __ZN10OZFxFilter21shouldRenumberChannelEP13OZChannelBase, 
                       __ZN10OZFxFilter22didAddSceneNodeToSceneEP7OZScene, __ZN10OZFxFilter24createHeliumInputFxImageERK7LiAgentPvRK5HGRefI6HGNodeEP12CGColorSpacePS6_RKNS_12FilterBoundsEibRK9PCVector2IdERK14OZRenderParams, 
                       __ZN10OZFxFilter24getAgentImageSpaceBoundsER7LiAgentRK14OZRenderParams, 
                       __ZN10OZFxFilter24makeRenderTemporalSourceER14OZRenderParamsRK18OZRenderGraphStateb, 
                       __ZN10OZFxFilter27getChannelFromRefAndVersionEP12OZChannelRefd, 
                       __ZN10OZFxFilter27prepareHandlersForRenderingEP7LiAgentRK5PCPtrI13LiImageSourceERK14OZRenderParamsPK14PCMatrix44TmplIdESD_, 
                       __ZN10OZFxFilter28willRemoveSceneNodeFromSceneEP7OZScene, 
                       __ZN10OZFxFilter29markFactoriesForSerializationER23PCSerializerWriteStreamb, 
                       __ZN10OZFxFilter34getInputPixelBoundsFromImageBoundsER7LiAgentRK6PCRectIdEPNS_12FilterBoundsE, 
                       __ZN10OZFxFilter3mixERK7LiAgentRK6PCRectIiE7FigTimePvRK5HGRefI6HGNodeEbbP7FxImageSF_P13PGFramebufferPN5ProGL2GLESB_, 
                       __ZN10OZFxFilter6renderERK5PCPtrI13LiImageSourceEbRKNS_12FilterBoundsERK14OZRenderParamsP7LiAgentP7FxImageSE_PvP13PGFramebufferPN5ProGL2GLE, 
                       __ZN10OZFxFilter7processER14OZRenderParams, __ZN10OZFxFilter8getGroupEv, 
                       __ZN10OZFxFilter8parseEndER22PCSerializerReadStream, __ZN10OZFxFilter9getBoundsEP6PCRectIdERK13OZRenderState, 
                       __ZN10OZFxFilter9getHeliumER7LiAgent5PCPtrI13LiImageSourceE7FigTimeR14OZRenderParams, 
                       __ZN10OZFxFilter9heliumMixERK7LiAgentfbP7FxImageS4_7FigTime, 
                       __ZN10OZFxFilter9writeBodyER23PCSerializerWriteStreambbb, 
                       __ZN10OZFxFilterC1EP9OZFactoryRK8PCStringjib, __ZN10OZFxFilterC1ERKS_j, 
                       __ZN10OZFxFilterC2EP9OZFactoryRK8PCStringjib, __ZN10OZFxFilterC2ERKS_j, 
                       __ZN10OZFxFilterD0Ev, __ZN10OZFxFilterD1Ev, __ZN10OZFxFilterD2Ev, 
                       __ZN10OZGradient4initEP12CGColorSpace, __ZN10OZGradient6updateE7FigTime, 
                       __ZN10OZGradient7getHashER7FigTime, __ZN10OZGradient9setVectorERK9PCVector2IfES3_, 
                       __ZN10OZGradientC1ER17OZChannelGradientiP12CGColorSpace, __ZN10OZGradientC1ERKS_, 
                       __ZN10OZGradientC2ER17OZChannelGradientiP12CGColorSpace, __ZN10OZGradientC2ERKS_, 
                       __ZN10OZGradientD0Ev, __ZN10OZGradientD1Ev, __ZN10OZGradientD2Ev, 
                       __ZN10OZGuideSet10parseBeginER22PCSerializerReadStream, __ZN10OZGuideSet11writeHeaderER23PCSerializerWriteStreamb, 
                       __ZN10OZGuideSet12parseElementER22PCSerializerReadStreamR15PCStreamElement, 
                       __ZN10OZGuideSet29markFactoriesForSerializationER23PCSerializerWriteStreamb, 
                       __ZN10OZGuideSet8_readingE, __ZN10OZGuideSet8parseEndER22PCSerializerReadStream, 
                       __ZN10OZGuideSet9writeBodyER23PCSerializerWriteStreambbb, 
                       __ZN10OZGuideSetC1ERKS_, __ZN10OZGuideSetC1Ev, __ZN10OZGuideSetC2ERKS_, 
                       __ZN10OZGuideSetC2Ev, __ZN10OZLiFilter11getBoundaryER7LiAgentP6PCRectIdE, 
                       __ZN10OZLiFilter12setFilmSpaceEb, __ZN10OZLiFilter13filteredEdgesEv, 
                       __ZN10OZLiFilter15getSourceAtTimeE7FigTimebRK14OZRenderParams, 
                       __ZN10OZLiFilter20estimateRenderMemoryERNSt3__13setI9PCHash128NS0_4lessIS2_EENS0_9allocatorIS2_EEEE, 
                       __ZN10OZLiFilter21pixelTransformSupportERK18LiRenderParameters, 
                       __ZN10OZLiFilter9getHeliumER7LiAgent, __ZN10OZLiFilterC1EP8OZEffectRK14OZRenderParamsb, 
                       __ZN10OZLiFilterC2EP8OZEffectRK14OZRenderParamsb, __ZN10OZMaskComp13filteredEdgesEv, 
                       __ZN10OZMaskComp20estimateRenderMemoryERNSt3__13setI9PCHash128NS0_4lessIS2_EENS0_9allocatorIS2_EEEE, 
                       __ZN10OZMaskComp8setMasksEPNSt3__14listIP11OZSceneNodeNS0_9allocatorIS3_EEEEb, 
                       __ZN10OZMaskComp9getHeliumER7LiAgent, __ZN10OZMaskCompC1Ev, 
                       __ZN10OZMaskCompC2Ev, __ZN10PCBitDepth13_bitsPerPixelE, __ZN10PCBitDepth14getFromQTDepthEib, 
                       __ZN10PCBitDepth15_bitsPerChannelE, __ZN10PCBitDepth15getBitsPerPixelENS_4TypeE, 
                       __ZN10PCBitDepth17getBitsPerChannelENS_4TypeE, __ZN10PCBitDepth18getFromPixelFormatEN13PCPixelFormat12ChannelOrderE, 
                       __ZN10PCBitDepth21bitDepthToPixelFormatENS_4TypeE, __ZN10PCBitDepth21getFromBitsPerChannelEib, 
                       __ZN10PCCalculus15xFromSineLengthEdddd, __ZN10PCCalculus16CarlsonEllipticEEddd, 
                       __ZN10PCCalculus16CarlsonEllipticFEddd, __ZN10PCCalculus16sineLineIntegralEdddd, 
                       __ZN10PCCalculus17LegendreEllipticEEdd, __ZN10PCCalculus17LegendreEllipticFEdd, 
                       __ZN10PCCalculus19ellipseLineIntegralEddd, __ZN10PCCalculus1fEdddd, 
                       __ZN10PCCalculus2dsEdddd, __ZN10PCCalculus4polyEdPdi, __ZN10PCCalculus5ellpeEd, 
                       __ZN10PCCalculus5ellpkEd, __ZN10PCCalculus9ellipticEEdd, __ZN10PCCurveFit11getInstanceEv, 
                       __ZN10PCCurveFit14GenerateBezierERNSt3__16vectorI9PCVector2IdENS0_9allocatorIS3_EEEEmmPdRS3_S9_, 
                       __ZN10PCCurveFit14ReparameterizeERNSt3__16vectorI9PCVector2IdENS0_9allocatorIS3_EEEES7_mmPd, 
                       __ZN10PCCurveFit15ComputeMaxErrorERNSt3__16vectorI9PCVector2IdENS0_9allocatorIS3_EEEES7_mmPdPm, 
                       __ZN10PCCurveFit18ComputeLeftTangentERNSt3__16vectorI9PCVector2IdENS0_9allocatorIS3_EEEEm, 
                       __ZN10PCCurveFit19ComputeRightTangentERNSt3__16vectorI9PCVector2IdENS0_9allocatorIS3_EEEEm, 
                       __ZN10PCCurveFit20ComputeCenterTangentERNSt3__16vectorI9PCVector2IdENS0_9allocatorIS3_EEEEm, 
                       __ZN10PCCurveFit21NewtonRaphsonRootFindERNSt3__16vectorI9PCVector2IdENS0_9allocatorIS3_EEEERS3_d, 
                       __ZN10PCCurveFit23ChordLengthParameterizeERNSt3__16vectorI9PCVector2IdENS0_9allocatorIS3_EEEEmm, 
                       __ZN10PCCurveFit2B0Ed, __ZN10PCCurveFit2B1Ed, __ZN10PCCurveFit2B2Ed, 
                       __ZN10PCCurveFit2B3Ed, __ZN10PCCurveFit6BezierEiRNSt3__16vectorI9PCVector2IdENS0_9allocatorIS3_EEEEd, 
                       __ZN10PCCurveFit8FitCubicERNSt3__16vectorI9PCVector2IdENS0_9allocatorIS3_EEEEmmRS3_S8_d, 
                       __ZN10PCCurveFit8FitCurveERNSt3__16vectorI9PCVector2IdENS0_9allocatorIS3_EEEES7_RS3_S8_d, 
                       __ZN10PCCurveFit8FitCurveERNSt3__16vectorI9PCVector2IdENS0_9allocatorIS3_EEEES7_d, 
                       __ZN10PCCurveFit9_instanceE, __ZN10PCCurveFitC1Ev, __ZN10PCCurveFitC2Ev, 
                       __ZN10PCCurveFitD0Ev, __ZN10PCCurveFitD1Ev, __ZN10PCCurveFitD2Ev, 
                       __ZN10PCSpinLock4lockEv, __ZN10PCSpinLock6unlockEv, __ZN10PCSpinLockD1Ev, 
                       __ZN10PCSpinLockD2Ev, __ZN10PCTimecode11getTimecodeERKiRK14PCTimecodeModeR8PCString, 
                       __ZN10PCTimecode12getTimeIndexERK8PCStringRK14PCTimecodeMode, 
                       __ZN10PCTimecode13getSeparatorsEv, __ZN10PCTimecode16getDroppedFramesERKiRK14PCTimecodeMode, 
                       __ZN10PSParticle23simulationIsObjectAliveE7FigTime, __ZN10PSParticle5getIDEv, 
                       __ZN10PSParticleC1EjRK7FigTime, __ZN10PSParticleC1Ev, __ZN10PSParticleC2EjRK7FigTime, 
                       __ZN10PSParticleC2Ev, __ZN10PSParticleD0Ev, __ZN10PSParticleD1Ev, 
                       __ZN10PSParticleD2Ev, __ZN10SparseMatf7SetSizeEii, __ZN10SparseMatf8MakeDiagEf, 
                       __ZN10SparseMatf8MakeZeroEv, __ZN10SparseMatf9MakeBlockEf, 
                       __ZN10SparseMatfC1ERK4Matf, __ZN10SparseMatfC1ERK8SubSMatf, 
                       __ZN10SparseMatfC1ERKS_, __ZN10SparseMatfC1Eii, __ZN10SparseMatfC1Eii5Block, 
                       __ZN10SparseMatfC1Eii9ZeroOrOne, __ZN10SparseMatfC1Ev, __ZN10SparseMatfC2ERK4Matf, 
                       __ZN10SparseMatfC2ERK8SubSMatf, __ZN10SparseMatfC2ERKS_, __ZN10SparseMatfC2Eii, 
                       __ZN10SparseMatfC2Eii5Block, __ZN10SparseMatfC2Eii9ZeroOrOne, 
                       __ZN10SparseMatfC2Ev, __ZN10SparseMatfD1Ev, __ZN10SparseMatfD2Ev, 
                       __ZN10SparseMatfaSERK4Matf, __ZN10SparseMatfaSERK8SubSMatf, 
                       __ZN10SparseMatfaSERKS_, __ZN10SparseVecf12compactPrintE, 
                       __ZN10SparseVecf15SetCompactPrintEb, __ZN10SparseVecf3SetEif, 
                       __ZN10SparseVecf4fuzzE, __ZN10SparseVecf7SetEltsEidz, __ZN10SparseVecf7SetFuzzEf, 
                       __ZN10SparseVecf7SetSizeEi, __ZN10SparseVecf8MakeUnitEif, 
                       __ZN10SparseVecf8MakeZeroEv, __ZN10SparseVecf9MakeBlockEf, 
                       __ZN10SparseVecfC1ERK4Vecf, __ZN10SparseVecfC1ERK8SubSVecf, 
                       __ZN10SparseVecfC1ERKS_, __ZN10SparseVecfC1Ei, __ZN10SparseVecfC1Ei4Axis, 
                       __ZN10SparseVecfC1Ei9ZeroOrOne, __ZN10SparseVecfC1EiPiPf, 
                       __ZN10SparseVecfC1Eiidz, __ZN10SparseVecfC1Ev, __ZN10SparseVecfC2ERK4Vecf, 
                       __ZN10SparseVecfC2ERK8SubSVecf, __ZN10SparseVecfC2ERKS_, __ZN10SparseVecfC2Ei, 
                       __ZN10SparseVecfC2Ei4Axis, __ZN10SparseVecfC2Ei9ZeroOrOne, 
                       __ZN10SparseVecfC2EiPiPf, __ZN10SparseVecfC2Eiidz, __ZN10SparseVecfC2Ev, 
                       __ZN10SparseVecfD1Ev, __ZN10SparseVecfD2Ev, __ZN10SparseVecfaSERK4Vecf, 
                       __ZN10SparseVecfaSERK8SubSVecf, __ZN10SparseVecfaSERKS_, __ZN11AbsorbLayer12computeColorERK12LayerContextR17SurfaceProperties, 
                       __ZN11AbsorbLayer8isOpaqueERbP17LiLayeredMaterialR18LiTextureEvaluator, 
                       __ZN11AbsorbLayer9writeHashER17PCHashWriteStream, __ZN11AbsorbLayerC1EPv, 
                       __ZN11AbsorbLayerC2EPv, __ZN11HBadTVNoise6GetDODEP10HGRendereri6HGRect, 
                       __ZN11HBadTVNoise6GetROIEP10HGRendereri6HGRect, __ZN11HGlassBlock10RenderTileEP6HGTile, 
                       __ZN11HGlassBlock6GetDODEP10HGRendereri6HGRect, __ZN11HGlassBlock6GetROIEP10HGRendereri6HGRect, 
                       __ZN11HGlassBlock7SetRectERK7HGRectf, __ZN11HGlassBlock9GetOutputEP10HGRenderer, 
                       __ZN11HMotionBlur13SetTransformsERK14PCMatrix44TmplIdES3_S3_, 
                       __ZN11HMotionBlur6GetDODEP10HGRendereri6HGRect, __ZN11HMotionBlur6GetROIEP10HGRendereri6HGRect, 
                       __ZN11HMotionBlur9GetOutputEP10HGRenderer, __ZN11HMotionBlurC1Ev, 
                       __ZN11HMotionBlurC2Ev, __ZN11HMotionBlurD0Ev, __ZN11HMotionBlurD1Ev, 
                       __ZN11HMotionBlurD2Ev, __ZN11HWideScreen6GetDODEP10HGRendereri6HGRect, 
                       __ZN11HWideScreen6GetROIEP10HGRendereri6HGRect, __ZN11HWideScreenC1Ev, 
                       __ZN11HWideScreenC2Ev, __ZN11HWideScreenD0Ev, __ZN11HWideScreenD1Ev, 
                       __ZN11HWideScreenD2Ev, __ZN11HgcAddNoise10GetProgramEP10HGRenderer, 
                       __ZN11HgcAddNoise10RenderTileEP6HGTile, __ZN11HgcAddNoise11BindTextureEP9HGHandleri, 
                       __ZN11HgcAddNoise12GetParameterEiPf, __ZN11HgcAddNoise12SetParameterEiffff, 
                       __ZN11HgcAddNoise4BindEP9HGHandler, __ZN11HgcAddNoise6GetDODEP10HGRendereri6HGRect, 
                       __ZN11HgcAddNoise6GetROIEP10HGRendereri6HGRect, __ZN11HgcAddNoise9GetOutputEP10HGRenderer, 
                       __ZN11HgcAddNoiseC1Ev, __ZN11HgcAddNoiseC2Ev, __ZN11HgcAddNoiseD0Ev, 
                       __ZN11HgcAddNoiseD1Ev, __ZN11HgcAddNoiseD2Ev, __ZN11HgcColorize10RenderTileEP6HGTile, 
                       __ZN11HgcColorize11BindTextureEP9HGHandleri, __ZN11HgcColorize12GetParameterEiPf, 
                       __ZN11HgcColorize12SetParameterEiffff, __ZN11HgcColorize4BindEP9HGHandler, 
                       __ZN11HgcColorize5SetupEPv, __ZN11HgcColorize6GetDODEP10HGRendereri6HGRect, 
                       __ZN11HgcColorize6GetROIEP10HGRendereri6HGRect, __ZN11HgcColorize9GetOutputEP10HGRenderer, 
                       __ZN11HgcColorizeC1Ev, __ZN11HgcColorizeC2Ev, __ZN11HgcColorizeD0Ev, 
                       __ZN11HgcColorizeD1Ev, __ZN11HgcColorizeD2Ev, __ZN11HgcContrast10GetProgramEP10HGRenderer, 
                       __ZN11HgcContrast10RenderTileEP6HGTile, __ZN11HgcContrast11BindTextureEP9HGHandleri, 
                       __ZN11HgcContrast12GetParameterEiPf, __ZN11HgcContrast12SetParameterEiffff, 
                       __ZN11HgcContrast4BindEP9HGHandler, __ZN11HgcContrast6GetDODEP10HGRendereri6HGRect, 
                       __ZN11HgcContrast6GetROIEP10HGRendereri6HGRect, __ZN11HgcContrast9GetOutputEP10HGRenderer, 
                       __ZN11HgcContrastC1Ev, __ZN11HgcContrastC2Ev, __ZN11HgcContrastD0Ev, 
                       __ZN11HgcContrastD1Ev, __ZN11HgcContrastD2Ev, __ZN11HgcDisplace10GetProgramEP10HGRenderer, 
                       __ZN11HgcDisplace10RenderTileEP6HGTile, __ZN11HgcDisplace11BindTextureEP9HGHandleri, 
                       __ZN11HgcDisplace12GetParameterEiPf, __ZN11HgcDisplace12SetParameterEiffff, 
                       __ZN11HgcDisplace4BindEP9HGHandler, __ZN11HgcDisplace6GetDODEP10HGRendereri6HGRect, 
                       __ZN11HgcDisplace6GetROIEP10HGRendereri6HGRect, __ZN11HgcDisplace9GetOutputEP10HGRenderer, 
                       __ZN11HgcDisplaceC1Ev, __ZN11HgcDisplaceC2Ev, __ZN11HgcDisplaceD0Ev, 
                       __ZN11HgcDisplaceD1Ev, __ZN11HgcDisplaceD2Ev, __ZN11HgcFunHouse10GetProgramEP10HGRenderer, 
                       __ZN11HgcFunHouse10RenderTileEP6HGTile, __ZN11HgcFunHouse11BindTextureEP9HGHandleri, 
                       __ZN11HgcFunHouse12GetParameterEiPf, __ZN11HgcFunHouse12SetParameterEiffff, 
                       __ZN11HgcFunHouse4BindEP9HGHandler, __ZN11HgcFunHouse6GetDODEP10HGRendereri6HGRect, 
                       __ZN11HgcFunHouse6GetROIEP10HGRendereri6HGRect, __ZN11HgcFunHouse9GetOutputEP10HGRenderer, 
                       __ZN11HgcFunHouseC1Ev, __ZN11HgcFunHouseC2Ev, __ZN11HgcFunHouseD0Ev, 
                       __ZN11HgcFunHouseD1Ev, __ZN11HgcFunHouseD2Ev, __ZN11HgcHalftone10GetProgramEP10HGRenderer, 
                       __ZN11HgcHalftone10RenderTileEP6HGTile, __ZN11HgcHalftone11BindTextureEP9HGHandleri, 
                       __ZN11HgcHalftone12GetParameterEiPf, __ZN11HgcHalftone12SetParameterEiffff, 
                       __ZN11HgcHalftone4BindEP9HGHandler, __ZN11HgcHalftone6GetDODEP10HGRendereri6HGRect, 
                       __ZN11HgcHalftone6GetROIEP10HGRendereri6HGRect, __ZN11HgcHalftone9GetOutputEP10HGRenderer, 
                       __ZN11HgcHalftoneC1Ev, __ZN11HgcHalftoneC2Ev, __ZN11HgcHalftoneD0Ev, 
                       __ZN11HgcHalftoneD1Ev, __ZN11HgcHalftoneD2Ev, __ZN11HgcMaskElem10GetProgramEP10HGRenderer, 
                       __ZN11HgcMaskElem10RenderTileEP6HGTile, __ZN11HgcMaskElem11BindTextureEP9HGHandleri, 
                       __ZN11HgcMaskElem12GetParameterEiPf, __ZN11HgcMaskElem12SetParameterEiffff, 
                       __ZN11HgcMaskElem4BindEP9HGHandler, __ZN11HgcMaskElem6GetDODEP10HGRendereri6HGRect, 
                       __ZN11HgcMaskElem6GetROIEP10HGRendereri6HGRect, __ZN11HgcMaskElem9GetOutputEP10HGRenderer, 
                       __ZN11HgcMaskElemC1Ev, __ZN11HgcMaskElemC2Ev, __ZN11HgcMaskElemD0Ev, 
                       __ZN11HgcMaskElemD1Ev, __ZN11HgcMaskElemD2Ev, __ZN11HgcRingLens10GetProgramEP10HGRenderer, 
                       __ZN11HgcRingLens10RenderTileEP6HGTile, __ZN11HgcRingLens11BindTextureEP9HGHandleri, 
                       __ZN11HgcRingLens12GetParameterEiPf, __ZN11HgcRingLens12SetParameterEiffff, 
                       __ZN11HgcRingLens4BindEP9HGHandler, __ZN11HgcRingLens6GetDODEP10HGRendereri6HGRect, 
                       __ZN11HgcRingLens6GetROIEP10HGRendereri6HGRect, __ZN11HgcRingLens9GetOutputEP10HGRenderer, 
                       __ZN11HgcRingLensC1Ev, __ZN11HgcRingLensC2Ev, __ZN11HgcRingLensD0Ev, 
                       __ZN11HgcRingLensD1Ev, __ZN11HgcRingLensD2Ev, __ZN11HgcSunburst10GetProgramEP10HGRenderer, 
                       __ZN11HgcSunburst10RenderTileEP6HGTile, __ZN11HgcSunburst11BindTextureEP9HGHandleri, 
                       __ZN11HgcSunburst12GetParameterEiPf, __ZN11HgcSunburst12SetParameterEiffff, 
                       __ZN11HgcSunburst4BindEP9HGHandler, __ZN11HgcSunburst6GetDODEP10HGRendereri6HGRect, 
                       __ZN11HgcSunburst6GetROIEP10HGRendereri6HGRect, __ZN11HgcSunburst9GetOutputEP10HGRenderer, 
                       __ZN11HgcSunburstC1Ev, __ZN11HgcSunburstC2Ev, __ZN11HgcSunburstD0Ev, 
                       __ZN11HgcSunburstD1Ev, __ZN11HgcSunburstD2Ev, __ZN11HgcVignette10GetProgramEP10HGRenderer, 
                       __ZN11HgcVignette10RenderTileEP6HGTile, __ZN11HgcVignette11BindTextureEP9HGHandleri, 
                       __ZN11HgcVignette12GetParameterEiPf, __ZN11HgcVignette12SetParameterEiffff, 
                       __ZN11HgcVignette4BindEP9HGHandler, __ZN11HgcVignette6GetDODEP10HGRendereri6HGRect, 
                       __ZN11HgcVignette6GetROIEP10HGRendereri6HGRect, __ZN11HgcVignette9GetOutputEP10HGRenderer, 
                       __ZN11HgcVignetteC1Ev, __ZN11HgcVignetteC2Ev, __ZN11HgcVignetteD0Ev, 
                       __ZN11HgcVignetteD1Ev, __ZN11HgcVignetteD2Ev, __ZN11HgcZoomBlur10GetProgramEP10HGRenderer, 
                       __ZN11HgcZoomBlur10RenderTileEP6HGTile, __ZN11HgcZoomBlur11BindTextureEP9HGHandleri, 
                       __ZN11HgcZoomBlur12GetParameterEiPf, __ZN11HgcZoomBlur12SetParameterEiffff, 
                       __ZN11HgcZoomBlur4BindEP9HGHandler, __ZN11HgcZoomBlur5SetupEPv, 
                       __ZN11HgcZoomBlur6GetDODEP10HGRendereri6HGRect, __ZN11HgcZoomBlur6GetROIEP10HGRendereri6HGRect, 
                       __ZN11HgcZoomBlur9GetOutputEP10HGRenderer, __ZN11HgcZoomBlurC1Ev, 
                       __ZN11HgcZoomBlurC2Ev, __ZN11HgcZoomBlurD0Ev, __ZN11HgcZoomBlurD1Ev, 
                       __ZN11HgcZoomBlurD2Ev, __ZN11HgciOSTwirl10GetProgramEP10HGRenderer, 
                       __ZN11HgciOSTwirl10RenderTileEP6HGTile, __ZN11HgciOSTwirl11BindTextureEP9HGHandleri, 
                       __ZN11HgciOSTwirl12GetParameterEiPf, __ZN11HgciOSTwirl12SetParameterEiffff, 
                       __ZN11HgciOSTwirl4BindEP9HGHandler, __ZN11HgciOSTwirl6GetDODEP10HGRendereri6HGRect, 
                       __ZN11HgciOSTwirl6GetROIEP10HGRendereri6HGRect, __ZN11HgciOSTwirl9GetOutputEP10HGRenderer, 
                       __ZN11HgciOSTwirlC1Ev, __ZN11HgciOSTwirlC2Ev, __ZN11HgciOSTwirlD0Ev, 
                       __ZN11HgciOSTwirlD1Ev, __ZN11HgciOSTwirlD2Ev, __ZN11HiOSStretch6GetDODEP10HGRendereri6HGRect, 
                       __ZN11HiOSStretch6GetROIEP10HGRendereri6HGRect, __ZN11LiFixedSize13filteredEdgesEv, 
                       __ZN11LiFixedSize17fixPixelTransformER7LiAgentP14PCMatrix44TmplIdERK18LiRenderParameters, 
                       __ZN11LiFixedSize19fixMyPixelTransformEP14PCMatrix44TmplIdE, 
                       __ZN11LiFixedSize20estimateRenderMemoryERNSt3__13setI9PCHash128NS0_4lessIS2_EENS0_9allocatorIS2_EEEE, 
                       __ZN11LiFixedSize21pixelTransformSupportERK18LiRenderParameters, 
                       __ZN11LiFixedSize9getHeliumER7LiAgent, __ZN11LiFixedSizeC1Ev, 
                       __ZN11LiFixedSizeC2Ev, __ZN11LiFixedSizeD0Ev, __ZN11LiFixedSizeD1Ev, 
                       __ZN11LiFixedSizeD2Ev, __ZN11LiHMDCamera19setProjectionMatrixER14PCMatrix44TmplIdE, 
                       __ZN11LiHMDCameraC1Ev, __ZN11LiHMDCameraC2Ev, __ZN11LiLightInfo17loadShadowSnippetEv, 
                       __ZN11LiLightInfo3getERK7LiLight, __ZN11LiLightInfo3getEib, 
                       __ZN11LiLightInfo5setupERK7LiLight, __ZN11LiLightInfoC1Ev, 
                       __ZN11LiLightInfoC2Ev, __ZN11LiTransform9setMatrixERK14PCMatrix44TmplIdE, 
                       __ZN11LiTransform9setMatrixERK14PCMatrix44TmplIfE, __ZN11LiTransformC1ERKS_, 
                       __ZN11LiTransformC1Ev, __ZN11LiTransformC2ERKS_, __ZN11LiTransformC2Ev, 
                       __ZN11LiTransformD1Ev, __ZN11LiTransformD2Ev, __ZN11LiTransformaSERKS_, 
                       __ZN11METimeRemap16setIntroDurationERK7FigTime, __ZN11METimeRemap16setOutroDurationERK7FigTime, 
                       __ZN11METimeRemap18setIsIntroOptionalEb, __ZN11METimeRemap18setIsOutroOptionalEb, 
                       __ZN11METimeRemap19setForceDisableLoopEb, __ZN11METimeRemap19setIsEndTimeAlignedEb, 
                       __ZN11METimeRemap20setScaleableDurationERK7FigTime, __ZN11METimeRemap21setIsStartTimeAlignedEb, 
                       __ZN11METimeRemap22setBuildEnableChannelsEPK13OZChannelBoolS2_, 
                       __ZN11METimeRemap29setForceDisableBuildAnimationEb, __ZN11METimeRemap4testEv, 
                       __ZN11METimeRemap9setIsLoopEb, __ZN11METimeRemapC1Ev, __ZN11METimeRemapC2Ev, 
                       __ZN11OMColorUtil10BlackBal4fERK5Vec2f, __ZN11OMColorUtil10HueShift4fEf, 
                       __ZN11OMColorUtil10LumaHS2RGBERK5Vec3fRS0_16OMColorPrimaries, 
                       __ZN11OMColorUtil10RGB2LumaHSERK5Vec3fRS0_16OMColorPrimaries, 
                       __ZN11OMColorUtil10WhiteBal4fERK5Vec2f, __ZN11OMColorUtil11matchLvlBalERK5Vec3fS2_RfR5Vec2f, 
                       __ZN11OMColorUtil12Saturation4fEf, __ZN11OMColorUtil12matchAnalyzeERK5Mat4fRfRiS3_S3_, 
                       __ZN11OMColorUtil12midtoneMatchERK5Vec3f, __ZN11OMColorUtil14setTemperatureEf, 
                       __ZN11OMColorUtil15getCustomMatrixEv, __ZN11OMColorUtil16LumaCustomHS2RGBERK5Vec3fRS0_, 
                       __ZN11OMColorUtil16RGB2LumaCustomHSERK5Vec3fRS0_, __ZN11OMColorUtil19initCieChromacitiesEv, 
                       __ZN11OMColorUtil20_customMatrixParam_aE, __ZN11OMColorUtil20_customMatrixParam_bE, 
                       __ZN11OMColorUtil20setCustomMatrixParamEff, __ZN11OMColorUtil22getCustomInverseMatrixEv, 
                       __ZN11OMColorUtil23getVectorToAdd_LIndexedEfffRfS0_S0_f, __ZN11OMColorUtil24computeChromacitiesParamEffffffffRfS0_S0_R5Mat3f, 
                       __ZN11OMColorUtil7Level4fEff, __ZN11OMColorUtil7RgbGainERK5Vec3f, 
                       __ZN11OMColorUtil7RgbLiftERK5Vec3f, __ZN11OMColorUtil8CxCy2HueEiff, 
                       __ZN11OMColorUtil8Hue2CxCyEiffRfS0_, __ZN11OMColorUtil9skinMatchERK5Vec2f, 
                       __ZN11OMColorUtil9skinMatchERK5Vec3f, __ZN11OZ360Camera11setRotationERK6PCQuatIdE, 
                       __ZN11OZ360Camera5resetEv, __ZN11OZ360Camera8setSceneEP7OZScene, 
                       __ZN11OZ360CameraC1EP7OZScene, __ZN11OZ360CameraC2EP7OZScene, 
                       __ZN11OZChannel2D13deriveChannelERK7FigTime, __ZN11OZChannel2D13flattenAtTimeERK7FigTime, 
                       __ZN11OZChannel2D15setLinearAtTimeERK7FigTime, __ZN11OZChannel2D18getObjCWrapperNameEv, 
                       __ZN11OZChannel2D25setValueOffsetByBehaviorsERK7FigTimedd, 
                       __ZN11OZChannel2D4copyEPK13OZChannelBaseb, __ZN11OZChannel2D8setValueERK7FigTimeddb, 
                       __ZN11OZChannel2D8simplifyERK7FigTimeS2_S2_djjb, __ZN11OZChannel2DC1EP9OZFactoryRK8PCStringP15OZChannelFolderjjjP13OZChannelImplP13OZChannelInfo, 
                       __ZN11OZChannel2DC1EP9OZFactoryRK8PCStringjjP13OZChannelImplP13OZChannelInfo, 
                       __ZN11OZChannel2DC1ERK8PCStringP15OZChannelFolderjjjP13OZChannelImplP13OZChannelInfo, 
                       __ZN11OZChannel2DC1ERKS_P15OZChannelFolder, __ZN11OZChannel2DC1EddP9OZFactoryRK8PCStringP15OZChannelFolderjjjP13OZChannelImplP13OZChannelInfo, 
                       __ZN11OZChannel2DC1EddP9OZFactoryRK8PCStringS4_S4_P15OZChannelFolderjjjP13OZChannelImplP13OZChannelInfo, 
                       __ZN11OZChannel2DC1EddRK8PCStringP15OZChannelFolderjjjP13OZChannelImplP13OZChannelInfo, 
                       __ZN11OZChannel2DC1EddRK8PCStringS2_S2_P15OZChannelFolderjjjP13OZChannelImplP13OZChannelInfo, 
                       __ZN11OZChannel2DC2EP9OZFactoryRK8PCStringP15OZChannelFolderjjjP13OZChannelImplP13OZChannelInfo, 
                       __ZN11OZChannel2DC2EP9OZFactoryRK8PCStringjjP13OZChannelImplP13OZChannelInfo, 
                       __ZN11OZChannel2DC2ERK8PCStringP15OZChannelFolderjjjP13OZChannelImplP13OZChannelInfo, 
                       __ZN11OZChannel2DC2ERKS_P15OZChannelFolder, __ZN11OZChannel2DC2EddP9OZFactoryRK8PCStringP15OZChannelFolderjjjP13OZChannelImplP13OZChannelInfo, 
                       __ZN11OZChannel2DC2EddP9OZFactoryRK8PCStringS4_S4_P15OZChannelFolderjjjP13OZChannelImplP13OZChannelInfo, 
                       __ZN11OZChannel2DC2EddRK8PCStringP15OZChannelFolderjjjP13OZChannelImplP13OZChannelInfo, 
                       __ZN11OZChannel2DC2EddRK8PCStringS2_S2_P15OZChannelFolderjjjP13OZChannelImplP13OZChannelInfo, 
                       __ZN11OZChannel3D13deriveChannelERK7FigTime, __ZN11OZChannel3D18getObjCWrapperNameEv, 
                       __ZN11OZChannel3D25setValueOffsetByBehaviorsERK7FigTimeddd, 
                       __ZN11OZChannel3D4copyEPK13OZChannelBaseb, __ZN11OZChannel3D8setValueERK7FigTimeddd, 
                       __ZN11OZChannel3D8simplifyEdddjb, __ZN11OZChannel3DC1EP9OZFactoryRK8PCStringP15OZChannelFolderjjjP13OZChannelImplP13OZChannelInfo, 
                       __ZN11OZChannel3DC1EP9OZFactoryRK8PCStringjjP13OZChannelImplP13OZChannelInfo, 
                       __ZN11OZChannel3DC1ERK8PCStringP15OZChannelFolderjjjP13OZChannelImplP13OZChannelInfo, 
                       __ZN11OZChannel3DC1ERKS_P15OZChannelFolder, __ZN11OZChannel3DC1EdddP9OZFactoryRK8PCStringP15OZChannelFolderjjjP13OZChannelImplP13OZChannelInfo, 
                       __ZN11OZChannel3DC1EdddRK8PCStringP15OZChannelFolderjjjP13OZChannelImplP13OZChannelInfo, 
                       __ZN11OZChannel3DC1EdddRK8PCStringS2_S2_S2_P15OZChannelFolderjjjP13OZChannelImplP13OZChannelInfo, 
                       __ZN11OZChannel3DC2EP9OZFactoryRK8PCStringP15OZChannelFolderjjjP13OZChannelImplP13OZChannelInfo, 
                       __ZN11OZChannel3DC2EP9OZFactoryRK8PCStringjjP13OZChannelImplP13OZChannelInfo, 
                       __ZN11OZChannel3DC2ERK8PCStringP15OZChannelFolderjjjP13OZChannelImplP13OZChannelInfo, 
                       __ZN11OZChannel3DC2ERKS_P15OZChannelFolder, __ZN11OZChannel3DC2EdddP9OZFactoryRK8PCStringP15OZChannelFolderjjjP13OZChannelImplP13OZChannelInfo, 
                       __ZN11OZChannel3DC2EdddRK8PCStringP15OZChannelFolderjjjP13OZChannelImplP13OZChannelInfo, 
                       __ZN11OZChannel3DC2EdddRK8PCStringS2_S2_S2_P15OZChannelFolderjjjP13OZChannelImplP13OZChannelInfo, 
                       __ZN11OZCurveNode11getMaxValueEb, __ZN11OZCurveNode11getMinValueEb, 
                       __ZN11OZCurveNode28getTimeAndDistanceAlongCurveERK7FigTimePS0_Pd, 
                       __ZN11OZCurveNode28getTimeAndDistanceAlongCurveERK7FigTimejPS0_Pd, 
                       __ZN11OZCurveNode39getParametricValueAndDoubleValueForTimeERK7FigTimePS0_Pd, 
                       __ZN11OZCurveNodeC2ERKS_, __ZN11OZCurveNodeC2Ev, __ZN11OZCurveNodeD0Ev, 
                       __ZN11OZCurveNodeD1Ev, __ZN11OZCurveNodeD2Ev, __ZN11OZFactories10addFactoryEP9OZFactory, 
                       __ZN11OZFactories11findFactoryERK6PCUUID, __ZN11OZFactories11getInstanceEv, 
                       __ZN11OZFactories13lookupFactoryEj, __ZN11OZFactories13saveFactoriesER23PCSerializerWriteStream, 
                       __ZN11OZFactories16setFactoryLoadIDEjP9OZFactory, __ZN11OZFactories17findCommonFactoryEPNSt3__14listIP13OZFactoryBaseNS0_9allocatorIS3_EEEE, 
                       __ZN11OZFactories17getFactoryLoadMapEv, __ZN11OZFactories19addChannelFactoriesEv, 
                       __ZN11OZFactories19clearFactoryLoadIDsEv, __ZN11OZFactories9_instanceE, 
                       __ZN11OZFactoriesC1Ev, __ZN11OZFactoriesC2Ev, __ZN11OZFactoriesD0Ev, 
                       __ZN11OZFactoriesD1Ev, __ZN11OZFactoriesD2Ev, __ZN11OZImageMask10makeRenderER14OZRenderParamsRK18OZRenderGraphStateb, 
                       __ZN11OZImageMask10prerollEndERK14OZRenderParamsR14PMFrameRequest, 
                       __ZN11OZImageMask11remapTokensERK14OZRenderParamsRNSt3__16vectorINS3_4pairI7FigTimeNS4_IS6_NS3_9allocatorIS6_EEEEEENS7_ISA_EEEER14PMFrameRequest, 
                       __ZN11OZImageMask12prerollBeginERK14OZRenderParamsR14PMFrameRequestdP13FFPrerollSync, 
                       __ZN11OZImageMask12updateSourceEv, __ZN11OZImageMask13getDimensionsEPfS0_RK13OZRenderState, 
                       __ZN11OZImageMask13getMaskSourceEv, __ZN11OZImageMask14getImageBoundsEP6PCRectIdERK13OZRenderState, 
                       __ZN11OZImageMask14getTokensImageERK14OZRenderParamsRKNSt3__16vectorINS3_4pairI7FigTimeNS4_IS6_NS3_9allocatorIS6_EEEEEENS7_ISA_EEEER14PMFrameRequest, 
                       __ZN11OZImageMask14pruneAllTokensEPKc, __ZN11OZImageMask14scheduleTokensERK14OZRenderParamsRKNSt3__16vectorINS3_4pairI7FigTimeNS4_IS6_NS3_9allocatorIS6_EEEEEENS7_ISA_EEEER14PMFrameRequestPNS4_IP15FFScheduleTokenNS7_ISI_EEEE, 
                       __ZN11OZImageMask15sourceDidChangeEv, __ZN11OZImageMask17getMaskSourceTimeE7FigTime, 
                       __ZN11OZImageMask17pruneTokensAtTimeE7FigTimePKc, __ZN11OZImageMask18getNaturalDurationEv, 
                       __ZN11OZImageMask19hintTokensWillImageERK14OZRenderParamsRKNSt3__16vectorINS3_4pairI7FigTimeNS4_IS6_NS3_9allocatorIS6_EEEEEENS7_ISA_EEEER14PMFrameRequest, 
                       __ZN11OZImageMask20performDragOperationEP13OZFactoryBaseP13OZChannelBasejjjjRK7FigTime, 
                       __ZN11OZImageMask21getPixelAspectRatioRNEv, __ZN11OZImageMask23getNaturalDurationFlagsEv, 
                       __ZN11OZImageMask23pruneTokensExceptAtTimeE7FigTimePKc, __ZN11OZImageMask25getImageBoundsWithEffectsEP6PCRectIdERK13OZRenderState, 
                       __ZN11OZImageMask4evalER14OZRenderParams, __ZN11OZImageMask7setRateERK14OZRenderParamsR14PMFrameRequestd, 
                       __ZN11OZImageMask8hitCheckERK9PCVector2IfERK13OZRenderStatePK8LiCameraR9PCVector3IdEj, 
                       __ZN11OZImageMask8parseEndER22PCSerializerReadStream, __ZN11OZImageMask9allowDragEP13OZFactoryBaseP13OZChannelBasejPjS4_j, 
                       __ZN11OZImageMask9getBoundsEP6PCRectIdERK13OZRenderState, 
                       __ZN11OZImageMask9openMediaEv, __ZN11OZImageMaskC1EP9OZFactoryRK8PCStringj, 
                       __ZN11OZImageMaskC1ERKS_j, __ZN11OZImageMaskC2EP9OZFactoryRK8PCStringj, 
                       __ZN11OZImageMaskC2ERKS_j, __ZN11OZImageMaskD0Ev, __ZN11OZImageMaskD1Ev, 
                       __ZN11OZImageMaskD2Ev, __ZN11OZImageMaskaSERK11OZSceneNode, 
                       __ZN11OZImageNode10makeRenderER14OZRenderParamsRK18OZRenderGraphStateb, 
                       __ZN11OZImageNode13getDimensionsEPfS0_RK13OZRenderState, __ZN11OZImageNode14getHeliumGraphERK14OZRenderParamsP10HGRendererRP12CGColorSpaceP14PCMatrix44TmplIdE, 
                       __ZN11OZImageNode15makeImageSourceER14OZRenderParamsRK18OZRenderGraphStateb, 
                       __ZN11OZImageNode16buildRenderGraphER14OZRenderParamsP14LiGraphBuilderRK18OZRenderGraphState, 
                       __ZN11OZImageNode21makeRenderImageSourceER14OZRenderParamsRK18OZRenderGraphStateb, 
                       __ZN11OZImageNode24makeRenderTemporalSourceER14OZRenderParamsRK18OZRenderGraphStateb, 
                       __ZN11OZImageNodeC2Ev, __ZN11OZImageNodeD0Ev, __ZN11OZImageNodeD1Ev, 
                       __ZN11OZImageNodeD2Ev, __ZN11OZPDFRender11getBoundaryER7LiAgentP6PCRectIdE, 
                       __ZN11OZPDFRender13filteredEdgesEv, __ZN11OZPDFRender17fixPixelTransformER7LiAgentP14PCMatrix44TmplIdERK18LiRenderParameters, 
                       __ZN11OZPDFRender20estimateRenderMemoryERNSt3__13setI9PCHash128NS0_4lessIS2_EENS0_9allocatorIS2_EEEE, 
                       __ZN11OZPDFRender21pixelTransformSupportERK18LiRenderParameters, 
                       __ZN11OZPDFRender9getHeliumER7LiAgent, __ZN11OZPDFRenderC1EP14OZImageElementRK14OZRenderParams, 
                       __ZN11OZPDFRenderC2EP14OZImageElementRK14OZRenderParams, __ZN11OZPolygonAA11getInstanceEv, 
                       __ZN11OZPolygonAA16getEdgeAATextureEv, __ZN11OZPolygonAA19createEdgeAATextureEv, 
                       __ZN11OZPolygonAA8purgeAllEv, __ZN11OZPolygonAA9_instanceE, 
                       __ZN11OZPolygonAAC1Ev, __ZN11OZPolygonAAC2Ev, __ZN11OZPolygonAAD0Ev, 
                       __ZN11OZPolygonAAD1Ev, __ZN11OZPolygonAAD2Ev, __ZN11OZRigWidget10addChannelEP13OZChannelBasePKS0_, 
                       __ZN11OZRigWidget10copyWidgetERKS_, __ZN11OZRigWidget10deleteThisEP13OZChannelBase, 
                       __ZN11OZRigWidget10parseBeginER22PCSerializerReadStream, __ZN11OZRigWidget12hideSnapshotEP13OZRigSnapshot, 
                       __ZN11OZRigWidget12parseElementER22PCSerializerReadStreamR15PCStreamElement, 
                       __ZN11OZRigWidget12showSnapshotEP13OZRigSnapshot, __ZN11OZRigWidget13CanRigChannelEPK13OZChannelBase, 
                       __ZN11OZRigWidget13didAddToSceneEP7OZScene, __ZN11OZRigWidget13doPassThroughERK7FigTime, 
                       __ZN11OZRigWidget13setWidgetTypeEj, __ZN11OZRigWidget13sortSnapshotsEb, 
                       __ZN11OZRigWidget14cancelEditModeEv, __ZN11OZRigWidget14deleteSnapshotEP13OZRigSnapshot, 
                       __ZN11OZRigWidget14deleteSnapshotEd, __ZN11OZRigWidget15IsChannelRiggedEPK13OZChannelBase, 
                       __ZN11OZRigWidget15willEndEditModeEv, __ZN11OZRigWidget16getRiggedNodeIDsEPNSt3__13setIjNS0_4lessIjEENS0_9allocatorIjEEEE, 
                       __ZN11OZRigWidget17didUndoLastChangeEv, __ZN11OZRigWidget17setActiveSnapshotEjb, 
                       __ZN11OZRigWidget17willModifyChannelEPK13OZChannelBasej, __ZN11OZRigWidget17willStartEditModeEv, 
                       __ZN11OZRigWidget18getCurrentSnapshotEv, __ZN11OZRigWidget18getRiggedObjectIDsEPNSt3__13setIjNS0_4lessIjEENS0_9allocatorIjEEEE, 
                       __ZN11OZRigWidget18willCancelEditModeEv, __ZN11OZRigWidget19getHighestSubchanIDEP15OZChannelFolder, 
                       __ZN11OZRigWidget19getSnapshotForValueEdd, __ZN11OZRigWidget19kDefaultSliderRangeE, 
                       __ZN11OZRigWidget19registerRigBehaviorEP13OZRigBehavior, __ZN11OZRigWidget19willRemoveFromSceneEP7OZScene, 
                       __ZN11OZRigWidget20didSetActiveSnapshotEv, __ZN11OZRigWidget20performDragOperationEP13OZFactoryBaseP13OZChannelBasejjjjRK7FigTime, 
                       __ZN11OZRigWidget21areChannelValuesEqualEPK13OZChannelBaseS2_, 
                       __ZN11OZRigWidget21createSnapshotAtIndexEj, __ZN11OZRigWidget21getCurrentSnapshotIDsERK7FigTimePjS3_Pd, 
                       __ZN11OZRigWidget21unregisterRigBehaviorEP13OZRigBehavior, 
                       __ZN11OZRigWidget21willSetActiveSnapshotEv, __ZN11OZRigWidget22detectNonCloneableChanEP13OZChannelBase, 
                       __ZN11OZRigWidget22getSnapshotIDsForValueEdPjS0_Pd, __ZN11OZRigWidget23createSnapshotWithValueEdRK7FigTime, 
                       __ZN11OZRigWidget23prepareForDragOperationEP11OZPasteListP13OZChannelBasejj, 
                       __ZN11OZRigWidget25createValueChannelForTypeEj, __ZN11OZRigWidget27OZRigWidget_valueDoubleImpl24_OZRigWidget_valueDoubleE, 
                       __ZN11OZRigWidget27OZRigWidget_valueDoubleInfo28_OZRigWidget_valueDoubleInfoE, 
                       __ZN11OZRigWidget30OZRigWidget_pSliderMaxChanImpl27_OZRigWidget_pSliderMaxChanE, 
                       __ZN11OZRigWidget30OZRigWidget_pSliderMinChanImpl27_OZRigWidget_pSliderMinChanE, 
                       __ZN11OZRigWidget31copyTargetChansToActiveSnapshotEv, __ZN11OZRigWidget32OZRigWidget_valueAspectRatioImpl29_OZRigWidget_valueAspectRatioE, 
                       __ZN11OZRigWidget32OZRigWidget_valueAspectRatioInfo33_OZRigWidget_valueAspectRatioInfoE, 
                       __ZN11OZRigWidget32copyTargetChansToCurrentSnapshotEv, __ZN11OZRigWidget36OZRigWidget_activeSnapshotIDChanImpl33_OZRigWidget_activeSnapshotIDChanE, 
                       __ZN11OZRigWidget5dirtyEv, __ZN11OZRigWidget6createERK8PCStringjj, 
                       __ZN11OZRigWidget7setNameERK8PCStringb, __ZN11OZRigWidget8parseEndER22PCSerializerReadStream, 
                       __ZN11OZRigWidget9allowDragEP13OZFactoryBaseP13OZChannelBasejPjS4_j, 
                       __ZN11OZRigWidget9writeBodyER23PCSerializerWriteStreambbb, 
                       __ZN11OZRigWidgetC1EP9OZFactoryRK8PCStringj, __ZN11OZRigWidgetC1ERKS_j, 
                       __ZN11OZRigWidgetC2EP9OZFactoryRK8PCStringj, __ZN11OZRigWidgetC2ERKS_j, 
                       __ZN11OZRigWidgetD0Ev, __ZN11OZRigWidgetD1Ev, __ZN11OZRigWidgetD2Ev, 
                       __ZN11OZRigWidgetaSERK11OZSceneNode, __ZN11OZRotoshape10applyStyleERKS_, 
                       __ZN11OZRotoshape10canReflectEv, __ZN11OZRotoshape10closeCurveEv, 
                       __ZN11OZRotoshape10getSamplesERK13OZRenderStateRNSt3__16vectorIdNS3_9allocatorIdEEEES8_, 
                       __ZN11OZRotoshape10parseBeginER22PCSerializerReadStream, __ZN11OZRotoshape10prerollEndERK14OZRenderParamsR14PMFrameRequest, 
                       __ZN11OZRotoshape10setIsStyleEb, __ZN11OZRotoshape11addVerticesE7FigTimeRNSt3__16vectorI9PCVector2IdENS1_9allocatorIS4_EEEE, 
                       __ZN11OZRotoshape11clearIsMaskEv, __ZN11OZRotoshape11descriptionEv, 
                       __ZN11OZRotoshape11finishCurveEv, __ZN11OZRotoshape11getUIBoundsEP6PCRectIdERK13OZRenderState, 
                       __ZN11OZRotoshape11setTangentsER24OZShapeOnScreenSelection7FigTimeddb, 
                       __ZN11OZRotoshape11useTangentsEv, __ZN11OZRotoshape12bakeChannelsERK11PCTimeRangeRK7FigTime, 
                       __ZN11OZRotoshape12biasSelectedERNSt3__14listI24OZShapeOnScreenSelectionNS0_9allocatorIS2_EEEE7FigTimed, 
                       __ZN11OZRotoshape12drawCurveOSCEPK8LiCameraRK13OZRenderStateRK14PCMatrix44TmplIdEjPKdb, 
                       __ZN11OZRotoshape12getBoxLimitsER9PCVector2IdES2_S2_S2_PdS3_S3_S3_, 
                       __ZN11OZRotoshape12insertVertexE7FigTimeddd, __ZN11OZRotoshape12lockSelectedERNSt3__14listI24OZShapeOnScreenSelectionNS0_9allocatorIS2_EEEEb, 
                       __ZN11OZRotoshape12parseElementER22PCSerializerReadStreamR15PCStreamElement, 
                       __ZN11OZRotoshape12pointInShapeERK13OZRenderStatedd, __ZN11OZRotoshape12prerollBeginERK14OZRenderParamsR14PMFrameRequestdP13FFPrerollSync, 
                       __ZN11OZRotoshape12saveTangentsER24OZShapeOnScreenSelection7FigTime, 
                       __ZN11OZRotoshape13alignTangentsER24OZShapeOnScreenSelection7FigTime, 
                       __ZN11OZRotoshape13breakTangentsER24OZShapeOnScreenSelectionb, 
                       __ZN11OZRotoshape13completeCurveEv, __ZN11OZRotoshape13continueCurveEv, 
                       __ZN11OZRotoshape13convertToMaskEv, __ZN11OZRotoshape13didAddToSceneEP7OZScene, 
                       __ZN11OZRotoshape13drawCurvePickERK13OZRenderStateRK14PCMatrix44TmplIdEj, 
                       __ZN11OZRotoshape13getBorderSizeERK13OZRenderStatePdS3_, __ZN11OZRotoshape13getParameterUER24OZShapeOnScreenSelection7FigTimePdS3_, 
                       __ZN11OZRotoshape13isPrecomposedERK7FigTime, __ZN11OZRotoshape13isValidVertexE10OZVertex2D, 
                       __ZN11OZRotoshape13pointOnStrokeERK13OZRenderStatedd, __ZN11OZRotoshape13setTangents45ER24OZShapeOnScreenSelection7FigTimeddbb, 
                       __ZN11OZRotoshape13setTimeExtentERK11PCTimeRangeb, __ZN11OZRotoshape13setTimeOffsetE7FigTimeb, 
                       __ZN11OZRotoshape14convertToShapeEv, __ZN11OZRotoshape14deformVerticesE7FigTime, 
                       __ZN11OZRotoshape14deleteSelectedERNSt3__14listI24OZShapeOnScreenSelectionNS0_9allocatorIS2_EEEE, 
                       __ZN11OZRotoshape14enableSelectedERNSt3__14listI24OZShapeOnScreenSelectionNS0_9allocatorIS2_EEEE7FigTimeb, 
                       __ZN11OZRotoshape14getTokensImageERK14OZRenderParamsRKNSt3__16vectorINS3_4pairI7FigTimeNS4_IS6_NS3_9allocatorIS6_EEEEEENS7_ISA_EEEER14PMFrameRequest, 
                       __ZN11OZRotoshape14offsetSelectedERNSt3__14listI24OZShapeOnScreenSelectionNS0_9allocatorIS2_EEEE7FigTimedd, 
                       __ZN11OZRotoshape14pruneAllTokensEPKc, __ZN11OZRotoshape14scheduleTokensERK14OZRenderParamsRKNSt3__16vectorINS3_4pairI7FigTimeNS4_IS6_NS3_9allocatorIS6_EEEEEENS7_ISA_EEEER14PMFrameRequestPNS4_IP15FFScheduleTokenNS7_ISI_EEEE, 
                       __ZN11OZRotoshape14setTangentFlagER24OZShapeOnScreenSelection7FigTimedd, 
                       __ZN11OZRotoshape14setVertexValueE10OZVertex2D7FigTimedd, 
                       __ZN11OZRotoshape14weightTangentsER24OZShapeOnScreenSelectionb, 
                       __ZN11OZRotoshape15completeLoadingEv, __ZN11OZRotoshape15flattenSelectedERNSt3__14listI24OZShapeOnScreenSelectionNS0_9allocatorIS2_EEEE7FigTime, 
                       __ZN11OZRotoshape15reloadResourcesEP9PGContext, __ZN11OZRotoshape15setVertexValueXE10OZVertex2D7FigTimed, 
                       __ZN11OZRotoshape15setVertexValueYE10OZVertex2D7FigTimed, 
                       __ZN11OZRotoshape16buildRenderGraphER14OZRenderParamsP14LiGraphBuilderRK18OZRenderGraphState, 
                       __ZN11OZRotoshape16calcHashForStateER23PCSerializerWriteStreamRK14OZRenderParamsRNSt3__14listIP19OZObjectManipulatorNS5_9allocatorIS8_EEEEb, 
                       __ZN11OZRotoshape16canUseCurrentBoxE7FigTime, __ZN11OZRotoshape16prepForGetHeliumER7LiAgentRK14OZRenderParams, 
                       __ZN11OZRotoshape16setInterpolationEj, __ZN11OZRotoshape17acceptsShapeMasksEv, 
                       __ZN11OZRotoshape17checkWindingOrderERK13OZRenderStateP19OZShapeRenderParamsPK14PCMatrix44TmplIdEb, 
                       __ZN11OZRotoshape17getOriginalBoundsEP6PCRectIdERK13OZRenderState, 
                       __ZN11OZRotoshape17hasShapeBehaviorsEv, __ZN11OZRotoshape17pruneTokensAtTimeE7FigTimePKc, 
                       __ZN11OZRotoshape17resetTransformBoxEv, __ZN11OZRotoshape17setIsWritingStyleEb, 
                       __ZN11OZRotoshape17useControlPolygonEv, __ZN11OZRotoshape18getNaturalDurationEv, 
                       __ZN11OZRotoshape18getProjectedBoundsEP6PCRectIdERK14PCMatrix44TmplIdERK13OZRenderState, 
                       __ZN11OZRotoshape18hasWriteOnBehaviorEv, __ZN11OZRotoshape18offsetBiasSelectedERNSt3__14listI24OZShapeOnScreenSelectionNS0_9allocatorIS2_EEEE7FigTimed, 
                       __ZN11OZRotoshape18updateTransformBoxER9PCVector2IdES2_jbbb, 
                       __ZN11OZRotoshape19computeTransformBoxERNSt3__14listI24OZShapeOnScreenSelectionNS0_9allocatorIS2_EEEE7FigTime, 
                       __ZN11OZRotoshape19didSetInterpolationEv, __ZN11OZRotoshape19getLockDependenciesEP9OZLockingP15PCDirectedGraphIS1_EPNSt3__13setIS1_NS5_4lessIS1_EENS5_9allocatorIS1_EEEE, 
                       __ZN11OZRotoshape19getPreviewSceneNodeEv, __ZN11OZRotoshape19hintTokensWillImageERK14OZRenderParamsRKNSt3__16vectorINS3_4pairI7FigTimeNS4_IS6_NS3_9allocatorIS6_EEEEEENS7_ISA_EEEER14PMFrameRequest, 
                       __ZN11OZRotoshape19setLithiumTransformEP13LiSceneObjectRK14OZRenderParams, 
                       __ZN11OZRotoshape19setTangentsSelectedERNSt3__14listI24OZShapeOnScreenSelectionNS0_9allocatorIS2_EEEE7FigTimeddb, 
                       __ZN11OZRotoshape19willRemoveFromSceneEP7OZScene, __ZN11OZRotoshape20performDragOperationEP13OZFactoryBaseP13OZChannelBasejjjjRK7FigTime, 
                       __ZN11OZRotoshape20setGeodeProperties3DERK14OZRenderParamsRK18OZRenderGraphStateP7LiGeode, 
                       __ZN11OZRotoshape20updateHiddenChannelsEb, __ZN11OZRotoshape21alignTangentsSelectedERNSt3__14listI24OZShapeOnScreenSelectionNS0_9allocatorIS2_EEEE7FigTime, 
                       __ZN11OZRotoshape21breakTangentsSelectedERNSt3__14listI24OZShapeOnScreenSelectionNS0_9allocatorIS2_EEEEb, 
                       __ZN11OZRotoshape21getTransformedSamplesERK13OZRenderStateRNSt3__16vectorIdNS3_9allocatorIdEEEES8_S8_14PCMatrix44TmplIdE, 
                       __ZN11OZRotoshape21makeRenderImageSourceER14OZRenderParamsRK18OZRenderGraphStateb, 
                       __ZN11OZRotoshape21setTangents45SelectedERNSt3__14listI24OZShapeOnScreenSelectionNS0_9allocatorIS2_EEEE7FigTimeddbb, 
                       __ZN11OZRotoshape21shouldDrawGradientOSCEv, __ZN11OZRotoshape22createSnapSetForCameraEP8LiCameraPNSt3__13setI6OZSnapNS2_4lessIS4_EENS2_9allocatorIS4_EEEERK13OZRenderStatebb, 
                       __ZN11OZRotoshape22offsetTangentsSelectedERNSt3__14listI24OZShapeOnScreenSelectionNS0_9allocatorIS2_EEEE7FigTimeddb, 
                       __ZN11OZRotoshape22weightTangentsSelectedERNSt3__14listI24OZShapeOnScreenSelectionNS0_9allocatorIS2_EEEEb, 
                       __ZN11OZRotoshape23getNaturalDurationFlagsEv, __ZN11OZRotoshape23getOriginalBoundsNoLockEP6PCRectIdERK13OZRenderStateP19OZShapeRenderParams, 
                       __ZN11OZRotoshape23prepareForDragOperationEP11OZPasteListP13OZChannelBasejj, 
                       __ZN11OZRotoshape23pruneTokensExceptAtTimeE7FigTimePKc, __ZN11OZRotoshape24calcHashForStateSelfOnlyER23PCSerializerWriteStreamRK14OZRenderParams, 
                       __ZN11OZRotoshape24offsetTangents45SelectedERNSt3__14listI24OZShapeOnScreenSelectionNS0_9allocatorIS2_EEEE7FigTimePdS8_bb, 
                       __ZN11OZRotoshape24setupDeformationSelectedERNSt3__14listI24OZShapeOnScreenSelectionNS0_9allocatorIS2_EEEE7FigTime, 
                       __ZN11OZRotoshape25didFinishLoadingIntoSceneEv, __ZN11OZRotoshape26restrictImageMaskToStencilEv, 
                       __ZN11OZRotoshape27didCreateCopyForCopyOnWriteEv, __ZN11OZRotoshape27getChannelFromRefAndVersionEP12OZChannelRefd, 
                       __ZN11OZRotoshape29markFactoriesForSerializationER23PCSerializerWriteStreamb, 
                       __ZN11OZRotoshape30areEffectsAppliedInScreenSpaceEv, __ZN11OZRotoshape30getReparametrizedContourLengthERK13OZRenderStatebP14PCMatrix44TmplIdE, 
                       __ZN11OZRotoshape31getReparametrizedPointOnContourERK13OZRenderStatedPdS3_S3_S3_bP14PCMatrix44TmplIdEb, 
                       __ZN11OZRotoshape35doesTransformFromLocalToScreenSpaceERK14OZRenderParams, 
                       __ZN11OZRotoshape5dirtyEv, __ZN11OZRotoshape6enableEb, __ZN11OZRotoshape7setRateERK14OZRenderParamsR14PMFrameRequestd, 
                       __ZN11OZRotoshape8hitCheckERK9PCVector2IfERK13OZRenderStatePK8LiCameraR9PCVector3IdEj, 
                       __ZN11OZRotoshape8parseEndER22PCSerializerReadStream, __ZN11OZRotoshape8setDirtyEbb, 
                       __ZN11OZRotoshape8setSceneEP7OZScene, __ZN11OZRotoshape9addVertexE7FigTimedd, 
                       __ZN11OZRotoshape9allowDragEP13OZFactoryBaseP13OZChannelBasejPjS4_j, 
                       __ZN11OZRotoshape9applyMaskEPK8LiCamerab, __ZN11OZRotoshape9deleteAllEv, 
                       __ZN11OZRotoshape9getHeliumERK13OZRenderStateR7LiAgentbRK14OZRenderParams, 
                       __ZN11OZRotoshape9openCurveEP24OZShapeOnScreenSelection, __ZN11OZRotoshape9openMediaEv, 
                       __ZN11OZRotoshape9setIsMaskEv, __ZN11OZRotoshape9writeBodyER23PCSerializerWriteStreambbb, 
                       __ZN11OZRotoshapeC1EP9OZFactoryRK8PCStringj, __ZN11OZRotoshapeC1ERKS_j, 
                       __ZN11OZRotoshapeC2EP9OZFactoryRK8PCStringj, __ZN11OZRotoshapeC2ERKS_j, 
                       __ZN11OZRotoshapeD0Ev, __ZN11OZRotoshapeD1Ev, __ZN11OZRotoshapeD2Ev, 
                       __ZN11OZRotoshapeaSERK11OZSceneNode, __ZN11OZSceneList11removeSceneEP7OZScene, 
                       __ZN11OZSceneList17getIterationMutexEv, __ZN11OZSceneList3endEv, 
                       __ZN11OZSceneList5beginEv, __ZN11OZSceneList8addSceneEP7OZScene, 
                       __ZN11OZSceneList8instanceEv, __ZN11OZSceneListC1Ev, __ZN11OZSceneListC2Ev, 
                       __ZN11OZSceneListD0Ev, __ZN11OZSceneListD1Ev, __ZN11OZSceneListD2Ev, 
                       __ZN11OZSceneNode10deleteThisEP13OZChannelBase, __ZN11OZSceneNode10isLinkableEv, 
                       __ZN11OZSceneNode10parseBeginER22PCSerializerReadStream, __ZN11OZSceneNode10prerollEndERK14OZRenderParamsR14PMFrameRequest, 
                       __ZN11OZSceneNode10rbegin_selEv, __ZN11OZSceneNode11addBehaviorEP10OZBehaviorS1_, 
                       __ZN11OZSceneNode11addLinkedIDEj, __ZN11OZSceneNode11clearIsMaskEv, 
                       __ZN11OZSceneNode11getBehaviorEj, __ZN11OZSceneNode11isFreezableEv, 
                       __ZN11OZSceneNode11masks_beginEv, __ZN11OZSceneNode11remapTokensERK14OZRenderParamsRNSt3__16vectorINS3_4pairI7FigTimeNS4_IS6_NS3_9allocatorIS6_EEEEEENS7_ISA_EEEER14PMFrameRequest, 
                       __ZN11OZSceneNode11removeStyleERKNSt3__110shared_ptrI7OZStyleEE, 
                       __ZN11OZSceneNode11renumberIDsEPNSt3__13mapIjjNS0_4lessIjEENS0_9allocatorINS0_4pairIKjjEEEEEEb, 
                       __ZN11OZSceneNode11writeHeaderER23PCSerializerWriteStreamb, 
                       __ZN11OZSceneNode12bakeChannelsERK11PCTimeRangeRK7FigTime, 
                       __ZN11OZSceneNode12getSceneNodeEv, __ZN11OZSceneNode12parseElementER22PCSerializerReadStreamR15PCStreamElement, 
                       __ZN11OZSceneNode12prerollBeginERK14OZRenderParamsR14PMFrameRequestdP13FFPrerollSync, 
                       __ZN11OZSceneNode12removeEffectEP8OZEffect, __ZN11OZSceneNode13canBeExportedEv, 
                       __ZN11OZSceneNode13copyLinkedIDsERKS_j, __ZN11OZSceneNode13didAddToSceneEP7OZScene, 
                       __ZN11OZSceneNode13getPasteEntryEP13OZChannelBase, __ZN11OZSceneNode14calcStaticHashER23PCSerializerWriteStreamRNSt3__14listIP19OZObjectManipulatorNS2_9allocatorIS5_EEEEb, 
                       __ZN11OZSceneNode14getPredecessorEv, __ZN11OZSceneNode14getTokensImageERK14OZRenderParamsRKNSt3__16vectorINS3_4pairI7FigTimeNS4_IS6_NS3_9allocatorIS6_EEEEEENS7_ISA_EEEER14PMFrameRequest, 
                       __ZN11OZSceneNode14pruneAllTokensEPKc, __ZN11OZSceneNode14removeBehaviorEP10OZBehavior, 
                       __ZN11OZSceneNode14removeLinkedIDEj, __ZN11OZSceneNode14scheduleTokensERK14OZRenderParamsRKNSt3__16vectorINS3_4pairI7FigTimeNS4_IS6_NS3_9allocatorIS6_EEEEEENS7_ISA_EEEER14PMFrameRequestPNS4_IP15FFScheduleTokenNS7_ISI_EEEE, 
                       __ZN11OZSceneNode15end_descendantsEv, __ZN11OZSceneNode15getRootAncestorEv, 
                       __ZN11OZSceneNode15localizeContentEv, __ZN11OZSceneNode15updateLinkedIDsEPNSt3__13mapIjjNS0_4lessIjEENS0_9allocatorINS0_4pairIKjjEEEEEE, 
                       __ZN11OZSceneNode16calcHashForStateER23PCSerializerWriteStreamRK14OZRenderParamsRNSt3__14listIP19OZObjectManipulatorNS5_9allocatorIS8_EEEEb, 
                       __ZN11OZSceneNode16removeFromLinkedEv, __ZN11OZSceneNode16removeFromParentEv, 
                       __ZN11OZSceneNode17begin_descendantsEv, __ZN11OZSceneNode17copyLinkedObjectsERKS_P11OZPasteListbj, 
                       __ZN11OZSceneNode17didUndoLastChangeEv, __ZN11OZSceneNode17getCommonAncestorEPS_b, 
                       __ZN11OZSceneNode17insertEffectAfterEP8OZEffectS1_, __ZN11OZSceneNode17pruneTokensAtTimeE7FigTimePKc, 
                       __ZN11OZSceneNode17willDeleteChannelEP13OZChannelBase, __ZN11OZSceneNode18finishInitializingEv, 
                       __ZN11OZSceneNode18insertEffectBeforeEP8OZEffectS1_, __ZN11OZSceneNode18updateReferenceIDsEPNSt3__13mapIjjNS0_4lessIjEENS0_9allocatorINS0_4pairIKjjEEEEEE, 
                       __ZN11OZSceneNode19hintTokensWillImageERK14OZRenderParamsRKNSt3__16vectorINS3_4pairI7FigTimeNS4_IS6_NS3_9allocatorIS6_EEEEEENS7_ISA_EEEER14PMFrameRequest, 
                       __ZN11OZSceneNode19insertBehaviorAfterEP10OZBehaviorS1_, __ZN11OZSceneNode19willRemoveFromSceneEP7OZScene, 
                       __ZN11OZSceneNode20didUndoDeleteChannelEP13OZChannelBase, 
                       __ZN11OZSceneNode20getDescendantAtIndexEj, __ZN11OZSceneNode20insertBehaviorBeforeEP10OZBehaviorS1_, 
                       __ZN11OZSceneNode20invalidateStaticHashEv, __ZN11OZSceneNode20performDragOperationEP13OZFactoryBaseP13OZChannelBasejjjjRK7FigTime, 
                       __ZN11OZSceneNode21_sequenceEffectInputsEv, __ZN11OZSceneNode21channelValueWillBeSetEP9OZChannel7FigTimed, 
                       __ZN11OZSceneNode21cloneBehaviorsEffectsERKS_j, __ZN11OZSceneNode21didUndoDeleteOfObjectEP19OZObjectManipulator, 
                       __ZN11OZSceneNode21isAffectedByBehaviorsEv, __ZN11OZSceneNode22areStaticHashesInvalidEv, 
                       __ZN11OZSceneNode22getNumVisibleBehaviorsEv, __ZN11OZSceneNode22getSourceOperationMaskEP13OZChannelBaseb, 
                       __ZN11OZSceneNode23prepareForDragOperationEP11OZPasteListP13OZChannelBasejj, 
                       __ZN11OZSceneNode23pruneTokensExceptAtTimeE7FigTimePKc, __ZN11OZSceneNode25didFinishLoadingIntoSceneEv, 
                       __ZN11OZSceneNode26_internalInsertEffectAfterEP8OZEffectS1_b, 
                       __ZN11OZSceneNode27deselectEffectsAndBehaviorsEv, __ZN11OZSceneNode27getStaticHashWithoutEffectsER23PCSerializerWriteStreamRNSt3__14listIP19OZObjectManipulatorNS2_9allocatorIS5_EEEE, 
                       __ZN11OZSceneNode29getHashForStateWithoutEffectsER23PCSerializerWriteStreamRK14OZRenderParamsRNSt3__14listIP19OZObjectManipulatorNS5_9allocatorIS8_EEEE, 
                       __ZN11OZSceneNode29isAffectedByBakeableBehaviorsEv, __ZN11OZSceneNode29markFactoriesForSerializationER23PCSerializerWriteStreamb, 
                       __ZN11OZSceneNode32didFinishLoadingIntoMotionEffectEv, __ZN11OZSceneNode3endEv, 
                       __ZN11OZSceneNode4bakeEv, __ZN11OZSceneNode4copyEP13OZChannelBase, 
                       __ZN11OZSceneNode4linkEv, __ZN11OZSceneNode4lockEv, __ZN11OZSceneNode4rendEv, 
                       __ZN11OZSceneNode5beginEv, __ZN11OZSceneNode5dirtyEv, __ZN11OZSceneNode5pasteEP13OZChannelBase, 
                       __ZN11OZSceneNode6freezeEv, __ZN11OZSceneNode6rbeginEv, __ZN11OZSceneNode6renameEP13OZChannelBaseP8PCString, 
                       __ZN11OZSceneNode6selectEv, __ZN11OZSceneNode6unlinkEv, __ZN11OZSceneNode6unlockEv, 
                       __ZN11OZSceneNode7end_selEv, __ZN11OZSceneNode7getSoloEv, 
                       __ZN11OZSceneNode7setRateERK14OZRenderParamsR14PMFrameRequestd, 
                       __ZN11OZSceneNode7setSoloEb, __ZN11OZSceneNode8addStyleERKNSt3__110shared_ptrI7OZStyleEE, 
                       __ZN11OZSceneNode8deselectEv, __ZN11OZSceneNode8hitCheckERK6PCRectIdERK13OZRenderStatePK8LiCamera, 
                       __ZN11OZSceneNode8hitCheckERK9PCVector2IfERK13OZRenderStatePK8LiCameraR9PCVector3IdEj, 
                       __ZN11OZSceneNode8isFrozenEv, __ZN11OZSceneNode8isLinkedEv, 
                       __ZN11OZSceneNode8parseEndER22PCSerializerReadStream, __ZN11OZSceneNode8rend_selEv, 
                       __ZN11OZSceneNode8setSceneEP7OZScene, __ZN11OZSceneNode8unfreezeEv, 
                       __ZN11OZSceneNode9addEffectEP8OZEffectS1_, __ZN11OZSceneNode9allowDragEP13OZFactoryBaseP13OZChannelBasejPjS4_j, 
                       __ZN11OZSceneNode9begin_selEv, __ZN11OZSceneNode9getEffectEP15OZChannelFolder, 
                       __ZN11OZSceneNode9getEffectEj, __ZN11OZSceneNode9masks_endEv, 
                       __ZN11OZSceneNode9openMediaEv, __ZN11OZSceneNode9setIsMaskEv, 
                       __ZN11OZSceneNode9writeBodyER23PCSerializerWriteStreambbb, 
                       __ZN11OZSceneNodeC1EP9OZFactoryRK8PCStringj, __ZN11OZSceneNodeC1ERKS_, 
                       __ZN11OZSceneNodeC1ERKS_j, __ZN11OZSceneNodeC2EP9OZFactoryRK8PCStringj, 
                       __ZN11OZSceneNodeC2ERKS_, __ZN11OZSceneNodeC2ERKS_j, __ZN11OZSceneNodeD0Ev, 
                       __ZN11OZSceneNodeD1Ev, __ZN11OZSceneNodeD2Ev, __ZN11OZSceneNodeaSERKS_, 
                       __ZN11OZTileBlend10renderTileEP6HGTileRK20PCWorkingColorVectorNS_11BlendChoiceEP6HGNode, 
                       __ZN11PCAlgorithm12superEllipseEddddRdS0_, __ZN11PCAlgorithm15BezierSubdivideERK9PCVector3IdES3_S3_S3_iddRNSt3__16vectorIdNS4_9allocatorIdEEEES9_PS8_S9_, 
                       __ZN11PCAlgorithm15BezierSubdivideERK9PCVector4IdES3_S3_S3_iddPK14PCMatrix44TmplIdERNSt3__16vectorIdNS8_9allocatorIdEEEESD_PSC_SD_, 
                       __ZN11PCAlgorithm16findIntersectionER9PCVector2IdES2_S2_S2_PS1_, 
                       __ZN11PCAlgorithm16findIntersectionER9PCVector2IdES2_S2_S2_S2_, 
                       __ZN11PCAlgorithm16findIntersectionEddddPd, __ZN11PCAlgorithm17checkIntersectionERK9PCVector2IdES3_S3_S3_, 
                       __ZN11PCAlgorithm19findSubpixelMaximumEPA3_d, __ZN11PCAlgorithm20DeCasteljauSubdivideEdddPdS0_S0_S0_S0_S0_, 
                       __ZN11PCAlgorithm20DeCasteljauSubdivideEdddPdS0_S0_S0_S0_S0_S0_S0_S0_, 
                       __ZN11PCAlgorithm21findSuperEllipseAngleEdddddd, __ZN11PCAlgorithm22findSuperEllipseOffsetEddddRK9PCVector2IdES3_dd, 
                       __ZN11PCAlgorithm25findSuperEllipseCurvatureEdddddd, __ZN11PCAlgorithm34findProjectionOn45DegreesDirectionE9PCVector2IdES1_d, 
                       __ZN11PCAlgorithm6bisectEPdjdPi, __ZN11PCAlgorithm6snap45EddddR9PCVector2IdE, 
                       __ZN11PCAlgorithm7of_atanEdd, __ZN11PCAlgorithm8calcSnapEdRK9PCVector2IdES3_RS1_, 
                       __ZN11PCEvaluator18findPointOnEllipseEdddddPdS0_S0_, __ZN11PCEvaluator19findLengthOfEllipseEdddd, 
                       __ZN11PCEvaluator19findPointOnSineWaveEdddddddiPdS0_, __ZN11PCEvaluator20findLengthOfSineWaveEddddddi, 
                       __ZN11PCEvaluatorC1ERKS_, __ZN11PCEvaluatorC1Ev, __ZN11PCEvaluatorC2ERKS_, 
                       __ZN11PCEvaluatorC2Ev, __ZN11PCEvaluatorD1Ev, __ZN11PCEvaluatorD2Ev, 
                       __ZN11PCException19addCallStackSymbolsEv, __ZN11PCSemaphore4waitEv, 
                       __ZN11PCSemaphore6signalEv, __ZN11PCSemaphoreC1Ej, __ZN11PCSemaphoreC2Ej, 
                       __ZN11PCSemaphoreD1Ev, __ZN11PCSemaphoreD2Ev, __ZN11PCSingleton13getSingletonsEv, 
                       __ZN11PCSingleton16deleteSingletonsEv, __ZN11PCSingleton7getLockEv, 
                       __ZN11PCSingletonC1Ej, __ZN11PCSingletonC2Ej, __ZN11PCSingletonD0Ev, 
                       __ZN11PCSingletonD1Ev, __ZN11PCSingletonD2Ev, __ZN11PCSweepline10addSegmentEP12PCEdgeVertex, 
                       __ZN11PCSweepline11findSegmentEP12PCEdgeVertex, __ZN11PCSweepline13removeSegmentEP10PCTreeNodeI13PCEdgeSegmentE, 
                       __ZN11PCSweepline22getSegmentAboveSegmentEP10PCTreeNodeI13PCEdgeSegmentE, 
                       __ZN11PCSweepline22getSegmentBelowSegmentEP10PCTreeNodeI13PCEdgeSegmentE, 
                       __ZN11PCSweepline9intersectEP10PCTreeNodeI13PCEdgeSegmentES3_, 
                       __ZN11PCSweeplineC1ERNSt3__16vectorI9PCVector2IdENS0_9allocatorIS3_EEEE, 
                       __ZN11PCSweeplineC2ERNSt3__16vectorI9PCVector2IdENS0_9allocatorIS3_EEEE, 
                       __ZN11PCSweeplineD1Ev, __ZN11PCSweeplineD2Ev, __ZN11PCTimeRange14setAsUnionWithERKS_RK7FigTime, 
                       __ZN11PCTimeRange21setAsIntersectionWithERKS_RK7FigTime, __ZN11PGTexture1D10setDataPtrEPKvjj, 
                       __ZN11PGTexture1DC1ERKN5ProGL13TextureHandleE, __ZN11PGTexture1DC1ERN5ProGL2GLElRK18PCColorSpaceHandleiijj, 
                       __ZN11PGTexture1DC2ERKN5ProGL13TextureHandleE, __ZN11PGTexture1DC2ERN5ProGL2GLElRK18PCColorSpaceHandleiijj, 
                       __ZN11PGTexture1DD0Ev, __ZN11PGTexture1DD1Ev, __ZN11PGTexture1DD2Ev, 
                       __ZN11PGTexture2D10setDataPtrEPKvjj, __ZN11PGTexture2D10setDataPtrEPKvjjjjjj, 
                       __ZN11PGTexture2D12setBitmapRefERKNSt3__110shared_ptrI8PCBitmapEE, 
                       __ZN11PGTexture2DC1ERKN5ProGL13TextureHandleE, __ZN11PGTexture2DC1ERN5ProGL2GLEllRK18PCColorSpaceHandleiiijjPv, 
                       __ZN11PGTexture2DC2ERKN5ProGL13TextureHandleE, __ZN11PGTexture2DC2ERN5ProGL2GLEllRK18PCColorSpaceHandleiiijjPv, 
                       __ZN11PGTexture2DD0Ev, __ZN11PGTexture2DD1Ev, __ZN11PGTexture2DD2Ev, 
                       __ZN11PSImageTint20estimateRenderMemoryERNSt3__13setI9PCHash128NS0_4lessIS2_EENS0_9allocatorIS2_EEEE, 
                       __ZN11PSImageTint8setColorERK20PCWorkingColorVector, __ZN11PSImageTint9getHeliumER7LiAgent, 
                       __ZN11PSImageTintC1Ev, __ZN11PSImageTintC2Ev, __ZN11PSImageTintD0Ev, 
                       __ZN11PSImageTintD1Ev, __ZN11PSImageTintD2Ev, __ZN11PVPerfStats10FrameStats16SortStatsOnFrameES0_S0_, 
                       __ZN11PVPerfStats10FrameStats3EndEj, __ZN11PVPerfStats10FrameStats3maxERKS0_, 
                       __ZN11PVPerfStats10FrameStats3minERKS0_, __ZN11PVPerfStats10FrameStats4SqrtEv, 
                       __ZN11PVPerfStats10FrameStats5ClearEv, __ZN11PVPerfStats10FrameStatsC1Ej6CMTimebPNS_21FrameStatsDescriptionE, 
                       __ZN11PVPerfStats10FrameStatsC1EjPNS_21FrameStatsDescriptionE, 
                       __ZN11PVPerfStats10FrameStatsC2Ej6CMTimebPNS_21FrameStatsDescriptionE, 
                       __ZN11PVPerfStats10FrameStatsC2EjPNS_21FrameStatsDescriptionE, 
                       __ZN11PVPerfStats10FrameStatsdVEi, __ZN11PVPerfStats10FrameStatsdvEi, 
                       __ZN11PVPerfStats10FrameStatsmIERKS0_, __ZN11PVPerfStats10FrameStatsmLERKS0_, 
                       __ZN11PVPerfStats10FrameStatsmiERKS0_, __ZN11PVPerfStats10FrameStatsmlERKS0_, 
                       __ZN11PVPerfStats10FrameStatspLERKS0_, __ZN11PVPerfStats10FrameStatsplERKS0_, 
                       __ZN11PVPerfStats11WindowedFPSEv, __ZN11PVPerfStats12SetOnceStatsENS_9OnceStatsE, 
                       __ZN11PVPerfStats13AddFrameStatsERNS_10FrameStatsE, __ZN11PVPerfStats14CalculateStatsEv, 
                       __ZN11PVPerfStats14LastFrameStatsEv, __ZN11PVPerfStats15StdevFrameStatsEv, 
                       __ZN11PVPerfStats16GetTimeSinceLastENS_10FrameStatsE, __ZN11PVPerfStats17AverageFrameStatsEv, 
                       __ZN11PVPerfStats22PlaybackRateCalculator14FrameStatAddedEv, 
                       __ZN11PVPerfStats22PlaybackRateCalculator15LogPlaybackRateENSt3__112basic_stringIcNS1_11char_traitsIcEENS1_9allocatorIcEEEE, 
                       __ZN11PVPerfStats22PlaybackRateCalculator3EndEv, __ZN11PVPerfStats22PlaybackRateCalculatorC1ERNSt3__16vectorINS_10FrameStatsENS1_9allocatorIS3_EEEE, 
                       __ZN11PVPerfStats22PlaybackRateCalculatorC2ERNSt3__16vectorINS_10FrameStatsENS1_9allocatorIS3_EEEE, 
                       __ZN11PVPerfStats24GetFrameStatsDescriptionEv, __ZN11PVPerfStats5PrintEjb, 
                       __ZN11PVPerfStats5ResetEv, __ZN11PVPerfStats7PerfLogEP8NSStringz, 
                       __ZN11PVPerfStats7SetNameEP8NSString, __ZN11PVPerfStats8LogToPMREj, 
                       __ZN11PVPerfStats9NumFramesEv, __ZN11PVPerfStats9OnceStats5PrintEv, 
                       __ZN11PVPerfStats9StartTimeEv, __ZN11PVPerfStats9_logLevelE, 
                       __ZN11PVPerfStatsC1EPNS_21FrameStatsDescriptionE, __ZN11PVPerfStatsC2EPNS_21FrameStatsDescriptionE, 
                       __ZN11PVRenderJob10BuildGraphEv, __ZN11PVRenderJob11GetDelegateEv, 
                       __ZN11PVRenderJob13FinishRequestEv, __ZN11PVRenderJob13GetFrameStatsEv, 
                       __ZN11PVRenderJob13SetupRendererEv, __ZN11PVRenderJob13WaitForFinishEv, 
                       __ZN11PVRenderJob15FamilyEventCodeEv, __ZN11PVRenderJob15StopRenderTimerEv, 
                       __ZN11PVRenderJob15SubmitRenderJobEv, __ZN11PVRenderJob16StartRenderTimerEv, 
                       __ZN11PVRenderJob18StopTimersOnCancelEv, __ZN11PVRenderJob20StartHandlingRequestEv, 
                       __ZN11PVRenderJob20StopWaitToBuildTimerEv, __ZN11PVRenderJob21RenderJobNotificationEP11HGRenderJob, 
                       __ZN11PVRenderJob21StartWaitToBuildTimerEv, __ZN11PVRenderJob21StopWaitToRenderTimerEv, 
                       __ZN11PVRenderJob22StartWaitToRenderTimerEv, __ZN11PVRenderJob25SetJobsRendererParametersEP11HGRenderJob, 
                       __ZN11PVRenderJob25SetupBitmapsOnRenderNodesEv, __ZN11PVRenderJob28GraphBuildingJobNotificationEP11HGRenderJob, 
                       __ZN11PVRenderJob5StateEv, __ZN11PVRenderJob8SetStateE16PVRenderJobState, 
                       __ZN11PVRenderJob9CancelJobEb, __ZN11PVRenderJobC1EPU30objcproto19PVRenderJobDelegate11objc_objectN11PVPerfStats10FrameStatsE, 
                       __ZN11PVRenderJobC2EPU30objcproto19PVRenderJobDelegate11objc_objectN11PVPerfStats10FrameStatsE, 
                       __ZN11PVRenderJobD0Ev, __ZN11PVRenderJobD1Ev, __ZN11PVRenderJobD2Ev, 
                       __ZN11TXTextInput10changeTextEjjRK8PCString, __ZN11TXTextInput10deleteTextE7FigTimejjb, 
                       __ZN11TXTextInput10deleteThisEP13OZChannelBase, __ZN11TXTextInput10selectLineEv, 
                       __ZN11TXTextInput10selectWordERK9PCVector2IfERK13OZRenderStateP8LiCameraP14PCMatrix44TmplIdE, 
                       __ZN11TXTextInput10selectWordEmb, __ZN11TXTextInput10selectWordEv, 
                       __ZN11TXTextInput11moveForwardEv, __ZN11TXTextInput12deleteToMarkEv, 
                       __ZN11TXTextInput12insertHelperE7FigTimejRK8PCStringRKNSt3__110shared_ptrI11TXTextStyleEE, 
                       __ZN11TXTextInput12moveBackwardEv, __ZN11TXTextInput12moveWordLeftEv, 
                       __ZN11TXTextInput12scrollLineUpEv, __ZN11TXTextInput12scrollPageUpEv, 
                       __ZN11TXTextInput12selectToMarkEv, __ZN11TXTextInput12swapWithMarkEv, 
                       __ZN11TXTextInput13canHandleUndoEv, __ZN11TXTextInput13deleteForwardEv, 
                       __ZN11TXTextInput13insertBacktabEv, __ZN11TXTextInput13insertNewlineEv, 
                       __ZN11TXTextInput13isStringValidERK8PCString, __ZN11TXTextInput13lowercaseWordEv, 
                       __ZN11TXTextInput13moveWordRightEv, __ZN11TXTextInput13uppercaseWordEv, 
                       __ZN11TXTextInput14capitalizeWordEv, __ZN11TXTextInput14deleteBackwardEv, 
                       __ZN11TXTextInput14removeBehaviorEP10OZBehavior, __ZN11TXTextInput14scrollLineDownEv, 
                       __ZN11TXTextInput14scrollPageDownEv, __ZN11TXTextInput14transposeWordsEv, 
                       __ZN11TXTextInput15deleteSelectionEv, __ZN11TXTextInput15localizeContentEv, 
                       __ZN11TXTextInput15moveToEndOfLineEv, __ZN11TXTextInput15moveWordForwardEv, 
                       __ZN11TXTextInput15selectParagraphEm, __ZN11TXTextInput15selectParagraphEv, 
                       __ZN11TXTextInput15showContextHelpEv, __ZN11TXTextInput16decrementKerningEv, 
                       __ZN11TXTextInput16deleteTextHelperE7FigTimejjb, __ZN11TXTextInput16incrementKerningEv, 
                       __ZN11TXTextInput16moveWordBackwardEv, __ZN11TXTextInput17deleteToEndOfLineEv, 
                       __ZN11TXTextInput17deleteWordForwardEv, __ZN11TXTextInput18changeCaseOfLetterEv, 
                       __ZN11TXTextInput18deleteWordBackwardEv, __ZN11TXTextInput18getUndoDescriptionEv, 
                       __ZN11TXTextInput19hasLinkedTextStringEv, __ZN11TXTextInput19moveToEndOfDocumentEv, 
                       __ZN11TXTextInput19updateLinkedObjectsEv, __ZN11TXTextInput20behaviorChangedStateEP10OZBehavior, 
                       __ZN11TXTextInput20getBoundsForHitCheckEP6PCRectIdERK13OZRenderState, 
                       __ZN11TXTextInput20insertAndCreateStyleE7FigTimejRK8PCStringbb, 
                       __ZN11TXTextInput20moveToEndOfParagraphEv, __ZN11TXTextInput20performDragOperationEP13OZFactoryBaseP13OZChannelBasejjjjRK7FigTime, 
                       __ZN11TXTextInput20stripCarriageReturnsERK8PCString, __ZN11TXTextInput21cloneBehaviorsEffectsERK11OZSceneNodej, 
                       __ZN11TXTextInput21moveToBeginningOfLineEv, __ZN11TXTextInput22deleteToEndOfParagraphEv, 
                       __ZN11TXTextInput23deleteToBeginningOfLineEv, __ZN11TXTextInput23getStringFromPasteboardEv, 
                       __ZN11TXTextInput23rebuildTextFromBehaviorEv, __ZN11TXTextInput24insertParagraphSeparatorEv, 
                       __ZN11TXTextInput24moveUpAndModifySelectionEv, __ZN11TXTextInput25didFinishLoadingIntoSceneEv, 
                       __ZN11TXTextInput25moveToBeginningOfDocumentEv, __ZN11TXTextInput26arePasteboardContentsValidEv, 
                       __ZN11TXTextInput26didRebuildTextFromBehaviorEv, __ZN11TXTextInput26moveDownAndModifySelectionEv, 
                       __ZN11TXTextInput26moveLeftAndModifySelectionEv, __ZN11TXTextInput26moveToBeginningOfParagraphEv, 
                       __ZN11TXTextInput27moveRightAndModifySelectionEv, __ZN11TXTextInput27setupDefaultTitleTextLayoutEP7OZScene, 
                       __ZN11TXTextInput28centerSelectionInVisibleAreaEv, __ZN11TXTextInput28deleteToBeginningOfParagraphEv, 
                       __ZN11TXTextInput28insertTabIgnoringFieldEditorEv, __ZN11TXTextInput29moveForwardAndModifySelectionEv, 
                       __ZN11TXTextInput29postTextSelectionNotificationEv, __ZN11TXTextInput30moveBackwardAndModifySelectionEv, 
                       __ZN11TXTextInput30moveWordLeftAndModifySelectionEv, __ZN11TXTextInput31moveWordRightAndModifySelectionEv, 
                       __ZN11TXTextInput32insertNewlineIgnoringFieldEditorEv, __ZN11TXTextInput33moveToEndOfLineAndModifySelectionEv, 
                       __ZN11TXTextInput33moveWordForwardAndModifySelectionEv, __ZN11TXTextInput34moveWordBackwardAndModifySelectionEv, 
                       __ZN11TXTextInput37moveToEndOfDocumentAndModifySelectionEv, 
                       __ZN11TXTextInput38moveParagraphForwardAndModifySelectionEv, 
                       __ZN11TXTextInput39moveParagraphBackwardAndModifySelectionEv, 
                       __ZN11TXTextInput39moveToBeginningOfLineAndModifySelectionEv, 
                       __ZN11TXTextInput40rebuildTextFromCurrentStringChannelStateEv, 
                       __ZN11TXTextInput43moveToBeginningOfDocumentAndModifySelectionEv, 
                       __ZN11TXTextInput44deleteBackwardByDecomposingPreviousCharacterEv, 
                       __ZN11TXTextInput4yankEv, __ZN11TXTextInput6createERK8PCStringj, 
                       __ZN11TXTextInput6indentEv, __ZN11TXTextInput6insertE7FigTimejRK8PCStringRKNSt3__110shared_ptrI11TXTextStyleEEbb, 
                       __ZN11TXTextInput6moveUpEv, __ZN11TXTextInput6notifyEj, __ZN11TXTextInput6pageUpEv, 
                       __ZN11TXTextInput7endUndoEv, __ZN11TXTextInput7setMarkEv, 
                       __ZN11TXTextInput7setTextE7FigTimeRK8PCString, __ZN11TXTextInput8completeEv, 
                       __ZN11TXTextInput8moveDownEv, __ZN11TXTextInput8moveLeftEv, 
                       __ZN11TXTextInput8pageDownEv, __ZN11TXTextInput9addToUndoERK8PCStringi, 
                       __ZN11TXTextInput9insertTabEv, __ZN11TXTextInput9moveRightEv, 
                       __ZN11TXTextInput9transposeEv, __ZN11TXTextInputC1EP9OZFactoryRK8PCStringj, 
                       __ZN11TXTextInputC1ERKS_j, __ZN11TXTextInputC2EP9OZFactoryRK8PCStringj, 
                       __ZN11TXTextInputC2ERKS_j, __ZN11TXTextInputD0Ev, __ZN11TXTextInputD1Ev, 
                       __ZN11TXTextInputD2Ev, __ZN11TXTextStyle10deleteThisEP13OZChannelBase, 
                       __ZN11TXTextStyle10hasTextureER25OZChannelImageWithOptions, 
                       __ZN11TXTextStyle10hasTextureEi, __ZN11TXTextStyle10parseBeginER22PCSerializerReadStream, 
                       __ZN11TXTextStyle10prerollEndERK14OZRenderParamsR14PMFrameRequest, 
                       __ZN11TXTextStyle10setNoAbortEv, __ZN11TXTextStyle10updateFontEv, 
                       __ZN11TXTextStyle11getFillTypeEi, __ZN11TXTextStyle11getFontFaceEv, 
                       __ZN11TXTextStyle11getFontNameEv, __ZN11TXTextStyle12parseElementER22PCSerializerReadStreamR15PCStreamElement, 
                       __ZN11TXTextStyle12prerollBeginERK14OZRenderParamsR14PMFrameRequestdP13FFPrerollSync, 
                       __ZN11TXTextStyle13getFontFamilyEv, __ZN11TXTextStyle14calcStaticHashER23PCSerializerWriteStreamRNSt3__14listIP19OZObjectManipulatorNS2_9allocatorIS5_EEEE, 
                       __ZN11TXTextStyle14getTokensImageERK14OZRenderParamsRKNSt3__16vectorINS3_4pairI7FigTimeNS4_IS6_NS3_9allocatorIS6_EEEEEENS7_ISA_EEEER14PMFrameRequest, 
                       __ZN11TXTextStyle14pruneAllTokensEPKc, __ZN11TXTextStyle14scheduleTokensERK14OZRenderParamsRKNSt3__16vectorINS3_4pairI7FigTimeNS4_IS6_NS3_9allocatorIS6_EEEEEENS7_ISA_EEEER14PMFrameRequestPNS4_IP15FFScheduleTokenNS7_ISI_EEEE, 
                       __ZN11TXTextStyle14setRateForNodeER25OZChannelImageWithOptionsRK14OZRenderParamsR14PMFrameRequestd, 
                       __ZN11TXTextStyle14updateGradientE7FigTime, __ZN11TXTextStyle15doResetMaterialEj, 
                       __ZN11TXTextStyle15getColorChannelEi, __ZN11TXTextStyle16calcHashForStateER23PCSerializerWriteStreamRK14OZRenderParamsRNSt3__14listIP19OZObjectManipulatorNS5_9allocatorIS8_EEEE, 
                       __ZN11TXTextStyle16didResetMaterialEj, __ZN11TXTextStyle17canAddToSceneNodeEP11OZSceneNode, 
                       __ZN11TXTextStyle17getTextureChannelEi, __ZN11TXTextStyle17prerollEndForNodeER25OZChannelImageWithOptionsRK14OZRenderParamsR14PMFrameRequest, 
                       __ZN11TXTextStyle17pruneTokensAtTimeE7FigTimePKc, __ZN11TXTextStyle17willResetMaterialEj, 
                       __ZN11TXTextStyle18addDefaultMaterialEv, __ZN11TXTextStyle18getGradientChannelEi, 
                       __ZN11TXTextStyle18getIndexOfMaterialEP14OZMaterialBase, __ZN11TXTextStyle19clearCachedFontFaceEv, 
                       __ZN11TXTextStyle19getPreviewSceneNodeEv, __ZN11TXTextStyle19hintTokensWillImageERK14OZRenderParamsRKNSt3__16vectorINS3_4pairI7FigTimeNS4_IS6_NS3_9allocatorIS6_EEEEEENS7_ISA_EEEER14PMFrameRequest, 
                       __ZN11TXTextStyle19prerollBeginForNodeER25OZChannelImageWithOptionsRK14OZRenderParamsR14PMFrameRequestdP13FFPrerollSync, 
                       __ZN11TXTextStyle20TXTextStyle_sizeInfo21_TXTextStyle_sizeInfoE, 
                       __ZN11TXTextStyle20behaviorChangedStateEP10OZBehavior, __ZN11TXTextStyle21TXTextStyle_slantImpl18_TXTextStyle_slantE, 
                       __ZN11TXTextStyle21TXTextStyle_slantInfo22_TXTextStyle_slantInfoE, 
                       __ZN11TXTextStyle21getTokensImageForNodeER25OZChannelImageWithOptionsRK14OZRenderParamsRKNSt3__16vectorINS5_4pairI7FigTimeNS6_IS8_NS5_9allocatorIS8_EEEEEENS9_ISC_EEEER14PMFrameRequest, 
                       __ZN11TXTextStyle21pruneAllTokensForNodeER25OZChannelImageWithOptionsPKc, 
                       __ZN11TXTextStyle21scheduleTokensForNodeER25OZChannelImageWithOptionsRK14OZRenderParamsRKNSt3__16vectorINS5_4pairI7FigTimeNS6_IS8_NS5_9allocatorIS8_EEEEEENS9_ISC_EEEER14PMFrameRequestPNS6_IP15FFScheduleTokenNS9_ISK_EEEE, 
                       __ZN11TXTextStyle23TXTextStyle_kerningImpl20_TXTextStyle_kerningE, 
                       __ZN11TXTextStyle23TXTextStyle_kerningInfo24_TXTextStyle_kerningInfoE, 
                       __ZN11TXTextStyle23getTextureLiImageSourceER14OZRenderParamsR25OZChannelImageWithOptions, 
                       __ZN11TXTextStyle23pruneTokensExceptAtTimeE7FigTimePKc, __ZN11TXTextStyle24TXTextStyle_baselineInfo25_TXTextStyle_baselineInfoE, 
                       __ZN11TXTextStyle24TXTextStyle_faceBlurImpl21_TXTextStyle_faceBlurE, 
                       __ZN11TXTextStyle24TXTextStyle_faceBlurInfo25_TXTextStyle_faceBlurInfoE, 
                       __ZN11TXTextStyle24TXTextStyle_glowBlurImpl21_TXTextStyle_glowBlurE, 
                       __ZN11TXTextStyle24TXTextStyle_glowBlurInfo25_TXTextStyle_glowBlurInfoE, 
                       __ZN11TXTextStyle24TXTextStyle_trackingImpl21_TXTextStyle_trackingE, 
                       __ZN11TXTextStyle24TXTextStyle_trackingInfo25_TXTextStyle_trackingInfoE, 
                       __ZN11TXTextStyle24pruneTokensAtTimeForNodeER25OZChannelImageWithOptions7FigTimePKc, 
                       __ZN11TXTextStyle26TXTextStyle_V4TrackingImpl23_TXTextStyle_V4TrackingE, 
                       __ZN11TXTextStyle26TXTextStyle_V4TrackingInfo27_TXTextStyle_V4TrackingInfoE, 
                       __ZN11TXTextStyle26TXTextStyle_glowRadiusImpl23_TXTextStyle_glowRadiusE, 
                       __ZN11TXTextStyle26TXTextStyle_glowRadiusInfo27_TXTextStyle_glowRadiusInfoE, 
                       __ZN11TXTextStyle26hintTokensWillImageForNodeER25OZChannelImageWithOptionsRK14OZRenderParamsRKNSt3__16vectorINS5_4pairI7FigTimeNS6_IS8_NS5_9allocatorIS8_EEEEEENS9_ISC_EEEER14PMFrameRequest, 
                       __ZN11TXTextStyle27TXTextStyle_allCapsSizeImpl24_TXTextStyle_allCapsSizeE, 
                       __ZN11TXTextStyle27TXTextStyle_oldTrackingInfo28_TXTextStyle_oldTrackingInfoE, 
                       __ZN11TXTextStyle27TXTextStyle_outlineBlurImpl24_TXTextStyle_outlineBlurE, 
                       __ZN11TXTextStyle27TXTextStyle_outlineBlurInfo28_TXTextStyle_outlineBlurInfoE, 
                       __ZN11TXTextStyle28TXTextStyle_outlineWidthImpl25_TXTextStyle_outlineWidthE, 
                       __ZN11TXTextStyle28TXTextStyle_outlineWidthInfo29_TXTextStyle_outlineWidthInfoE, 
                       __ZN11TXTextStyle29markFactoriesForSerializationER23PCSerializerWriteStreamb, 
                       __ZN11TXTextStyle29materialChannelValueWillBeSetEP9OZChannelRK7FigTimeb, 
                       __ZN11TXTextStyle30TXTextStyle_dropShadowBlurImpl27_TXTextStyle_dropShadowBlurE, 
                       __ZN11TXTextStyle30TXTextStyle_dropShadowBlurInfo31_TXTextStyle_dropShadowBlurInfoE, 
                       __ZN11TXTextStyle30pruneTokensExceptAtTimeForNodeER25OZChannelImageWithOptions7FigTimePKc, 
                       __ZN11TXTextStyle31TXTextStyle_dropShadowAngleImpl28_TXTextStyle_dropShadowAngleE, 
                       __ZN11TXTextStyle31calcHashForStateAffectingLayoutER23PCSerializerWriteStreamRK7FigTime, 
                       __ZN11TXTextStyle32TXTextStyle_glowBlurObsoleteImpl29_TXTextStyle_glowBlurObsoleteE, 
                       __ZN11TXTextStyle33TXTextStyle_dropShadowOpacityImpl30_TXTextStyle_dropShadowOpacityE, 
                       __ZN11TXTextStyle34TXTextStyle_dropShadowDistanceImpl31_TXTextStyle_dropShadowDistanceE, 
                       __ZN11TXTextStyle34TXTextStyle_dropShadowDistanceInfo35_TXTextStyle_dropShadowDistanceInfoE, 
                       __ZN11TXTextStyle35getSequenceChannelsForMaterialLayerEii, 
                       __ZN11TXTextStyle6createERK8PCStringj, __ZN11TXTextStyle7setFontENSt3__110shared_ptrI10OZFontFaceEE, 
                       __ZN11TXTextStyle7setFontERK8PCStringb, __ZN11TXTextStyle7setRateERK14OZRenderParamsR14PMFrameRequestd, 
                       __ZN11TXTextStyle8parseEndER22PCSerializerReadStream, __ZN11TXTextStyle9copyStyleERKS_, 
                       __ZN11TXTextStyle9openMediaEv, __ZN11TXTextStyle9writeBodyER23PCSerializerWriteStreambbb, 
                       __ZN11TXTextStyleC1EP9OZFactoryRK8PCStringj, __ZN11TXTextStyleC1ERKS_P11OZSceneNodej, 
                       __ZN11TXTextStyleC1ERKS_j, __ZN11TXTextStyleC2EP9OZFactoryRK8PCStringj, 
                       __ZN11TXTextStyleC2ERKS_P11OZSceneNodej, __ZN11TXTextStyleC2ERKS_j, 
                       __ZN11TXTextStyleD0Ev, __ZN11TXTextStyleD1Ev, __ZN11TXTextStyleD2Ev, 
                       __ZN12FresnelLayer12computeColorERK12LayerContextR17SurfaceProperties, 
                       __ZN12FresnelLayer13computeNormalERK12LayerContextR17SurfaceProperties, 
                       __ZN12FresnelLayer8isOpaqueERbP17LiLayeredMaterialR18LiTextureEvaluator, 
                       __ZN12FresnelLayer9writeHashER17PCHashWriteStream, __ZN12FresnelLayerC1EPv, 
                       __ZN12FresnelLayerC2EPv, __ZN12HGlowCombine6GetDODEP10HGRendereri6HGRect, 
                       __ZN12HGlowCombine6GetROIEP10HGRendereri6HGRect, __ZN12HPolarToRect17InvTransformPointERK9PCVector2IfE, 
                       __ZN12HPolarToRect6GetDODEP10HGRendereri6HGRect, __ZN12HPolarToRect6GetROIEP10HGRendereri6HGRect, 
                       __ZN12HPolarToRect7SetRectERK7HGRectf, __ZN12HPolarToRect9GetOutputEP10HGRenderer, 
                       __ZN12HRectToPolar6GetDODEP10HGRendereri6HGRect, __ZN12HRectToPolar6GetROIEP10HGRendereri6HGRect, 
                       __ZN12HRectToPolar7SetRectERK7HGRectf, __ZN12HSmearToRect6GetDODEP10HGRendereri6HGRect, 
                       __ZN12HSmearToRect6GetROIEP10HGRendereri6HGRect, __ZN12HSmearToRect7setRectERK6PCRectIdE, 
                       __ZN12HSmearToRect9GetOutputEP10HGRenderer, __ZN12HSmearToRectC1Ev, 
                       __ZN12HSmearToRectC2Ev, __ZN12HSmearToRectD0Ev, __ZN12HSmearToRectD1Ev, 
                       __ZN12HSmearToRectD2Ev, __ZN12HgcAlphaMult10GetProgramEP10HGRenderer, 
                       __ZN12HgcAlphaMult10RenderTileEP6HGTile, __ZN12HgcAlphaMult11BindTextureEP9HGHandleri, 
                       __ZN12HgcAlphaMult12GetParameterEiPf, __ZN12HgcAlphaMult12SetParameterEiffff, 
                       __ZN12HgcAlphaMult4BindEP9HGHandler, __ZN12HgcAlphaMult6GetDODEP10HGRendereri6HGRect, 
                       __ZN12HgcAlphaMult6GetROIEP10HGRendereri6HGRect, __ZN12HgcAlphaMult9GetOutputEP10HGRenderer, 
                       __ZN12HgcAlphaMultC1Ev, __ZN12HgcAlphaMultC2Ev, __ZN12HgcAlphaMultD0Ev, 
                       __ZN12HgcAlphaMultD1Ev, __ZN12HgcAlphaMultD2Ev, __ZN12HgcBlackHole10GetProgramEP10HGRenderer, 
                       __ZN12HgcBlackHole10RenderTileEP6HGTile, __ZN12HgcBlackHole11BindTextureEP9HGHandleri, 
                       __ZN12HgcBlackHole12GetParameterEiPf, __ZN12HgcBlackHole12SetParameterEiffff, 
                       __ZN12HgcBlackHole4BindEP9HGHandler, __ZN12HgcBlackHole6GetDODEP10HGRendereri6HGRect, 
                       __ZN12HgcBlackHole6GetROIEP10HGRendereri6HGRect, __ZN12HgcBlackHole9GetOutputEP10HGRenderer, 
                       __ZN12HgcBlackHoleC1Ev, __ZN12HgcBlackHoleC2Ev, __ZN12HgcBlackHoleD0Ev, 
                       __ZN12HgcBlackHoleD1Ev, __ZN12HgcBlackHoleD2Ev, __ZN12HgcCamcorder10GetProgramEP10HGRenderer, 
                       __ZN12HgcCamcorder10RenderTileEP6HGTile, __ZN12HgcCamcorder11BindTextureEP9HGHandleri, 
                       __ZN12HgcCamcorder12GetParameterEiPf, __ZN12HgcCamcorder12SetParameterEiffff, 
                       __ZN12HgcCamcorder4BindEP9HGHandler, __ZN12HgcCamcorder5SetupEPv, 
                       __ZN12HgcCamcorder6GetDODEP10HGRendereri6HGRect, __ZN12HgcCamcorder6GetROIEP10HGRendereri6HGRect, 
                       __ZN12HgcCamcorder9GetOutputEP10HGRenderer, __ZN12HgcCamcorderC1Ev, 
                       __ZN12HgcCamcorderC2Ev, __ZN12HgcCamcorderD0Ev, __ZN12HgcCamcorderD1Ev, 
                       __ZN12HgcCamcorderD2Ev, __ZN12HgcCopyAlpha10GetProgramEP10HGRenderer, 
                       __ZN12HgcCopyAlpha10RenderTileEP6HGTile, __ZN12HgcCopyAlpha11BindTextureEP9HGHandleri, 
                       __ZN12HgcCopyAlpha12GetParameterEiPf, __ZN12HgcCopyAlpha12SetParameterEiffff, 
                       __ZN12HgcCopyAlpha4BindEP9HGHandler, __ZN12HgcCopyAlpha6GetDODEP10HGRendereri6HGRect, 
                       __ZN12HgcCopyAlpha6GetROIEP10HGRendereri6HGRect, __ZN12HgcCopyAlpha9GetOutputEP10HGRenderer, 
                       __ZN12HgcCopyAlphaC1Ev, __ZN12HgcCopyAlphaC2Ev, __ZN12HgcCopyAlphaD0Ev, 
                       __ZN12HgcCopyAlphaD1Ev, __ZN12HgcCopyAlphaD2Ev, __ZN12HgcFillColor10GetProgramEP10HGRenderer, 
                       __ZN12HgcFillColor10RenderTileEP6HGTile, __ZN12HgcFillColor11BindTextureEP9HGHandleri, 
                       __ZN12HgcFillColor12GetParameterEiPf, __ZN12HgcFillColor12SetParameterEiffff, 
                       __ZN12HgcFillColor4BindEP9HGHandler, __ZN12HgcFillColor6GetDODEP10HGRendereri6HGRect, 
                       __ZN12HgcFillColor6GetROIEP10HGRendereri6HGRect, __ZN12HgcFillColor9GetOutputEP10HGRenderer, 
                       __ZN12HgcFillColorC1Ev, __ZN12HgcFillColorC2Ev, __ZN12HgcFillColorD0Ev, 
                       __ZN12HgcFillColorD1Ev, __ZN12HgcFillColorD2Ev, __ZN12HgcHSVAdjust10GetProgramEP10HGRenderer, 
                       __ZN12HgcHSVAdjust10RenderTileEP6HGTile, __ZN12HgcHSVAdjust11BindTextureEP9HGHandleri, 
                       __ZN12HgcHSVAdjust12GetParameterEiPf, __ZN12HgcHSVAdjust12SetParameterEiffff, 
                       __ZN12HgcHSVAdjust4BindEP9HGHandler, __ZN12HgcHSVAdjust6GetDODEP10HGRendereri6HGRect, 
                       __ZN12HgcHSVAdjust6GetROIEP10HGRendereri6HGRect, __ZN12HgcHSVAdjust9GetOutputEP10HGRenderer, 
                       __ZN12HgcHSVAdjustC1Ev, __ZN12HgcHSVAdjustC2Ev, __ZN12HgcHSVAdjustD0Ev, 
                       __ZN12HgcHSVAdjustD1Ev, __ZN12HgcHSVAdjustD2Ev, __ZN12HgcInsectEye10GetProgramEP10HGRenderer, 
                       __ZN12HgcInsectEye10RenderTileEP6HGTile, __ZN12HgcInsectEye11BindTextureEP9HGHandleri, 
                       __ZN12HgcInsectEye12GetParameterEiPf, __ZN12HgcInsectEye12SetParameterEiffff, 
                       __ZN12HgcInsectEye4BindEP9HGHandler, __ZN12HgcInsectEye6GetDODEP10HGRendereri6HGRect, 
                       __ZN12HgcInsectEye6GetROIEP10HGRendereri6HGRect, __ZN12HgcInsectEye9GetOutputEP10HGRenderer, 
                       __ZN12HgcInsectEyeC1Ev, __ZN12HgcInsectEyeC2Ev, __ZN12HgcInsectEyeD0Ev, 
                       __ZN12HgcInsectEyeD1Ev, __ZN12HgcInsectEyeD2Ev, __ZN12HgcLumaKeyer10GetProgramEP10HGRenderer, 
                       __ZN12HgcLumaKeyer10RenderTileEP6HGTile, __ZN12HgcLumaKeyer11BindTextureEP9HGHandleri, 
                       __ZN12HgcLumaKeyer12GetParameterEiPf, __ZN12HgcLumaKeyer12SetParameterEiffff, 
                       __ZN12HgcLumaKeyer4BindEP9HGHandler, __ZN12HgcLumaKeyer6GetDODEP10HGRendereri6HGRect, 
                       __ZN12HgcLumaKeyer6GetROIEP10HGRendereri6HGRect, __ZN12HgcLumaKeyer9GetOutputEP10HGRenderer, 
                       __ZN12HgcLumaKeyerC1Ev, __ZN12HgcLumaKeyerC2Ev, __ZN12HgcLumaKeyerD0Ev, 
                       __ZN12HgcLumaKeyerD1Ev, __ZN12HgcLumaKeyerD2Ev, __ZN12HgcMaskAlpha10GetProgramEP10HGRenderer, 
                       __ZN12HgcMaskAlpha10RenderTileEP6HGTile, __ZN12HgcMaskAlpha11BindTextureEP9HGHandleri, 
                       __ZN12HgcMaskAlpha12GetParameterEiPf, __ZN12HgcMaskAlpha12SetParameterEiffff, 
                       __ZN12HgcMaskAlpha4BindEP9HGHandler, __ZN12HgcMaskAlpha6GetDODEP10HGRendereri6HGRect, 
                       __ZN12HgcMaskAlpha6GetROIEP10HGRendereri6HGRect, __ZN12HgcMaskAlpha9GetOutputEP10HGRenderer, 
                       __ZN12HgcMaskAlphaC1Ev, __ZN12HgcMaskAlphaC2Ev, __ZN12HgcMaskAlphaD0Ev, 
                       __ZN12HgcMaskAlphaD1Ev, __ZN12HgcMaskAlphaD2Ev, __ZN12HgcPixellate10GetProgramEP10HGRenderer, 
                       __ZN12HgcPixellate10RenderTileEP6HGTile, __ZN12HgcPixellate11BindTextureEP9HGHandleri, 
                       __ZN12HgcPixellate12GetParameterEiPf, __ZN12HgcPixellate12SetParameterEiffff, 
                       __ZN12HgcPixellate4BindEP9HGHandler, __ZN12HgcPixellate6GetDODEP10HGRendereri6HGRect, 
                       __ZN12HgcPixellate6GetROIEP10HGRendereri6HGRect, __ZN12HgcPixellate9GetOutputEP10HGRenderer, 
                       __ZN12HgcPixellateC1Ev, __ZN12HgcPixellateC2Ev, __ZN12HgcPixellateD0Ev, 
                       __ZN12HgcPixellateD1Ev, __ZN12HgcPixellateD2Ev, __ZN12HgcPostKeyer10GetProgramEP10HGRenderer, 
                       __ZN12HgcPostKeyer10RenderTileEP6HGTile, __ZN12HgcPostKeyer11BindTextureEP9HGHandleri, 
                       __ZN12HgcPostKeyer12GetParameterEiPf, __ZN12HgcPostKeyer12SetParameterEiffff, 
                       __ZN12HgcPostKeyer4BindEP9HGHandler, __ZN12HgcPostKeyer6GetDODEP10HGRendereri6HGRect, 
                       __ZN12HgcPostKeyer6GetROIEP10HGRendereri6HGRect, __ZN12HgcPostKeyer9GetOutputEP10HGRenderer, 
                       __ZN12HgcPostKeyerC1Ev, __ZN12HgcPostKeyerC2Ev, __ZN12HgcPostKeyerD0Ev, 
                       __ZN12HgcPostKeyerD1Ev, __ZN12HgcPostKeyerD2Ev, __ZN12HgcSimpleAdd10GetProgramEP10HGRenderer, 
                       __ZN12HgcSimpleAdd10RenderTileEP6HGTile, __ZN12HgcSimpleAdd11BindTextureEP9HGHandleri, 
                       __ZN12HgcSimpleAdd12GetParameterEiPf, __ZN12HgcSimpleAdd12SetParameterEiffff, 
                       __ZN12HgcSimpleAdd4BindEP9HGHandler, __ZN12HgcSimpleAdd6GetDODEP10HGRendereri6HGRect, 
                       __ZN12HgcSimpleAdd6GetROIEP10HGRendereri6HGRect, __ZN12HgcSimpleAdd9GetOutputEP10HGRenderer, 
                       __ZN12HgcSimpleAddC1Ev, __ZN12HgcSimpleAddC2Ev, __ZN12HgcSimpleAddD0Ev, 
                       __ZN12HgcSimpleAddD1Ev, __ZN12HgcSimpleAddD2Ev, __ZN12HgcStarburst10GetProgramEP10HGRenderer, 
                       __ZN12HgcStarburst10RenderTileEP6HGTile, __ZN12HgcStarburst11BindTextureEP9HGHandleri, 
                       __ZN12HgcStarburst12GetParameterEiPf, __ZN12HgcStarburst12SetParameterEiffff, 
                       __ZN12HgcStarburst4BindEP9HGHandler, __ZN12HgcStarburst6GetDODEP10HGRendereri6HGRect, 
                       __ZN12HgcStarburst6GetROIEP10HGRendereri6HGRect, __ZN12HgcStarburst9GetOutputEP10HGRenderer, 
                       __ZN12HgcStarburstC1Ev, __ZN12HgcStarburstC2Ev, __ZN12HgcStarburstD0Ev, 
                       __ZN12HgcStarburstD1Ev, __ZN12HgcStarburstD2Ev, __ZN12HgcTXGlowMix10GetProgramEP10HGRenderer, 
                       __ZN12HgcTXGlowMix10RenderTileEP6HGTile, __ZN12HgcTXGlowMix11BindTextureEP9HGHandleri, 
                       __ZN12HgcTXGlowMix12GetParameterEiPf, __ZN12HgcTXGlowMix12SetParameterEiffff, 
                       __ZN12HgcTXGlowMix4BindEP9HGHandler, __ZN12HgcTXGlowMix6GetDODEP10HGRendereri6HGRect, 
                       __ZN12HgcTXGlowMix6GetROIEP10HGRendereri6HGRect, __ZN12HgcTXGlowMix9GetOutputEP10HGRenderer, 
                       __ZN12HgcTXGlowMixC1Ev, __ZN12HgcTXGlowMixC2Ev, __ZN12HgcTXGlowMixD0Ev, 
                       __ZN12HgcTXGlowMixD1Ev, __ZN12HgcTXGlowMixD2Ev, __ZN12HgcThreshold10GetProgramEP10HGRenderer, 
                       __ZN12HgcThreshold10RenderTileEP6HGTile, __ZN12HgcThreshold11BindTextureEP9HGHandleri, 
                       __ZN12HgcThreshold12GetParameterEiPf, __ZN12HgcThreshold12SetParameterEiffff, 
                       __ZN12HgcThreshold4BindEP9HGHandler, __ZN12HgcThreshold6GetDODEP10HGRendereri6HGRect, 
                       __ZN12HgcThreshold6GetROIEP10HGRendereri6HGRect, __ZN12HgcThreshold9GetOutputEP10HGRenderer, 
                       __ZN12HgcThresholdC1Ev, __ZN12HgcThresholdC2Ev, __ZN12HgcThresholdD0Ev, 
                       __ZN12HgcThresholdD1Ev, __ZN12HgcThresholdD2Ev, __ZN12KilledPlugin12compareUUIDsEPK8__CFUUIDS2_, 
                       __ZN12LiAnimCamera11replacementEv, __ZN12LiAnimCamera6updateEv, 
                       __ZN12LiAnimCamera7getTimeEv, __ZN12LiAnimCameraC1EP8LiCameraS1_d, 
                       __ZN12LiAnimCameraC2EP8LiCameraS1_d, __ZN12LiAnimCameraD0Ev, 
                       __ZN12LiAnimCameraD1Ev, __ZN12LiAnimCameraD2Ev, __ZN12LiCompositor11isLightWrapE11PCBlendMode5PCPtrI14PCBlendOptionsE, 
                       __ZN12LiCompositor12isSilhouetteE11PCBlendMode, __ZN12LiCompositor17setBackgroundNodeERK5HGRefI6HGNodeE, 
                       __ZN12LiCompositor9getHeliumER7LiAgent, __ZN12LiCompositor9isStencilE11PCBlendMode, 
                       __ZN12LiCompositorC1Ev, __ZN12LiCompositorC2Ev, __ZN12LiCompositorD1Ev, 
                       __ZN12LiCompositorD2Ev, __ZN12LiDropShadow11getBoundaryER7LiAgentP6PCRectIdE, 
                       __ZN12LiDropShadow13filteredEdgesEv, __ZN12LiDropShadow21pixelTransformSupportERK18LiRenderParameters, 
                       __ZN12LiDropShadow8copyFromEPKS_, __ZN12LiDropShadow9getHeliumER7LiAgent, 
                       __ZN12LiDropShadowC1Ev, __ZN12LiDropShadowC2Ev, __ZN12LiDropShadowD0Ev, 
                       __ZN12LiDropShadowD1Ev, __ZN12LiDropShadowD2Ev, __ZN12LiEmptyImage20estimateRenderMemoryERNSt3__13setI9PCHash128NS0_4lessIS2_EENS0_9allocatorIS2_EEEE, 
                       __ZN12LiHeEdgeMask10RenderTileEP6HGTile, __ZN12LiHeEdgeMask12setThicknessERK7HGArrayIfL8HGFormat7EE, 
                       __ZN12LiHeEdgeMask6GetDODEP10HGRendereri6HGRect, __ZN12LiHeEdgeMask6GetROIEP10HGRendereri6HGRect, 
                       __ZN12LiHeEdgeMask8setLinesERK7HGArrayI7HGVec3fL8HGFormat21EE, 
                       __ZN12LiHeEdgeMask9setFilterERK7HGArrayIfL8HGFormat7EE, __ZN12LiHeEdgeMaskC1Ev, 
                       __ZN12LiHeEdgeMaskC2Ev, __ZN12LiHeEdgeMaskD0Ev, __ZN12LiHeEdgeMaskD1Ev, 
                       __ZN12LiHeEdgeMaskD2Ev, __ZN12LiHeliumNode17fixPixelTransformER7LiAgentP14PCMatrix44TmplIdERK18LiRenderParameters, 
                       __ZN12LiHeliumNode20estimateRenderMemoryERNSt3__13setI9PCHash128NS0_4lessIS2_EENS0_9allocatorIS2_EEEE, 
                       __ZN12LiHeliumNode9getHeliumER7LiAgent, __ZN12LiHeliumNodeC1Ev, 
                       __ZN12LiHeliumNodeC2Ev, __ZN12LiMaskDrawer12getBlendModeEv, 
                       __ZN12LiMaskDrawer4drawER9LiBlender, __ZN12LiMaskDrawer4dumpERK8LiString, 
                       __ZN12LiMaskDrawer4nameEv, __ZN12LiMaskDrawer7addSeamEP6LiSeam, 
                       __ZN12LiMaskDrawer7defocusEP14PCMatrix44TmplIdEP9LiDofInfo, 
                       __ZN12LiMaskDrawer7getMaskEP10HGRenderer, __ZN12LiMaskDrawer7holdOutEP6LiSeamP17LiDrawerCollector, 
                       __ZN12LiMaskDrawer8getPlaneEv, __ZN12LiMaskDrawer8isPlanarEv, 
                       __ZN12LiMaskDrawer8setPlaneERK9PCVector4IdE, __ZN12LiMaskDrawer9getBoundsEv, 
                       __ZN12LiMaskDrawer9intersectEP14LiIntersection, __ZN12LiMaskDrawerC1EP8LiDrawer, 
                       __ZN12LiMaskDrawerC1EP8LiDrawerP6LiSeam, __ZN12LiMaskDrawerC2EP8LiDrawer, 
                       __ZN12LiMaskDrawerC2EP8LiDrawerP6LiSeam, __ZN12LiMaskDrawerD0Ev, 
                       __ZN12LiMaskDrawerD1Ev, __ZN12LiMaskDrawerD2Ev, __ZN12LiNodeDrawer12getBlendModeEv, 
                       __ZN12LiNodeDrawer20projectBoundsToPlaneEv, __ZN12LiNodeDrawer4drawER9LiBlender, 
                       __ZN12LiNodeDrawer4dumpERK8LiString, __ZN12LiNodeDrawer4nameEv, 
                       __ZN12LiNodeDrawer7defocusEP14PCMatrix44TmplIdEP9LiDofInfo, 
                       __ZN12LiNodeDrawer8getPlaneEv, __ZN12LiNodeDrawer8isPlanarEv, 
                       __ZN12LiNodeDrawer8setPlaneERK9PCVector4IdE, __ZN12LiNodeDrawer9getBoundsEv, 
                       __ZN12LiNodeDrawer9intersectEP14LiIntersection, __ZN12LiNodeDrawerC1ERK5HGRefI6HGNodeERK9LiPolygond11PCBlendModebP8LiDrawer, 
                       __ZN12LiNodeDrawerC1ERKS_, __ZN12LiNodeDrawerC2ERK5HGRefI6HGNodeERK9LiPolygond11PCBlendModebP8LiDrawer, 
                       __ZN12LiNodeDrawerC2ERKS_, __ZN12LiNodeDrawerD0Ev, __ZN12LiNodeDrawerD1Ev, 
                       __ZN12LiNodeDrawerD2Ev, __ZN12LiPlaneSplit5clearEv, __ZN12LiPlaneSplit5storeEv, 
                       __ZN12LiPlaneSplit7computeEv, __ZN12LiPlaneSplitC1Ev, __ZN12LiPlaneSplitC2Ev, 
                       __ZN12LiSoftShadowC1ERK5HGRefI6HGNodeEbdbRK14PCMatrix44TmplIdES8_S8_RK6PCRectIdEb, 
                       __ZN12LiSoftShadowC2ERK5HGRefI6HGNodeEbdbRK14PCMatrix44TmplIdES8_S8_RK6PCRectIdEb, 
                       __ZN12LiSolidGroup4makeEv, __ZN12LiSolidUtils11copyTextureERN5ProGL2GLEjiij, 
                       __ZN12LiSolidUtils15hasTransparencyERN5ProGL2GLERKNS0_13TextureHandleE, 
                       __ZN12LiSolidUtils15summedAreaTableERN5ProGL2GLEji, __ZN12LiSolidUtils16createRedTextureERN5ProGL2GLEjj, 
                       __ZN12LiSolidUtils16getJitterTextureERN5ProGL2GLE, __ZN12LiSolidUtils18createColorTextureERN5ProGL2GLEjji, 
                       __ZN12LiSolidUtils18createDepthTextureERN5ProGL2GLEjj, __ZN12LiSolidUtils19getBoundsOfGeometryEP13LiSceneObject, 
                       __ZN12LiSolidUtils19getBoundsOfGeometryEP13LiSceneObjectRK14PCMatrix44TmplIdE, 
                       __ZN12LiSolidUtils20compositeColorPassesERN5ProGL2GLEiPKjiij, 
                       __ZN12LiSolidUtils20preferredColorFormatEv, __ZN12LiSolidUtils22anyTransparencyInSceneEP13LiSceneObject, 
                       __ZN12LiSolidUtils22getTransparencyPercentERN5ProGL2GLERKNS0_13TextureHandleEd, 
                       __ZN12LiSolidUtils24drawRectWithDepthTextureERN5ProGL2GLE6PCRectIfEjj9PCVector2IfE, 
                       __ZN12LiSolidUtils24drawRectWithDepthTextureERN5ProGL2GLE9PCVector2IfES4_S4_S4_jjS4_, 
                       __ZN12LiSolidUtils25createLean1MapFromBumpMapERK5HGRefI6HGNodeE, 
                       __ZN12LiSolidUtils25createLean2MapFromBumpMapERK5HGRefI6HGNodeE, 
                       __ZN12LiSolidUtils26copyTextureRectToTexture2DERN5ProGL2GLEjRK6PCRectIdE, 
                       __ZN12LiSolidUtils26createBumpMapFromHeightMapERK5HGRefI6HGNodeEiidb9PCVector3IfE, 
                       __ZN12LiSolidUtils26createBumpMapFromHeightMapERKN5ProGL13TextureHandleEdbP12HGGLRenderer9PCVector3IfE, 
                       __ZN12LiSolidUtils26createBumpMapFromNormalMapERK5HGRefI6HGNodeEb, 
                       __ZN12LiSolidUtils26createBumpMapFromNormalMapERKN5ProGL13TextureHandleEbP12HGGLRenderer, 
                       __ZN12LiSolidUtils26createColorTextureWithDataERN5ProGL2GLEjjijjPKv, 
                       __ZN12LiSolidUtils28createMultisampleColorBufferERN5ProGL2GLEPjjjj, 
                       __ZN12LiSolidUtils28createMultisampleColorBufferERN5ProGL2GLEjjj, 
                       __ZN12LiSolidUtils28createMultisampleDepthBufferERN5ProGL2GLEPjjjj, 
                       __ZN12LiSolidUtils28createMultisampleDepthBufferERN5ProGL2GLEjjj, 
                       __ZN12LiSolidUtils29getTransparencyPercent_MIPMAPERN5ProGL2GLERKNS0_13TextureHandleEd, 
                       __ZN12LiSolidUtils32copyTextureRectToTexture2DMipmapERN5ProGL2GLEjRK6PCRectIdE, 
                       __ZN12LiSolidUtils4blurERN5ProGL2GLEjiiidbb, __ZN12LiSolidUtils8drawRectERN5ProGL2GLE6PCRectIfEj9PCVector2IfE, 
                       __ZN12LiSolidUtils8drawRectERN5ProGL2GLE9PCVector2IfES4_S4_S4_jS4_, 
                       __ZN12LiSolidUtils9depthBlurERN5ProGL2GLERK14LiSolidDofInfojjii, 
                       __ZN12OZAudioLayer10parseBeginER22PCSerializerReadStream, 
                       __ZN12OZAudioLayer12parseElementER22PCSerializerReadStreamR15PCStreamElement, 
                       __ZN12OZAudioLayer13copyLinkedIDsERK11OZSceneNodej, __ZN12OZAudioLayer15end_descendantsEv, 
                       __ZN12OZAudioLayer15updateLinkedIDsEPNSt3__13mapIjjNS0_4lessIjEENS0_9allocatorINS0_4pairIKjjEEEEEE, 
                       __ZN12OZAudioLayer16removeDescendantEP11OZSceneNode, __ZN12OZAudioLayer17begin_descendantsEv, 
                       __ZN12OZAudioLayer17copyLinkedObjectsERK11OZSceneNodeP11OZPasteListbj, 
                       __ZN12OZAudioLayer18addDescendantAfterEP11OZSceneNodeS1_, 
                       __ZN12OZAudioLayer18getNaturalDurationEv, __ZN12OZAudioLayer19addDescendantBeforeEP11OZSceneNodeS1_, 
                       __ZN12OZAudioLayer20getDescendantAtIndexEj, __ZN12OZAudioLayer8parseEndER22PCSerializerReadStream, 
                       __ZN12OZAudioLayer9allowDragEP13OZFactoryBaseP13OZChannelBasejPjS4_j, 
                       __ZN12OZAudioLayer9openMediaEv, __ZN12OZAudioLayer9writeBodyER23PCSerializerWriteStreambbb, 
                       __ZN12OZAudioLayerC1EP9OZFactoryRK8PCStringj, __ZN12OZAudioLayerC1ERKS_j, 
                       __ZN12OZAudioLayerC2EP9OZFactoryRK8PCStringj, __ZN12OZAudioLayerC2ERKS_j, 
                       __ZN12OZAudioLayerD0Ev, __ZN12OZAudioLayerD1Ev, __ZN12OZAudioLayerD2Ev, 
                       __ZN12OZAudioLayeraSERK11OZSceneNode, __ZN12OZChannelRef12readFromDataEPvi, 
                       __ZN12OZChannelRef5setIDEj, __ZN12OZChannelRefC1EPK13OZChannelBaseS2_, 
                       __ZN12OZChannelRefC1ERK8PCString, __ZN12OZChannelRefC1ERKS_, 
                       __ZN12OZChannelRefC1Ev, __ZN12OZChannelRefC2EPK13OZChannelBaseS2_, 
                       __ZN12OZChannelRefC2ERK8PCString, __ZN12OZChannelRefC2ERKS_, 
                       __ZN12OZChannelRefC2Ev, __ZN12OZChannelRefD1Ev, __ZN12OZChannelRefD2Ev, 
                       __ZN12OZChannelRefaSEPKc, __ZN12OZChannelRefaSERK8PCString, 
                       __ZN12OZChannelRefaSERKS_, __ZN12OZFontFamilyC1ERK8PCStringS2_, 
                       __ZN12OZFontFamilyC2ERK8PCStringS2_, __ZN12OZFontFamilyD1Ev, 
                       __ZN12OZFontFamilyD2Ev, __ZN12OZGradient1D12getHeliumLUTEP12CGColorSpace, 
                       __ZN12OZGradient1D24getHeliumGradientTextureEP12CGColorSpace, 
                       __ZN12OZGradient1D24getHeliumGradientTextureER14PCMatrix44TmplIdERKdRK9PCVector2IdES8_P12CGColorSpace, 
                       __ZN12OZGradient1DC1ER17OZChannelGradientiP12CGColorSpace, 
                       __ZN12OZGradient1DC1ERKS_, __ZN12OZGradient1DC2ER17OZChannelGradientiP12CGColorSpace, 
                       __ZN12OZGradient1DC2ERKS_, __ZN12OZGradient1DD0Ev, __ZN12OZGradient1DD1Ev, 
                       __ZN12OZGradient1DD2Ev, __ZN12OZLiHeFilter17fixPixelTransformER7LiAgentP14PCMatrix44TmplIdERK18LiRenderParameters, 
                       __ZN12OZLiHeFilter20estimateRenderMemoryERNSt3__13setI9PCHash128NS0_4lessIS2_EENS0_9allocatorIS2_EEEE, 
                       __ZN12OZLiHeFilter21pixelTransformSupportERK18LiRenderParameters, 
                       __ZN12OZLiHeFilter9getHeliumER7LiAgent, __ZN12OZLiHeFilterC1EP8OZEffectRK14OZRenderParamsb, 
                       __ZN12OZLiHeFilterC2EP8OZEffectRK14OZRenderParamsb, __ZN12OZMetalUtils10registryIDE15HGMTLDeviceType, 
                       __ZN12OZNodeCamera11setAnimTimeEd, __ZN12OZNodeCamera14setIsAnimatingEb, 
                       __ZN12OZNodeCamera6updateEv, __ZN12OZNodeCamera9fitToViewEjj, 
                       __ZN12OZNodeCameraC1EP7OZScenejP13OZViewerState, __ZN12OZNodeCameraC2EP7OZScenejP13OZViewerState, 
                       __ZN12OZSplineNode11getMaxValueEb, __ZN12OZSplineNode11getMinValueEb, 
                       __ZN12OZSplineNode12createSplineEv, __ZN12OZSplineNode12getMaxValueUEv, 
                       __ZN12OZSplineNode12getMinValueUEv, __ZN12OZSplineNode12getUForValueEdRNSt3__16vectorI7FigTimeNS0_9allocatorIS2_EEEER11PCTimeRangeRS2_j, 
                       __ZN12OZSplineNode13allocOZSplineEP8OZSpline, __ZN12OZSplineNode14getNeededRangeEP16OZCurveNodeParam, 
                       __ZN12OZSplineNode15getCurrentRangeEv, __ZN12OZSplineNode5resetEv, 
                       __ZN12OZSplineNode8setValueERK7FigTimedb, __ZN12OZSplineNode9cloneNodeEv, 
                       __ZN12OZSplineNode9solveNodeER16OZCurveNodeParam, __ZN12OZSplineNode9solveNodeERK7FigTimedd, 
                       __ZN12OZSplineNodeC1EP7OZCurve, __ZN12OZSplineNodeC1EP8OZSplineP7OZCurve, 
                       __ZN12OZSplineNodeC1ERKS_P7OZCurve, __ZN12OZSplineNodeC2EP7OZCurve, 
                       __ZN12OZSplineNodeC2EP8OZSplineP7OZCurve, __ZN12OZSplineNodeC2ERKS_P7OZCurve, 
                       __ZN12OZSplineNodeD0Ev, __ZN12OZSplineNodeD1Ev, __ZN12OZSplineNodeD2Ev, 
                       __ZN12OZSplineNodeaSERKS_, __ZN12OZTimeMarker10parseBeginER22PCSerializerReadStream, 
                       __ZN12OZTimeMarker11writeHeaderER23PCSerializerWriteStreamb, 
                       __ZN12OZTimeMarker12parseElementER22PCSerializerReadStreamR15PCStreamElement, 
                       __ZN12OZTimeMarker29markFactoriesForSerializationER23PCSerializerWriteStreamb, 
                       __ZN12OZTimeMarker8parseEndER22PCSerializerReadStream, __ZN12OZTimeMarker9writeBodyER23PCSerializerWriteStreambbb, 
                       __ZN12OZTimeMarkerC1E7FigTime, __ZN12OZTimeMarkerC1ERK11PCTimeRangeRK8PCStringS5_i16OZTimeMarkerType, 
                       __ZN12OZTimeMarkerC1ERKS_, __ZN12OZTimeMarkerC1Ev, __ZN12OZTimeMarkerC2E7FigTime, 
                       __ZN12OZTimeMarkerC2ERK11PCTimeRangeRK8PCStringS5_i16OZTimeMarkerType, 
                       __ZN12OZTimeMarkerC2ERKS_, __ZN12OZTimeMarkerC2Ev, __ZN12OZTimeMarkerD0Ev, 
                       __ZN12OZTimeMarkerD1Ev, __ZN12OZTimeMarkerD2Ev, __ZN12OZTimeMarkeraSERKS_, 
                       __ZN12PCArray_base13gnomesortImplEPviiPFiPKvS2_E, __ZN12PCArray_base8badIndexEv, 
                       __ZN12PCICCProfile11setUpHeaderEiiiiii, __ZN12PCICCProfile16parseProfileDataEPKhm, 
                       __ZN12PCICCProfile19setColorSpaceOfDataEj, __ZN12PCICCProfile6addTagERK8PCICCTag, 
                       __ZN12PCICCProfile9clearTagsEv, __ZN12PCICCProfile9getHeaderEv, 
                       __ZN12PCICCProfileC1EP12CGColorSpace, __ZN12PCICCProfileC1EPKhm, 
                       __ZN12PCICCProfileC1Ev, __ZN12PCICCProfileC2EP12CGColorSpace, 
                       __ZN12PCICCProfileC2EPKhm, __ZN12PCICCProfileC2Ev, __ZN12PCVertexListC1ERNSt3__16vectorI9PCVector2IdENS0_9allocatorIS3_EEEE, 
                       __ZN12PCVertexListC2ERNSt3__16vectorI9PCVector2IdENS0_9allocatorIS3_EEEE, 
                       __ZN12PMStripField9GetOutputEP10HGRenderer, __ZN12PMStripFieldC1ENS_5FieldE, 
                       __ZN12PMStripFieldC2ENS_5FieldE, __ZN12PMStripFieldD0Ev, __ZN12PMStripFieldD1Ev, 
                       __ZN12PMStripFieldD2Ev, __ZN12PMTimeMarkerC1ERKS_, __ZN12PMTimeMarkerC2ERKS_, 
                       __ZN12PMTimeMarkerD1Ev, __ZN12PMTimeMarkerD2Ev, __ZN12PMTimeMarkeraSERKS_, 
                       __ZN12PSHeliumNode10RenderPageEP6HGPage, __ZN12PSHeliumNode10RenderTileEP6HGTile, 
                       __ZN12PSHeliumNode11setGradientER5PCPtrI18OZGLGradientRadialE, 
                       __ZN12PSHeliumNode12SetParameterEiffff, __ZN12PSHeliumNode12initGradientER17OZChannelGradient7FigTime, 
                       __ZN12PSHeliumNode14renderParticleEP6HGPageRN5ProGL2GLERKNS_6SpriteE, 
                       __ZN12PSHeliumNode15RenderPageMetalEP6HGPage, __ZN12PSHeliumNode15addLineParticleERK9PCVector3IdES3_RK20PCWorkingColorVectorb, 
                       __ZN12PSHeliumNode16addImageParticleEP14PCMatrix44TmplIdENSt3__110shared_ptrI8PCBitmapEERK6PCRectIdERK20PCWorkingColorVectorb, 
                       __ZN12PSHeliumNode16addImageParticleEP14PCMatrix44TmplIdENSt3__110shared_ptrI9PGTextureEERK6PCRectIdERK20PCWorkingColorVectorb, 
                       __ZN12PSHeliumNode16addImageParticleEP14PCMatrix44TmplIdERK5HGRefI6HGNodeERK6PCRectIdERK20PCWorkingColorVectorb, 
                       __ZN12PSHeliumNode16addImageParticleEP14PCMatrix44TmplIdERKNSt3__110shared_ptrI14PGMetalTextureEERK6PCRectIdERK20PCWorkingColorVectorb, 
                       __ZN12PSHeliumNode16addPointParticleERK9PCVector3IdEfRK20PCWorkingColorVectorb, 
                       __ZN12PSHeliumNode16setMetalGradientERK5PCPtrI21OZMetalGradientRadialE, 
                       __ZN12PSHeliumNode17addCircleParticleEP14PCMatrix44TmplIdERK6PCRectIdERK20PCWorkingColorVectorb, 
                       __ZN12PSHeliumNode17addRadialParticleEP14PCMatrix44TmplIdERK6PCRectIdERK20PCWorkingColorVectorb, 
                       __ZN12PSHeliumNode18PointSpriteBatcher3addERKNS_6SpriteE, 
                       __ZN12PSHeliumNode18PointSpriteBatcher5flushEv, __ZN12PSHeliumNode18addOutlineParticleEP14PCMatrix44TmplIdERK6PCRectIdERK20PCWorkingColorVectorb, 
                       __ZN12PSHeliumNode19renderParticleMetalEP6HGPageP14HGMetalHandlerRKNS_6SpriteE, 
                       __ZN12PSHeliumNode20TextureSpriteBatcher3addERKNS_6SpriteE, 
                       __ZN12PSHeliumNode20TextureSpriteBatcher5flushEv, __ZN12PSHeliumNode20pullAllInputTexturesEP6HGPage, 
                       __ZN12PSHeliumNode20setNumberOfParticlesEj, __ZN12PSHeliumNode21SpriteBatchController3addERKNS_6SpriteE, 
                       __ZN12PSHeliumNode21SpriteBatchController5flushEv, __ZN12PSHeliumNode21SpriteBatchControllerC1EP6HGPageP14HGMetalHandlerPS_, 
                       __ZN12PSHeliumNode21SpriteBatchControllerC2EP6HGPageP14HGMetalHandlerPS_, 
                       __ZN12PSHeliumNode21setObjectToFilmMatrixER14PCMatrix44TmplIdE, 
                       __ZN12PSHeliumNode22commonImageSpriteSetupEPNS_6SpriteEP14PCMatrix44TmplIdERK6PCRectIdERK20PCWorkingColorVectorb, 
                       __ZN12PSHeliumNode22renderLineParticlePageEP6HGPageRN5ProGL2GLERKNS_6SpriteE, 
                       __ZN12PSHeliumNode22renderLineParticleTileEP6HGTileRKNS_6SpriteE, 
                       __ZN12PSHeliumNode23renderImageParticlePageEP6HGPageRN5ProGL2GLERKNS_6SpriteE, 
                       __ZN12PSHeliumNode23renderImageParticleTileEP6HGTileRKNS_6SpriteE, 
                       __ZN12PSHeliumNode23renderPointParticlePageEP6HGPageRN5ProGL2GLERKNS_6SpriteE, 
                       __ZN12PSHeliumNode23renderPointParticleTileEP6HGTileRKNS_6SpriteE, 
                       __ZN12PSHeliumNode23updateHandlerWithSpriteEP14HGMetalHandlerRKNS_6SpriteE, 
                       __ZN12PSHeliumNode24commonRenderMetalTextureEP6HGPageP14HGMetalHandlerRKNS_6SpriteERK5HGRefI14HGMetalTextureE, 
                       __ZN12PSHeliumNode24convertTexturesToBitmapsEv, __ZN12PSHeliumNode24renderBitmapParticlePageEP6HGPageRN5ProGL2GLERKNS_6SpriteE, 
                       __ZN12PSHeliumNode24renderCircleParticlePageEP6HGPageRN5ProGL2GLERKNS_6SpriteE, 
                       __ZN12PSHeliumNode24renderCircleParticleTileEP6HGTileRKNS_6SpriteE, 
                       __ZN12PSHeliumNode24renderRadialParticlePageEP6HGPageRN5ProGL2GLERKNS_6SpriteE, 
                       __ZN12PSHeliumNode24renderRadialParticleTileEP6HGTileRKNS_6SpriteE, 
                       __ZN12PSHeliumNode25bindMetalProgramForSpriteEP6HGPageP14HGMetalHandlerRKNS_6SpriteE, 
                       __ZN12PSHeliumNode25renderOutlineParticlePageEP6HGPageRN5ProGL2GLERKNS_6SpriteE, 
                       __ZN12PSHeliumNode25renderOutlineParticleTileEP6HGTileRKNS_6SpriteE, 
                       __ZN12PSHeliumNode27renderLineParticlePageMetalEP6HGPageP14HGMetalHandlerRKNS_6SpriteE, 
                       __ZN12PSHeliumNode28renderImageParticlePageMetalEP6HGPageP14HGMetalHandlerRKNS_6SpriteE, 
                       __ZN12PSHeliumNode29renderBitmapParticlePageMetalEP6HGPageP14HGMetalHandlerRKNS_6SpriteE, 
                       __ZN12PSHeliumNode29renderCircleParticlePageMetalEP6HGPageP14HGMetalHandlerRKNS_6SpriteE, 
                       __ZN12PSHeliumNode29renderRadialParticlePageMetalEP6HGPageP14HGMetalHandlerRKNS_6SpriteE, 
                       __ZN12PSHeliumNode30renderOutlineParticlePageMetalEP6HGPageP14HGMetalHandlerRKNS_6SpriteE, 
                       __ZN12PSHeliumNode31commonRenderTextureParticlePageEP6HGPageRN5ProGL2GLERKNS_6SpriteE, 
                       __ZN12PSHeliumNode6GetDODEP10HGRendereri6HGRect, __ZN12PSHeliumNode6GetROIEP10HGRendereri6HGRect, 
                       __ZN12PSHeliumNode7setClipERK9LiClipSet, __ZN12PSHeliumNode8SetStateEP10HGRendereri, 
                       __ZN12PSHeliumNode9preRenderEv, __ZN12PSHeliumNodeC1ERK14OZRenderParams, 
                       __ZN12PSHeliumNodeC2ERK14OZRenderParams, __ZN12PSHeliumNodeD0Ev, 
                       __ZN12PSHeliumNodeD1Ev, __ZN12PSHeliumNodeD2Ev, __ZN12PSPaintPType13simAddObjectsEP17OZSystemSimulatorR15OZSimStateArrayd, 
                       __ZN12PSPaintPType14endInteractiveEv, __ZN12PSPaintPType14preRenderFrameERK14OZRenderParamsR12PSHeliumNode, 
                       __ZN12PSPaintPType14simShouldCacheEv, __ZN12PSPaintPType15addRadialSpriteERN9PSEmitter12RenderParamsEP10PSParticleR17OZSimStateElementR12PSHeliumNode, 
                       __ZN12PSPaintPType15cacheSourceNodeEv, __ZN12PSPaintPType15getIsImageBrushEv, 
                       __ZN12PSPaintPType15getSourceRenderERK14OZRenderParamsRK7FigTimeb, 
                       __ZN12PSPaintPType15simFlushedCacheEP17OZSystemSimulator, 
                       __ZN12PSPaintPType16beginInteractiveEv, __ZN12PSPaintPType16calcHashForStateER23PCSerializerWriteStreamRK14OZRenderParamsRNSt3__14listIP19OZObjectManipulatorNS5_9allocatorIS8_EEEE, 
                       __ZN12PSPaintPType16createPaintPTypeERK8PCStringj, __ZN12PSPaintPType16getIsSpacingEvenERK7FigTime, 
                       __ZN12PSPaintPType17birthAllParticlesER15OZSimStateArrayP10PSParticlej, 
                       __ZN12PSPaintPType17disableSourceNodeEv, __ZN12PSPaintPType17getParticleBoundsER17OZSimStateElementRK13OZRenderStateP6PCRectIdE, 
                       __ZN12PSPaintPType19createBrushGradientEP12CGColorSpace, __ZN12PSPaintPType19getIsWidthSequencedERK7FigTimeb, 
                       __ZN12PSPaintPType20estimateRenderMemoryERKN9PSEmitter12RenderParamsER17OZSimStateElementRNSt3__13setI9PCHash128NS6_4lessIS8_EENS6_9allocatorIS8_EEEE, 
                       __ZN12PSPaintPType20performDragOperationEP13OZFactoryBaseP13OZChannelBasejjjjRK7FigTime, 
                       __ZN12PSPaintPType21addBornParticlesToSimER15OZSimStateArrayP10PSParticlej, 
                       __ZN12PSPaintPType21getIsImageBrushCachedEv, __ZN12PSPaintPType21initAllEmissionPointsERK7FigTimejPP10PSParticlePj, 
                       __ZN12PSPaintPType21simAnythingToSimulateEv, __ZN12PSPaintPType21willGetParticleBoundsEv, 
                       __ZN12PSPaintPType22birthParticlesInStrokeEddddR15OZSimStateArrayP10PSParticlej, 
                       __ZN12PSPaintPType23birthAndAddAllParticlesER15OZSimStateArrayP10PSParticlej, 
                       __ZN12PSPaintPType23getAllSequenceBehaviorsERK7FigTimePNSt3__16vectorIP18PSSequenceBehaviorNS3_9allocatorIS6_EEEE, 
                       __ZN12PSPaintPType23getInitialParticleColorERK7FigTimeP10PSParticlejP7PCColor, 
                       __ZN12PSPaintPType23getInitialParticleScaleERK7FigTimeP10PSParticlejP9PCVector2IdES7_, 
                       __ZN12PSPaintPType23getRadialParticleMatrixERK13OZRenderStateP10PSParticleR17OZSimStateElementR14PCMatrix44TmplIdEPS8_b, 
                       __ZN12PSPaintPType23simIsFlushingSuppressedEv, __ZN12PSPaintPType24createMetalBrushGradientEP12CGColorSpace, 
                       __ZN12PSPaintPType24interactiveSimAddObjectsEP17OZSystemSimulatorR15OZSimStateArrayd, 
                       __ZN12PSPaintPType24updateGradientStringNameEb, __ZN12PSPaintPType25applyAllSequenceBehaviorsERK7FigTimePK10PSParticleR17PSSequencedValues, 
                       __ZN12PSPaintPType25getAvailableBrushGradientEP12CGColorSpace, 
                       __ZN12PSPaintPType25getGradientParticleBoundsER17OZSimStateElementRK13OZRenderStateP6PCRectIdE, 
                       __ZN12PSPaintPType25getWidthOverStrokeSamplesERK7FigTimejPd, 
                       __ZN12PSPaintPType25updateRotationStringNamesEv, __ZN12PSPaintPType26addProjectedParticleBoundsERKN9PSEmitter12RenderParamsER17OZSimStateElementR6PCRectIdE, 
                       __ZN12PSPaintPType26getInitialParticleRotationERK7FigTimeP10PSParticlej, 
                       __ZN12PSPaintPType28birthAndAddParticlesInStrokeEddR15OZSimStateArrayP10PSParticlej, 
                       __ZN12PSPaintPType28estimateRenderMemoryBallparkERK14OZRenderParamsPb, 
                       __ZN12PSPaintPType28getIsSpacingConstantOverTimeEv, __ZN12PSPaintPType29getNumEmissionPointsAndOrdersERK7FigTimePNSt3__16vectorIdNS3_9allocatorIdEEEE, 
                       __ZN12PSPaintPType30applyAllScaleOverLifeBehaviorsERK7FigTimeS2_S2_R9PCVector3IdE, 
                       __ZN12PSPaintPType30getAvailableMetalBrushGradientEP12CGColorSpace, 
                       __ZN12PSPaintPType34addProjectedGradientParticleBoundsERKN9PSEmitter12RenderParamsER17OZSimStateElementR6PCRectIdE, 
                       __ZN12PSPaintPType8getPaintEv, __ZN12PSPaintPType8parseEndER22PCSerializerReadStream, 
                       __ZN12PSPaintPType9addSpriteERN9PSEmitter12RenderParamsEP10PSParticleR17OZSimStateElementR12PSHeliumNode, 
                       __ZN12PSPaintPType9getBoundsEP6PCRectIdERK13OZRenderState, 
                       __ZN12PSPaintPTypeC1EP9OZFactoryRK8PCStringj, __ZN12PSPaintPTypeC1ERS_j, 
                       __ZN12PSPaintPTypeC2EP9OZFactoryRK8PCStringj, __ZN12PSPaintPTypeC2ERS_j, 
                       __ZN12PSPaintPTypeD0Ev, __ZN12PSPaintPTypeD1Ev, __ZN12PSPaintPTypeD2Ev, 
                       __ZN12PSPaintPTypeaSERK11OZSceneNode, __ZN12PSReplicator11getFillSeedEP14PSParticleType, 
                       __ZN12PSReplicator12initChannelsEv, __ZN12PSReplicator15updateShapeEnumEb, 
                       __ZN12PSReplicator16createReplicatorERK8PCStringj, __ZN12PSReplicator18createParticleTypeEP11OZImageNode, 
                       __ZN12PSReplicator24shouldDrawEmissionPointsEv, __ZN12PSReplicator24updateEmitterHiddenFlagsEb, 
                       __ZN12PSReplicator25updateReplicatorShapeEnumEb, __ZN12PSReplicator30isRenderingOldestParticleFirstEv, 
                       __ZN12PSReplicator8parseEndER22PCSerializerReadStream, __ZN12PSReplicatorC1EP9OZFactoryRK8PCStringj, 
                       __ZN12PSReplicatorC1ERKS_j, __ZN12PSReplicatorC2EP9OZFactoryRK8PCStringj, 
                       __ZN12PSReplicatorC2ERKS_j, __ZN12PSReplicatorD0Ev, __ZN12PSReplicatorD1Ev, 
                       __ZN12PSReplicatorD2Ev, __ZN12PSReplicatoraSERK11OZSceneNode, 
                       __ZN12PSShaderBase13getNumSourcesEv, __ZN12PSShaderBase2idEv, 
                       __ZN12PSShaderBase3logEv, __ZN12PSShaderBase6sourceEv, __ZN12PSShaderBase7compileEv, 
                       __ZN12PSShaderBase9getSourceEi, __ZN12PSShaderBase9setSourceERK8PCStringi, 
                       __ZN12PSShaderBaseC2ERKS_, __ZN12PSShaderBaseC2Ev, __ZN12PSShaderBaseD0Ev, 
                       __ZN12PSShaderBaseD1Ev, __ZN12PSShaderBaseD2Ev, __ZN12ProCore_Impl11PCNSRefImpl5resetEv, 
                       __ZN12ProCore_Impl11PCNSRefImplaSEOS0_, __ZN12ProCore_Impl11PCNSRefImplaSERKS0_, 
                       __ZN12RandMersenne7SetSeedEm, __ZN12RandMersenneC1Ev, __ZN12RandMersenneC2Ev, 
                       __ZN12RandMersenneD0Ev, __ZN12RandMersenneD1Ev, __ZN12RandMersenneD2Ev, 
                       __ZN12RetimingMath11figToFramesERK7FigTimeS2_, __ZN12RetimingMath11framesToFigEdRK7FigTime, 
                       __ZN12RetimingMath14ReverseFunctorC1Edd, __ZN12RetimingMath14ReverseFunctorC2Edd, 
                       __ZN12RetimingMath20getReverseOfIntervalEddddRNS_11IntervalSetIdEE, 
                       __ZN12RetimingMath21ChannelSegmentVisitor11visitBezierER8OZSplinePvS3_ddddd, 
                       __ZN12RetimingMath21ChannelSegmentVisitor11visitEaseInER8OZSplinePvS3_ddddd, 
                       __ZN12RetimingMath21ChannelSegmentVisitor11visitLinearER8OZSplinePvS3_ddddd, 
                       __ZN12RetimingMath21ChannelSegmentVisitor12visitEaseOutER8OZSplinePvS3_ddddd, 
                       __ZN12RetimingMath21ChannelSegmentVisitor13visitConstantEddd, 
                       __ZN12RetimingMath21ChannelSegmentVisitor13visitSegmentsERK15OZChannelDoubleddRS0_, 
                       __ZN12RetimingMath21ChannelSegmentVisitor15visitCatmullRomER8OZSplinePvS3_ddddd, 
                       __ZN12RetimingMath21ChannelSegmentVisitor16visitExponentialER8OZSplinePvS3_ddddd, 
                       __ZN12RetimingMath21ChannelSegmentVisitor16visitLogarithmicER8OZSplinePvS3_ddddd, 
                       __ZN12RetimingMath21ChannelSegmentVisitorC1ERK7FigTime, __ZN12RetimingMath21ChannelSegmentVisitorC2ERK7FigTime, 
                       __ZN12RetimingMath21ChannelSegmentVisitorD0Ev, __ZN12RetimingMath21ChannelSegmentVisitorD1Ev, 
                       __ZN12RetimingMath21ChannelSegmentVisitorD2Ev, __ZN12RetimingMath22getReverseOutputValuesERKNS_11IntervalSetIdEEddRS1_, 
                       __ZN12RetimingMath22objectTimeToInputIndexEdRK16OZCurveNodeParamRK7FigTime, 
                       __ZN12RetimingMath23ChannelOutputValuesUtil11mapPingPongEdddbRb, 
                       __ZN12RetimingMath23ChannelOutputValuesUtil15getOutputValuesERK15OZChannelDoubleRKNS_11IntervalSetIdEERK7FigTimeRS5_, 
                       __ZN12RetimingMath23ChannelOutputValuesUtil15getOutputValuesERK15OZChannelDoubleddRK7FigTimeRNS_11IntervalSetIdEE, 
                       __ZN12RetimingMath23ChannelOutputValuesUtil20mapProgressiveRepeatEdddbRl, 
                       __ZN12RetimingMath23ChannelOutputValuesUtil9mapRepeatEdddb, 
                       __ZN12RetimingMath32addLeftSubintervalToOutputValuesEdddRNS_11IntervalSetIdEE, 
                       __ZN12RetimingMath33addRightSubintervalToOutputValuesEdddRNS_11IntervalSetIdEE, 
                       __ZN12RetimingMath33addRightSubintervalToOutputValuesEddddRNS_11IntervalSetIdEE, 
                       __ZN12RetimingMath7reverseEddd, __ZN12TXGlowFilter9getHeliumER7LiAgent, 
                       __ZN12TXGlyphGroupC1E7PCPlaneIdEjP14PCMatrix44TmplIdE, __ZN12TXGlyphGroupC2E7PCPlaneIdEjP14PCMatrix44TmplIdE, 
                       __ZN12TXGlyphGroupD1Ev, __ZN12TXGlyphGroupD2Ev, __ZN12TXHeliumNode10GetProgramEP10HGRenderer, 
                       __ZN12TXHeliumNode10RenderPageEP6HGPage, __ZN12TXHeliumNode10RenderTileEP6HGTile, 
                       __ZN12TXHeliumNode12SetParameterEiffff, __ZN12TXHeliumNode15RenderPageMetalEP6HGPage, 
                       __ZN12TXHeliumNode15preRenderGlyphsEP6HGPage, __ZN12TXHeliumNode18computeGlyphBoundsEP6HGPageiPNSt3__13mapIj6PCRectIiENS2_4lessIjEENS2_9allocatorINS2_4pairIKjS5_EEEEEE, 
                       __ZN12TXHeliumNode20preRenderGlyphsMetalEP6HGPage, __ZN12TXHeliumNode21renderWithHeliumGraphEP6HGPage, 
                       __ZN12TXHeliumNode23renderWithSingleTextureEP6HGPage, __ZN12TXHeliumNode28renderWithSingleTextureMetalEP6HGPageP14HGMetalHandler, 
                       __ZN12TXHeliumNode6GetDODEP10HGRendereri6HGRect, __ZN12TXHeliumNode6GetROIEP10HGRendereri6HGRect, 
                       __ZN12TXHeliumNode6SetDODERK6HGRect, __ZN12TXHeliumNode8SetStateEP10HGRendereri, 
                       __ZN12TXHeliumNodeC1EP12CGColorSpace, __ZN12TXHeliumNodeC2EP12CGColorSpace, 
                       __ZN12TXHeliumNodeD0Ev, __ZN12TXHeliumNodeD1Ev, __ZN12TXHeliumNodeD2Ev, 
                       __ZN12TXTextLayout10cacheImageERK14OZRenderParamsR7LiAgentP5HGRefI6HGNodeER6PCRectIiERNSt3__110shared_ptrI7PCImageEE9PCHash128, 
                       __ZN12TXTextLayout10canReflectEv, __ZN12TXTextLayout10copyLayoutERKS_, 
                       __ZN12TXTextLayout10deleteThisEP13OZChannelBase, __ZN12TXTextLayout10parseBeginER22PCSerializerReadStream, 
                       __ZN12TXTextLayout10prerollEndERK14OZRenderParamsR14PMFrameRequest, 
                       __ZN12TXTextLayout10resetStateEv, __ZN12TXTextLayout11getBaselineER9PCVector2IdES2_RK13OZRenderState, 
                       __ZN12TXTextLayout11getHardLineEm, __ZN12TXTextLayout11getMaterialEj, 
                       __ZN12TXTextLayout11getNumWordsEv, __ZN12TXTextLayout11getPositionERK7FigTimeRKj, 
                       __ZN12TXTextLayout11isLineBreakEm, __ZN12TXTextLayout11isLineBreakEmPmj, 
                       __ZN12TXTextLayout11isWordStartEj, __ZN12TXTextLayout11removeStyleERKNSt3__110shared_ptrI7OZStyleEE, 
                       __ZN12TXTextLayout11setPathTypeEj, __ZN12TXTextLayout11setPositionERK7FigTimeRKjRK9PCVector3IdE, 
                       __ZN12TXTextLayout11setTabToPosEjd, __ZN12TXTextLayout12applyAllCapsEP10__CFString, 
                       __ZN12TXTextLayout12cacheMarginsEi, __ZN12TXTextLayout12clearFontMapEv, 
                       __ZN12TXTextLayout12cycleTabTypeEj, __ZN12TXTextLayout12doLineLayoutEjdRK13OZRenderState, 
                       __ZN12TXTextLayout12doTypeLayoutEPK8__CTLineP16TXParagraphStyleRK8PCStringP20__CFAttributedStringdRK13OZRenderState, 
                       __ZN12TXTextLayout12enableScrollEb, __ZN12TXTextLayout12getGlowOrderEP12TXTextObject, 
                       __ZN12TXTextLayout12getLineIndexEj, __ZN12TXTextLayout12getSelectionER8PCString, 
                       __ZN12TXTextLayout12getWordIndexEj, __ZN12TXTextLayout12getWordRangeEjb, 
                       __ZN12TXTextLayout12parseElementER22PCSerializerReadStreamR15PCStreamElement, 
                       __ZN12TXTextLayout12parseRTFFileE5PCURL, __ZN12TXTextLayout12prerollBeginERK14OZRenderParamsR14PMFrameRequestdP13FFPrerollSync, 
                       __ZN12TXTextLayout12scrollPageUpERK13OZRenderState, __ZN12TXTextLayout12setPathShapeEj, 
                       __ZN12TXTextLayout12setSelectionEmm, __ZN12TXTextLayout12setTabToTypeEj9TXTabType, 
                       __ZN12TXTextLayout13addFillSourceE5PCPtrI13LiImageSourceEP12TXTextObjectR14OZRenderParamsibdddd, 
                       __ZN12TXTextLayout13didAddToSceneEP7OZScene, __ZN12TXTextLayout13didToggleIs3DEbb, 
                       __ZN12TXTextLayout13getLineBoundsEm7FigTimeb, __ZN12TXTextLayout13getLineOffsetEj, 
                       __ZN12TXTextLayout13getLineVolumeEm7FigTimeb, __ZN12TXTextLayout13getPathLengthE7FigTime, 
                       __ZN12TXTextLayout13getResolutionERdS0_RK13OZRenderState, 
                       __ZN12TXTextLayout13getTextObjectEm, __ZN12TXTextLayout13getWordBoundsEmb, 
                       __ZN12TXTextLayout13getWordVolumeEmb, __ZN12TXTextLayout13isGlowEnabledERK7FigTime, 
                       __ZN12TXTextLayout13isPrecomposedERK7FigTime, __ZN12TXTextLayout13resetKerningsEv, 
                       __ZN12TXTextLayout13unlockMarginsEv, __ZN12TXTextLayout14addNewMaterialEP14OZMaterialBase, 
                       __ZN12TXTextLayout14addToRectCacheE9PCHash1286PCRectIdE, __ZN12TXTextLayout14calcStaticHashER23PCSerializerWriteStreamRNSt3__14listIP19OZObjectManipulatorNS2_9allocatorIS5_EEEE, 
                       __ZN12TXTextLayout14calcStaticHashER23PCSerializerWriteStreamRNSt3__14listIP19OZObjectManipulatorNS2_9allocatorIS5_EEEEb, 
                       __ZN12TXTextLayout14clearStyleRunsEv, __ZN12TXTextLayout14doMotionLayoutERK13OZRenderState, 
                       __ZN12TXTextLayout14getCachedImageEP12TXTextObjectR14OZRenderParamsjbRK14PCMatrix44TmplIdES7_RNSt3__110shared_ptrI7PCImageEER9PCHash128RdSF_R6PCRectIiE, 
                       __ZN12TXTextLayout14getLineOffsetsEjPmS0_, __ZN12TXTextLayout14getLocalVolumeEP5PCBoxIdERK13OZRenderState, 
                       __ZN12TXTextLayout14getPagePercentERK13OZRenderState, __ZN12TXTextLayout14getPrecompTypeE7FigTime, 
                       __ZN12TXTextLayout14getTokensImageERK14OZRenderParamsRKNSt3__16vectorINS3_4pairI7FigTimeNS4_IS6_NS3_9allocatorIS6_EEEEEENS7_ISA_EEEER14PMFrameRequest, 
                       __ZN12TXTextLayout14insertStyleRunERKNSt3__110shared_ptrI11TXTextStyleEERK7PCRangeIjE, 
                       __ZN12TXTextLayout14printStyleInfoEv, __ZN12TXTextLayout14pruneAllTokensEPKc, 
                       __ZN12TXTextLayout14scheduleTokensERK14OZRenderParamsRKNSt3__16vectorINS3_4pairI7FigTimeNS4_IS6_NS3_9allocatorIS6_EEEEEENS7_ISA_EEEER14PMFrameRequestPNS4_IP15FFScheduleTokenNS7_ISI_EEEE, 
                       __ZN12TXTextLayout14scrollPageDownERK13OZRenderState, __ZN12TXTextLayout14updateStyleRunEP14TXTextStyleRun, 
                       __ZN12TXTextLayout15buildGlyphGeodeER13LiImageSourceRK14OZRenderParamsRK18OZRenderGraphStateRK12TXTextObject, 
                       __ZN12TXTextLayout15buildSolidSceneERK14OZRenderParamsP14LiGraphBuilderRK18OZRenderGraphState, 
                       __ZN12TXTextLayout15canApplyKerningEv, __ZN12TXTextLayout15clearParagraphsEv, 
                       __ZN12TXTextLayout15didChangeStringEv, __ZN12TXTextLayout15doResetMaterialEj, 
                       __ZN12TXTextLayout15getCursorOriginERdS0_, __ZN12TXTextLayout15getDirectOffsetERK9PCVector2IfERK13OZRenderStatePbP8LiCamerajS7_, 
                       __ZN12TXTextLayout15getEnableScrollEv, __ZN12TXTextLayout15getOutlineOrderEP12TXTextObject, 
                       __ZN12TXTextLayout15getPathPositionEdd7FigTimebR9PCVector3IdERdS4_S4_bS3_, 
                       __ZN12TXTextLayout15getPathRotationERK7FigTimeRKj, __ZN12TXTextLayout15getRangeRegionsERK16TXSelectionRangeR14OZRenderParamsRNSt3__16vectorI8OZQuad3DNS5_9allocatorIS7_EEEEb, 
                       __ZN12TXTextLayout15glyphSelectLineEjb, __ZN12TXTextLayout15glyphSelectWordEjb, 
                       __ZN12TXTextLayout15initializePathsERK6PCRectIdE, __ZN12TXTextLayout15isAllWhitespaceEv, 
                       __ZN12TXTextLayout15isColorAnimatedER21OZChannelColorNoAlphaR16OZChannelPercentjjj, 
                       __ZN12TXTextLayout15selectAllGlyphsEv, __ZN12TXTextLayout15setLayoutMethodEi, 
                       __ZN12TXTextLayout15setPathRotationERK7FigTimeRKjRK9PCVector3IdE, 
                       __ZN12TXTextLayout16_lastLineLeadingEv, __ZN12TXTextLayout16buildRenderGraphER14OZRenderParamsP14LiGraphBuilderRK18OZRenderGraphState, 
                       __ZN12TXTextLayout16calcHashForStateER23PCSerializerWriteStreamRK14OZRenderParamsRNSt3__14listIP19OZObjectManipulatorNS5_9allocatorIS8_EEEE, 
                       __ZN12TXTextLayout16calcHashForStateER23PCSerializerWriteStreamRK14OZRenderParamsRNSt3__14listIP19OZObjectManipulatorNS5_9allocatorIS8_EEEEb, 
                       __ZN12TXTextLayout16clearGlyphGroupsEv, __ZN12TXTextLayout16debugTextObjectsEv, 
                       __ZN12TXTextLayout16didReplaceStringEv, __ZN12TXTextLayout16didResetMaterialEj, 
                       __ZN12TXTextLayout16getDisplayStringEv, __ZN12TXTextLayout16getStylesInRangeERNSt3__14listINS0_10shared_ptrI11TXTextStyleEENS0_9allocatorIS4_EEEERK7PCRangeIjE, 
                       __ZN12TXTextLayout16getWordEndOffsetEjb, __ZN12TXTextLayout16interlockMarginsEb, 
                       __ZN12TXTextLayout16invalidateLayoutEv, __ZN12TXTextLayout16leftCursorOffsetEmRm, 
                       __ZN12TXTextLayout16makeGaussianBlurERKNSt3__110shared_ptrI12TXTextObjectEER14OZRenderParamsdd, 
                       __ZN12TXTextLayout16prepareForRenderERK14OZRenderParams, __ZN12TXTextLayout16printTextObjectsEv, 
                       __ZN12TXTextLayout16setCachedMarginsEi, __ZN12TXTextLayout16suggestLineBreakEPK14__CTTypesetterlld, 
                       __ZN12TXTextLayout16updateLineBreaksEv, __ZN12TXTextLayout16updateStyleNamesEv, 
                       __ZN12TXTextLayout16updateTextStylesEv, __ZN12TXTextLayout16useCurrentLocaleEv, 
                       __ZN12TXTextLayout17acceptsShapeMasksEv, __ZN12TXTextLayout17cacheMetalTextureERK14OZRenderParamsR7LiAgentP5HGRefI6HGNodeER6PCRectIiE9PCHash128PS5_I14HGMetalTextureE, 
                       __ZN12TXTextLayout17centerAnchorPointEdb, __ZN12TXTextLayout17createTextureNodeERKNSt3__110shared_ptrI7PCImageEEP12HGGLRendererRK9PCVector2IiE, 
                       __ZN12TXTextLayout17didUndoLastChangeEv, __ZN12TXTextLayout17doParagraphLayoutEP16TXParagraphStyleRK8PCStringP20__CFAttributedStringdRK13OZRenderState, 
                       __ZN12TXTextLayout17getNextLineOffsetEj, __ZN12TXTextLayout17getNextWordOffsetEj, 
                       __ZN12TXTextLayout17getOriginalBoundsEP6PCRectIdERK13OZRenderState, 
                       __ZN12TXTextLayout17getSequencedColorERK7FigTimeRK7PCColord, 
                       __ZN12TXTextLayout17getTypographicBoxEP5PCBoxIdERK13OZRenderStateb, 
                       __ZN12TXTextLayout17hasDependantNodesEv, __ZN12TXTextLayout17initializeNormalsEv, 
                       __ZN12TXTextLayout17insertEffectAfterEP8OZEffectS1_, __ZN12TXTextLayout17isPathInitializedEv, 
                       __ZN12TXTextLayout17moveMaterialLayerEjjjj, __ZN12TXTextLayout17pruneTokensAtTimeE7FigTimePKc, 
                       __ZN12TXTextLayout17rightCursorOffsetEmRm, __ZN12TXTextLayout17setCursorPositionERK9PCVector2IfERK13OZRenderStateP8LiCameraP14PCMatrix44TmplIdE, 
                       __ZN12TXTextLayout17setCursorPositionEm, __ZN12TXTextLayout17setGlyphSelectionEmm, 
                       __ZN12TXTextLayout17setMarginDefaultsEv, __ZN12TXTextLayout17setScrollPositionEdb, 
                       __ZN12TXTextLayout17willResetMaterialEj, __ZN12TXTextLayout18anythingToSimulateERK7FigTime, 
                       __ZN12TXTextLayout18buildHGNodeForFaceERKNSt3__110shared_ptrI12TXTextObjectEER14OZRenderParamsR7LiAgentNS1_I13TXHeliumGlyphEEjbR14PCMatrix44TmplIdESE_SE_SE_28TXTextObjectRenderPropertiesPfbb, 
                       __ZN12TXTextLayout18buildHGNodeForGlowERKNSt3__110shared_ptrI12TXTextObjectEER14OZRenderParamsR7LiAgentNS1_I13TXHeliumGlyphEEjbR14PCMatrix44TmplIdESE_SE_SE_Pfb, 
                       __ZN12TXTextLayout18computeLineOffsetsEjjPmS0_S0_, __ZN12TXTextLayout18computeTotalHeightERK13OZRenderState, 
                       __ZN12TXTextLayout18computeWordIndicesEv, __ZN12TXTextLayout18getAlignmentOffsetERdS0_RK13OZRenderState, 
                       __ZN12TXTextLayout18getKerningAtCursorEv, __ZN12TXTextLayout18getMissingFontKindEiRiR8PCString, 
                       __ZN12TXTextLayout18getMissingFontNameEiRiR8PCString, __ZN12TXTextLayout18getNaturalDurationEv, 
                       __ZN12TXTextLayout18getNewCursorOffsetEmRmb, __ZN12TXTextLayout18getProjectedBoundsEP6PCRectIdERK14PCMatrix44TmplIdERK13OZRenderState, 
                       __ZN12TXTextLayout18getSelectionBoundsEP6PCRectIdERK13OZRenderState, 
                       __ZN12TXTextLayout18getStringTokenizerEv, __ZN12TXTextLayout18getWordStartOffsetEjb, 
                       __ZN12TXTextLayout18readContentsOfFileE5PCURL, __ZN12TXTextLayout18scaleToBothMarginsERK13OZRenderState, 
                       __ZN12TXTextLayout18setKerningAtCursorEd, __ZN12TXTextLayout18setParagraphBoundsERK6PCRectIdE, 
                       __ZN12TXTextLayout18shouldCacheTextureE6PCRectIdEiRKNSt3__110shared_ptrIK15HGComputeDeviceEE, 
                       __ZN12TXTextLayout19addNewMaterialLayerEP19OZMaterialLayerBasej, 
                       __ZN12TXTextLayout19addNewMaterialLayerEP19OZMaterialLayerBasejj, 
                       __ZN12TXTextLayout19addToMetalRectCacheE9PCHash1286PCRectIdE, 
                       __ZN12TXTextLayout19adjustTrixBaselinesEd, __ZN12TXTextLayout19cacheTextureOrImageERK14OZRenderParamsR7LiAgentP5HGRefI6HGNodeER6PCRectIiE9PCHash128bPNSt3__110shared_ptrI7PCImageEEPS5_I14HGMetalTextureE, 
                       __ZN12TXTextLayout19calcMarginScaleHashERK7FigTime, __ZN12TXTextLayout19computeTypeOnFactorEj7FigTime, 
                       __ZN12TXTextLayout19deleteMaterialLayerEjj, __ZN12TXTextLayout19deletePathKeypointsEv, 
                       __ZN12TXTextLayout19dirtyTextAndObjectsEb, __ZN12TXTextLayout19generateGlyphPlanesERK14OZRenderParamsbbdd, 
                       __ZN12TXTextLayout19getHardLineAtCursorEv, __ZN12TXTextLayout19getHighlightRegionsER14OZRenderParamsRNSt3__16vectorI8OZQuad3DNS2_9allocatorIS4_EEEE, 
                       __ZN12TXTextLayout19getKerningsForRangeERK7PCRangeIlERNSt3__13mapIldNS4_4lessIlEENS4_9allocatorINS4_4pairIKldEEEEEE, 
                       __ZN12TXTextLayout19getScrollableHeightE13OZRenderState, __ZN12TXTextLayout19getSequencedOpacityER16OZChannelPercentS1_RK7FigTimedd, 
                       __ZN12TXTextLayout19getTextHashForStateER23PCSerializerWriteStreamRK14OZRenderParamsRNSt3__14listIP19OZObjectManipulatorNS5_9allocatorIS8_EEEEb, 
                       __ZN12TXTextLayout19getTrackingForRangeERK7PCRangeIlERK7FigTimeRNSt3__13mapIldNS7_4lessIlEENS7_9allocatorINS7_4pairIKldEEEEEE, 
                       __ZN12TXTextLayout19hintTokensWillImageERK14OZRenderParamsRKNSt3__16vectorINS3_4pairI7FigTimeNS4_IS6_NS3_9allocatorIS6_EEEEEENS7_ISA_EEEER14PMFrameRequest, 
                       __ZN12TXTextLayout19isBiggerThanMarginsEddRK13OZRenderState, 
                       __ZN12TXTextLayout19makeLayeredMaterialERK14OZRenderParamsRK18OZRenderGraphStateP17OZLayeredMaterialRK7FigTimeRK14PCMatrix44TmplIdESE_P12TXTextObject15LiMaterialAlphaR20OZMaterialStatistics, 
                       __ZN12TXTextLayout19setLocaleIdentifierEPK10__CFString, __ZN12TXTextLayout19shiftKerningsToLeftEv, 
                       __ZN12TXTextLayout19shrinkDownToOneLineEdRK13OZRenderState, 
                       __ZN12TXTextLayout19updateDisplayStringERK7FigTime, __ZN12TXTextLayout19willDeleteFromSceneEP7OZScene, 
                       __ZN12TXTextLayout19willRemoveFromSceneEP7OZScene, __ZN12TXTextLayout20buildBackgroundGeodeER14OZRenderParamsRK18OZRenderGraphState, 
                       __ZN12TXTextLayout20buildHGNodesForLayerEjR14OZRenderParamsR7LiAgentRK5HGRefI6HGNodeERjRNSt3__16vectorINSA_10shared_ptrI12TXTextObjectEENSA_9allocatorISE_EEEEb, 
                       __ZN12TXTextLayout20cacheColorConversionER7PCColorP14PCWorkingColorN17PCColorSpaceCache2IDES5_, 
                       __ZN12TXTextLayout20checkParagraphStylesEv, __ZN12TXTextLayout20colorConversionCacheEv, 
                       __ZN12TXTextLayout20createParagraphStyleEjjP18NSAttributedString, 
                       __ZN12TXTextLayout20getAlignmentAtCursorEv, __ZN12TXTextLayout20getBoundsForHitCheckEP6PCRectIdERK13OZRenderState, 
                       __ZN12TXTextLayout20getComposedCharacterEj, __ZN12TXTextLayout20getTypographicBoundsEP6PCRectIdERK13OZRenderStatebb, 
                       __ZN12TXTextLayout20joinStyleRunsInRangeERK7PCRangeIjE, __ZN12TXTextLayout20lineIndexToCharIndexEj, 
                       __ZN12TXTextLayout20performDragOperationEP13OZFactoryBaseP13OZChannelBasejjjjRK7FigTime, 
                       __ZN12TXTextLayout20printParagraphStylesEv, __ZN12TXTextLayout20setAlignmentAtCursorEdb, 
                       __ZN12TXTextLayout20setGeodeProperties3DERK14OZRenderParamsRK18OZRenderGraphStateP7LiGeode, 
                       __ZN12TXTextLayout20updateHiddenChannelsEb, __ZN12TXTextLayout20wordIndexToCharIndexEj, 
                       __ZN12TXTextLayout21buildHGNodeForOutlineERKNSt3__110shared_ptrI12TXTextObjectEER14OZRenderParamsR7LiAgentNS1_I13TXHeliumGlyphEEjbR14PCMatrix44TmplIdESE_SE_SE_RbPfb, 
                       __ZN12TXTextLayout21buildSolidRenderGraphERK14OZRenderParamsP14LiGraphBuilderRK18OZRenderGraphState, 
                       __ZN12TXTextLayout21cloneBehaviorsEffectsERK11OZSceneNodej, 
                       __ZN12TXTextLayout21deleteMaterialAtIndexEjb, __ZN12TXTextLayout21deleteUnusedMaterialsEv, 
                       __ZN12TXTextLayout21didChangeChannelStateEP13OZChannelBase, 
                       __ZN12TXTextLayout21didFinishInitializingEb, __ZN12TXTextLayout21doLayoutForParagraphsEdRK13OZRenderState, 
                       __ZN12TXTextLayout21getAnchorPositionTagsERj, __ZN12TXTextLayout21getCachedMetalTextureEP12TXTextObjectR14OZRenderParamsR7LiAgentjbRK14PCMatrix44TmplIdES9_R9PCHash128RdSC_R6PCRectIiEP5HGRefI14HGMetalTextureEb, 
                       __ZN12TXTextLayout21getComposedCharactersERK13OZRenderState, 
                       __ZN12TXTextLayout21getLineSpacingChannelEv, __ZN12TXTextLayout21getPreviousLineOffsetEj, 
                       __ZN12TXTextLayout21getPreviousWordOffsetEj, __ZN12TXTextLayout21getSelectedAlignmentsEPNSt3__16vectorIiNS0_9allocatorIiEEEEb, 
                       __ZN12TXTextLayout21getSelectedTextObjectEv, __ZN12TXTextLayout21getSeqPosScaleForCharEj7FigTime, 
                       __ZN12TXTextLayout21hitCheckWithTransformERK9PCVector2IfERK13OZRenderStatePK8LiCameraR9PCVector3IdEjbP14PCMatrix44TmplIdE, 
                       __ZN12TXTextLayout21isLayoutChangeAllowedEv, __ZN12TXTextLayout21makeRenderImageSourceER14OZRenderParamsRK18OZRenderGraphStateb, 
                       __ZN12TXTextLayout21performLayoutWithPathERK7FigTime, __ZN12TXTextLayout21pixelTransformSupportERK18LiRenderParameters, 
                       __ZN12TXTextLayout21scaleEmojiToCapHeightEv, __ZN12TXTextLayout21scrollToFitCharOffsetEjbd, 
                       __ZN12TXTextLayout21selectMaterialAtIndexEj, __ZN12TXTextLayout21setATSUSoftLineBreaksEv, 
                       __ZN12TXTextLayout21setAllParagraphsDirtyEv, __ZN12TXTextLayout21shouldDrawGradientOSCEv, 
                       __ZN12TXTextLayout21shouldRenumberChannelEP13OZChannelBase, 
                       __ZN12TXTextLayout21splitStyleRunsInRangeERK7PCRangeIjE, __ZN12TXTextLayout21updateStringTokenizerEv, 
                       __ZN12TXTextLayout21workingColorFromColorER7PCColorN17PCColorSpaceCache2IDES3_Rb, 
                       __ZN12TXTextLayout22GetGlyphCountForStringERK8PCString, __ZN12TXTextLayout22createAttributedStringERK7FigTimeb, 
                       __ZN12TXTextLayout22createSnapSetForCameraEP8LiCameraPNSt3__13setI6OZSnapNS2_4lessIS4_EENS2_9allocatorIS4_EEEERK13OZRenderStatebb, 
                       __ZN12TXTextLayout22doLayoutForEmptyStringEv, __ZN12TXTextLayout22getGlyphSelectedStylesERNSt3__14listINS0_10shared_ptrI11TXTextStyleEENS0_9allocatorIS4_EEEE, 
                       __ZN12TXTextLayout22getKerningAtCharOffsetEl, __ZN12TXTextLayout22getLineSpacingChannelsEPNSt3__16vectorIP15OZChannelDoubleNS0_9allocatorIS3_EEEE, 
                       __ZN12TXTextLayout22getTextObjectWithIndexEj, __ZN12TXTextLayout22rebuildParagraphStylesEv, 
                       __ZN12TXTextLayout22setCursorDrawingOffsetEmm, __ZN12TXTextLayout22setKerningAtCharOffsetEdl, 
                       __ZN12TXTextLayout22setShrinkToMarginsTypeE21TXShrinkToMarginsType, 
                       __ZN12TXTextLayout22timeGlyphPropertiesMapEv, __ZN12TXTextLayout23TXTextLayout_radiusImpl20_TXTextLayout_radiusE, 
                       __ZN12TXTextLayout23TXTextLayout_radiusInfo24_TXTextLayout_radiusInfoE, 
                       __ZN12TXTextLayout23addCaretInsertionPointsEPK20__CFAttributedString7CFRangeP16TXParagraphStyleRNSt3__16vectorImNS6_9allocatorImEEEE, 
                       __ZN12TXTextLayout23buildSceneObjectForFaceERK14OZRenderParamsRK18OZRenderGraphStateRKNSt3__110shared_ptrI12TXTextObjectEE, 
                       __ZN12TXTextLayout23buildSceneObjectForGlowERK14OZRenderParamsRK18OZRenderGraphStateRKNSt3__110shared_ptrI12TXTextObjectEE, 
                       __ZN12TXTextLayout23clearAllDirectionalRunsEb, __ZN12TXTextLayout23clearInvalidTextObjectsEv, 
                       __ZN12TXTextLayout23deselectMaterialAtIndexEj, __ZN12TXTextLayout23getCachedTextureOrImageEP12TXTextObjectR14OZRenderParamsR7LiAgentjbRK14PCMatrix44TmplIdES9_R9PCHash128RdSC_R6PCRectIiEbPNSt3__110shared_ptrI7PCImageEEP5HGRefI14HGMetalTextureEb, 
                       __ZN12TXTextLayout23getCursorRectForNewlineEP12TXTextObjectRK7FigTime, 
                       __ZN12TXTextLayout23getJustificationChannelEv, __ZN12TXTextLayout23getLiImageSourceForFaceER14OZRenderParamsRKNSt3__110shared_ptrI12TXTextObjectEERK14PCWorkingColorPbb, 
                       __ZN12TXTextLayout23getLiImageSourceForGlowER14OZRenderParamsRKNSt3__110shared_ptrI12TXTextObjectEERK14PCWorkingColorddPbb, 
                       __ZN12TXTextLayout23getNumberOfMissingFontsEv, __ZN12TXTextLayout23getPathNumberOfVerticesEv, 
                       __ZN12TXTextLayout23initializeScrollMarginsEv, __ZN12TXTextLayout23initializeTickerMarginsEv, 
                       __ZN12TXTextLayout23isPathNormalInitializedEv, __ZN12TXTextLayout23prepareForDragOperationEP11OZPasteListP13OZChannelBasejj, 
                       __ZN12TXTextLayout23pruneTokensExceptAtTimeE7FigTimePKc, __ZN12TXTextLayout23recomputeGlyphPositionsERK14OZRenderParams, 
                       __ZN12TXTextLayout23setGlyphGeodePropertiesERK14OZRenderParamsRK18OZRenderGraphStateP7LiGeode, 
                       __ZN12TXTextLayout23shouldCheckTextureCacheEPK12TXTextObjectR14OZRenderParamsj, 
                       __ZN12TXTextLayout24TXTextLayout_versionImpl21_TXTextLayout_versionE, 
                       __ZN12TXTextLayout24applyFontToAllTextStylesEP8NSString, __ZN12TXTextLayout24applyTypeOnToTextObjectsERK7FigTime, 
                       __ZN12TXTextLayout24buildHGNodeForDropShadowERKNSt3__110shared_ptrI12TXTextObjectEER14OZRenderParamsR7LiAgentNS1_I13TXHeliumGlyphEEjbR14PCMatrix44TmplIdESE_SE_SE_Pfb, 
                       __ZN12TXTextLayout24buildRenderGraphForLayerERK14OZRenderParamsRK18OZRenderGraphStateiRji, 
                       __ZN12TXTextLayout24forceFCPInspectorRebuildEv, __ZN12TXTextLayout24getBoundsForLinkBehaviorERK13OZRenderState, 
                       __ZN12TXTextLayout24getCurrentParagraphStyleEv, __ZN12TXTextLayout24getCurrentSelectionStyleEPb, 
                       __ZN12TXTextLayout24getStyleAtInsertionPointEj, __ZN12TXTextLayout24getVisibleCharacterRangeERK7FigTime, 
                       __ZN12TXTextLayout24isLinkBehaviorTextSourceEv, __ZN12TXTextLayout24linesFitInParagraphWidthEd, 
                       __ZN12TXTextLayout24removeFromGlyphSelectionEj, __ZN12TXTextLayout24setFocusedGlyphSelectionEm, 
                       __ZN12TXTextLayout24setNameOfMaterialAtIndexERK8PCStringjbb, 
                       __ZN12TXTextLayout24shrinkToLeftRightMarginsERK13OZRenderState, 
                       __ZN12TXTextLayout24shrinkToTopBottomMarginsEdRK13OZRenderState, 
                       __ZN12TXTextLayout24singleLineScaleThresholdEv, __ZN12TXTextLayout24stripUnsupportedXMLCharsERK8PCString, 
                       __ZN12TXTextLayout24wordsFitInParagraphWidthEd, __ZN12TXTextLayout25TXTextLayout_rectSizeImpl22_TXTextLayout_rectSizeE, 
                       __ZN12TXTextLayout25TXTextLayout_rectSizeInfo26_TXTextLayout_rectSizeInfoE, 
                       __ZN12TXTextLayout25TXTextLayout_trackingImpl22_TXTextLayout_trackingE, 
                       __ZN12TXTextLayout25TXTextLayout_trackingInfo26_TXTextLayout_trackingInfoE, 
                       __ZN12TXTextLayout25computeCaretInsertionInfoEPK20__CFAttributedStringP16TXParagraphStyle, 
                       __ZN12TXTextLayout25didFinishLoadingIntoSceneEv, __ZN12TXTextLayout25getClosestParagraphOffsetEjd, 
                       __ZN12TXTextLayout25getComposedCharacterIndexEj, __ZN12TXTextLayout25getCursorPositionAtOriginER9PCVector3IdES2_, 
                       __ZN12TXTextLayout25getCustomGradientChannelsEPNSt3__16vectorIP12OZChannelRefNS0_9allocatorIS3_EEEE, 
                       __ZN12TXTextLayout25getLocalVolumeForHitCheckEP5PCBoxIdERK13OZRenderState, 
                       __ZN12TXTextLayout25getPathPositionOnGeometryEP11OZRotoshapedd7FigTimebR9PCVector3IdERdS6_S6_, 
                       __ZN12TXTextLayout25getScrollPositionInPixelsEv, __ZN12TXTextLayout25getSrcObjectStringRequestEv, 
                       __ZN12TXTextLayout25getTextObjectScaleFromMapERdS0_S0_j, __ZN12TXTextLayout25hasCustomGradientChannelsEv, 
                       __ZN12TXTextLayout25makeHGTextureOrBitmapNodeERNSt3__110shared_ptrI7PCImageEERK5HGRefI14HGMetalTextureER14OZRenderParamsR6PCRectIiER7LiAgentb, 
                       __ZN12TXTextLayout25makeRenderGraphOfElementsER14OZRenderParamsP14LiGraphBuilderRK18OZRenderGraphStateb, 
                       __ZN12TXTextLayout25outlineNodeFromTextObjectERKNSt3__110shared_ptrI12TXTextObjectEER14OZRenderParamsR7LiAgentRbdb14PCWorkingColorP14PCMatrix44TmplIdEP6PCRectIiE, 
                       __ZN12TXTextLayout25shrinkToBothMarginsBinaryERK13OZRenderState, 
                       __ZN12TXTextLayout25shrinkToBothMarginsLinearERK13OZRenderState, 
                       __ZN12TXTextLayout25willSplitStyleRunsInRangeERK7PCRangeIjE, 
                       __ZN12TXTextLayout26TXTextLayout_topMarginImpl23_TXTextLayout_topMarginE, 
                       __ZN12TXTextLayout26buildSceneObjectForOutlineERK14OZRenderParamsRK18OZRenderGraphStateRKNSt3__110shared_ptrI12TXTextObjectEE, 
                       __ZN12TXTextLayout26clearStyleRunsWithoutAbortEv, __ZN12TXTextLayout26getLiImageSourceForOutlineER14OZRenderParamsRKNSt3__110shared_ptrI12TXTextObjectEERbRK14PCWorkingColordPbb, 
                       __ZN12TXTextLayout26getTextObjectVolumeFromMapER5PCBoxIdEj, 
                       __ZN12TXTextLayout26hasSequenceCharacterOffsetEv, __ZN12TXTextLayout26restrictImageMaskToStencilEv, 
                       __ZN12TXTextLayout26setRecomputeGlyphPositionsEv, __ZN12TXTextLayout26setSelectedParagraphsDirtyEb, 
                       __ZN12TXTextLayout26updateLineBreaksByHardLineEv, __ZN12TXTextLayout26updateTextStateInParagraphEj, 
                       __ZN12TXTextLayout27TXTextLayout_leftMarginImpl24_TXTextLayout_leftMarginE, 
                       __ZN12TXTextLayout27TXTextLayout_pathOffsetImpl24_TXTextLayout_pathOffsetE, 
                       __ZN12TXTextLayout27TXTextLayout_pathOffsetInfo28_TXTextLayout_pathOffsetInfoE, 
                       __ZN12TXTextLayout27TXTextLayout_showRulersImpl24_TXTextLayout_showRulersE, 
                       __ZN12TXTextLayout27didChangeDisplayAspectRatioEv, __ZN12TXTextLayout27didCreateCopyForCopyOnWriteEv, 
                       __ZN12TXTextLayout27getCurrentStyleForInsertionEv, __ZN12TXTextLayout27getGlyphPositionsInDocumentERK13OZRenderState, 
                       __ZN12TXTextLayout27getStyleRunAtInsertionPointEj, __ZN12TXTextLayout27getTextObjectWithCharOffsetEm, 
                       __ZN12TXTextLayout27setSingleLineScaleThresholdEd, __ZN12TXTextLayout28TXTextLayout_oldTrackingInfo29_TXTextLayout_oldTrackingInfoE, 
                       __ZN12TXTextLayout28TXTextLayout_rightMarginImpl25_TXTextLayout_rightMarginE, 
                       __ZN12TXTextLayout28TXTextLayout_waveDampingImpl25_TXTextLayout_waveDampingE, 
                       __ZN12TXTextLayout28TXTextLayout_waveDampingInfo29_TXTextLayout_waveDampingInfoE, 
                       __ZN12TXTextLayout28applyCTLineDataToTextObjectsEPK8__CTLineP16TXParagraphStylelRK8PCStringPK20__CFAttributedStringdRK13OZRenderState, 
                       __ZN12TXTextLayout28applyFontSizeToAllTextStylesEf, __ZN12TXTextLayout28cachedTextObjectForCharIndexEj, 
                       __ZN12TXTextLayout28doReset3DExtrusionPropertiesEv, __ZN12TXTextLayout28getNumLinesInParagraphBoundsEv, 
                       __ZN12TXTextLayout28invalidateTextObjectsInRangeERK7PCRangeIjE, 
                       __ZN12TXTextLayout28setDisableMipMapsForOutlinesEb, __ZN12TXTextLayout29TXTextLayout_bottomMarginImpl26_TXTextLayout_bottomMarginE, 
                       __ZN12TXTextLayout29_getImageBoundsFromParagraphsERK13OZRenderState, 
                       __ZN12TXTextLayout29_getTopImageBoundForFirstLineERK13OZRenderState, 
                       __ZN12TXTextLayout29applyFontScaleToAllTextStylesEf, __ZN12TXTextLayout29applySequenceCharacterOffsetsEP10__CFStringRK7FigTime, 
                       __ZN12TXTextLayout29areAllSelectedAlignmentsEqualEb, __ZN12TXTextLayout29buildSceneObjectForDropShadowERK14OZRenderParamsRK18OZRenderGraphStateRKNSt3__110shared_ptrI12TXTextObjectEE, 
                       __ZN12TXTextLayout29getCharacterParagraphPositionEjPdS0_, 
                       __ZN12TXTextLayout29getCurrentParagraphStyleIndexEv, __ZN12TXTextLayout29getCursorPositionInLocalSpaceEjR14OZRenderParamsR9PCVector3IdES4_b, 
                       __ZN12TXTextLayout29getHorizontalAlignmentChannelEv, __ZN12TXTextLayout29getLiImageSourceForDropShadowER14OZRenderParamsRKNSt3__110shared_ptrI12TXTextObjectEERK14PCWorkingColorPbb, 
                       __ZN12TXTextLayout29getTransformedSelectionBoundsEP6PCRectIdERK13OZRenderState, 
                       __ZN12TXTextLayout29markFactoriesForSerializationER23PCSerializerWriteStreamb, 
                       __ZN12TXTextLayout29setStringFromAttributedStringEP18NSAttributedStringP12NSDictionary, 
                       __ZN12TXTextLayout30TXTextLayout_waveAmplitudeImpl27_TXTextLayout_waveAmplitudeE, 
                       __ZN12TXTextLayout30TXTextLayout_waveAmplitudeInfo31_TXTextLayout_waveAmplitudeInfoE, 
                       __ZN12TXTextLayout30TXTextLayout_waveFrequencyImpl27_TXTextLayout_waveFrequencyE, 
                       __ZN12TXTextLayout30TXTextLayout_waveFrequencyInfo31_TXTextLayout_waveFrequencyInfoE, 
                       __ZN12TXTextLayout30addMaterialToSequenceBehaviorsEP14OZMaterialBasej, 
                       __ZN12TXTextLayout30applyAllCapsSizeToCharacterSetEP20__CFAttributedStringPK10__CFStringP14NSCharacterSetNSt3__110shared_ptrI11TXTextStyleEERK7CFRangeRK7FigTime, 
                       __ZN12TXTextLayout30areEffectsAppliedInScreenSpaceEv, __ZN12TXTextLayout30dumpComposedCharacterSequencesEv, 
                       __ZN12TXTextLayout30getAlignmentOffsetForParagraphEPK16TXParagraphStylePdS3_iidd, 
                       __ZN12TXTextLayout30getHorizontalAlignmentChannelsEPNSt3__16vectorIP13OZChannelEnumNS0_9allocatorIS3_EEEE, 
                       __ZN12TXTextLayout30getMaterialAssignmentModeValueEv, __ZN12TXTextLayout30getTransformedSelectionCornersEP9PCVector2IdES2_S2_S2_RK13OZRenderState, 
                       __ZN12TXTextLayout30setMaterialAssignmentModeValueEj, __ZN12TXTextLayout30updateStyleRunsAfterTextDeleteEjj, 
                       __ZN12TXTextLayout30updateStyleRunsAfterTextInsertEjj, __ZN12TXTextLayout31TXTextLayout_showScrollBarsImpl28_TXTextLayout_showScrollBarsE, 
                       __ZN12TXTextLayout31computeComposedCharacterIndicesEv, __ZN12TXTextLayout31getGlyphPositionsFromTypesetterERK13OZRenderState, 
                       __ZN12TXTextLayout31getTextObjectIterWithCharOffsetEm, __ZN12TXTextLayout31updateKerningsAfterTextDeletionEll, 
                       __ZN12TXTextLayout32findSelectedGlyphClosestToOffsetEm, __ZN12TXTextLayout32isSrcObjectStringRequestNotEmptyEv, 
                       __ZN12TXTextLayout32isStyleEnabledBySequenceBehaviorEj7FigTime, 
                       __ZN12TXTextLayout32setSrcObjectStringResponseStringERK8PCString, 
                       __ZN12TXTextLayout32updateKerningsAfterTextInsertionEll, __ZN12TXTextLayout33applyTextStylesToAttributedStringEP25NSMutableAttributedStringRK7FigTimejjb, 
                       __ZN12TXTextLayout33buildRenderGraphForLayerAndPlanesERK14OZRenderParamsRK18OZRenderGraphStateiRji, 
                       __ZN12TXTextLayout33createParagraphStylesFromNewLinesEb, __ZN12TXTextLayout33getBoundsIgnoringParagraphMarginsERK13OZRenderState, 
                       __ZN12TXTextLayout33getTypographicBoundsWithAlignmentERK13OZRenderState, 
                       __ZN12TXTextLayout33offsetBoundsBasedOnScrollPositionEP6PCRectIdE, 
                       __ZN12TXTextLayout34applyAllCapsSizeToAttributedStringEP20__CFAttributedStringPK10__CFStringNSt3__110shared_ptrI11TXTextStyleEERK7CFRangeRK7FigTime, 
                       __ZN12TXTextLayout34getIndexOfLastLetterOfWordAtOffsetEj, 
                       __ZN12TXTextLayout34isPunctuationSeparatedByLineBreaksEv, 
                       __ZN12TXTextLayout34validateStyleRunAndParagraphRangesEv, 
                       __ZN12TXTextLayout35createTextStyleFromAttributedStringERKNSt3__110shared_ptrI11TXTextStyleEEP18NSAttributedStringjjPjS8_, 
                       __ZN12TXTextLayout35doesTransformFromLocalToScreenSpaceERK14OZRenderParams, 
                       __ZN12TXTextLayout35getIndexOfFirstLetterOfWordAtOffsetEj, 
                       __ZN12TXTextLayout35getSequenceChannelsForMaterialLayerEii, 
                       __ZN12TXTextLayout35isStyleEnabledByOldSequenceBehaviorEj7FigTime, 
                       __ZN12TXTextLayout35populateTextObjectForCharIndexCacheEv, 
                       __ZN12TXTextLayout35removeMaterialFromSequenceBehaviorsEi, 
                       __ZN12TXTextLayout35updateDisplayStringAndAffectedStateERK7FigTime, 
                       __ZN12TXTextLayout36TXTextLayout_lineSpacingObsoleteInfo37_TXTextLayout_lineSpacingObsoleteInfoE, 
                       __ZN12TXTextLayout36getCharacterOffsetForKerningAtCursorEv, 
                       __ZN12TXTextLayout36getCurrentCursorPositionInLocalSpaceER14OZRenderParamsR9PCVector3IdES4_b, 
                       __ZN12TXTextLayout36performLayoutWithSimulationBehaviorsERK7FigTime, 
                       __ZN12TXTextLayout36setFacetAssignmentForMaterialAtIndexEjj, 
                       __ZN12TXTextLayout36updateParagraphStylesAfterTextDeleteEjj, 
                       __ZN12TXTextLayout36updateParagraphStylesAfterTextInsertEjj, 
                       __ZN12TXTextLayout37dofOrLightingCausesLocalTextToPrecompER14OZRenderParams, 
                       __ZN12TXTextLayout37getTextObjectTypographicVolumeFromMapER5PCBoxIdEj, 
                       __ZN12TXTextLayout38applyParagraphStylesToAttributedStringEP25NSMutableAttributedStringRK7FigTimejj, 
                       __ZN12TXTextLayout38getComposedCharacterIndexWithoutSpacesEj, 
                       __ZN12TXTextLayout38isExtraLineSpacingForDiacriticsEnabledEv, 
                       __ZN12TXTextLayout39updateParagraphStylesAfterNewLineInsertEj, 
                       __ZN12TXTextLayout40_alignTextToParagraphBoxUsingImageBoundsEv, 
                       __ZN12TXTextLayout40getKerningChannelAtCurrentInsertionPointEv, 
                       __ZN12TXTextLayout41applyKerningAndTrackingToAttributedStringEP20__CFAttributedStringRK7FigTimeRK7CFRange, 
                       __ZN12TXTextLayout46applyCustomLayoutInformationToAttributedStringEP25NSMutableAttributedStringRK7FigTime, 
                       __ZN12TXTextLayout47_computeTypographicHeightWithoutLastLineLeadingEv, 
                       __ZN12TXTextLayout50_getDiffBetweenTopImageBoundAndTopTypographicBoundERK13OZRenderState, 
                       __ZN12TXTextLayout55shouldRecomputeGlyphPositionsBecauseChannelsAreAnimatedEv, 
                       __ZN12TXTextLayout5dirtyEv, __ZN12TXTextLayout6createERK8PCStringj, 
                       __ZN12TXTextLayout6doEvalEP13OZChannelBaseRK7FigTime, __ZN12TXTextLayout6getDODER14OZRenderParamsR7LiAgent, 
                       __ZN12TXTextLayout6notifyEj, __ZN12TXTextLayout7getFontERK8PCString, 
                       __ZN12TXTextLayout7getLineEm, __ZN12TXTextLayout7getTabsEv, 
                       __ZN12TXTextLayout7isEmojiEj, __ZN12TXTextLayout7isSpaceEj, 
                       __ZN12TXTextLayout7setNameERK8PCStringb, __ZN12TXTextLayout7setRateERK14OZRenderParamsR14PMFrameRequestd, 
                       __ZN12TXTextLayout8addStyleEPK7OZStyle, __ZN12TXTextLayout8addStyleERKNSt3__110shared_ptrI11TXTextStyleEEb, 
                       __ZN12TXTextLayout8addStyleERKNSt3__110shared_ptrI7OZStyleEE, 
                       __ZN12TXTextLayout8doLayoutERK13OZRenderStateP9PCHash128, 
                       __ZN12TXTextLayout8getStyleEj, __ZN12TXTextLayout8hitCheckERK9PCVector2IfERK13OZRenderStatePK8LiCameraR9PCVector3IdEj, 
                       __ZN12TXTextLayout8parseEndER22PCSerializerReadStream, __ZN12TXTextLayout8setStyleERKNSt3__110shared_ptrI11TXTextStyleEEPb, 
                       __ZN12TXTextLayout9addEffectEP8OZEffectS1_, __ZN12TXTextLayout9addToUndoERK8PCStringi, 
                       __ZN12TXTextLayout9allowDragEP13OZFactoryBaseP13OZChannelBasejPjS4_j, 
                       __ZN12TXTextLayout9deleteTabEd, __ZN12TXTextLayout9deleteTabEj, 
                       __ZN12TXTextLayout9getGlyphsERK13OZRenderState, __ZN12TXTextLayout9getHeliumER14OZRenderParamsRNSt3__16vectorINS2_10shared_ptrI12TXTextObjectEENS2_9allocatorIS6_EEEER7LiAgent, 
                       __ZN12TXTextLayout9getOffsetERK9PCVector2IfERK13OZRenderStatePbP8LiCamerajP14PCMatrix44TmplIdES7_, 
                       __ZN12TXTextLayout9getTypeOnEjRK7FigTime, __ZN12TXTextLayout9insertTabEd, 
                       __ZN12TXTextLayout9insertTabEd9TXTabType, __ZN12TXTextLayout9isWordEndEj, 
                       __ZN12TXTextLayout9openMediaEv, __ZN12TXTextLayout9resetNameEv, 
                       __ZN12TXTextLayout9setLocaleEPK10__CFLocale, __ZN12TXTextLayout9setStringERK8PCStringb, 
                       __ZN12TXTextLayout9setTypeOnEdjRK7FigTime, __ZN12TXTextLayout9writeBodyER23PCSerializerWriteStreambbb, 
                       __ZN12TXTextLayoutC1EP9OZFactoryRK8PCStringj, __ZN12TXTextLayoutC1ERKS_j, 
                       __ZN12TXTextLayoutC2EP9OZFactoryRK8PCStringj, __ZN12TXTextLayoutC2ERKS_j, 
                       __ZN12TXTextLayoutD0Ev, __ZN12TXTextLayoutD1Ev, __ZN12TXTextLayoutD2Ev, 
                       __ZN12TXTextLayoutaSERK11OZSceneNode, __ZN12TXTextObject10getTextureERK14OZRenderParamsbdR14PCMatrix44TmplIdER6PCRectIdERbPv, 
                       __ZN12TXTextObject10kNumStylesE, __ZN12TXTextObject10setGlyphIDEt, 
                       __ZN12TXTextObject10setIsEmojiEb, __ZN12TXTextObject10setUniCharEt, 
                       __ZN12TXTextObject11getFaceBlurE7FigTimePdS1_, __ZN12TXTextObject11getGlowBlurE7FigTimePdS1_, 
                       __ZN12TXTextObject11getHGBitmapERK14OZRenderParamsbdR14PCMatrix44TmplIdEP6PCRectIdEb, 
                       __ZN12TXTextObject11setPositionERK7FigTimeddd, __ZN12TXTextObject11setStyleRunEP14TXTextStyleRun, 
                       __ZN12TXTextObject12getCacheHashER14OZRenderParams, __ZN12TXTextObject12getEyeMatrixER14OZRenderParams, 
                       __ZN12TXTextObject12getFaceColorERK7FigTimedR14PCWorkingColor, 
                       __ZN12TXTextObject12getFaceColorERK7FigTimedR14PCWorkingColorR7PCColorN17PCColorSpaceCache2IDES8_, 
                       __ZN12TXTextObject12getGlowColorE7FigTimedR14PCWorkingColor, 
                       __ZN12TXTextObject12getGlowScaleE7FigTimeRdS1_b, __ZN12TXTextObject13getGlowOffsetE7FigTimeRdS1_b, 
                       __ZN12TXTextObject13getGlowRadiusE7FigTimeRd, __ZN12TXTextObject13isFaceEnabledERK7FigTime, 
                       __ZN12TXTextObject13isFaceVisibleERK7FigTime, __ZN12TXTextObject13isFaceVisibleERK7FigTimeP14PCWorkingColorR7PCColorN17PCColorSpaceCache2IDES8_, 
                       __ZN12TXTextObject13isGlowEnabledE7FigTime, __ZN12TXTextObject13isGlowVisibleE7FigTimeP14PCWorkingColorPdS3_, 
                       __ZN12TXTextObject14getFaceOpacityERK7FigTime, __ZN12TXTextObject14getImageBoundsERK13OZRenderState, 
                       __ZN12TXTextObject14getOutlineBlurE7FigTimePdS1_, __ZN12TXTextObject14getSystemGlyphERK7FigTimeP14TXGlyphRequest, 
                       __ZN12TXTextObject14useCurveShaderEv, __ZN12TXTextObject15getAdvanceWidthERK7FigTime, 
                       __ZN12TXTextObject15getMetalTextureERK14OZRenderParamsbdR14PCMatrix44TmplIdEP12HGGLRendererP6PCRectIdE, 
                       __ZN12TXTextObject15getOutlineColorE7FigTimedR14PCWorkingColor, 
                       __ZN12TXTextObject15getOutlineWidthE7FigTime, __ZN12TXTextObject15getPathPositionER9PCVector3IdEj, 
                       __ZN12TXTextObject15isColorAnimatedEi, __ZN12TXTextObject15setPathRotationERK7FigTimeddd, 
                       __ZN12TXTextObject15setWorkingColorER14PCWorkingColorR7PCColorN17PCColorSpaceCache2IDES5_, 
                       __ZN12TXTextObject16getLayoutRealPosEv, __ZN12TXTextObject16getTextureBoundsERK14OZRenderParamsbdR14PCMatrix44TmplIdEbb, 
                       __ZN12TXTextObject16getUnscaledPivotEPdS0_S0_RK7FigTime, __ZN12TXTextObject16isOutlineEnabledE7FigTime, 
                       __ZN12TXTextObject16isOutlineVisibleE7FigTimeP14PCWorkingColorPd, 
                       __ZN12TXTextObject16setLayoutRealPosEd, __ZN12TXTextObject17buildGlyphRequestERK14OZRenderParamsbdRK14PCMatrix44TmplIdEb, 
                       __ZN12TXTextObject17getDropShadowBlurE7FigTimePdS1_, __ZN12TXTextObject17getExtrusionDepthERK7FigTime, 
                       __ZN12TXTextObject17setFourCornerWarpEPK8LiCameraRK13OZRenderStateddjjP13OZChannelQuad, 
                       __ZN12TXTextObject18getDropShadowAngleE7FigTimeb, __ZN12TXTextObject18getDropShadowColorE7FigTimedR14PCWorkingColor, 
                       __ZN12TXTextObject18getDropShadowColorE7FigTimedR7PCColor, 
                       __ZN12TXTextObject18getDropShadowScaleE7FigTimeRdS1_b, __ZN12TXTextObject18getMipmapCacheHashER14OZRenderParamsP18TXTextObjectRender, 
                       __ZN12TXTextObject18isAttributeEnabledEj7FigTime, __ZN12TXTextObject18setFourCornerShearEPK8LiCameraRK13OZRenderStateddddjjP13OZChannelQuad, 
                       __ZN12TXTextObject19computeScaleFactorsERK14OZRenderParamsRK14LiImagePolygonRK14PCMatrix44TmplIdERK6PCRectIdEPdSE_, 
                       __ZN12TXTextObject19computeScaleFactorsERK14OZRenderParamsRK6PCRectIdERK14PCMatrix44TmplIdES6_PdSB_, 
                       __ZN12TXTextObject19getRenderedFontSizeE7FigTimed, __ZN12TXTextObject19isDropShadowEnabledE7FigTime, 
                       __ZN12TXTextObject19isDropShadowVisibleE7FigTimeP14PCWorkingColor, 
                       __ZN12TXTextObject19setSubstituteFontIDEj, __ZN12TXTextObject20getDropShadowOpacityERK7FigTime, 
                       __ZN12TXTextObject20getScaledImageBoundsERK13OZRenderState, 
                       __ZN12TXTextObject20getTransformedBoundsERK13OZRenderStateRK6PCRectIdERS4_PK14PCMatrix44TmplIdE, 
                       __ZN12TXTextObject20offsetFourCornerWarpEPK8LiCameraRK13OZRenderStateddddjjP13OZChannelQuadPK14PCMatrix44TmplIdE, 
                       __ZN12TXTextObject20projectPointToObjectEPK8LiCameraPdS3_S3_RK13OZRenderStateP14PCMatrix44TmplIdE, 
                       __ZN12TXTextObject21getDropShadowDistanceE7FigTimeb, __ZN12TXTextObject21getInitialImageBoundsEP6PCRectIdE, 
                       __ZN12TXTextObject21getRenderedGlyphScaleERK14OZRenderParamsRK14PCMatrix44TmplIdERK6PCRectIdEddPdSB_, 
                       __ZN12TXTextObject21getTransformedCornersERK6PCRectIdER14OZRenderParamsR8OZQuad3D, 
                       __ZN12TXTextObject22getBoundingImageVolumeER5PCBoxIdERK7FigTime, 
                       __ZN12TXTextObject23getBoundingVolumeForOSCER5PCBoxIdERK7FigTime, 
                       __ZN12TXTextObject23isAttributeLinkedToFaceEj, __ZN12TXTextObject23isDropShadowFixedSourceERK7FigTime, 
                       __ZN12TXTextObject24getImageBoundsWithStylesEP6PCRectIdERK13OZRenderState, 
                       __ZN12TXTextObject25getCommonTextureCacheHashER17PCHashWriteStreamR14OZRenderParamsRdS4_b, 
                       __ZN12TXTextObject25getImageBoundsOfAttributeEP6PCRectIdERK13OZRenderStatejbbbddddPKS1_, 
                       __ZN12TXTextObject25getRenderedGlyphTransformERK14OZRenderParamsRK14PCMatrix44TmplIdERK6PCRectIdEdd, 
                       __ZN12TXTextObject26getCacheHashForGlyphBitmapERK14OZRenderParamsbdRK14PCMatrix44TmplIdEb, 
                       __ZN12TXTextObject26getTransformedImageCornersER14OZRenderParamsR8OZQuad3Db, 
                       __ZN12TXTextObject26getTransformedImageCornersERK13OZRenderStateP9PCVector2IdES5_S5_S5_PK14PCMatrix44TmplIdE, 
                       __ZN12TXTextObject26getTransformedImageCornersERK6PCRectIdERK13OZRenderStateP9PCVector2IdES9_S9_S9_PK14PCMatrix44TmplIdE, 
                       __ZN12TXTextObject28getBoundingTypographicVolumeER5PCBoxIdERK7FigTime, 
                       __ZN12TXTextObject28getFacePositionsInLocalSpaceERK7FigTimePdS3_, 
                       __ZN12TXTextObject31calcTranslationRelativeToCameraERK9PCVector3IdES3_PK8LiCameraRK13OZRenderStatePS1_, 
                       __ZN12TXTextObject31calcTranslationRelativeToObjectERK9PCVector3IdES3_PK8LiCameraRK13OZRenderStatePS1_, 
                       __ZN12TXTextObject31getTextureCacheHashForAttributeER14OZRenderParamsjRdS2_bb, 
                       __ZN12TXTextObject32getScaleAndHashForPixelTransformER14OZRenderParamsRdS2_PK14PCMatrix44TmplIdEjR6PCRectIiE, 
                       __ZN12TXTextObject32getTransformedTypographicCornersE7FigTimeP9PCVector2IdES3_S3_S3_, 
                       __ZN12TXTextObject32getTransformedTypographicCornersER14OZRenderParamsR8OZQuad3D, 
                       __ZN12TXTextObject35getImageBoundsWithFourCornerPinningERK13OZRenderStateR6PCRectIdEj, 
                       __ZN12TXTextObject35getTransformedImageBoundsWithStylesER6PCRectIdER14OZRenderParamsPK14PCMatrix44TmplIdE, 
                       __ZN12TXTextObject36getBoundingImageAndTypographicVolumeER5PCBoxIdES2_RK7FigTime, 
                       __ZN12TXTextObject36getTransformedImageCornersWithStylesER14OZRenderParamsR8OZQuad3D, 
                       __ZN12TXTextObject44getFourCornerPointsInObjectSpaceForAttributeERK13OZRenderStateR9PCVector2IdES5_S5_S5_jbbddddPK6PCRectIdE, 
                       __ZN12TXTextObject45getTransformedImageBoundsWithStylesInDocSpaceER6PCRectIdERK13OZRenderStatePK14PCMatrix44TmplIdE, 
                       __ZN12TXTextObject47getTransformedImageCornersWithFourCornerPinningER14OZRenderParamsR8OZQuad3DjbbddPK14PCMatrix44TmplIdE, 
                       __ZN12TXTextObject47getTransformedImageCornersWithFourCornerPinningER14OZRenderParamsjRK14PCMatrix44TmplIdER8OZQuad3DPK6PCRectIdE, 
                       __ZN12TXTextObject51getTransformedAndFourCornerPinnedTypographicCornersER14OZRenderParamsR8OZQuad3D, 
                       __ZN12TXTextObject5dirtyEv, __ZN12TXTextObject7isEmojiEv, 
                       __ZN12TXTextObject8getPivotEPdS0_S0_RK7FigTime, __ZN12TXTextObject8hitCheckERK6PCRectIdERK13OZRenderStatePK8LiCamera, 
                       __ZN12TXTextObject9getBitmapERK14OZRenderParamsbdR14PCMatrix44TmplIdER6PCRectIdERb, 
                       __ZN12TXTextObject9getBitmapERK20TXSyncedGlyphRequest, __ZN12TXTextObject9getMipmapERK14OZRenderParamsRK14PCMatrix44TmplIdEPS4_P6PCRectIdEPNSt3__13mapIiNSB_10shared_ptrI8PCBitmapEENSB_4lessIiEENSB_9allocatorINSB_4pairIKiSF_EEEEEEbdPNSB_6vectorINSJ_IS8_IiE20TXSyncedGlyphRequestEENSI_ISS_EEEE, 
                       __ZN12TXTextObject9getTypeOnERK7FigTime, __ZN12TXTextObject9syncGlyphERK7FigTimeP14TXGlyphRequest, 
                       __ZN12TXTextObjectC1EP12TXTextLayoutj, __ZN12TXTextObjectC1ERKS_P12TXTextLayout, 
                       __ZN12TXTextObjectC2EP12TXTextLayoutj, __ZN12TXTextObjectC2ERKS_P12TXTextLayout, 
                       __ZN12TXTextObjectD0Ev, __ZN12TXTextObjectD1Ev, __ZN12TXTextObjectD2Ev, 
                       __ZN13ChannelParser10parseBeginER22PCSerializerReadStream, 
                       __ZN13ChannelParser12parseElementER22PCSerializerReadStreamR15PCStreamElement, 
                       __ZN13FactoryParser10parseBeginER22PCSerializerReadStream, 
                       __ZN13FactoryParser12parseElementER22PCSerializerReadStreamR15PCStreamElement, 
                       __ZN13FilterProgramC1Ev, __ZN13FilterProgramC2Ev, __ZN13HCheckerboard6GetDODEP10HGRendereri6HGRect, 
                       __ZN13HCheckerboard6GetROIEP10HGRendereri6HGRect, __ZN13HEquirectWrap4initERK9PCVector2IfERK9PCVector4IfES7_S7_S7_, 
                       __ZN13HEquirectWrap9GetOutputEP10HGRenderer, __ZN13HGMPSImageEDT10RenderTileEP6HGTile, 
                       __ZN13HGMPSImageEDT15RenderPageMetalEP6HGPage, __ZN13HGMPSImageEDT26useCustomizedComputeKernelEP6HGPagePU27objcproto16MTLCommandBuffer11objc_objectPU21objcproto10MTLTexture11objc_objectS5_, 
                       __ZN13HGMPSImageEDT6GetDODEP10HGRendereri6HGRect, __ZN13HGMPSImageEDT6GetROIEP10HGRendereri6HGRect, 
                       __ZN13HGMPSImageEDTC1Ev, __ZN13HGMPSImageEDTC2Ev, __ZN13HGMPSImageEDTD0Ev, 
                       __ZN13HGMPSImageEDTD1Ev, __ZN13HGMPSImageEDTD2Ev, __ZN13HGaussianBlur4initEfffbbb, 
                       __ZN13HGaussianBlur9GetOutputEP10HGRenderer, __ZN13HGaussianBlurC1Ev, 
                       __ZN13HGaussianBlurC2Ev, __ZN13HGaussianBlurD0Ev, __ZN13HGaussianBlurD1Ev, 
                       __ZN13HGaussianBlurD2Ev, __ZN13HSimpleBorder6GetDODEP10HGRendereri6HGRect, 
                       __ZN13HSimpleBorder6GetROIEP10HGRendereri6HGRect, __ZN13HSimpleBorder7setRectERK7HGRectf, 
                       __ZN13HSimpleBorder8setColorEffff, __ZN13HSimpleBorder9setBorderEff, 
                       __ZN13HSimpleBorderC1Ev, __ZN13HSimpleBorderC2Ev, __ZN13HSimpleBorderD0Ev, 
                       __ZN13HSimpleBorderD1Ev, __ZN13HSimpleBorderD2Ev, __ZN13HTextureBlend13GetDODOfGlyphEP10HGRenderer, 
                       __ZN13HTextureBlend6GetDODEP10HGRendereri6HGRect, __ZN13HgcAlphaKeyer10GetProgramEP10HGRenderer, 
                       __ZN13HgcAlphaKeyer10RenderTileEP6HGTile, __ZN13HgcAlphaKeyer11BindTextureEP9HGHandleri, 
                       __ZN13HgcAlphaKeyer12GetParameterEiPf, __ZN13HgcAlphaKeyer12SetParameterEiffff, 
                       __ZN13HgcAlphaKeyer4BindEP9HGHandler, __ZN13HgcAlphaKeyer6GetDODEP10HGRendereri6HGRect, 
                       __ZN13HgcAlphaKeyer6GetROIEP10HGRendereri6HGRect, __ZN13HgcAlphaKeyer9GetOutputEP10HGRenderer, 
                       __ZN13HgcAlphaKeyerC1Ev, __ZN13HgcAlphaKeyerC2Ev, __ZN13HgcAlphaKeyerD0Ev, 
                       __ZN13HgcAlphaKeyerD1Ev, __ZN13HgcAlphaKeyerD2Ev, __ZN13HgcBadTVNoise10GetProgramEP10HGRenderer, 
                       __ZN13HgcBadTVNoise10RenderTileEP6HGTile, __ZN13HgcBadTVNoise11BindTextureEP9HGHandleri, 
                       __ZN13HgcBadTVNoise12GetParameterEiPf, __ZN13HgcBadTVNoise12SetParameterEiffff, 
                       __ZN13HgcBadTVNoise4BindEP9HGHandler, __ZN13HgcBadTVNoise6GetDODEP10HGRendereri6HGRect, 
                       __ZN13HgcBadTVNoise6GetROIEP10HGRendereri6HGRect, __ZN13HgcBadTVNoise9GetOutputEP10HGRenderer, 
                       __ZN13HgcBadTVNoiseC1Ev, __ZN13HgcBadTVNoiseC2Ev, __ZN13HgcBadTVNoiseD0Ev, 
                       __ZN13HgcBadTVNoiseD1Ev, __ZN13HgcBadTVNoiseD2Ev, __ZN13HgcBlueScreen10GetProgramEP10HGRenderer, 
                       __ZN13HgcBlueScreen10RenderTileEP6HGTile, __ZN13HgcBlueScreen11BindTextureEP9HGHandleri, 
                       __ZN13HgcBlueScreen12GetParameterEiPf, __ZN13HgcBlueScreen12SetParameterEiffff, 
                       __ZN13HgcBlueScreen4BindEP9HGHandler, __ZN13HgcBlueScreen6GetDODEP10HGRendereri6HGRect, 
                       __ZN13HgcBlueScreen6GetROIEP10HGRendereri6HGRect, __ZN13HgcBlueScreen9GetOutputEP10HGRenderer, 
                       __ZN13HgcBlueScreenC1Ev, __ZN13HgcBlueScreenC2Ev, __ZN13HgcBlueScreenD0Ev, 
                       __ZN13HgcBlueScreenD1Ev, __ZN13HgcBlueScreenD2Ev, __ZN13HgcDesaturate10RenderTileEP6HGTile, 
                       __ZN13HgcDesaturate11BindTextureEP9HGHandleri, __ZN13HgcDesaturate12GetParameterEiPf, 
                       __ZN13HgcDesaturate12SetParameterEiffff, __ZN13HgcDesaturate4BindEP9HGHandler, 
                       __ZN13HgcDesaturate5SetupEPv, __ZN13HgcDesaturate6GetDODEP10HGRendereri6HGRect, 
                       __ZN13HgcDesaturate6GetROIEP10HGRendereri6HGRect, __ZN13HgcDesaturate9GetOutputEP10HGRenderer, 
                       __ZN13HgcDesaturateC1Ev, __ZN13HgcDesaturateC2Ev, __ZN13HgcDesaturateD0Ev, 
                       __ZN13HgcDesaturateD1Ev, __ZN13HgcDesaturateD2Ev, __ZN13HgcDiffScreen10GetProgramEP10HGRenderer, 
                       __ZN13HgcDiffScreen10RenderTileEP6HGTile, __ZN13HgcDiffScreen11BindTextureEP9HGHandleri, 
                       __ZN13HgcDiffScreen12GetParameterEiPf, __ZN13HgcDiffScreen12SetParameterEiffff, 
                       __ZN13HgcDiffScreen4BindEP9HGHandler, __ZN13HgcDiffScreen6GetDODEP10HGRendereri6HGRect, 
                       __ZN13HgcDiffScreen6GetROIEP10HGRendereri6HGRect, __ZN13HgcDiffScreen9GetOutputEP10HGRenderer, 
                       __ZN13HgcDiffScreenC1Ev, __ZN13HgcDiffScreenC2Ev, __ZN13HgcDiffScreenD0Ev, 
                       __ZN13HgcDiffScreenD1Ev, __ZN13HgcDiffScreenD2Ev, __ZN13HgcGlassBlock10GetProgramEP10HGRenderer, 
                       __ZN13HgcGlassBlock10RenderTileEP6HGTile, __ZN13HgcGlassBlock11BindTextureEP9HGHandleri, 
                       __ZN13HgcGlassBlock12GetParameterEiPf, __ZN13HgcGlassBlock12SetParameterEiffff, 
                       __ZN13HgcGlassBlock4BindEP9HGHandler, __ZN13HgcGlassBlock6GetDODEP10HGRendereri6HGRect, 
                       __ZN13HgcGlassBlock6GetROIEP10HGRendereri6HGRect, __ZN13HgcGlassBlock9GetOutputEP10HGRenderer, 
                       __ZN13HgcGlassBlockC1Ev, __ZN13HgcGlassBlockC2Ev, __ZN13HgcGlassBlockD0Ev, 
                       __ZN13HgcGlassBlockD1Ev, __ZN13HgcGlassBlockD2Ev, __ZN13HgcMotionBlur10GetProgramEP10HGRenderer, 
                       __ZN13HgcMotionBlur10RenderTileEP6HGTile, __ZN13HgcMotionBlur11BindTextureEP9HGHandleri, 
                       __ZN13HgcMotionBlur12GetParameterEiPf, __ZN13HgcMotionBlur12SetParameterEiffff, 
                       __ZN13HgcMotionBlur4BindEP9HGHandler, __ZN13HgcMotionBlur6GetDODEP10HGRendereri6HGRect, 
                       __ZN13HgcMotionBlur6GetROIEP10HGRendereri6HGRect, __ZN13HgcMotionBlur9GetOutputEP10HGRenderer, 
                       __ZN13HgcMotionBlurC1Ev, __ZN13HgcMotionBlurC2Ev, __ZN13HgcMotionBlurD0Ev, 
                       __ZN13HgcMotionBlurD1Ev, __ZN13HgcMotionBlurD2Ev, __ZN13HgcRadialMask10GetProgramEP10HGRenderer, 
                       __ZN13HgcRadialMask10RenderTileEP6HGTile, __ZN13HgcRadialMask11BindTextureEP9HGHandleri, 
                       __ZN13HgcRadialMask12GetParameterEiPf, __ZN13HgcRadialMask12SetParameterEiffff, 
                       __ZN13HgcRadialMask4BindEP9HGHandler, __ZN13HgcRadialMask6GetDODEP10HGRendereri6HGRect, 
                       __ZN13HgcRadialMask6GetROIEP10HGRendereri6HGRect, __ZN13HgcRadialMask9GetOutputEP10HGRenderer, 
                       __ZN13HgcRadialMaskC1Ev, __ZN13HgcRadialMaskC2Ev, __ZN13HgcRadialMaskD0Ev, 
                       __ZN13HgcRadialMaskD1Ev, __ZN13HgcRadialMaskD2Ev, __ZN13HgcStripAlpha10GetProgramEP10HGRenderer, 
                       __ZN13HgcStripAlpha10RenderTileEP6HGTile, __ZN13HgcStripAlpha11BindTextureEP9HGHandleri, 
                       __ZN13HgcStripAlpha12GetParameterEiPf, __ZN13HgcStripAlpha12SetParameterEiffff, 
                       __ZN13HgcStripAlpha4BindEP9HGHandler, __ZN13HgcStripAlpha6GetDODEP10HGRendereri6HGRect, 
                       __ZN13HgcStripAlpha6GetROIEP10HGRendereri6HGRect, __ZN13HgcStripAlpha9GetOutputEP10HGRenderer, 
                       __ZN13HgcStripAlphaC1Ev, __ZN13HgcStripAlphaC2Ev, __ZN13HgcStripAlphaD0Ev, 
                       __ZN13HgcStripAlphaD1Ev, __ZN13HgcStripAlphaD2Ev, __ZN13HgcTXModulate10GetProgramEP10HGRenderer, 
                       __ZN13HgcTXModulate10RenderTileEP6HGTile, __ZN13HgcTXModulate11BindTextureEP9HGHandleri, 
                       __ZN13HgcTXModulate12GetParameterEiPf, __ZN13HgcTXModulate12SetParameterEiffff, 
                       __ZN13HgcTXModulate4BindEP9HGHandler, __ZN13HgcTXModulate6GetDODEP10HGRendereri6HGRect, 
                       __ZN13HgcTXModulate6GetROIEP10HGRendereri6HGRect, __ZN13HgcTXModulate9GetOutputEP10HGRenderer, 
                       __ZN13HgcTXModulateC1Ev, __ZN13HgcTXModulateC2Ev, __ZN13HgcTXModulateD0Ev, 
                       __ZN13HgcTXModulateD1Ev, __ZN13HgcTXModulateD2Ev, __ZN13HgcWideScreen10GetProgramEP10HGRenderer, 
                       __ZN13HgcWideScreen10RenderTileEP6HGTile, __ZN13HgcWideScreen11BindTextureEP9HGHandleri, 
                       __ZN13HgcWideScreen12GetParameterEiPf, __ZN13HgcWideScreen12SetParameterEiffff, 
                       __ZN13HgcWideScreen4BindEP9HGHandler, __ZN13HgcWideScreen6GetDODEP10HGRendereri6HGRect, 
                       __ZN13HgcWideScreen6GetROIEP10HGRendereri6HGRect, __ZN13HgcWideScreen9GetOutputEP10HGRenderer, 
                       __ZN13HgcWideScreenC1Ev, __ZN13HgcWideScreenC2Ev, __ZN13HgcWideScreenD0Ev, 
                       __ZN13HgcWideScreenD1Ev, __ZN13HgcWideScreenD2Ev, __ZN13HgcWrapMirror10GetProgramEP10HGRenderer, 
                       __ZN13HgcWrapMirror10RenderTileEP6HGTile, __ZN13HgcWrapMirror11BindTextureEP9HGHandleri, 
                       __ZN13HgcWrapMirror12GetParameterEiPf, __ZN13HgcWrapMirror12SetParameterEiffff, 
                       __ZN13HgcWrapMirror4BindEP9HGHandler, __ZN13HgcWrapMirror6GetDODEP10HGRendereri6HGRect, 
                       __ZN13HgcWrapMirror6GetROIEP10HGRendereri6HGRect, __ZN13HgcWrapMirror9GetOutputEP10HGRenderer, 
                       __ZN13HgcWrapMirrorC1Ev, __ZN13HgcWrapMirrorC2Ev, __ZN13HgcWrapMirrorD0Ev, 
                       __ZN13HgcWrapMirrorD1Ev, __ZN13HgcWrapMirrorD2Ev, __ZN13HgcWrapRepeat10GetProgramEP10HGRenderer, 
                       __ZN13HgcWrapRepeat10RenderTileEP6HGTile, __ZN13HgcWrapRepeat11BindTextureEP9HGHandleri, 
                       __ZN13HgcWrapRepeat12GetParameterEiPf, __ZN13HgcWrapRepeat12SetParameterEiffff, 
                       __ZN13HgcWrapRepeat4BindEP9HGHandler, __ZN13HgcWrapRepeat6GetDODEP10HGRendereri6HGRect, 
                       __ZN13HgcWrapRepeat6GetROIEP10HGRendereri6HGRect, __ZN13HgcWrapRepeat9GetOutputEP10HGRenderer, 
                       __ZN13HgcWrapRepeatC1Ev, __ZN13HgcWrapRepeatC2Ev, __ZN13HgcWrapRepeatD0Ev, 
                       __ZN13HgcWrapRepeatD1Ev, __ZN13HgcWrapRepeatD2Ev, __ZN13HgciOSStretch10GetProgramEP10HGRenderer, 
                       __ZN13HgciOSStretch10RenderTileEP6HGTile, __ZN13HgciOSStretch11BindTextureEP9HGHandleri, 
                       __ZN13HgciOSStretch12GetParameterEiPf, __ZN13HgciOSStretch12SetParameterEiffff, 
                       __ZN13HgciOSStretch4BindEP9HGHandler, __ZN13HgciOSStretch6GetDODEP10HGRendereri6HGRect, 
                       __ZN13HgciOSStretch6GetROIEP10HGRendereri6HGRect, __ZN13HgciOSStretch9GetOutputEP10HGRenderer, 
                       __ZN13HgciOSStretchC1Ev, __ZN13HgciOSStretchC2Ev, __ZN13HgciOSStretchD0Ev, 
                       __ZN13HgciOSStretchD1Ev, __ZN13HgciOSStretchD2Ev, __ZN13LiDepthSorter12copySettingsERKS_, 
                       __ZN13LiDepthSorter4sortEv, __ZN13LiDepthSorter9stackSortER10PCPtrArrayI8LiDrawerE, 
                       __ZN13LiDepthSorterC1Ev, __ZN13LiDepthSorterC2Ev, __ZN13LiDepthSorterD1Ev, 
                       __ZN13LiDepthSorterD2Ev, __ZN13LiDrawnRegion3addERK6PCRectIiEbb11PCBlendMode, 
                       __ZN13LiDrawnRegion4RectC1ERK6PCRectIiE11PCBlendMode, __ZN13LiDrawnRegion4RectC1ERKS0_, 
                       __ZN13LiDrawnRegion4RectC1Ev, __ZN13LiDrawnRegion4RectC2ERK6PCRectIiE11PCBlendMode, 
                       __ZN13LiDrawnRegion4RectC2ERKS0_, __ZN13LiDrawnRegion4RectC2Ev, 
                       __ZN13LiDrawnRegion5clearEv, __ZN13LiEdgeTexture10_instancesE, 
                       __ZN13LiEdgeTexture10getTextureEv, __ZN13LiEdgeTexture10smoothStepEdd, 
                       __ZN13LiEdgeTexture11createArrayEiNS_6KernelE, __ZN13LiEdgeTexture11erfc_filterEdd, 
                       __ZN13LiEdgeTexture11getInstanceENS_6KernelE, __ZN13LiEdgeTexture11inverseSineEdd, 
                       __ZN13LiEdgeTexture12resetTextureEv, __ZN13LiEdgeTexture13getHeliumNodeEP10HGRendererNS_6KernelE, 
                       __ZN13LiEdgeTexture14getTextureRectEv, __ZN13LiEdgeTexture15getInstanceRectENS_6KernelE, 
                       __ZN13LiEdgeTexture16createHeliumNodeEP10HGRendererNS_6KernelE, 
                       __ZN13LiEdgeTexture18createHeliumBitmapEbNS_6KernelEid, __ZN13LiEdgeTexture18createMetalTextureEP12HGGLRendererNS_6KernelEid, 
                       __ZN13LiEdgeTexture18createProGLTextureE14HGGLContextPtrNS_6KernelEid, 
                       __ZN13LiEdgeTexture19inverseSineMirroredEdd, __ZN13LiEdgeTexture20getDefaultResolutionEv, 
                       __ZN13LiEdgeTexture25clearNodeCacheForRendererEP10HGRenderer, 
                       __ZN13LiEdgeTexture4evalEddNS_6KernelE, __ZN13LiEdgeTexture4sineEdd, 
                       __ZN13LiEdgeTexture6linearEdd, __ZN13LiEdgeTexture8gaussianEdd, 
                       __ZN13LiEdgeTexture9getKernelEv, __ZN13LiEdgeTexture9getObjectENS_6KernelE, 
                       __ZN13LiEdgeTexture9setKernelENS_6KernelE, __ZN13LiEdgeTextureC1ENS_6KernelE, 
                       __ZN13LiEdgeTextureC2ENS_6KernelE, __ZN13LiEdgeTextureD1Ev, 
                       __ZN13LiEdgeTextureD2Ev, __ZN13LiGroupDrawer11makePrecompE11PCBlendModeP17LiDrawerCollector, 
                       __ZN13LiGroupDrawer12getBlendModeEv, __ZN13LiGroupDrawer12prepareToAddEi, 
                       __ZN13LiGroupDrawer14setSceneObjectEP13LiSceneObject, __ZN13LiGroupDrawer16precompIntersectEP14LiIntersection, 
                       __ZN13LiGroupDrawer20projectBoundsToPlaneEv, __ZN13LiGroupDrawer3addEP8LiDrawer, 
                       __ZN13LiGroupDrawer3addERK10PCPtrArrayI8LiDrawerE, __ZN13LiGroupDrawer4drawER9LiBlender, 
                       __ZN13LiGroupDrawer4dumpERK8LiString, __ZN13LiGroupDrawer4nameEv, 
                       __ZN13LiGroupDrawer4sizeEv, __ZN13LiGroupDrawer7defocusEP14PCMatrix44TmplIdEP9LiDofInfo, 
                       __ZN13LiGroupDrawer8getPlaneEv, __ZN13LiGroupDrawer8isPlanarEv, 
                       __ZN13LiGroupDrawer8setPlaneERK9PCVector4IdE, __ZN13LiGroupDrawer9getBoundsEv, 
                       __ZN13LiGroupDrawer9intersectEP14LiIntersection, __ZN13LiGroupDrawer9stackSortEv, 
                       __ZN13LiGroupDrawerC1Ev, __ZN13LiGroupDrawerC2Ev, __ZN13LiGroupDrawerD0Ev, 
                       __ZN13LiGroupDrawerD1Ev, __ZN13LiGroupDrawerD2Ev, __ZN13LiHeAlphaFill10GetProgramEP10HGRenderer, 
                       __ZN13LiHeAlphaFill10RenderTileEP6HGTile, __ZN13LiHeAlphaFill11BindTextureEP9HGHandleri, 
                       __ZN13LiHeAlphaFill12GetParameterEiPf, __ZN13LiHeAlphaFill12SetParameterEiffff, 
                       __ZN13LiHeAlphaFill4BindEP9HGHandler, __ZN13LiHeAlphaFill6GetDODEP10HGRendereri6HGRect, 
                       __ZN13LiHeAlphaFill6GetROIEP10HGRendereri6HGRect, __ZN13LiHeAlphaFill9GetOutputEP10HGRenderer, 
                       __ZN13LiHeAlphaFillC1Ev, __ZN13LiHeAlphaFillC2Ev, __ZN13LiHeAlphaFillD0Ev, 
                       __ZN13LiHeAlphaFillD1Ev, __ZN13LiHeAlphaFillD2Ev, __ZN13LiHeMixShader10GetProgramEP10HGRenderer, 
                       __ZN13LiHeMixShader10RenderTileEP6HGTile, __ZN13LiHeMixShader11BindTextureEP9HGHandleri, 
                       __ZN13LiHeMixShader12GetParameterEiPf, __ZN13LiHeMixShader12SetParameterEiffff, 
                       __ZN13LiHeMixShader4BindEP9HGHandler, __ZN13LiHeMixShader6GetDODEP10HGRendereri6HGRect, 
                       __ZN13LiHeMixShader6GetROIEP10HGRendereri6HGRect, __ZN13LiHeMixShader9GetOutputEP10HGRenderer, 
                       __ZN13LiHeMixShaderC1Ev, __ZN13LiHeMixShaderC2Ev, __ZN13LiHeMixShaderD0Ev, 
                       __ZN13LiHeMixShaderD1Ev, __ZN13LiHeMixShaderD2Ev, __ZN13LiImageFilter14materialFilterEv, 
                       __ZN13LiImageFilter20estimateRenderMemoryERNSt3__13setI9PCHash128NS0_4lessIS2_EENS0_9allocatorIS2_EEEE, 
                       __ZN13LiImageFilter24adjustCasterLocalToWorldERK7LiLightRK7LiGeodeR14PCMatrix44TmplIdER9LiPolygonR6PCRectIdE, 
                       __ZN13LiImageFilter26inheritUseSourcePixelSpaceEv, __ZN13LiImageSource11getBoundaryER7LiAgentP6PCRectIdE, 
                       __ZN13LiImageSource11getDelegateERK18LiRenderParameters, __ZN13LiImageSource11printIndentERNSt3__113basic_ostreamIcNS0_11char_traitsIcEEEEi, 
                       __ZN13LiImageSource13filteredEdgesEb, __ZN13LiImageSource13filteredEdgesEv, 
                       __ZN13LiImageSource17fixPixelTransformER7LiAgentP14PCMatrix44TmplIdERK18LiRenderParameters, 
                       __ZN13LiImageSource19handlesDepthOfFieldEv, __ZN13LiImageSource20estimateRenderMemoryERNSt3__13setI9PCHash128NS0_4lessIS2_EENS0_9allocatorIS2_EEEE, 
                       __ZN13LiImageSource23fixSourcePixelTransformER7LiAgentP14PCMatrix44TmplIdERK18LiRenderParameters, 
                       __ZN13LiImageSource24adjustCasterLocalToWorldERK7LiLightRK7LiGeodeR14PCMatrix44TmplIdER9LiPolygonR6PCRectIdE, 
                       __ZN13LiImageSource26inheritUseSourcePixelSpaceEv, __ZN13LiImageSource9getHeliumERK18LiRenderParameters, 
                       __ZN13LiImageSource9polyToDODERK14LiImagePolygon, __ZN13LiImageSourceC2Ev, 
                       __ZN13LiImageSourceD0Ev, __ZN13LiImageSourceD1Ev, __ZN13LiImageSourceD2Ev, 
                       __ZN13LiLightFilter10getPolygonEv, __ZN13LiLightFilter13filteredEdgesEv, 
                       __ZN13LiLightFilter13setShadowMapsERK7PCArrayI9ShadowMap14PCArray_TraitsIS1_EE, 
                       __ZN13LiLightFilter20estimateRenderMemoryERNSt3__13setI9PCHash128NS0_4lessIS2_EENS0_9allocatorIS2_EEEE, 
                       __ZN13LiLightFilter21pixelTransformSupportERK18LiRenderParameters, 
                       __ZN13LiLightFilter8copyFromEPKS_, __ZN13LiLightFilter8heRenderER7LiAgent, 
                       __ZN13LiLightFilter9getHeliumER7LiAgent, __ZN13LiLightFilterC1ERK10LiLightSet, 
                       __ZN13LiLightFilterC1ERKS_, __ZN13LiLightFilterC1Ev, __ZN13LiLightFilterC2ERK10LiLightSet, 
                       __ZN13LiLightFilterC2ERKS_, __ZN13LiLightFilterC2Ev, __ZN13LiLightFilterD0Ev, 
                       __ZN13LiLightFilterD1Ev, __ZN13LiLightFilterD2Ev, __ZN13LiLightFilteraSERKS_, 
                       __ZN13LiMaskBlender11newInstanceEv, __ZN13LiMaskBlender3addERK5HGRefI6HGNodeE11PCBlendModedbb5PCPtrI14PCBlendOptionsE, 
                       __ZN13LiMaskBlender8addPatchERK5HGRefI6HGNodeES4_, __ZN13LiMaskBlender9getOutputEv, 
                       __ZN13LiMaskBlenderC1EP12LiMaskDrawerP9LiBlender, __ZN13LiMaskBlenderC2EP12LiMaskDrawerP9LiBlender, 
                       __ZN13LiMaskBlenderD0Ev, __ZN13LiMaskBlenderD1Ev, __ZN13LiMaskBlenderD2Ev, 
                       __ZN13LiPlanarGroup9mergeFromERS_, __ZN13LiPlanarGroup9normalizeEv, 
                       __ZN13LiPlanarGroup9transformERK16LiPlaneTransform, __ZN13LiPlanarGroupC1ERK9PCVector4IdEP8LiDrawer, 
                       __ZN13LiPlanarGroupC1Ev, __ZN13LiPlanarGroupC2ERK9PCVector4IdEP8LiDrawer, 
                       __ZN13LiPlanarGroupC2Ev, __ZN13LiSceneDrawer11beginRenderEP13LiSceneObjectRK9LiClipSetRK14LiClipFadeInfoRK15LiDepthPeelInfoRK23LiPaintersAlgorthimInfoRK7PCArrayI5PCPtrI16LiMaterialFilterE14PCArray_TraitsISH_EE, 
                       __ZN13LiSceneDrawer12buildProgramEP10LiMaterialR9LiContextP5PCPtrIN8ProShade7ProgramEEb, 
                       __ZN13LiSceneDrawer12render_zsortER9LiContextRNS_26PaintersAlgorithmSceneDataE, 
                       __ZN13LiSceneDrawer14traverseObjectER9LiContextP13LiSceneObjectRK9LiClipSetRK14LiClipFadeInfoRKNS_20DrawAttrsPerInstanceEbRNS_26PaintersAlgorithmSceneDataE, 
                       __ZN13LiSceneDrawer17traverseAndRenderEP13LiSceneObjectRK9LiClipSetRK14LiClipFadeInfoRK15LiDepthPeelInfoRK7PCArrayI5PCPtrI16LiMaterialFilterE14PCArray_TraitsISE_EERNS_26PaintersAlgorithmSceneDataE, 
                       __ZN13LiSceneDrawer19setMaterialUniformsER9LiContextRKNS_10DrawObjectERN8ProShade11UniformDataERNS5_16UniformWorkspaceE, 
                       __ZN13LiSceneDrawer24setIsolatedGroupToRenderEl, __ZN13LiSceneDrawer6renderER9LiContext, 
                       __ZN13LiSceneDrawerC1ERKS_, __ZN13LiSceneDrawerC1Ev, __ZN13LiSceneDrawerC2ERKS_, 
                       __ZN13LiSceneDrawerC2Ev, __ZN13LiSceneDrawerD0Ev, __ZN13LiSceneDrawerD1Ev, 
                       __ZN13LiSceneDrawerD2Ev, __ZN13LiSceneObject10findBoundsER7PCArrayI7PCPlaneIdE14PCArray_TraitsIS2_EEb, 
                       __ZN13LiSceneObject11boundingBoxER5PCBoxIdERK14PCMatrix44TmplIdE, 
                       __ZN13LiSceneObject11widenBoundsER7PCArrayI7PCPlaneIdE14PCArray_TraitsIS2_EERK14PCMatrix44TmplIdERbb, 
                       __ZN13LiSceneObject12blendOptionsEv, __ZN13LiSceneObject12setBlendModeE11PCBlendMode5PCPtrI14PCBlendOptionsE, 
                       __ZN13LiSceneObject12setTransformERK14PCMatrix44TmplIdE, __ZN13LiSceneObject15preserveOpacityEv, 
                       __ZN13LiSceneObject18setPreserveOpacityEb, __ZN13LiSceneObject19setPlacementJitterXERK9PCVector2IdE, 
                       __ZN13LiSceneObject19setPlacementJitterYERK9PCVector2IdE, 
                       __ZN13LiSceneObject19setPlacementJitterZERK9PCVector2IdE, 
                       __ZN13LiSceneObject21setPlacementTransformERK14PCMatrix44TmplIdE, 
                       __ZN13LiSceneObject27setPlacementBoundsTransformERK14PCMatrix44TmplIdE, 
                       __ZN13LiSceneObject8setIndexEj, __ZN13LiSceneObject9blendModeEv, 
                       __ZN13LiSceneObjectC2Ev, __ZN13LiSceneObjectD0Ev, __ZN13LiSceneObjectD1Ev, 
                       __ZN13LiSceneObjectD2Ev, __ZN13LiSolidSource20estimateRenderMemoryERNSt3__13setI9PCHash128NS0_4lessIS2_EENS0_9allocatorIS2_EEEE, 
                       __ZN13LiSolidSource9getHeliumER7LiAgent, __ZN13LiSolidSourceC1Ev, 
                       __ZN13LiSolidSourceC2Ev, __ZN13LoadEffectJob6RunJobEv, __ZN13LoadEffectJobC1EP14PVMotionEffect, 
                       __ZN13LoadEffectJobC2EP14PVMotionEffect, __ZN13LoadLockCache8instanceEv, 
                       __ZN13LoadLockCacheC1Ev, __ZN13LoadLockCacheC2Ev, __ZN13LoadLockCacheD0Ev, 
                       __ZN13LoadLockCacheD1Ev, __ZN13LoadLockCacheD2Ev, __ZN13OMSamplesElem10moveOffsetEiRK5Vec2f, 
                       __ZN13OMSamplesElem10pickVertexERK5Vec2ff, __ZN13OMSamplesElem18pickClosestElementERK5Vec2f, 
                       __ZN13OMSamplesElem7moveAllERK5Vec2f, __ZN13OZApplication10initializeEv, 
                       __ZN13OZApplication11createStyleERK6PCUUIDRK8PCStringj, __ZN13OZApplication11newDocumentEv, 
                       __ZN13OZApplication12createEffectERK6PCUUID, __ZN13OZApplication12createEffectERK6PCUUIDRK8PCStringj, 
                       __ZN13OZApplication12createObjectERK6PCUUID, __ZN13OZApplication13getCurrentDocEv, 
                       __ZN13OZApplication13saveFactoriesER23PCSerializerWriteStream, 
                       __ZN13OZApplication13setCurrentDocEP10OZDocument, __ZN13OZApplication14createBehaviorERK6PCUUID, 
                       __ZN13OZApplication14createBehaviorERK6PCUUIDRK8PCStringj, 
                       __ZN13OZApplication15createSceneNodeERK6PCUUIDRK8PCStringj, 
                       __ZN13OZApplication15createStyleCopyEP7OZStylej, __ZN13OZApplication15documentWillDieEP10OZDocument, 
                       __ZN13OZApplication15isPrimaryObjectEj, __ZN13OZApplication22setPerThreadCurrentDocEP10OZDocument, 
                       __ZN13OZApplication25displayLegacyPluginsAlertEv, __ZN13OZApplication7initPMREv, 
                       __ZN13OZApplicationC1EPv, __ZN13OZApplicationC2EPv, __ZN13OZApplicationD1Ev, 
                       __ZN13OZApplicationD2Ev, __ZN13OZCanvasState10parseBeginER22PCSerializerReadStream, 
                       __ZN13OZCanvasState11writeHeaderER23PCSerializerWriteStreamb, 
                       __ZN13OZCanvasState12parseElementER22PCSerializerReadStreamR15PCStreamElement, 
                       __ZN13OZCanvasState29markFactoriesForSerializationER23PCSerializerWriteStreamb, 
                       __ZN13OZCanvasState8parseEndER22PCSerializerReadStream, __ZN13OZCanvasState9writeBodyER23PCSerializerWriteStreambbb, 
                       __ZN13OZCanvasStateC1ERKS_, __ZN13OZCanvasStateC1Ev, __ZN13OZCanvasStateC2ERKS_, 
                       __ZN13OZCanvasStateC2Ev, __ZN13OZChannelBase10allowsDragEPKS_, 
                       __ZN13OZChannelBase10parseBeginER22PCSerializerReadStream, 
                       __ZN13OZChannelBase10writeFlagsER23PCSerializerWriteStreamNS_13WriteFlagTypeE, 
                       __ZN13OZChannelBase11writeHeaderER23PCSerializerWriteStreamb, 
                       __ZN13OZChannelBase12_idGeneratorE, __ZN13OZChannelBase12getRangeNameEv, 
                       __ZN13OZChannelBase12parseElementER22PCSerializerReadStreamR15PCStreamElement, 
                       __ZN13OZChannelBase12setChildSoloEb, __ZN13OZChannelBase12setNameUnsetEb, 
                       __ZN13OZChannelBase14registerParentEP15OZChannelFolder, __ZN13OZChannelBase14willBeModifiedEj, 
                       __ZN13OZChannelBase15hasBeenModifiedEPb, __ZN13OZChannelBase15setInternalNameERK8PCString, 
                       __ZN13OZChannelBase16allowsAssignmentEPKS_, __ZN13OZChannelBase16calcHashForStateER23PCSerializerWriteStreamRK7FigTime, 
                       __ZN13OZChannelBase16configureWithURLER5PCURL, __ZN13OZChannelBase16getResetCallbackEPPFvPS_PvEPS1_Pb, 
                       __ZN13OZChannelBase16setResetCallbackEPFvPS_PvES1_b, __ZN13OZChannelBase16unregisterParentEP15OZChannelFolder, 
                       __ZN13OZChannelBase16visibleKeypointsE12FigTimeRangebj, __ZN13OZChannelBase17globalToLocalTimeERK7FigTimeS2_, 
                       __ZN13OZChannelBase17localToGlobalTimeERK7FigTimeS2_, __ZN13OZChannelBase17updateIDGeneratorERK15OZChannelFolder, 
                       __ZN13OZChannelBase17updateIDGeneratorEj, __ZN13OZChannelBase18configureWithStateEPK8__CFData, 
                       __ZN13OZChannelBase18createChannelStateEbb, __ZN13OZChannelBase18finishInitializingEv, 
                       __ZN13OZChannelBase18getObjCWrapperNameEv, __ZN13OZChannelBase18saveStateAsDefaultEv, 
                       __ZN13OZChannelBase21getLabelCtlrClassNameEv, __ZN13OZChannelBase21setLabelCtlrClassNameEPK10__CFString, 
                       __ZN13OZChannelBase22ResetCallbackDataTable26setResetCallbackForChannelEPS_PFvS1_PvES2_b, 
                       __ZN13OZChannelBase22ResetCallbackDataTable30getResetCallbackDataForChannelEPS_, 
                       __ZN13OZChannelBase22ResetCallbackDataTableD0Ev, __ZN13OZChannelBase22ResetCallbackDataTableD1Ev, 
                       __ZN13OZChannelBase22ResetCallbackDataTableD2Ev, __ZN13OZChannelBase22offsetKeyframesInRangeERK7FigTimeS2_S2_S2_bb, 
                       __ZN13OZChannelBase23ensureObjCWrapperExistsEv, __ZN13OZChannelBase23keyframesWithChannelRefE12FigTimeRangeRNSt3__13mapI12OZChannelRefNS1_6vectorI15_OZKeyframeInfoNS1_9allocatorIS5_EEEENS1_4lessIS3_EENS6_INS1_4pairIKS3_S8_EEEEEE, 
                       __ZN13OZChannelBase24_pResetCallbackDataTableE, __ZN13OZChannelBase24setTimeConverterDelegateEP22OZChannelTimeConverter, 
                       __ZN13OZChannelBase25getInspectorCtlrClassNameEv, __ZN13OZChannelBase25getParameterCtlrClassNameEv, 
                       __ZN13OZChannelBase25getResetCallbackDataTableEv, __ZN13OZChannelBase25setInspectorCtlrClassNameEPK10__CFString, 
                       __ZN13OZChannelBase25setParameterCtlrClassNameEPK10__CFString, 
                       __ZN13OZChannelBase26setKeyframesWithChannelRefERK7FigTimeS2_RNSt3__13mapI12OZChannelRefNS3_6vectorI15_OZKeyframeInfoNS3_9allocatorIS7_EEEENS3_4lessIS5_EENS8_INS3_4pairIKS5_SA_EEEEEEb, 
                       __ZN13OZChannelBase27nofityObjCWrapperWillDeleteEv, __ZN13OZChannelBase29isResetCallbackDataTableValidEv, 
                       __ZN13OZChannelBase29markFactoriesForSerializationER23PCSerializerWriteStreamb, 
                       __ZN13OZChannelBase32invalidateResetCallbackDataTableEv, __ZN13OZChannelBase4copyEPKS_b, 
                       __ZN13OZChannelBase4lockEbb, __ZN13OZChannelBase4soloEb, __ZN13OZChannelBase5resetEv, 
                       __ZN13OZChannelBase5setIDEj, __ZN13OZChannelBase6assignEPKS_, 
                       __ZN13OZChannelBase6enableEbb, __ZN13OZChannelBase7cleanupEv, 
                       __ZN13OZChannelBase7getHashEv, __ZN13OZChannelBase7setFlagEyb, 
                       __ZN13OZChannelBase7setNameERK8PCStringb, __ZN13OZChannelBase8parseEndER22PCSerializerReadStream, 
                       __ZN13OZChannelBase8setFlagsEy, __ZN13OZChannelBase9keypointsE12FigTimeRangebj, 
                       __ZN13OZChannelBase9resetFlagEyb, __ZN13OZChannelBase9writeBodyER23PCSerializerWriteStreambbb, 
                       __ZN13OZChannelBaseC1EP9OZFactoryRK8PCStringP15OZChannelFolderjj, 
                       __ZN13OZChannelBaseC1EP9OZFactoryRK8PCStringj, __ZN13OZChannelBaseC1ERKS_, 
                       __ZN13OZChannelBaseC1ERKS_P15OZChannelFolder, __ZN13OZChannelBaseC2EP9OZFactoryRK8PCStringP15OZChannelFolderjj, 
                       __ZN13OZChannelBaseC2EP9OZFactoryRK8PCStringj, __ZN13OZChannelBaseC2ERKS_, 
                       __ZN13OZChannelBaseC2ERKS_P15OZChannelFolder, __ZN13OZChannelBaseD0Ev, 
                       __ZN13OZChannelBaseD1Ev, __ZN13OZChannelBaseD2Ev, __ZN13OZChannelBaseaSERKS_, 
                       __ZN13OZChannelBaseeqERKS_, __ZN13OZChannelBool18_OZChannelBoolInfoE, 
                       __ZN13OZChannelBool18getObjCWrapperNameEv, __ZN13OZChannelBool22_OZChannelBoolTrueImplE, 
                       __ZN13OZChannelBool23_OZChannelBoolFalseImplE, __ZN13OZChannelBoolC1EP9OZFactoryRK8PCStringP15OZChannelFolderjjP13OZChannelImplP13OZChannelInfo, 
                       __ZN13OZChannelBoolC1EP9OZFactoryRK8PCStringjP13OZChannelImplP13OZChannelInfo, 
                       __ZN13OZChannelBoolC1ERK8PCStringP15OZChannelFolderjjP13OZChannelImplP13OZChannelInfo, 
                       __ZN13OZChannelBoolC1ERKS_P15OZChannelFolder, __ZN13OZChannelBoolC1EiRK8PCStringP15OZChannelFolderjjP13OZChannelImplP13OZChannelInfo, 
                       __ZN13OZChannelBoolC2EP9OZFactoryRK8PCStringP15OZChannelFolderjjP13OZChannelImplP13OZChannelInfo, 
                       __ZN13OZChannelBoolC2EP9OZFactoryRK8PCStringjP13OZChannelImplP13OZChannelInfo, 
                       __ZN13OZChannelBoolC2ERK8PCStringP15OZChannelFolderjjP13OZChannelImplP13OZChannelInfo, 
                       __ZN13OZChannelBoolC2ERKS_P15OZChannelFolder, __ZN13OZChannelBoolC2EiRK8PCStringP15OZChannelFolderjjP13OZChannelImplP13OZChannelInfo, 
                       __ZN13OZChannelBoolD0Ev, __ZN13OZChannelBoolD1Ev, __ZN13OZChannelBoolD2Ev, 
                       __ZN13OZChannelCrop15setDefaultValueEdddd, __ZN13OZChannelCrop17setWidthAndHeightEdd, 
                       __ZN13OZChannelCrop18getObjCWrapperNameEv, __ZN13OZChannelCrop23OZChannelCrop_valueImpl20_OZChannelCrop_valueE, 
                       __ZN13OZChannelCrop4copyEPK13OZChannelBaseb, __ZN13OZChannelCrop8setValueERK7FigTimedddd, 
                       __ZN13OZChannelCropC1EP9OZFactoryRK8PCStringP15OZChannelFolderjjjP13OZChannelImplP13OZChannelInfo, 
                       __ZN13OZChannelCropC1EP9OZFactoryRK8PCStringjj, __ZN13OZChannelCropC1ERK8PCStringP15OZChannelFolderjjjP13OZChannelImplP13OZChannelInfo, 
                       __ZN13OZChannelCropC1ERKS_P15OZChannelFolder, __ZN13OZChannelCropC2EP9OZFactoryRK8PCStringP15OZChannelFolderjjjP13OZChannelImplP13OZChannelInfo, 
                       __ZN13OZChannelCropC2EP9OZFactoryRK8PCStringjj, __ZN13OZChannelCropC2ERK8PCStringP15OZChannelFolderjjjP13OZChannelImplP13OZChannelInfo, 
                       __ZN13OZChannelCropC2ERKS_P15OZChannelFolder, __ZN13OZChannelEnum10allowsDragEPK13OZChannelBase, 
                       __ZN13OZChannelEnum10setStringsERK8PCStringb, __ZN13OZChannelEnum11setIsSplineEb, 
                       __ZN13OZChannelEnum12clearStringsEv, __ZN13OZChannelEnum13replaceStringERK8PCStringi, 
                       __ZN13OZChannelEnum18getObjCWrapperNameEv, __ZN13OZChannelEnum21setStringsFromChannelEPK13OZChannelBase, 
                       __ZN13OZChannelEnum23OZChannelEnum_valueImpl20_OZChannelEnum_valueE, 
                       __ZN13OZChannelEnum23OZChannelEnum_valueInfo24_OZChannelEnum_valueInfoE, 
                       __ZN13OZChannelEnum4copyEPK13OZChannelBaseb, __ZN13OZChannelEnum6assignEPK13OZChannelBase, 
                       __ZN13OZChannelEnum7setTagsEPKii, __ZN13OZChannelEnum8getImageEj, 
                       __ZN13OZChannelEnum9addStringERK8PCString, __ZN13OZChannelEnum9getStringEj, 
                       __ZN13OZChannelEnum9setImagesERK8PCString, __ZN13OZChannelEnumC1EP9OZFactoryRK8PCStringjP13OZChannelImplP13OZChannelInfo, 
                       __ZN13OZChannelEnumC1ERK8PCStringP9OZFactoryS2_P15OZChannelFolderjjP13OZChannelImplP13OZChannelInfo, 
                       __ZN13OZChannelEnumC1ERK8PCStringS2_P15OZChannelFolderjjP13OZChannelImplP13OZChannelInfo, 
                       __ZN13OZChannelEnumC1ERKS_P15OZChannelFolder, __ZN13OZChannelEnumC1EjRK8PCStringS2_P15OZChannelFolderjjP13OZChannelImplP13OZChannelInfo, 
                       __ZN13OZChannelEnumC1EjRK8PCStringS2_P9OZFactoryP15OZChannelFolderjjP13OZChannelImplP13OZChannelInfo, 
                       __ZN13OZChannelEnumC2EP9OZFactoryRK8PCStringjP13OZChannelImplP13OZChannelInfo, 
                       __ZN13OZChannelEnumC2ERK8PCStringP9OZFactoryS2_P15OZChannelFolderjjP13OZChannelImplP13OZChannelInfo, 
                       __ZN13OZChannelEnumC2ERK8PCStringS2_P15OZChannelFolderjjP13OZChannelImplP13OZChannelInfo, 
                       __ZN13OZChannelEnumC2ERKS_P15OZChannelFolder, __ZN13OZChannelEnumC2EjRK8PCStringS2_P15OZChannelFolderjjP13OZChannelImplP13OZChannelInfo, 
                       __ZN13OZChannelEnumC2EjRK8PCStringS2_P9OZFactoryP15OZChannelFolderjjP13OZChannelImplP13OZChannelInfo, 
                       __ZN13OZChannelEnumD0Ev, __ZN13OZChannelEnumD1Ev, __ZN13OZChannelEnumD2Ev, 
                       __ZN13OZChannelFontC1EP9OZFactoryRK8PCStringP15OZChannelFolderjj, 
                       __ZN13OZChannelFontC1EP9OZFactoryRK8PCStringj, __ZN13OZChannelFontC1ERK8PCStringP15OZChannelFolderjj, 
                       __ZN13OZChannelFontC1ERKS_P15OZChannelFolder, __ZN13OZChannelFontC2EP9OZFactoryRK8PCStringP15OZChannelFolderjj, 
                       __ZN13OZChannelFontC2EP9OZFactoryRK8PCStringj, __ZN13OZChannelFontC2ERK8PCStringP15OZChannelFolderjj, 
                       __ZN13OZChannelFontC2ERKS_P15OZChannelFolder, __ZN13OZChannelImpl11endPlaybackERK7FigTime, 
                       __ZN13OZChannelImpl11isRecordingEv, __ZN13OZChannelImpl11setDiscreteEb, 
                       __ZN13OZChannelImpl12endRecordingERK7FigTime, __ZN13OZChannelImpl13beginPlaybackERK7FigTimejjS2_, 
                       __ZN13OZChannelImpl13setParametricEb, __ZN13OZChannelImpl14beginRecordingERK7FigTime, 
                       __ZN13OZChannelImpl14didRecordValueEP13OZChannelBaseRK7FigTime, 
                       __ZN13OZChannelImpl14resetToDefaultEv, __ZN13OZChannelImpl16setInterpolationEj, 
                       __ZN13OZChannelImpl18copyCurveInterfaceEP7OZCurve, __ZN13OZChannelImpl19shouldKeepLocalCopyEv, 
                       __ZN13OZChannelImpl23setShouldCreateTangentsEb, __ZN13OZChannelImpl25registerRecordingCallbackEPFvP13OZChannelBaseRK7FigTimePvES5_b, 
                       __ZN13OZChannelImpl26updateCurrentRecordingTimeERK7FigTime, 
                       __ZN13OZChannelImpl27unregisterRecordingCallbackEPFvP13OZChannelBaseRK7FigTimePvES5_, 
                       __ZN13OZChannelImpl6setMaxEd, __ZN13OZChannelImpl6setMinEd, 
                       __ZN13OZChannelImpl9isPlayingEPjS0_P7FigTime, __ZN13OZChannelImplC1EP7OZCurvedjb, 
                       __ZN13OZChannelImplC1ERKS_, __ZN13OZChannelImplC1Ev, __ZN13OZChannelImplC2EP7OZCurvedjb, 
                       __ZN13OZChannelImplC2ERKS_, __ZN13OZChannelImplC2Ev, __ZN13OZChannelImplD0Ev, 
                       __ZN13OZChannelImplD1Ev, __ZN13OZChannelImplD2Ev, __ZN13OZChannelImplaSERKS_, 
                       __ZN13OZChannelInfo24setSliderTransformerNameEPK10__CFString, 
                       __ZN13OZChannelInfoC1ERKS_, __ZN13OZChannelInfoC1EdddddPKc, 
                       __ZN13OZChannelInfoC1EdddddRK8PCString, __ZN13OZChannelInfoC1Ev, 
                       __ZN13OZChannelInfoC2ERKS_, __ZN13OZChannelInfoC2EdddddPKc, 
                       __ZN13OZChannelInfoC2EdddddRK8PCString, __ZN13OZChannelInfoC2Ev, 
                       __ZN13OZChannelInfoD0Ev, __ZN13OZChannelInfoD1Ev, __ZN13OZChannelInfoD2Ev, 
                       __ZN13OZChannelInfoaSERKS_, __ZN13OZChannelInfoeqERKS_, __ZN13OZChannelQuad11getGeometryERK7FigTimeP6PCRectIdE, 
                       __ZN13OZChannelQuad11getGeometryERK7FigTimePd, __ZN13OZChannelQuad11getGeometryERK7FigTimePf, 
                       __ZN13OZChannelQuad18getObjCWrapperNameEv, __ZN13OZChannelQuadC1EP9OZFactoryRK8PCStringjj, 
                       __ZN13OZChannelQuadC1ERK8PCStringP15OZChannelFolderjjj, __ZN13OZChannelQuadC1ERKS_P15OZChannelFolder, 
                       __ZN13OZChannelQuadC1EddddddddRK8PCStringP15OZChannelFolderjjj, 
                       __ZN13OZChannelQuadC2EP9OZFactoryRK8PCStringjj, __ZN13OZChannelQuadC2ERK8PCStringP15OZChannelFolderjjj, 
                       __ZN13OZChannelQuadC2ERKS_P15OZChannelFolder, __ZN13OZChannelQuadC2EddddddddRK8PCStringP15OZChannelFolderjjj, 
                       __ZN13OZChannelSeed18_OZChannelSeedImplE, __ZN13OZChannelSeed18_OZChannelSeedInfoE, 
                       __ZN13OZChannelSeed18getObjCWrapperNameEv, __ZN13OZChannelText10parseBeginER22PCSerializerReadStream, 
                       __ZN13OZChannelText11writeHeaderER23PCSerializerWriteStreamb, 
                       __ZN13OZChannelText12parseElementER22PCSerializerReadStreamR15PCStreamElement, 
                       __ZN13OZChannelText18_OZChannelTextImplE, __ZN13OZChannelText18_OZChannelTextInfoE, 
                       __ZN13OZChannelText18getObjCWrapperNameEv, __ZN13OZChannelText19setAttributedStringEPK20__CFAttributedString, 
                       __ZN13OZChannelText4copyEPK13OZChannelBaseb, __ZN13OZChannelText6assignEPK13OZChannelBase, 
                       __ZN13OZChannelText8parseEndER22PCSerializerReadStream, __ZN13OZChannelText9setStringE8PCStringbb, 
                       __ZN13OZChannelText9writeBodyER23PCSerializerWriteStreambbb, 
                       __ZN13OZChannelTextC1EP9OZFactoryRK8PCStringP15OZChannelFolderjj, 
                       __ZN13OZChannelTextC1EP9OZFactoryRK8PCStringj, __ZN13OZChannelTextC1ERK8PCStringP15OZChannelFolderjj, 
                       __ZN13OZChannelTextC1ERK8PCStringRS0_P15OZChannelFolderjj, 
                       __ZN13OZChannelTextC1ERKS_P15OZChannelFolder, __ZN13OZChannelTextC2EP9OZFactoryRK8PCStringP15OZChannelFolderjj, 
                       __ZN13OZChannelTextC2EP9OZFactoryRK8PCStringj, __ZN13OZChannelTextC2ERK8PCStringP15OZChannelFolderjj, 
                       __ZN13OZChannelTextC2ERK8PCStringRS0_P15OZChannelFolderjj, 
                       __ZN13OZChannelTextC2ERKS_P15OZChannelFolder, __ZN13OZChannelTextD0Ev, 
                       __ZN13OZChannelTextD1Ev, __ZN13OZChannelTextD2Ev, __ZN13OZCoreGlobals11getInstanceEv, 
                       __ZN13OZCoreGlobals9_instanceE, __ZN13OZCoreGlobalsC1Ev, __ZN13OZCoreGlobalsC2Ev, 
                       __ZN13OZEffect_Base30areEffectsAppliedInScreenSpaceEv, __ZN13OZFontManager11getInstanceEv, 
                       __ZN13OZFontManager20enumerateSystemFontsEv, __ZN13OZFontManager7cleanupEv, 
                       __ZN13OZFontManager9_instanceE, __ZN13OZFontManagerC1Ev, __ZN13OZFontManagerC2Ev, 
                       __ZN13OZFxGenerator13didAddToSceneEP7OZScene, __ZN13OZFxGenerator14_needsToRenderEP5HGRefI6HGNodeE, 
                       __ZN13OZFxGenerator14variesOverTimeEv, __ZN13OZFxGenerator15getInternalNameEv, 
                       __ZN13OZFxGenerator15setInternalNameERK8PCString, __ZN13OZFxGenerator16calcHashForStateER23PCSerializerWriteStreamRK14OZRenderParamsRNSt3__14listIP19OZObjectManipulatorNS5_9allocatorIS8_EEEE, 
                       __ZN13OZFxGenerator18disableRootChannelEv, __ZN13OZFxGenerator19createOutputFxImageERK7LiAgentiijbRK6PCRectIdES6_dd7FigTimeR14OZRenderParamsPv, 
                       __ZN13OZFxGenerator19willRemoveFromSceneEP7OZScene, __ZN13OZFxGenerator20completeConstructionEv, 
                       __ZN13OZFxGenerator20getRootChannelFolderEv, __ZN13OZFxGenerator21didChangeChannelStateEP13OZChannelBase, 
                       __ZN13OZFxGenerator21makeRenderImageSourceER14OZRenderParamsRK18OZRenderGraphStateb, 
                       __ZN13OZFxGenerator21pixelTransformSupportERK18LiRenderParametersR14OZRenderParams, 
                       __ZN13OZFxGenerator21shouldRenumberChannelEP13OZChannelBase, 
                       __ZN13OZFxGenerator25didFinishLoadingIntoSceneEv, __ZN13OZFxGenerator8parseEndER22PCSerializerReadStream, 
                       __ZN13OZFxGenerator9getHeliumER7LiAgent7FigTimeR14OZRenderParams, 
                       __ZN13OZFxGeneratorC1EP9OZFactoryRK8PCStringjib, __ZN13OZFxGeneratorC1ERKS_j, 
                       __ZN13OZFxGeneratorC2EP9OZFactoryRK8PCStringjib, __ZN13OZFxGeneratorC2ERKS_j, 
                       __ZN13OZFxGeneratorD0Ev, __ZN13OZFxGeneratorD1Ev, __ZN13OZFxGeneratorD2Ev, 
                       __ZN13OZFxGeneratoraSERK11OZSceneNode, __ZN13OZLiGenerator13filteredEdgesEv, 
                       __ZN13OZLiGenerator20estimateRenderMemoryERNSt3__13setI9PCHash128NS0_4lessIS2_EENS0_9allocatorIS2_EEEE, 
                       __ZN13OZLiGenerator21pixelTransformSupportERK18LiRenderParameters, 
                       __ZN13OZLiGenerator5printERNSt3__113basic_ostreamIcNS0_11char_traitsIcEEEEi, 
                       __ZN13OZLiGenerator9getHeliumER7LiAgent, __ZN13OZLiGeneratorC1EP16OZImageGeneratorRK14OZRenderParams, 
                       __ZN13OZLiGeneratorC2EP16OZImageGeneratorRK14OZRenderParams, 
                       __ZN13OZPanBehavior23addCurveNodesToChannelsEP11OZSceneNode, 
                       __ZN13OZPanBehavior9solveNodeEjRK7FigTimedd, __ZN13OZPanBehaviorC1EP9OZFactoryRK8PCStringj, 
                       __ZN13OZPanBehaviorC1ERKS_j, __ZN13OZPanBehaviorC2EP9OZFactoryRK8PCStringj, 
                       __ZN13OZPanBehaviorC2ERKS_j, __ZN13OZPanBehaviorD0Ev, __ZN13OZPanBehaviorD1Ev, 
                       __ZN13OZPanBehaviorD2Ev, __ZN13OZPanBehavioraSERK10OZBehavior, 
                       __ZN13OZProjectNode10parseBeginER22PCSerializerReadStream, 
                       __ZN13OZProjectNode12parseElementER22PCSerializerReadStreamR15PCStreamElement, 
                       __ZN13OZProjectNode13didAddToSceneEP7OZScene, __ZN13OZProjectNode19willRemoveFromSceneEP7OZScene, 
                       __ZN13OZProjectNode20performDragOperationEP13OZFactoryBaseP13OZChannelBasejjjjRK7FigTime, 
                       __ZN13OZProjectNode22getSourceOperationMaskEP13OZChannelBaseb, 
                       __ZN13OZProjectNode23prepareForDragOperationEP11OZPasteListP13OZChannelBasejj, 
                       __ZN13OZProjectNode25didFinishLoadingIntoSceneEv, __ZN13OZProjectNode27didCreateCopyForCopyOnWriteEv, 
                       __ZN13OZProjectNode29markFactoriesForSerializationER23PCSerializerWriteStreamb, 
                       __ZN13OZProjectNode32didFinishLoadingIntoMotionEffectEv, __ZN13OZProjectNode6createERK8PCStringj, 
                       __ZN13OZProjectNode8parseEndER22PCSerializerReadStream, __ZN13OZProjectNode9allowDragEP13OZFactoryBaseP13OZChannelBasejPjS4_j, 
                       __ZN13OZProjectNode9writeBodyER23PCSerializerWriteStreambbb, 
                       __ZN13OZProjectNodeC1EP9OZFactoryRK8PCStringj, __ZN13OZProjectNodeC1ERS_j, 
                       __ZN13OZProjectNodeC2EP9OZFactoryRK8PCStringj, __ZN13OZProjectNodeC2ERS_j, 
                       __ZN13OZProjectNodeD0Ev, __ZN13OZProjectNodeD1Ev, __ZN13OZProjectNodeD2Ev, 
                       __ZN13OZProjectNodeaSERK11OZSceneNode, __ZN13OZRenderState12TransformSet11translationEb, 
                       __ZN13OZRenderState12TransformSet5pivotEb, __ZN13OZRenderState12TransformSet5scaleEb, 
                       __ZN13OZRenderState12TransformSet5shearEb, __ZN13OZRenderState12TransformSet8rotationEb, 
                       __ZN13OZRenderState12setEyeMatrixEPK8LiCamera, __ZN13OZRenderStateC1ERKS_, 
                       __ZN13OZRenderStateC1Ev, __ZN13OZRenderStateC2ERKS_, __ZN13OZRenderStateC2Ev, 
                       __ZN13OZRenderStateaSERKS_, __ZN13OZRigBehavior10copyScalesEPK13OZChannelBasePS0_, 
                       __ZN13OZRigBehavior10copyValuesEPK13OZChannelBasePS0_, __ZN13OZRigBehavior10parseBeginER22PCSerializerReadStream, 
                       __ZN13OZRigBehavior10willRemoveEv, __ZN13OZRigBehavior12didAddToNodeEP11OZSceneNode, 
                       __ZN13OZRigBehavior14addToSceneNodeEP11OZSceneNode, __ZN13OZRigBehavior14calcStaticHashER23PCSerializerWriteStreamRNSt3__14listIP19OZObjectManipulatorNS2_9allocatorIS5_EEEE, 
                       __ZN13OZRigBehavior14deleteSnapshotEj, __ZN13OZRigBehavior14didUndoReorderEv, 
                       __ZN13OZRigBehavior14getRiggedValueEjjjdRK7FigTime, __ZN13OZRigBehavior15willUndoReorderEv, 
                       __ZN13OZRigBehavior16calcHashForStateER23PCSerializerWriteStreamRK14OZRenderParamsRNSt3__14listIP19OZObjectManipulatorNS5_9allocatorIS8_EEEE, 
                       __ZN13OZRigBehavior16willDeleteObjectEP19OZObjectManipulator, 
                       __ZN13OZRigBehavior17willDeleteChannelEP13OZChannelBase, __ZN13OZRigBehavior18registerWithWidgetEv, 
                       __ZN13OZRigBehavior20copySnapshotToTargetEj, __ZN13OZRigBehavior20copyTargetToSnapshotEj, 
                       __ZN13OZRigBehavior20didUndoDeleteChannelEP13OZChannelBase, 
                       __ZN13OZRigBehavior20sortSnapshotChannelsEv, __ZN13OZRigBehavior20unregisterWithWidgetEv, 
                       __ZN13OZRigBehavior21adjustToSnapshotCountEv, __ZN13OZRigBehavior21createDefaultSnapshotEjPK13OZChannelBase, 
                       __ZN13OZRigBehavior21didUndoDeleteOfObjectEP19OZObjectManipulator, 
                       __ZN13OZRigBehavior21getChannelForSnapshotEj, __ZN13OZRigBehavior22cacheCurrentSnapshotIDERK7FigTime, 
                       __ZN13OZRigBehavior22didAddSceneNodeToSceneEP7OZScene, __ZN13OZRigBehavior23willDeleteMaterialLayerEP19OZMaterialLayerBase, 
                       __ZN13OZRigBehavior25didFinishLoadingIntoSceneEv, __ZN13OZRigBehavior27clearCurrentSnapshotIDCacheEv, 
                       __ZN13OZRigBehavior27createDefaultSnapshotHelperEjPK13OZChannelBase, 
                       __ZN13OZRigBehavior27createInterpolatingSnapshotEjjjdRK7FigTime, 
                       __ZN13OZRigBehavior28canAddToChannelAfterMismatchEP13OZChannelBase, 
                       __ZN13OZRigBehavior28willRemoveSceneNodeFromSceneEP7OZScene, 
                       __ZN13OZRigBehavior30DuplicateAffectingRigBehaviorsEP19OZObjectManipulatorS1_, 
                       __ZN13OZRigBehavior30adjustTo2DChannelsPromotedTo3DEv, __ZN13OZRigBehavior35AddAffectingRigBehaviorsToPasteListEP19OZObjectManipulatorP11OZPasteListb, 
                       __ZN13OZRigBehavior4copyERK10OZBehavior, __ZN13OZRigBehavior9setWidgetEP11OZRigWidget, 
                       __ZN13OZRigBehavior9solveNodeEjRK7FigTimedd, __ZN13OZRigBehaviorC1EP9OZFactoryRK8PCStringj, 
                       __ZN13OZRigBehaviorC1ERKS_j, __ZN13OZRigBehaviorC2EP9OZFactoryRK8PCStringj, 
                       __ZN13OZRigBehaviorC2ERKS_j, __ZN13OZRigBehaviorD0Ev, __ZN13OZRigBehaviorD1Ev, 
                       __ZN13OZRigBehaviorD2Ev, __ZN13OZRigBehavioraSERK10OZBehavior, 
                       __ZN13OZRigSnapshot18applyInterpolationEd, __ZN13OZRigSnapshot27OZRigSnapshot_valueChanImpl24_OZRigSnapshot_valueChanE, 
                       __ZN13OZRigSnapshot35OZRigSnapshot_interpolationChanImpl32_OZRigSnapshot_interpolationChanE, 
                       __ZN13OZRigSnapshotC1EP15OZChannelFolderj, __ZN13OZRigSnapshotC1ERKS_P15OZChannelFolder, 
                       __ZN13OZRigSnapshotC2EP15OZChannelFolderj, __ZN13OZRigSnapshotC2ERKS_P15OZChannelFolder, 
                       __ZN13OZRigSnapshotD0Ev, __ZN13OZRigSnapshotD1Ev, __ZN13OZRigSnapshotD2Ev, 
                       __ZN13OZRig_Factory9_instanceE, __ZN13OZSceneCamera10setFarCropEb, 
                       __ZN13OZSceneCamera11setFarPlaneEd, __ZN13OZSceneCamera11setFilmbackERK9PCVector2IdE, 
                       __ZN13OZSceneCamera11setRotationERK6PCQuatIdE, __ZN13OZSceneCamera12setNearPlaneEd, 
                       __ZN13OZSceneCamera14setAngleOfViewEd, __ZN13OZSceneCamera14setCameraModelE13LiCameraModel, 
                       __ZN13OZSceneCamera14setCurrentTimeEb, __ZN13OZSceneCamera14setTranslationERK9PCVector3IdE, 
                       __ZN13OZSceneCamera15setFarPlaneFadeEd, __ZN13OZSceneCamera16setEulerRotationERK9PCVector3IdE, 
                       __ZN13OZSceneCamera16setEulerRotationERK9PCVector3IdES3_, 
                       __ZN13OZSceneCamera16setNearPlaneFadeEd, __ZN13OZSceneCamera16setRotationOrderE13RotationOrder, 
                       __ZN13OZSceneCamera18setNiceAngleOfViewEb, __ZN13OZSceneCamera18setParentTransformERK14PCMatrix44TmplIdE, 
                       __ZN13OZSceneCamera19setPixelAspectRatioEd, __ZN13OZSceneCamera7setCropEb, 
                       __ZN13OZSceneCamera7setTimeE7FigTime, __ZN13OZSceneCamera8setPivotERK9PCVector3IdE, 
                       __ZN13OZSceneCamera8setScaleEd, __ZN13OZSceneCamera8setSceneEP7OZScene, 
                       __ZN13OZSceneCamera9setNodeIDEj, __ZN13OZSceneCameraC1EP7OZScenej, 
                       __ZN13OZSceneCameraC2EP7OZScenej, __ZN13OZSceneCameraD0Ev, 
                       __ZN13OZSceneCameraD1Ev, __ZN13OZSceneCameraD2Ev, __ZN13OZSplineStateC1ERKS_, 
                       __ZN13OZSplineStateC1Ebbbbjjjb, __ZN13OZSplineStateC1Ev, __ZN13OZSplineStateC2ERKS_, 
                       __ZN13OZSplineStateC2Ebbbbjjjb, __ZN13OZSplineStateC2Ev, __ZN13OZSplineStateaSERKS_, 
                       __ZN13OZViewerState10parseBeginER22PCSerializerReadStream, 
                       __ZN13OZViewerState11resetCameraEv, __ZN13OZViewerState11setSnappingEb, 
                       __ZN13OZViewerState11setViewModeEi, __ZN13OZViewerState11setZoomModeEi, 
                       __ZN13OZViewerState11writeHeaderER23PCSerializerWriteStreamb, 
                       __ZN13OZViewerState12cameraLoadedEP7OZScene, __ZN13OZViewerState12parseElementER22PCSerializerReadStreamR15PCStreamElement, 
                       __ZN13OZViewerState13cloneSettingsERKS_, __ZN13OZViewerState13getResolutionEPdS0_, 
                       __ZN13OZViewerState13getResolutionEv, __ZN13OZViewerState13setOSCOptionsEj, 
                       __ZN13OZViewerState14getOrthoCameraEiP7OZScene, __ZN13OZViewerState14setShowShadowsEb, 
                       __ZN13OZViewerState15setKeepCenteredEb, __ZN13OZViewerState15setMirroringHMDEb, 
                       __ZN13OZViewerState15setRenderFieldsEb, __ZN13OZViewerState15setShowLightingEb, 
                       __ZN13OZViewerState15setShowToolInfoEb, __ZN13OZViewerState15setUseDropZonesEb, 
                       __ZN13OZViewerState17setOverlayOptionsEj, __ZN13OZViewerState17setRenderFullViewEb, 
                       __ZN13OZViewerState17setResolutionModeE12OZResolution, __ZN13OZViewerState17setShowMotionBlurEb, 
                       __ZN13OZViewerState17setShowReflectionEb, __ZN13OZViewerState18getPanZoomSettingsE16OZViewCameraType, 
                       __ZN13OZViewerState19setShowDepthOfFieldEb, __ZN13OZViewerState20getDynamicResolutionEv, 
                       __ZN13OZViewerState20setShapeAntialiasingEb, __ZN13OZViewerState20setShowFrameBlendingEb, 
                       __ZN13OZViewerState21setViewerDefaultStateEv, __ZN13OZViewerState23getFullscreenViewOffsetEv, 
                       __ZN13OZViewerState23setFullscreenViewOffsetERK9PCVector2IiE, 
                       __ZN13OZViewerState24setCompensateAspectRatioEb, __ZN13OZViewerState24setDynamicResolutionModeEb, 
                       __ZN13OZViewerState24setHighQualityResamplingEb, __ZN13OZViewerState26toggleCurrentAlphaViewModeEv, 
                       __ZN13OZViewerState29markFactoriesForSerializationER23PCSerializerWriteStreamb, 
                       __ZN13OZViewerState29set3DIntersectionAntialiasingEb, __ZN13OZViewerState6getPanEv, 
                       __ZN13OZViewerState6setPanEdd, __ZN13OZViewerState7cleanUpEP7OZScene, 
                       __ZN13OZViewerState7getPanXEv, __ZN13OZViewerState7getPanYEv, 
                       __ZN13OZViewerState7setZoomEd, __ZN13OZViewerState8parseEndER22PCSerializerReadStream, 
                       __ZN13OZViewerState9writeBodyER23PCSerializerWriteStreambbb, 
                       __ZN13OZViewerStateC1ERKS_, __ZN13OZViewerStateC1Ev, __ZN13OZViewerStateC2ERKS_, 
                       __ZN13OZViewerStateC2Ev, __ZN13PCAsciiStream13encodeNewSizeEv, 
                       __ZN13PCAsciiStream4openEPKc, __ZN13PCAsciiStream4openEPKcy, 
                       __ZN13PCAsciiStream4readEPvy, __ZN13PCAsciiStream5clearEv, 
                       __ZN13PCAsciiStream5closeEv, __ZN13PCAsciiStream5writeEPKvy, 
                       __ZN13PCAsciiStream9validCharEh, __ZN13PCAsciiStreamC1Ev, 
                       __ZN13PCAsciiStreamC2Ev, __ZN13PCAsciiStreamD1Ev, __ZN13PCAsciiStreamD2Ev, 
                       __ZN13PCPixelFormat11removeAlphaENS_12ChannelOrderE, __ZN13PCPixelFormat12hasAlphaLastENS_12ChannelOrderE, 
                       __ZN13PCPixelFormat13getGLDataTypeENS_12ChannelOrderE, __ZN13PCPixelFormat14getNumChannelsENS_12ChannelOrderE, 
                       __ZN13PCPixelFormat14getPixelFormatEjj, __ZN13PCPixelFormat15getBitsPerPixelENS_12ChannelOrderE, 
                       __ZN13PCPixelFormat15getGLDataFormatENS_12ChannelOrderE, __ZN13PCPixelFormat16getBytesPerPixelENS_12ChannelOrderE, 
                       __ZN13PCPixelFormat17getBitsPerChannelENS_12ChannelOrderE, 
                       __ZN13PCPixelFormat19getGLInternalFormatENS_12ChannelOrderE, 
                       __ZN13PCPixelFormat6hasRGBENS_12ChannelOrderE, __ZN13PCPixelFormat6is8BitENS_12ChannelOrderE, 
                       __ZN13PCPixelFormat6setRGBENS_12ChannelOrderE, __ZN13PCPixelFormat7hasGrayENS_12ChannelOrderE, 
                       __ZN13PCPixelFormat7is16BitENS_12ChannelOrderE, __ZN13PCPixelFormat7is32BitENS_12ChannelOrderE, 
                       __ZN13PCPixelFormat7isFloatENS_12ChannelOrderE, __ZN13PCPixelFormat7setGrayENS_12ChannelOrderE, 
                       __ZN13PCPixelFormat8addAlphaENS_12ChannelOrderE, __ZN13PCPixelFormat8hasAlphaENS_12ChannelOrderE, 
                       __ZN13PCPixelFormat8setDepthENS_12ChannelOrderEjb, __ZN13PCRenderModel23getDefaultBlendingGammaEv, 
                       __ZN13PCRenderModelC1ENS_4TypeE, __ZN13PCRenderModelC2ENS_4TypeE, 
                       __ZN13PCScopeLogger13topLoggerNameERNSt3__113basic_ostreamIcNS0_11char_traitsIcEEEE, 
                       __ZN13PCScopeLoggerC1EPKc, __ZN13PCScopeLoggerC2EPKc, __ZN13PCScopeLoggerD1Ev, 
                       __ZN13PCScopeLoggerD2Ev, __ZN13PCSharedMutex11lock_sharedEv, 
                       __ZN13PCSharedMutex13unlock_sharedEv, __ZN13PCSharedMutex4lockEv, 
                       __ZN13PCSharedMutex6unlockEv, __ZN13PCSharedMutexC1Ev, __ZN13PCSharedMutexC2Ev, 
                       __ZN13PGFramebuffer4bindERN5ProGL2GLE, __ZN13PGFramebuffer4bindEv, 
                       __ZN13PGFramebuffer6attachERKNSt3__110shared_ptrI9PGTextureEE, 
                       __ZN13PGFramebuffer6attachEjj, __ZN13PGFramebuffer6unbindERN5ProGL2GLE, 
                       __ZN13PGFramebuffer6unbindEv, __ZN13PGFramebuffer8unattachEv, 
                       __ZN13PGFramebufferC1Ev, __ZN13PGFramebufferC2Ev, __ZN13PGFramebufferD1Ev, 
                       __ZN13PGFramebufferD2Ev, __ZN13PGTextureRect10setDataPtrEPKvjj, 
                       __ZN13PGTextureRect10setDataPtrEPKvjjjjjj, __ZN13PGTextureRect12setBitmapRefERKNSt3__110shared_ptrI8PCBitmapEE, 
                       __ZN13PGTextureRect9toTextureERKNSt3__110shared_ptrI7PCImageEE, 
                       __ZN13PGTextureRectC1ERKN5ProGL13TextureHandleE, __ZN13PGTextureRectC1ERKN5ProGL13TextureHandleEPv, 
                       __ZN13PGTextureRectC1ERN5ProGL2GLEllRK18PCColorSpaceHandleliijjPv, 
                       __ZN13PGTextureRectC2ERKN5ProGL13TextureHandleE, __ZN13PGTextureRectC2ERKN5ProGL13TextureHandleEPv, 
                       __ZN13PGTextureRectC2ERN5ProGL2GLEllRK18PCColorSpaceHandleliijjPv, 
                       __ZN13PGTextureRectD0Ev, __ZN13PGTextureRectD1Ev, __ZN13PGTextureRectD2Ev, 
                       __ZN13PVSourceFrame11LoadTextureEP12HGGLRenderer, __ZN13PVSourceFrame11SetLoadTimeE11CMTimeRange, 
                       __ZN13PVSourceFrameC2E17PVSourceFrameType6CMTime6HGRect, __ZN13PVSourceFrameD0Ev, 
                       __ZN13PVSourceFrameD1Ev, __ZN13PVSourceFrameD2Ev, __ZN13ShadowCubeMap10clearFacesEv, 
                       __ZN13ShadowCubeMap3addERK14ShadowMapsLazy, __ZN13ShadowCubeMap3addERK9ShadowMap, 
                       __ZN13ShadowCubeMap4initEi, __ZN13ShadowCubeMap5clearEv, __ZN13ShadowCubeMapC1Ei, 
                       __ZN13ShadowCubeMapC1Ev, __ZN13ShadowCubeMapC2Ei, __ZN13ShadowCubeMapC2Ev, 
                       __ZN13ShadowCubeMapD0Ev, __ZN13ShadowCubeMapD1Ev, __ZN13ShadowCubeMapD2Ev, 
                       __ZN13ShadowCubeMapmLERK14PCMatrix44TmplIdE, __ZN13ShadowUtility16setupLightCameraERN5ProGL2GLEP13LiSceneObjectPK7LiLightR15LightShadowInfo, 
                       __ZN13TXChannelFont11getFontFaceERK8PCString, __ZN13TXChannelFont14getSystemFontsEv, 
                       __ZN13TXChannelFont14undoDidReplaceEv, __ZN13TXChannelFont15didLoadFontNameEv, 
                       __ZN13TXChannelFont18getObjCWrapperNameEv, __ZN13TXChannelFont24getDefaultSystemFontFaceEv, 
                       __ZN13TXChannelFont5resetEv, __ZN13TXChannelFontC1EP9OZFactoryRK8PCStringP15OZChannelFolderjj, 
                       __ZN13TXChannelFontC1EP9OZFactoryRK8PCStringj, __ZN13TXChannelFontC1ERK8PCStringP15OZChannelFolderjj, 
                       __ZN13TXChannelFontC1ERKS_P15OZChannelFolder, __ZN13TXChannelFontC2EP9OZFactoryRK8PCStringP15OZChannelFolderjj, 
                       __ZN13TXChannelFontC2EP9OZFactoryRK8PCStringj, __ZN13TXChannelFontC2ERK8PCStringP15OZChannelFolderjj, 
                       __ZN13TXChannelFontC2ERKS_P15OZChannelFolder, __ZN13TXFontManager11addFontFaceENSt3__110shared_ptrI10OZFontFaceEE, 
                       __ZN13TXFontManager11getFontFaceERK8PCString, __ZN13TXFontManager11getFontFaceEj, 
                       __ZN13TXFontManager11getInstanceEv, __ZN13TXFontManager14createFontFaceERK8PCStringS2_S2_b, 
                       __ZN13TXFontManager15getCoreTextFontERK8PCString, __ZN13TXFontManager15getCoreTextFontEj, 
                       __ZN13TXFontManager19registerCustomFontsEv, __ZN13TXFontManager20containsFontWithNameERK8PCString, 
                       __ZN13TXFontManager20enumerateSystemFontsEv, __ZN13TXFontManager7cleanupEv, 
                       __ZN13TXFontManager9_instanceE, __ZN13TXFontManager9initFontsEv, 
                       __ZN13TXFontManagerC1Ev, __ZN13TXFontManagerC2Ev, __ZN13TXFontManagerD0Ev, 
                       __ZN13TXFontManagerD1Ev, __ZN13TXFontManagerD2Ev, __ZN13TXHeliumGlyphC1EP12CGColorSpace, 
                       __ZN13TXHeliumGlyphC2EP12CGColorSpace, __ZN14FracturedUtils10propertiesEb, 
                       __ZN14FracturedUtils12renderOutputEP11objc_objectPU26objcproto15PROAPIAccessing11objc_objectPN11HGFractured6EffectEPNS_15FracturedParamsEP7FxImageSA_SA_fRK12FxRenderInfob, 
                       __ZN14FracturedUtils13addParametersEP11objc_objectPU26objcproto15PROAPIAccessing11objc_objectbPNS_15FracturedParamsE, 
                       __ZN14FracturedUtils14getReadyEffectERNSt3__16vectorIPNS_19FracturedFXPoolItemENS0_9allocatorIS3_EEEEP6NSLock, 
                       __ZN14FracturedUtils16_findReadyEffectERNSt3__16vectorIPNS_19FracturedFXPoolItemENS0_9allocatorIS3_EEEE, 
                       __ZN14FracturedUtils18getModeNameStringsEv, __ZN14FracturedUtils19getShapeNameStringsEv, 
                       __ZN14FracturedUtils23getAnimationTypeStringsEv, __ZN14FracturedUtils25_erasePurgableItemsInPoolERNSt3__16vectorIPNS_19FracturedFXPoolItemENS0_9allocatorIS3_EEEE, 
                       __ZN14HGColorCorrect10kParam_wgtE, __ZN14HGColorCorrect12SetParameterEiffff, 
                       __ZN14HGColorCorrect15kParam_contrastE, __ZN14HGColorCorrect17kParam_brightnessE, 
                       __ZN14HGColorCorrect26kParam_hue_saturation_tempE, __ZN14HGColorCorrect9GetOutputEP10HGRenderer, 
                       __ZN14HGColorCorrectC1Ev, __ZN14HGColorCorrectC2Ev, __ZN14HGColorCorrectD0Ev, 
                       __ZN14HGColorCorrectD1Ev, __ZN14HGColorCorrectD2Ev, __ZN14HGradientBlend6GetDODEP10HGRendereri6HGRect, 
                       __ZN14HGradientBlend6GetROIEP10HGRendereri6HGRect, __ZN14HGradientBlendC1Ev, 
                       __ZN14HGradientBlendC2Ev, __ZN14HGradientBlendD0Ev, __ZN14HGradientBlendD1Ev, 
                       __ZN14HGradientBlendD2Ev, __ZN14HgcChannelBlur10GetProgramEP10HGRenderer, 
                       __ZN14HgcChannelBlur10RenderTileEP6HGTile, __ZN14HgcChannelBlur11BindTextureEP9HGHandleri, 
                       __ZN14HgcChannelBlur12GetParameterEiPf, __ZN14HgcChannelBlur12SetParameterEiffff, 
                       __ZN14HgcChannelBlur4BindEP9HGHandler, __ZN14HgcChannelBlur6GetDODEP10HGRendereri6HGRect, 
                       __ZN14HgcChannelBlur6GetROIEP10HGRendereri6HGRect, __ZN14HgcChannelBlur9GetOutputEP10HGRenderer, 
                       __ZN14HgcChannelBlurC1Ev, __ZN14HgcChannelBlurC2Ev, __ZN14HgcChannelBlurD0Ev, 
                       __ZN14HgcChannelBlurD1Ev, __ZN14HgcChannelBlurD2Ev, __ZN14HgcCircleBlur210GetProgramEP10HGRenderer, 
                       __ZN14HgcCircleBlur210RenderTileEP6HGTile, __ZN14HgcCircleBlur211BindTextureEP9HGHandleri, 
                       __ZN14HgcCircleBlur212GetParameterEiPf, __ZN14HgcCircleBlur212SetParameterEiffff, 
                       __ZN14HgcCircleBlur24BindEP9HGHandler, __ZN14HgcCircleBlur26GetDODEP10HGRendereri6HGRect, 
                       __ZN14HgcCircleBlur26GetROIEP10HGRendereri6HGRect, __ZN14HgcCircleBlur29GetOutputEP10HGRenderer, 
                       __ZN14HgcCircleBlur2C1Ev, __ZN14HgcCircleBlur2C2Ev, __ZN14HgcCircleBlur2D0Ev, 
                       __ZN14HgcCircleBlur2D1Ev, __ZN14HgcCircleBlur2D2Ev, __ZN14HgcContrastRGB10GetProgramEP10HGRenderer, 
                       __ZN14HgcContrastRGB10RenderTileEP6HGTile, __ZN14HgcContrastRGB11BindTextureEP9HGHandleri, 
                       __ZN14HgcContrastRGB12GetParameterEiPf, __ZN14HgcContrastRGB12SetParameterEiffff, 
                       __ZN14HgcContrastRGB4BindEP9HGHandler, __ZN14HgcContrastRGB6GetDODEP10HGRendereri6HGRect, 
                       __ZN14HgcContrastRGB6GetROIEP10HGRendereri6HGRect, __ZN14HgcContrastRGB9GetOutputEP10HGRenderer, 
                       __ZN14HgcContrastRGBC1Ev, __ZN14HgcContrastRGBC2Ev, __ZN14HgcContrastRGBD0Ev, 
                       __ZN14HgcContrastRGBD1Ev, __ZN14HgcContrastRGBD2Ev, __ZN14HgcGreenScreen10GetProgramEP10HGRenderer, 
                       __ZN14HgcGreenScreen10RenderTileEP6HGTile, __ZN14HgcGreenScreen11BindTextureEP9HGHandleri, 
                       __ZN14HgcGreenScreen12GetParameterEiPf, __ZN14HgcGreenScreen12SetParameterEiffff, 
                       __ZN14HgcGreenScreen4BindEP9HGHandler, __ZN14HgcGreenScreen6GetDODEP10HGRendereri6HGRect, 
                       __ZN14HgcGreenScreen6GetROIEP10HGRendereri6HGRect, __ZN14HgcGreenScreen9GetOutputEP10HGRenderer, 
                       __ZN14HgcGreenScreenC1Ev, __ZN14HgcGreenScreenC2Ev, __ZN14HgcGreenScreenD0Ev, 
                       __ZN14HgcGreenScreenD1Ev, __ZN14HgcGreenScreenD2Ev, __ZN14HgcInvertAlpha10GetProgramEP10HGRenderer, 
                       __ZN14HgcInvertAlpha10RenderTileEP6HGTile, __ZN14HgcInvertAlpha11BindTextureEP9HGHandleri, 
                       __ZN14HgcInvertAlpha12GetParameterEiPf, __ZN14HgcInvertAlpha12SetParameterEiffff, 
                       __ZN14HgcInvertAlpha4BindEP9HGHandler, __ZN14HgcInvertAlpha6GetDODEP10HGRendereri6HGRect, 
                       __ZN14HgcInvertAlpha6GetROIEP10HGRendereri6HGRect, __ZN14HgcInvertAlpha9GetOutputEP10HGRenderer, 
                       __ZN14HgcInvertAlphaC1Ev, __ZN14HgcInvertAlphaC2Ev, __ZN14HgcInvertAlphaD0Ev, 
                       __ZN14HgcInvertAlphaD1Ev, __ZN14HgcInvertAlphaD2Ev, __ZN14HgcMaskCompAdd10GetProgramEP10HGRenderer, 
                       __ZN14HgcMaskCompAdd10RenderTileEP6HGTile, __ZN14HgcMaskCompAdd11BindTextureEP9HGHandleri, 
                       __ZN14HgcMaskCompAdd12GetParameterEiPf, __ZN14HgcMaskCompAdd12SetParameterEiffff, 
                       __ZN14HgcMaskCompAdd4BindEP9HGHandler, __ZN14HgcMaskCompAdd6GetDODEP10HGRendereri6HGRect, 
                       __ZN14HgcMaskCompAdd6GetROIEP10HGRendereri6HGRect, __ZN14HgcMaskCompAdd9GetOutputEP10HGRenderer, 
                       __ZN14HgcMaskCompAddC1Ev, __ZN14HgcMaskCompAddC2Ev, __ZN14HgcMaskCompAddD0Ev, 
                       __ZN14HgcMaskCompAddD1Ev, __ZN14HgcMaskCompAddD2Ev, __ZN14HgcPSImageTint10GetProgramEP10HGRenderer, 
                       __ZN14HgcPSImageTint10RenderTileEP6HGTile, __ZN14HgcPSImageTint11BindTextureEP9HGHandleri, 
                       __ZN14HgcPSImageTint12GetParameterEiPf, __ZN14HgcPSImageTint12SetParameterEiffff, 
                       __ZN14HgcPSImageTint4BindEP9HGHandler, __ZN14HgcPSImageTint5SetupEPv, 
                       __ZN14HgcPSImageTint6GetDODEP10HGRendereri6HGRect, __ZN14HgcPSImageTint6GetROIEP10HGRendereri6HGRect, 
                       __ZN14HgcPSImageTint9GetOutputEP10HGRenderer, __ZN14HgcPSImageTintC1Ev, 
                       __ZN14HgcPSImageTintC2Ev, __ZN14HgcPSImageTintD0Ev, __ZN14HgcPSImageTintD1Ev, 
                       __ZN14HgcPSImageTintD2Ev, __ZN14HgcPolarToRect10GetProgramEP10HGRenderer, 
                       __ZN14HgcPolarToRect10RenderTileEP6HGTile, __ZN14HgcPolarToRect11BindTextureEP9HGHandleri, 
                       __ZN14HgcPolarToRect12GetParameterEiPf, __ZN14HgcPolarToRect12SetParameterEiffff, 
                       __ZN14HgcPolarToRect4BindEP9HGHandler, __ZN14HgcPolarToRect6GetDODEP10HGRendereri6HGRect, 
                       __ZN14HgcPolarToRect6GetROIEP10HGRendereri6HGRect, __ZN14HgcPolarToRect9GetOutputEP10HGRenderer, 
                       __ZN14HgcPolarToRectC1Ev, __ZN14HgcPolarToRectC2Ev, __ZN14HgcPolarToRectD0Ev, 
                       __ZN14HgcPolarToRectD1Ev, __ZN14HgcPolarToRectD2Ev, __ZN14HgcRectToPolar10GetProgramEP10HGRenderer, 
                       __ZN14HgcRectToPolar10RenderTileEP6HGTile, __ZN14HgcRectToPolar11BindTextureEP9HGHandleri, 
                       __ZN14HgcRectToPolar12GetParameterEiPf, __ZN14HgcRectToPolar12SetParameterEiffff, 
                       __ZN14HgcRectToPolar4BindEP9HGHandler, __ZN14HgcRectToPolar6GetDODEP10HGRendereri6HGRect, 
                       __ZN14HgcRectToPolar6GetROIEP10HGRendereri6HGRect, __ZN14HgcRectToPolar9GetOutputEP10HGRenderer, 
                       __ZN14HgcRectToPolarC1Ev, __ZN14HgcRectToPolarC2Ev, __ZN14HgcRectToPolarD0Ev, 
                       __ZN14HgcRectToPolarD1Ev, __ZN14HgcRectToPolarD2Ev, __ZN14HgcSmearToRect10GetProgramEP10HGRenderer, 
                       __ZN14HgcSmearToRect10RenderTileEP6HGTile, __ZN14HgcSmearToRect11BindTextureEP9HGHandleri, 
                       __ZN14HgcSmearToRect12GetParameterEiPf, __ZN14HgcSmearToRect12SetParameterEiffff, 
                       __ZN14HgcSmearToRect4BindEP9HGHandler, __ZN14HgcSmearToRect6GetDODEP10HGRendereri6HGRect, 
                       __ZN14HgcSmearToRect6GetROIEP10HGRendereri6HGRect, __ZN14HgcSmearToRect9GetOutputEP10HGRenderer, 
                       __ZN14HgcSmearToRectC1Ev, __ZN14HgcSmearToRectC2Ev, __ZN14HgcSmearToRectD0Ev, 
                       __ZN14HgcSmearToRectD1Ev, __ZN14HgcSmearToRectD2Ev, __ZN14HgcUnsharpMask10GetProgramEP10HGRenderer, 
                       __ZN14HgcUnsharpMask10RenderTileEP6HGTile, __ZN14HgcUnsharpMask11BindTextureEP9HGHandleri, 
                       __ZN14HgcUnsharpMask12GetParameterEiPf, __ZN14HgcUnsharpMask12SetParameterEiffff, 
                       __ZN14HgcUnsharpMask4BindEP9HGHandler, __ZN14HgcUnsharpMask6GetDODEP10HGRendereri6HGRect, 
                       __ZN14HgcUnsharpMask6GetROIEP10HGRendereri6HGRect, __ZN14HgcUnsharpMask9GetOutputEP10HGRenderer, 
                       __ZN14HgcUnsharpMaskC1Ev, __ZN14HgcUnsharpMaskC2Ev, __ZN14HgcUnsharpMaskD0Ev, 
                       __ZN14HgcUnsharpMaskD1Ev, __ZN14HgcUnsharpMaskD2Ev, __ZN14LiCollectStateC1ERKS_, 
                       __ZN14LiCollectStateC1Ev, __ZN14LiCollectStateC2ERKS_, __ZN14LiCollectStateC2Ev, 
                       __ZN14LiGammaTexture10getTextureEv, __ZN14LiGammaTexture12resetTextureEv, 
                       __ZN14LiGammaTexture13createTextureEv, __ZN14LiGammaTexture8getGammaEv, 
                       __ZN14LiGammaTexture8setGammaEd, __ZN14LiGammaTextureC1Ev, 
                       __ZN14LiGammaTextureC2Ev, __ZN14LiGammaTextureD1Ev, __ZN14LiGammaTextureD2Ev, 
                       __ZN14LiGaussianBlur11getBoundaryER7LiAgentP6PCRectIdE, __ZN14LiGaussianBlur20estimateRenderMemoryERNSt3__13setI9PCHash128NS0_4lessIS2_EENS0_9allocatorIS2_EEEE, 
                       __ZN14LiGaussianBlur9getHeliumER7LiAgent, __ZN14LiGraphBuilder11add3DEngineERK5PCPtrI13LiSceneObjectE19PCWorkingGamutValue, 
                       __ZN14LiGraphBuilder11add3dFilterERK5PCPtrI13LiImageFilterE19PCWorkingGamutValueRKS0_I8LiCameraEiib, 
                       __ZN14LiGraphBuilder14partitionWorldEv, __ZN14LiGraphBuilder15createPartitionEv, 
                       __ZN14LiGraphBuilder15firstProjectionEv, __ZN14LiGraphBuilder15prepare3DEngineE19PCWorkingGamutValueRK5PCPtrI8LiCameraEiib, 
                       __ZN14LiGraphBuilder16makeNewPartitionEb, __ZN14LiGraphBuilder17add3DEngineFilterERK5PCPtrI13LiImageFilterE19PCWorkingGamutValueRKS0_I8LiCameraEiib, 
                       __ZN14LiGraphBuilder17combinedTransformEii, __ZN14LiGraphBuilder21endInsertingIntoGroupEv, 
                       __ZN14LiGraphBuilder22addGroupAndMakeCurrentERK5PCPtrI7LiGroupE, 
                       __ZN14LiGraphBuilder22getCurrentLocalToWorldEv, __ZN14LiGraphBuilder23startInsertingIntoGroupERK5PCPtrI7LiGroupE, 
                       __ZN14LiGraphBuilder24getCurrentInsertionGroupEv, __ZN14LiGraphBuilder26getLastChildInCurrentGroupEv, 
                       __ZN14LiGraphBuilder29getAndIncrementCompositeOrderEv, __ZN14LiGraphBuilder5add2dERK5PCPtrI13LiSceneObjectE, 
                       __ZN14LiGraphBuilder5add3dERK5PCPtrI13LiSceneObjectE19PCWorkingGamutValue, 
                       __ZN14LiGraphBuilder6renderEv, __ZN14LiGraphBuilder8addChildERK5PCPtrI13LiSceneObjectE, 
                       __ZN14LiGraphBuilder8addGroupERK5PCPtrI7LiGroupE, __ZN14LiGraphBuilder8render2dEv, 
                       __ZN14LiGraphBuilder9addLightsERK10LiLightSet, __ZN14LiGraphBuilder9prepare2dEv, 
                       __ZN14LiGraphBuilder9prepare3dE19PCWorkingGamutValueRK5PCPtrI8LiCameraEiib, 
                       __ZN14LiGraphBuilder9setLightsERK10LiLightSet, __ZN14LiGraphBuilder9stackReprEv, 
                       __ZN14LiGraphBuilder9worldRootEv, __ZN14LiGraphBuilderC1ERK5PCPtrI7LiGroupERK12LiAASettings, 
                       __ZN14LiGraphBuilderC1ERKS_, __ZN14LiGraphBuilderC2ERK5PCPtrI7LiGroupERK12LiAASettings, 
                       __ZN14LiGraphBuilderC2ERKS_, __ZN14LiGraphBuilderD1Ev, __ZN14LiGraphBuilderD2Ev, 
                       __ZN14LiHeGridShader10GetProgramEP10HGRenderer, __ZN14LiHeGridShader10RenderTileEP6HGTile, 
