--- !tapi-tbd-v3
archs:           [ x86_64 ]
uuids:           [ 'x86_64: C4D62B77-B183-3B1A-9D1B-2B167C014968' ]
platform:        macosx
install-name:    /System/Library/PrivateFrameworks/CoreNavigation.framework/Versions/A/CoreNavigation
current-version: 0
compatibility-version: 0
exports:         
  - archs:           [ x86_64 ]
    symbols:         [ __ZN10CNTimeSpan11DeserializeER21CNSerializationStream, __ZN10CNTimeSpan11SetTimeSpanExd, 
                       __ZN10CNTimeSpan11SetTimeSpanEyd, __ZN10CNTimeSpanC1ERKS_, 
                       __ZN10CNTimeSpanC1Ed, __ZN10CNTimeSpanC1Ef, __ZN10CNTimeSpanC1Ei, 
                       __ZN10CNTimeSpanC1Eid, __ZN10CNTimeSpanC1Ej, __ZN10CNTimeSpanC1Ejd, 
                       __ZN10CNTimeSpanC1Es, __ZN10CNTimeSpanC1Esd, __ZN10CNTimeSpanC1Et, 
                       __ZN10CNTimeSpanC1Etd, __ZN10CNTimeSpanC1Ev, __ZN10CNTimeSpanC1Ex, 
                       __ZN10CNTimeSpanC1Exd, __ZN10CNTimeSpanC1Ey, __ZN10CNTimeSpanC1Eyd, 
                       __ZN10CNTimeSpanC2ERKS_, __ZN10CNTimeSpanC2Ed, __ZN10CNTimeSpanC2Ef, 
                       __ZN10CNTimeSpanC2Ei, __ZN10CNTimeSpanC2Eid, __ZN10CNTimeSpanC2Ej, 
                       __ZN10CNTimeSpanC2Ejd, __ZN10CNTimeSpanC2Es, __ZN10CNTimeSpanC2Esd, 
                       __ZN10CNTimeSpanC2Et, __ZN10CNTimeSpanC2Etd, __ZN10CNTimeSpanC2Ev, 
                       __ZN10CNTimeSpanC2Ex, __ZN10CNTimeSpanC2Exd, __ZN10CNTimeSpanC2Ey, 
                       __ZN10CNTimeSpanC2Eyd, __ZN10CNTimeSpanD0Ev, __ZN10CNTimeSpanD1Ev, 
                       __ZN10CNTimeSpanD2Ev, __ZN10CNTimeSpanaSERKS_, __ZN10CNTimeSpanmIERKS_, 
                       __ZN10CNTimeSpanpLERKS_, __ZN10cnrotation10CNRotation11DeserializeER21CNSerializationStream, 
                       __ZN10cnrotation10CNRotation9NormalizeERKN12cnquaternion12CNQuaternionE, 
                       __ZN10cnrotation10CNRotationC1ERKN12cnquaternion12CNQuaternionE, 
                       __ZN10cnrotation10CNRotationC1ERKS0_, __ZN10cnrotation10CNRotationC1Eddd, 
                       __ZN10cnrotation10CNRotationC1Ev, __ZN10cnrotation10CNRotationC2ERKN12cnquaternion12CNQuaternionE, 
                       __ZN10cnrotation10CNRotationC2ERKS0_, __ZN10cnrotation10CNRotationC2Eddd, 
                       __ZN10cnrotation10CNRotationC2Ev, __ZN10cnrotation10CNRotationaSERKS0_, 
                       __ZN10cnrotation3CatERKNS_10CNRotationES2_, __ZN10cnrotation3InvERKNS_10CNRotationE, 
                       __ZN12cnestimation18PeriodicityTracker15AddSignalSampleEd, 
                       __ZN12cnestimation18PeriodicityTracker18InterpolateDFTPeakERKNS0_8DFTPointES3_S3_Rd, 
                       __ZN12cnestimation18PeriodicityTracker5ResetEv, __ZN12cnestimation18PeriodicityTracker8DFTPointC1EdNSt3__17complexIdEE, 
                       __ZN12cnestimation18PeriodicityTracker8DFTPointC2EdNSt3__17complexIdEE, 
                       __ZN12cnestimation18PeriodicityTracker9ConfigureERKNS_28PeriodicityTrackerConfigArgsE, 
                       __ZN12cnestimation18PeriodicityTrackerC1Ev, __ZN12cnestimation18PeriodicityTrackerC2Ev, 
                       __ZN12cnestimation39RotationStabilizedAccelerationEstimator15AddAccelerationERKNS_35RotationStabilizedAccelerationInputE, 
                       __ZN12cnestimation39RotationStabilizedAccelerationEstimator5ResetEv, 
                       __ZN12cnestimation39RotationStabilizedAccelerationEstimator9ConfigureERKNS_49RotationStabilizedAccelerationEstimatorConfigArgsE, 
                       __ZN12cnestimation39RotationStabilizedAccelerationEstimatorC1Ev, 
                       __ZN12cnestimation39RotationStabilizedAccelerationEstimatorC2Ev, 
                       __ZN12cnnavigation10GPSFindSatEidRKNS_10GPSAlmanacEPdS3_S3_, 
                       __ZN12cnnavigation10GPSFindSatEidRKNS_14GPSEphemeridesEPdS3_S3_, 
                       __ZN12cnnavigation12ECEFToPZ9002EPKdPd, __ZN12cnnavigation12ECEFToPZ9002EPKdPdRNS_20ECEFToPZ9002JacobianE, 
                       __ZN12cnnavigation12ECEFToPZ9002EPKdPdbRNS_20ECEFToPZ9002JacobianE, 
                       __ZN12cnnavigation12PZ9002ToECEFEPKdPd, __ZN12cnnavigation12PZ9002ToECEFEPKdPdRNS_20PZ9002ToECEFJacobianE, 
                       __ZN12cnnavigation12PZ9002ToECEFEPKdPdbRNS_20PZ9002ToECEFJacobianE, 
                       __ZN12cnnavigation14GLONASSAlmanac11DeserializeER21CNSerializationStream, 
                       __ZN12cnnavigation14GLONASSAlmanacC1ERKS0_, __ZN12cnnavigation14GLONASSAlmanacC1Ev, 
                       __ZN12cnnavigation14GLONASSAlmanacC2ERKS0_, __ZN12cnnavigation14GLONASSAlmanacC2Ev, 
                       __ZN12cnnavigation14GLONASSAlmanacD0Ev, __ZN12cnnavigation14GLONASSAlmanacD1Ev, 
                       __ZN12cnnavigation14GLONASSAlmanacD2Ev, __ZN12cnnavigation14GLONASSAlmanacaSERKS0_, 
                       __ZN12cnnavigation14GLONASSFindSatEiddRKNS_14GLONASSAlmanacEPdS3_S3_, 
                       __ZN12cnnavigation14GLONASSFindSatEiddRKNS_18GLONASSEphemeridesEPdS3_S3_, 
                       __ZN12cnnavigation14GPSEphemerides11DeserializeER21CNSerializationStream, 
                       __ZN12cnnavigation14GPSEphemeridesC1ERKS0_, __ZN12cnnavigation14GPSEphemeridesC1Ev, 
                       __ZN12cnnavigation14GPSEphemeridesC2ERKS0_, __ZN12cnnavigation14GPSEphemeridesC2Ev, 
                       __ZN12cnnavigation14GPSEphemeridesaSERKS0_, __ZN12cnnavigation14GPSPseudorangeEiddPKddRKNS_14GPSEphemeridesERKNS_15IonosphereModelERKNS_16TroposphereModelERd, 
                       __ZN12cnnavigation14GPSPseudorangeEiddPKddRKNS_14GPSEphemeridesERKNS_15IonosphereModelERKNS_16TroposphereModelERdRNS_22GPSPseudorangeJacobianE, 
                       __ZN12cnnavigation14GPSPseudorangeEiddPKddRKNS_14GPSEphemeridesERKNS_15IonosphereModelERKNS_16TroposphereModelERdbRNS_22GPSPseudorangeJacobianE, 
                       __ZN12cnnavigation15GNSSEphemeridesD0Ev, __ZN12cnnavigation15GNSSEphemeridesD1Ev, 
                       __ZN12cnnavigation15GNSSEphemeridesD2Ev, __ZN12cnnavigation15GNSSPseudorangeERKNS_7TAITimeERKNS_17GNSSUTCParametersEdRKNSt3__15arrayIdLm3EEEdRKNS_15GNSSEphemeridesERKNS_15IonosphereModelERKNS_16TroposphereModelERd, 
                       __ZN12cnnavigation15GNSSPseudorangeERKNS_7TAITimeERKNS_17GNSSUTCParametersEdRKNSt3__15arrayIdLm3EEEdRKNS_15GNSSEphemeridesERKNS_15IonosphereModelERKNS_16TroposphereModelERdRNS_23GNSSPseudorangeJacobianE, 
                       __ZN12cnnavigation15GNSSPseudorangeERKNS_7TAITimeERKNS_17GNSSUTCParametersEdRKNSt3__15arrayIdLm3EEEdRKNS_15GNSSEphemeridesERKNS_15IonosphereModelERKNS_16TroposphereModelERdbRNS_23GNSSPseudorangeJacobianE, 
                       __ZN12cnnavigation15GNSSPseudorangeERKNS_7TAITimeEdRKNSt3__15arrayIdLm3EEEdRKNS_15GNSSEphemeridesERKNS_15IonosphereModelERKNS_16TroposphereModelERd, 
                       __ZN12cnnavigation15GNSSPseudorangeERKNS_7TAITimeEdRKNSt3__15arrayIdLm3EEEdRKNS_15GNSSEphemeridesERKNS_15IonosphereModelERKNS_16TroposphereModelERdRNS_23GNSSPseudorangeJacobianE, 
                       __ZN12cnnavigation15GPSDopplerShiftEiddPKdS1_ddRKNS_14GPSEphemeridesERKNS_15IonosphereModelERKNS_16TroposphereModelERd, 
                       __ZN12cnnavigation15GPSDopplerShiftEiddPKdS1_ddRKNS_14GPSEphemeridesERKNS_15IonosphereModelERKNS_16TroposphereModelERdRNS_23GPSDopplerShiftJacobianE, 
                       __ZN12cnnavigation15GPSDopplerShiftEiddPKdS1_ddRKNS_14GPSEphemeridesERKNS_15IonosphereModelERKNS_16TroposphereModelERdbRNS_23GPSDopplerShiftJacobianE, 
                       __ZN12cnnavigation15GPSTimeOfFlightEiddPKdRKNS_14GPSEphemeridesERKNS_15IonosphereModelERKNS_16TroposphereModelERd, 
                       __ZN12cnnavigation15GPSTimeOfFlightEiddPKdRKNS_14GPSEphemeridesERKNS_15IonosphereModelERKNS_16TroposphereModelERdRNS_23GPSTimeOfFlightJacobianE, 
                       __ZN12cnnavigation15GPSTimeOfFlightEiddPKdRKNS_14GPSEphemeridesERKNS_15IonosphereModelERKNS_16TroposphereModelERdbRNS_23GPSTimeOfFlightJacobianE, 
                       __ZN12cnnavigation16GNSSCarrierPhaseERKNS_7TAITimeERKNS_17GNSSUTCParametersEdRKNSt3__15arrayIdLm3EEEddRKNS_15GNSSEphemeridesERKNS_15IonosphereModelERKNS_16TroposphereModelERd, 
                       __ZN12cnnavigation16GNSSCarrierPhaseERKNS_7TAITimeERKNS_17GNSSUTCParametersEdRKNSt3__15arrayIdLm3EEEddRKNS_15GNSSEphemeridesERKNS_15IonosphereModelERKNS_16TroposphereModelERdRNS_24GNSSCarrierPhaseJacobianE, 
                       __ZN12cnnavigation16GNSSCarrierPhaseERKNS_7TAITimeERKNS_17GNSSUTCParametersEdRKNSt3__15arrayIdLm3EEEddRKNS_15GNSSEphemeridesERKNS_15IonosphereModelERKNS_16TroposphereModelERdbRNS_24GNSSCarrierPhaseJacobianE, 
                       __ZN12cnnavigation16GNSSCarrierPhaseERKNS_7TAITimeEdRKNSt3__15arrayIdLm3EEEddRKNS_15GNSSEphemeridesERKNS_15IonosphereModelERKNS_16TroposphereModelERd, 
                       __ZN12cnnavigation16GNSSCarrierPhaseERKNS_7TAITimeEdRKNSt3__15arrayIdLm3EEEddRKNS_15GNSSEphemeridesERKNS_15IonosphereModelERKNS_16TroposphereModelERdRNS_24GNSSCarrierPhaseJacobianE, 
                       __ZN12cnnavigation16GNSSDopplerShiftERKNS_7TAITimeERKNS_17GNSSUTCParametersEdRKNSt3__15arrayIdLm3EEESA_ddRKNS_15GNSSEphemeridesERKNS_15IonosphereModelERKNS_16TroposphereModelENS_16DopplerShiftTypeERd, 
                       __ZN12cnnavigation16GNSSDopplerShiftERKNS_7TAITimeERKNS_17GNSSUTCParametersEdRKNSt3__15arrayIdLm3EEESA_ddRKNS_15GNSSEphemeridesERKNS_15IonosphereModelERKNS_16TroposphereModelENS_16DopplerShiftTypeERdRNS_24GNSSDopplerShiftJacobianE, 
                       __ZN12cnnavigation16GNSSDopplerShiftERKNS_7TAITimeERKNS_17GNSSUTCParametersEdRKNSt3__15arrayIdLm3EEESA_ddRKNS_15GNSSEphemeridesERKNS_15IonosphereModelERKNS_16TroposphereModelENS_16DopplerShiftTypeERdbRNS_24GNSSDopplerShiftJacobianE, 
                       __ZN12cnnavigation16GNSSDopplerShiftERKNS_7TAITimeEdRKNSt3__15arrayIdLm3EEES7_ddRKNS_15GNSSEphemeridesERKNS_15IonosphereModelERKNS_16TroposphereModelENS_16DopplerShiftTypeERd, 
                       __ZN12cnnavigation16GNSSDopplerShiftERKNS_7TAITimeEdRKNSt3__15arrayIdLm3EEES7_ddRKNS_15GNSSEphemeridesERKNS_15IonosphereModelERKNS_16TroposphereModelENS_16DopplerShiftTypeERdRNS_24GNSSDopplerShiftJacobianE, 
                       __ZN12cnnavigation16GNSSTimeOfFlightERKNS_7TAITimeERKNS_17GNSSUTCParametersEdRKNSt3__15arrayIdLm3EEERKNS_15GNSSEphemeridesENS_16IonosphereImpactERKNS_15IonosphereModelENS_17TroposphereImpactERKNS_16TroposphereModelERd, 
                       __ZN12cnnavigation16GNSSTimeOfFlightERKNS_7TAITimeERKNS_17GNSSUTCParametersEdRKNSt3__15arrayIdLm3EEERKNS_15GNSSEphemeridesENS_16IonosphereImpactERKNS_15IonosphereModelENS_17TroposphereImpactERKNS_16TroposphereModelERdRNS_24GNSSTimeOfFlightJacobianE, 
                       __ZN12cnnavigation16GNSSTimeOfFlightERKNS_7TAITimeERKNS_17GNSSUTCParametersEdRKNSt3__15arrayIdLm3EEERKNS_15GNSSEphemeridesENS_16IonosphereImpactERKNS_15IonosphereModelENS_17TroposphereImpactERKNS_16TroposphereModelERdbRNS_24GNSSTimeOfFlightJacobianE, 
                       __ZN12cnnavigation16GNSSTimeOfFlightERKNS_7TAITimeERKNS_17GNSSUTCParametersEdRKNSt3__15arrayIdLm3EEERKNS_15GNSSEphemeridesENS_16IonosphereImpactERKNS_15IonosphereModelERKNS_16TroposphereModelERd, 
                       __ZN12cnnavigation16GNSSTimeOfFlightERKNS_7TAITimeERKNS_17GNSSUTCParametersEdRKNSt3__15arrayIdLm3EEERKNS_15GNSSEphemeridesENS_16IonosphereImpactERKNS_15IonosphereModelERKNS_16TroposphereModelERdRNS_24GNSSTimeOfFlightJacobianE, 
                       __ZN12cnnavigation16GNSSTimeOfFlightERKNS_7TAITimeERKNS_17GNSSUTCParametersEdRKNSt3__15arrayIdLm3EEERKNS_15GNSSEphemeridesERKNS_15IonosphereModelERKNS_16TroposphereModelERd, 
                       __ZN12cnnavigation16GNSSTimeOfFlightERKNS_7TAITimeERKNS_17GNSSUTCParametersEdRKNSt3__15arrayIdLm3EEERKNS_15GNSSEphemeridesERKNS_15IonosphereModelERKNS_16TroposphereModelERdRNS_24GNSSTimeOfFlightJacobianE, 
                       __ZN12cnnavigation16GNSSTimeOfFlightERKNS_7TAITimeEdRKNSt3__15arrayIdLm3EEERKNS_15GNSSEphemeridesENS_16IonosphereImpactERKNS_15IonosphereModelERKNS_16TroposphereModelERd, 
                       __ZN12cnnavigation16GNSSTimeOfFlightERKNS_7TAITimeEdRKNSt3__15arrayIdLm3EEERKNS_15GNSSEphemeridesENS_16IonosphereImpactERKNS_15IonosphereModelERKNS_16TroposphereModelERdRNS_24GNSSTimeOfFlightJacobianE, 
                       __ZN12cnnavigation16GNSSTimeOfFlightERKNS_7TAITimeEdRKNSt3__15arrayIdLm3EEERKNS_15GNSSEphemeridesERKNS_15IonosphereModelERKNS_16TroposphereModelERd, 
                       __ZN12cnnavigation16GNSSTimeOfFlightERKNS_7TAITimeEdRKNSt3__15arrayIdLm3EEERKNS_15GNSSEphemeridesERKNS_15IonosphereModelERKNS_16TroposphereModelERdRNS_24GNSSTimeOfFlightJacobianE, 
                       __ZN12cnnavigation16GPSSatelliteTimeEiddRKNS_14GPSEphemeridesERiRd, 
                       __ZN12cnnavigation16GPSSatelliteTimeEiddRKNS_14GPSEphemeridesERiRdRNS_24GPSSatelliteTimeJacobianE, 
                       __ZN12cnnavigation16GPSSatelliteTimeEiddRKNS_14GPSEphemeridesERiRdbRNS_24GPSSatelliteTimeJacobianE, 
                       __ZN12cnnavigation17GNSSUTCParameters11DeserializeER21CNSerializationStream, 
                       __ZN12cnnavigation18GLONASSEphemerides11DeserializeER21CNSerializationStream, 
                       __ZN12cnnavigation18GLONASSEphemeridesC1ERKS0_, __ZN12cnnavigation18GLONASSEphemeridesC1Ev, 
                       __ZN12cnnavigation18GLONASSEphemeridesC2ERKS0_, __ZN12cnnavigation18GLONASSEphemeridesC2Ev, 
                       __ZN12cnnavigation18GLONASSEphemeridesD0Ev, __ZN12cnnavigation18GLONASSEphemeridesD1Ev, 
                       __ZN12cnnavigation18GLONASSEphemeridesD2Ev, __ZN12cnnavigation18GLONASSEphemeridesaSERKS0_, 
                       __ZN12cnnavigation18GLONASSPseudorangeEidddPKddRKNS_18GLONASSEphemeridesERKNS_15IonosphereModelERKNS_16TroposphereModelERd, 
                       __ZN12cnnavigation18GLONASSPseudorangeEidddPKddRKNS_18GLONASSEphemeridesERKNS_15IonosphereModelERKNS_16TroposphereModelERdRNS_26GLONASSPseudorangeJacobianE, 
                       __ZN12cnnavigation18GLONASSPseudorangeEidddPKddRKNS_18GLONASSEphemeridesERKNS_15IonosphereModelERKNS_16TroposphereModelERdbRNS_26GLONASSPseudorangeJacobianE, 
                       __ZN12cnnavigation19GLONASSDopplerShiftEidddPKdS1_ddRKNS_18GLONASSEphemeridesERKNS_15IonosphereModelERKNS_16TroposphereModelERd, 
                       __ZN12cnnavigation19GLONASSDopplerShiftEidddPKdS1_ddRKNS_18GLONASSEphemeridesERKNS_15IonosphereModelERKNS_16TroposphereModelERdRNS_27GLONASSDopplerShiftJacobianE, 
                       __ZN12cnnavigation19GLONASSDopplerShiftEidddPKdS1_ddRKNS_18GLONASSEphemeridesERKNS_15IonosphereModelERKNS_16TroposphereModelERdbRNS_27GLONASSDopplerShiftJacobianE, 
                       __ZN12cnnavigation19GLONASSTimeOfFlightEidddPKdRKNS_18GLONASSEphemeridesERKNS_15IonosphereModelERKNS_16TroposphereModelERd, 
                       __ZN12cnnavigation19GLONASSTimeOfFlightEidddPKdRKNS_18GLONASSEphemeridesERKNS_15IonosphereModelERKNS_16TroposphereModelERdRNS_27GLONASSTimeOfFlightJacobianE, 
                       __ZN12cnnavigation19GLONASSTimeOfFlightEidddPKdRKNS_18GLONASSEphemeridesERKNS_15IonosphereModelERKNS_16TroposphereModelERdbRNS_27GLONASSTimeOfFlightJacobianE, 
                       __ZN12cnnavigation19GPSTimeOfFlightRateEiddPKdS1_RKNS_14GPSEphemeridesERKNS_15IonosphereModelERKNS_16TroposphereModelERd, 
                       __ZN12cnnavigation19GPSTimeOfFlightRateEiddPKdS1_RKNS_14GPSEphemeridesERKNS_15IonosphereModelERKNS_16TroposphereModelERdRNS_27GPSTimeOfFlightRateJacobianE, 
                       __ZN12cnnavigation19GPSTimeOfFlightRateEiddPKdS1_RKNS_14GPSEphemeridesERKNS_15IonosphereModelERKNS_16TroposphereModelERdbRNS_27GPSTimeOfFlightRateJacobianE, 
                       __ZN12cnnavigation19GPSTimeToJulianTimeERKNS_7GPSTimeEiRNS_10JulianTimeE, 
                       __ZN12cnnavigation19JulianTimeToGPSTimeERKNS_10JulianTimeEiRNS_7GPSTimeE, 
                       __ZN12cnnavigation19JulianTimeToiOSTimeERKNS_10JulianTimeERNS_7iOSTimeE, 
                       __ZN12cnnavigation19iOSTimeToJulianTimeERKNS_7iOSTimeERNS_10JulianTimeE, 
                       __ZN12cnnavigation20GNSSTimeOfFlightRateERKNS_7TAITimeERKNS_17GNSSUTCParametersEdRKNSt3__15arrayIdLm3EEESA_RKNS_15GNSSEphemeridesENS_16IonosphereImpactERKNS_15IonosphereModelENS_17TroposphereImpactERKNS_16TroposphereModelERd, 
                       __ZN12cnnavigation20GNSSTimeOfFlightRateERKNS_7TAITimeERKNS_17GNSSUTCParametersEdRKNSt3__15arrayIdLm3EEESA_RKNS_15GNSSEphemeridesENS_16IonosphereImpactERKNS_15IonosphereModelENS_17TroposphereImpactERKNS_16TroposphereModelERdRNS_28GNSSTimeOfFlightRateJacobianE, 
                       __ZN12cnnavigation20GNSSTimeOfFlightRateERKNS_7TAITimeERKNS_17GNSSUTCParametersEdRKNSt3__15arrayIdLm3EEESA_RKNS_15GNSSEphemeridesENS_16IonosphereImpactERKNS_15IonosphereModelENS_17TroposphereImpactERKNS_16TroposphereModelERdbRNS_28GNSSTimeOfFlightRateJacobianE, 
                       __ZN12cnnavigation20GNSSTimeOfFlightRateERKNS_7TAITimeERKNS_17GNSSUTCParametersEdRKNSt3__15arrayIdLm3EEESA_RKNS_15GNSSEphemeridesENS_16IonosphereImpactERKNS_15IonosphereModelERKNS_16TroposphereModelERd, 
                       __ZN12cnnavigation20GNSSTimeOfFlightRateERKNS_7TAITimeERKNS_17GNSSUTCParametersEdRKNSt3__15arrayIdLm3EEESA_RKNS_15GNSSEphemeridesENS_16IonosphereImpactERKNS_15IonosphereModelERKNS_16TroposphereModelERdRNS_28GNSSTimeOfFlightRateJacobianE, 
                       __ZN12cnnavigation20GNSSTimeOfFlightRateERKNS_7TAITimeERKNS_17GNSSUTCParametersEdRKNSt3__15arrayIdLm3EEESA_RKNS_15GNSSEphemeridesERKNS_15IonosphereModelERKNS_16TroposphereModelERd, 
                       __ZN12cnnavigation20GNSSTimeOfFlightRateERKNS_7TAITimeERKNS_17GNSSUTCParametersEdRKNSt3__15arrayIdLm3EEESA_RKNS_15GNSSEphemeridesERKNS_15IonosphereModelERKNS_16TroposphereModelERdRNS_28GNSSTimeOfFlightRateJacobianE, 
                       __ZN12cnnavigation20GNSSTimeOfFlightRateERKNS_7TAITimeEdRKNSt3__15arrayIdLm3EEES7_RKNS_15GNSSEphemeridesENS_16IonosphereImpactERKNS_15IonosphereModelERKNS_16TroposphereModelERd, 
                       __ZN12cnnavigation20GNSSTimeOfFlightRateERKNS_7TAITimeEdRKNSt3__15arrayIdLm3EEES7_RKNS_15GNSSEphemeridesENS_16IonosphereImpactERKNS_15IonosphereModelERKNS_16TroposphereModelERdRNS_28GNSSTimeOfFlightRateJacobianE, 
                       __ZN12cnnavigation20GNSSTimeOfFlightRateERKNS_7TAITimeEdRKNSt3__15arrayIdLm3EEES7_RKNS_15GNSSEphemeridesERKNS_15IonosphereModelERKNS_16TroposphereModelERd, 
                       __ZN12cnnavigation20GNSSTimeOfFlightRateERKNS_7TAITimeEdRKNSt3__15arrayIdLm3EEES7_RKNS_15GNSSEphemeridesERKNS_15IonosphereModelERKNS_16TroposphereModelERdRNS_28GNSSTimeOfFlightRateJacobianE, 
                       __ZN12cnnavigation21PolynomialEphemerides11DeserializeER21CNSerializationStream, 
                       __ZN12cnnavigation22DayOfYearTimeToiOSTimeERKNS_13DayOfYearTimeERNS_7iOSTimeE, 
                       __ZN12cnnavigation22LinearizedGravityModel19UpdateLinearizationEPKdRKNS_12GravityModelE, 
                       __ZN12cnnavigation22LinearizedGravityModel19UpdateLinearizationEPKdddS2_RKNS_20GravityModelJacobianE, 
                       __ZN12cnnavigation22LinearizedGravityModelC1EPKdRKNS_12GravityModelE, 
                       __ZN12cnnavigation22LinearizedGravityModelC1ERKS0_, __ZN12cnnavigation22LinearizedGravityModelC1Ev, 
                       __ZN12cnnavigation22LinearizedGravityModelC2EPKdRKNS_12GravityModelE, 
                       __ZN12cnnavigation22LinearizedGravityModelC2ERKS0_, __ZN12cnnavigation22LinearizedGravityModelC2Ev, 
                       __ZN12cnnavigation22LinearizedGravityModelaSERKS0_, __ZN12cnnavigation22iOSTimeToDayOfYearTimeERKNS_7iOSTimeERNS_13DayOfYearTimeE, 
                       __ZN12cnnavigation23GLONASSTimeOfFlightRateEidddPKdS1_RKNS_18GLONASSEphemeridesERKNS_15IonosphereModelERKNS_16TroposphereModelERd, 
                       __ZN12cnnavigation23GLONASSTimeOfFlightRateEidddPKdS1_RKNS_18GLONASSEphemeridesERKNS_15IonosphereModelERKNS_16TroposphereModelERdRNS_31GLONASSTimeOfFlightRateJacobianE, 
                       __ZN12cnnavigation23GLONASSTimeOfFlightRateEidddPKdS1_RKNS_18GLONASSEphemeridesERKNS_15IonosphereModelERKNS_16TroposphereModelERdbRNS_31GLONASSTimeOfFlightRateJacobianE, 
                       __ZN12cnnavigation23GLONASSTimeToJulianTimeERKNS_11GLONASSTimeERNS_10JulianTimeE, 
                       __ZN12cnnavigation23GLONASSTimeToJulianTimeERKNS_11GLONASSTimeEdRNS_10JulianTimeE, 
                       __ZN12cnnavigation23GPSSatelliteClockOffsetEiddRKNS_14GPSEphemeridesERd, 
                       __ZN12cnnavigation23GPSSatelliteClockOffsetEiddRKNS_14GPSEphemeridesERdRNS_31GPSSatelliteClockOffsetJacobianE, 
                       __ZN12cnnavigation23GPSSatelliteClockOffsetEiddRKNS_14GPSEphemeridesERdbRNS_31GPSSatelliteClockOffsetJacobianE, 
                       __ZN12cnnavigation23JulianTimeToGLONASSTimeERKNS_10JulianTimeERNS_11GLONASSTimeE, 
                       __ZN12cnnavigation23JulianTimeToGLONASSTimeERKNS_10JulianTimeEdRNS_11GLONASSTimeE, 
                       __ZN12cnnavigation23LinearizedMagneticModel19UpdateLinearizationEidPKdRKNS_13MagneticModelE, 
                       __ZN12cnnavigation23LinearizedMagneticModel19UpdateLinearizationEidPKddddS2_RKNS_21MagneticModelJacobianE, 
                       __ZN12cnnavigation23LinearizedMagneticModelC1ERKS0_, __ZN12cnnavigation23LinearizedMagneticModelC1EidPKdRKNS_13MagneticModelE, 
                       __ZN12cnnavigation23LinearizedMagneticModelC1Ev, __ZN12cnnavigation23LinearizedMagneticModelC2ERKS0_, 
                       __ZN12cnnavigation23LinearizedMagneticModelC2EidPKdRKNS_13MagneticModelE, 
                       __ZN12cnnavigation23LinearizedMagneticModelC2Ev, __ZN12cnnavigation23LinearizedMagneticModelaSERKS0_, 
                       __ZN12cnnavigation24KlobucharIonosphereModelC1ERKNS_24KlobucharModelParametersE, 
                       __ZN12cnnavigation24KlobucharIonosphereModelC1Ev, __ZN12cnnavigation24KlobucharIonosphereModelC2ERKNS_24KlobucharModelParametersE, 
                       __ZN12cnnavigation24KlobucharIonosphereModelC2Ev, __ZN12cnnavigation24KlobucharModelParametersC1EPKdS2_, 
                       __ZN12cnnavigation24KlobucharModelParametersC1ERKS0_, __ZN12cnnavigation24KlobucharModelParametersC1Ev, 
                       __ZN12cnnavigation24KlobucharModelParametersC2EPKdS2_, __ZN12cnnavigation24KlobucharModelParametersC2ERKS0_, 
                       __ZN12cnnavigation24KlobucharModelParametersC2Ev, __ZN12cnnavigation24KlobucharModelParametersaSERKS0_, 
                       __ZN12cnnavigation25DayOfYearTimeToJulianTimeERKNS_13DayOfYearTimeERNS_10JulianTimeE, 
                       __ZN12cnnavigation25GregorianTimeToJulianTimeERKNS_13GregorianTimeERNS_10JulianTimeE, 
                       __ZN12cnnavigation25JulianTimeToDayOfYearTimeERKNS_10JulianTimeERNS_13DayOfYearTimeE, 
                       __ZN12cnnavigation25JulianTimeToGregorianTimeERKNS_10JulianTimeERNS_13GregorianTimeE, 
                       __ZN12cnnavigation27GLONASSSatelliteClockOffsetEidddRKNS_18GLONASSEphemeridesERd, 
                       __ZN12cnnavigation27GLONASSSatelliteClockOffsetEidddRKNS_18GLONASSEphemeridesERdRNS_35GLONASSSatelliteClockOffsetJacobianE, 
                       __ZN12cnnavigation27GLONASSSatelliteClockOffsetEidddRKNS_18GLONASSEphemeridesERdbRNS_35GLONASSSatelliteClockOffsetJacobianE, 
                       __ZN12cnnavigation27GPSSatelliteClockOffsetRateEiddRKNS_14GPSEphemeridesERd, 
                       __ZN12cnnavigation27GPSSatelliteClockOffsetRateEiddRKNS_14GPSEphemeridesERdRNS_35GPSSatelliteClockOffsetRateJacobianE, 
                       __ZN12cnnavigation27GPSSatelliteClockOffsetRateEiddRKNS_14GPSEphemeridesERdbRNS_35GPSSatelliteClockOffsetRateJacobianE, 
                       __ZN12cnnavigation27PolynomialEphemerisDatabase14SetEphemeridesERKNS_21PolynomialEphemeridesE, 
                       __ZN12cnnavigation27PolynomialEphemerisDatabase5ResetEv, __ZN12cnnavigation29ParameterizedTroposphereModelC1ERKNS_39ParameterizedTroposphereModelParametersE, 
                       __ZN12cnnavigation29ParameterizedTroposphereModelC1Ev, __ZN12cnnavigation29ParameterizedTroposphereModelC2ERKNS_39ParameterizedTroposphereModelParametersE, 
                       __ZN12cnnavigation29ParameterizedTroposphereModelC2Ev, __ZN12cnnavigation31GLONASSSatelliteClockOffsetRateEidddRKNS_18GLONASSEphemeridesERd, 
                       __ZN12cnnavigation31GLONASSSatelliteClockOffsetRateEidddRKNS_18GLONASSEphemeridesERdRNS_39GLONASSSatelliteClockOffsetRateJacobianE, 
                       __ZN12cnnavigation31GLONASSSatelliteClockOffsetRateEidddRKNS_18GLONASSEphemeridesERdbRNS_39GLONASSSatelliteClockOffsetRateJacobianE, 
                       __ZN12cnnavigation39ParameterizedTroposphereModelParametersC1ENS_21TropoClimateModelTypeENS_26TropoOrthometricHeightTypeENS_20TropoZenithDelayTypeENS_24TropoMappingFunctionTypeE, 
                       __ZN12cnnavigation39ParameterizedTroposphereModelParametersC1ENS_21TropoClimateModelTypeENS_26TropoOrthometricHeightTypeENS_20TropoZenithDelayTypeENS_24TropoMappingFunctionTypeEPKNS_12GravityModelE, 
                       __ZN12cnnavigation39ParameterizedTroposphereModelParametersC1ERKS0_, 
                       __ZN12cnnavigation39ParameterizedTroposphereModelParametersC1Ev, 
                       __ZN12cnnavigation39ParameterizedTroposphereModelParametersC2ENS_21TropoClimateModelTypeENS_26TropoOrthometricHeightTypeENS_20TropoZenithDelayTypeENS_24TropoMappingFunctionTypeE, 
                       __ZN12cnnavigation39ParameterizedTroposphereModelParametersC2ENS_21TropoClimateModelTypeENS_26TropoOrthometricHeightTypeENS_20TropoZenithDelayTypeENS_24TropoMappingFunctionTypeEPKNS_12GravityModelE, 
                       __ZN12cnnavigation39ParameterizedTroposphereModelParametersC2ERKS0_, 
                       __ZN12cnnavigation39ParameterizedTroposphereModelParametersC2Ev, 
                       __ZN12cnnavigation39ParameterizedTroposphereModelParametersaSERKS0_, 
                       __ZN12cnnavigation7SatElAzEPKdS1_NS_7LLATypeEPd, __ZN12cnnavigation7SatElAzEPKdS1_NS_7LLATypeEPdRNS_15SatElAzJacobianE, 
                       __ZN12cnnavigation7SatElAzEPKdS1_NS_7LLATypeEPdbRNS_15SatElAzJacobianE, 
                       __ZN12cnnavigation7TAITimeC1ERK10CNTimeSpan, __ZN12cnnavigation7TAITimeC1ERK6CNTime, 
                       __ZN12cnnavigation7TAITimeC1ERKNS_11GLONASSTimeERKNS_17GNSSUTCParametersE, 
                       __ZN12cnnavigation7TAITimeC1ERKNS_7GPSTimeE, __ZN12cnnavigation7TAITimeC1ERKNS_7GPSTimeERKNS_17GNSSUTCParametersE, 
                       __ZN12cnnavigation7TAITimeC2ERK10CNTimeSpan, __ZN12cnnavigation7TAITimeC2ERK6CNTime, 
                       __ZN12cnnavigation7TAITimeC2ERKNS_11GLONASSTimeERKNS_17GNSSUTCParametersE, 
                       __ZN12cnnavigation7TAITimeC2ERKNS_7GPSTimeE, __ZN12cnnavigation7TAITimeC2ERKNS_7GPSTimeERKNS_17GNSSUTCParametersE, 
                       __ZN12cnnavigation7TAITimeaSERK10CNTimeSpan, __ZN12cnnavigation7details11dyn_GLONASSEPdS1_RKNS_18GLONASSEphemeridesES1_S1_, 
                       __ZN12cnnavigation7details11dyn_GLONASSEPdS1_S1_RKNS_18GLONASSEphemeridesES1_S1_, 
                       __ZN12cnnavigation7details8GNSSElAzERKNS_7TAITimeERKNS_17GNSSUTCParametersERKNSt3__15arrayIdLm3EEERKNS_15GNSSEphemeridesENS_7LLATypeERdSG_bRNS_15SatElAzJacobianE, 
                       __ZN12cnnavigation8GNSSElAzERKNS_7TAITimeERKNS_17GNSSUTCParametersERKNSt3__15arrayIdLm3EEERKNS_15GNSSEphemeridesENS_7LLATypeERdSF_, 
                       __ZN12cnnavigation8GNSSElAzERKNS_7TAITimeERKNS_17GNSSUTCParametersERKNSt3__15arrayIdLm3EEERKNS_15GNSSEphemeridesENS_7LLATypeERdSF_RNS_15SatElAzJacobianE, 
                       __ZN12cnnavigation8GNSSElAzERKNS_7TAITimeERKNSt3__15arrayIdLm3EEERKNS_15GNSSEphemeridesENS_7LLATypeERdSC_, 
                       __ZN12cnnavigation8GNSSElAzERKNS_7TAITimeERKNSt3__15arrayIdLm3EEERKNS_15GNSSEphemeridesENS_7LLATypeERdSC_RNS_15SatElAzJacobianE, 
                       __ZN12cnnavigation9ECEFToENUEPKdNS_7LLATypeENS_13ENUOriginTypeES1_NS_7ENUTypeEPd, 
                       __ZN12cnnavigation9ECEFToENUEPKdNS_7LLATypeENS_13ENUOriginTypeES1_NS_7ENUTypeEPdRNS_17ECEFToENUJacobianE, 
                       __ZN12cnnavigation9ECEFToLLAEPKdNS_7LLATypeEPd, __ZN12cnnavigation9ECEFToLLAEPKdNS_7LLATypeEPdRNS_17ECEFToLLAJacobianE, 
                       __ZN12cnnavigation9ECEFToLLAEPKdNS_7LLATypeEPdbRNS_17ECEFToLLAJacobianE, 
                       __ZN12cnnavigation9ENUToECEFEPKdNS_7LLATypeENS_13ENUOriginTypeES1_NS_7ENUTypeEPd, 
                       __ZN12cnnavigation9ENUToECEFEPKdNS_7LLATypeENS_13ENUOriginTypeES1_NS_7ENUTypeEPdRNS_17ENUToECEFJacobianE, 
                       __ZN12cnnavigation9LLAToECEFEPKdNS_7LLATypeEPd, __ZN12cnnavigation9LLAToECEFEPKdNS_7LLATypeEPdRNS_17LLAToECEFJacobianE, 
                       __ZN12cnnavigation9LLAToECEFEPKdNS_7LLATypeEPdbRNS_17LLAToECEFJacobianE, 
                       __ZN12cnquaternion12CNQuaternion11DeserializeER21CNSerializationStream, 
                       __ZN12cnquaternion12CNQuaternion5Setq1Ed, __ZN12cnquaternion12CNQuaternion5Setq2Ed, 
                       __ZN12cnquaternion12CNQuaternion5Setq3Ed, __ZN12cnquaternion12CNQuaternion5Setq4Ed, 
                       __ZN12cnquaternion12CNQuaternionC1ERKS0_, __ZN12cnquaternion12CNQuaternionC1Edddd, 
                       __ZN12cnquaternion12CNQuaternionC1Ev, __ZN12cnquaternion12CNQuaternionC2ERKS0_, 
                       __ZN12cnquaternion12CNQuaternionC2Edddd, __ZN12cnquaternion12CNQuaternionC2Ev, 
                       __ZN12cnquaternion12CNQuaternionaSERKS0_, __ZN12cnstatistics11InverseChi2Edd, 
                       __ZN12cnstatistics12InverseGammaEddd, __ZN12cnstatistics13InverseNormalEddd, 
                       __ZN12cnstatistics16LogGammaFunctionEd, __ZN12cnstatistics17ErrorFunctionCoreEdi, 
                       __ZN12cnstatistics20InverseErrorFunctionEdi, __ZN12cnstatistics24RegularizedGammaFunctionEddi, 
                       __ZN12cnstatistics7Chi2CDFEdd, __ZN12cnstatistics7Chi2PDFEdd, 
                       __ZN12cnstatistics8GammaCDFEddd, __ZN12cnstatistics8GammaPDFEddd, 
                       __ZN12cnstatistics9NormalCDFEddd, __ZN12cnstatistics9NormalPDFEddd, 
                       __ZN4swan14BatchLogParser16updateEnforceCsvERKNSt3__112basic_stringIcNS1_11char_traitsIcEENS1_9allocatorIcEEEE, 
                       __ZN4swan14BatchLogParser19parseGPSSaIntoASCIIERKNSt3__112basic_stringIcNS1_11char_traitsIcEENS1_9allocatorIcEEEEbS9_, 
                       __ZN4swan14BatchLogParser20convertASCIIToStructERKNSt3__112basic_stringIcNS1_11char_traitsIcEENS1_9allocatorIcEEEEPNS_12GPSBatchDataERm, 
                       __ZN4swan14BatchLogParser20convertASCIIToStructERKNSt3__112basic_stringIcNS1_11char_traitsIcEENS1_9allocatorIcEEEEmmRNS1_6vectorINS_7stGPSsaENS5_ISB_EEEERm, 
                       __ZN4swan14BatchLogParser22parseGPSBatchIntoASCIIERKNSt3__112basic_stringIcNS1_11char_traitsIcEENS1_9allocatorIcEEEES9_, 
                       __ZN4swan14BatchLogParser5wipefERNSt3__112basic_stringIcNS1_11char_traitsIcEENS1_9allocatorIcEEEE, 
                       __ZN4swan14BatchLogParser6updateERKNSt3__112basic_stringIcNS1_11char_traitsIcEENS1_9allocatorIcEEEE, 
                       __ZN4swan14BatchLogParser8containsEPKcS2_, __ZN4swan14BatchLogParser8getFieldERNSt3__112basic_stringIcNS1_11char_traitsIcEENS1_9allocatorIcEEEES7_m, 
                       __ZN4swan14BatchLogParser8getFieldERNSt3__112basic_stringIcNS1_11char_traitsIcEENS1_9allocatorIcEEEEm, 
                       __ZN4swan14BatchLogParser8getFieldERdNSt3__112basic_stringIcNS2_11char_traitsIcEENS2_9allocatorIcEEEEm, 
                       __ZN4swan14BatchLogParser8getFieldERdm, __ZN4swan14BatchLogParser8getFieldERiNSt3__112basic_stringIcNS2_11char_traitsIcEENS2_9allocatorIcEEEEm, 
                       __ZN4swan14BatchLogParser8getFieldERim, __ZN4swan14BatchLogParser8getFieldERjNSt3__112basic_stringIcNS2_11char_traitsIcEENS2_9allocatorIcEEEEm, 
                       __ZN4swan14BatchLogParser8getFieldERjm, __ZN4swan14BatchLogParser8getFieldERxNSt3__112basic_stringIcNS2_11char_traitsIcEENS2_9allocatorIcEEEEm, 
                       __ZN4swan14BatchLogParser8getFieldERxm, __ZN4swan14BatchLogParser9trimFieldERNSt3__112basic_stringIcNS1_11char_traitsIcEENS1_9allocatorIcEEEE, 
                       __ZN4swan14BatchLogParserC1Ev, __ZN4swan14BatchLogParserC2Ev, 
                       __ZN4swan14LoadMATLABData4LoadEPKcmPdPNS_7details6VectorILi6EEEPNS5_ILi3EEES9_S3_PS3_S3_S3_, 
                       __ZN4swan14LoadMATLABDataC1Ev, __ZN4swan14LoadMATLABDataC2Ev, 
                       __ZN4swan18ConsistencyCheckerC1Ev, __ZN4swan18ConsistencyCheckerC2Ev, 
                       __ZN4swan23BatchedGNSSDataSmoother9ConfigureEPKc, __ZN4swan23BatchedGNSSDataSmoother9ConfigureERKNS_29BatchedGNSSDataSmootherConfigE, 
                       __ZN4swan23BatchedGNSSDataSmootherC1Ev, __ZN4swan23BatchedGNSSDataSmootherC2Ev, 
                       __ZN4swan26PositionVelocityDataEditorC1Ev, __ZN4swan26PositionVelocityDataEditorC2Ev, 
                       __ZN4swan36ForwardBackwardFixedIntervalSmootherC1Ev, __ZN4swan36ForwardBackwardFixedIntervalSmootherC2Ev, 
                       __ZN5cndft10SlidingDFT16SetConfigurationERKNS_23SlidingDFTConfigurationE, 
                       __ZN5cndft10SlidingDFT8ResetDFTEv, __ZN5cndft10SlidingDFT9AddSampleEd, 
                       __ZN5cndft10SlidingDFTC1Ev, __ZN5cndft10SlidingDFTC2Ev, __ZN5raven10TimeStruct10SharedCtorEv, 
                       __ZN5raven10TimeStruct10SharedDtorEv, __ZN5raven10TimeStruct10descriptorEv, 
                       __ZN5raven10TimeStruct16default_instanceEv, __ZN5raven10TimeStruct17default_instance_E, 
                       __ZN5raven10TimeStruct21InitAsDefaultInstanceEv, __ZN5raven10TimeStruct26kIntegerSecondsFieldNumberE, 
                       __ZN5raven10TimeStruct27MergePartialFromCodedStreamEPN20wireless_diagnostics6google8protobuf2io16CodedInputStreamE, 
                       __ZN5raven10TimeStruct29kFractionalSecondsFieldNumberE, __ZN5raven10TimeStruct4SwapEPS0_, 
                       __ZN5raven10TimeStruct5ClearEv, __ZN5raven10TimeStruct8CopyFromERKN20wireless_diagnostics6google8protobuf7MessageE, 
                       __ZN5raven10TimeStruct8CopyFromERKS0_, __ZN5raven10TimeStruct9MergeFromERKN20wireless_diagnostics6google8protobuf7MessageE, 
                       __ZN5raven10TimeStruct9MergeFromERKS0_, __ZN5raven10TimeStructC1ERKS0_, 
                       __ZN5raven10TimeStructC1Ev, __ZN5raven10TimeStructC2ERKS0_, 
                       __ZN5raven10TimeStructC2Ev, __ZN5raven10TimeStructD0Ev, __ZN5raven10TimeStructD1Ev, 
                       __ZN5raven10TimeStructD2Ev, __ZN5raven11RavenOutput10SharedCtorEv, 
                       __ZN5raven11RavenOutput10SharedDtorEv, __ZN5raven11RavenOutput10descriptorEv, 
                       __ZN5raven11RavenOutput16default_instanceEv, __ZN5raven11RavenOutput17default_instance_E, 
                       __ZN5raven11RavenOutput21InitAsDefaultInstanceEv, __ZN5raven11RavenOutput26kEstimatorStateFieldNumberE, 
                       __ZN5raven11RavenOutput27MergePartialFromCodedStreamEPN20wireless_diagnostics6google8protobuf2io16CodedInputStreamE, 
                       __ZN5raven11RavenOutput27kEstimatorHealthFieldNumberE, __ZN5raven11RavenOutput29kEstimatorActivityFieldNumberE, 
                       __ZN5raven11RavenOutput4SwapEPS0_, __ZN5raven11RavenOutput5ClearEv, 
                       __ZN5raven11RavenOutput8CopyFromERKN20wireless_diagnostics6google8protobuf7MessageE, 
                       __ZN5raven11RavenOutput8CopyFromERKS0_, __ZN5raven11RavenOutput9MergeFromERKN20wireless_diagnostics6google8protobuf7MessageE, 
                       __ZN5raven11RavenOutput9MergeFromERKS0_, __ZN5raven11RavenOutputC1ERKS0_, 
                       __ZN5raven11RavenOutputC1Ev, __ZN5raven11RavenOutputC2ERKS0_, 
                       __ZN5raven11RavenOutputC2Ev, __ZN5raven11RavenOutputD0Ev, 
                       __ZN5raven11RavenOutputD1Ev, __ZN5raven11RavenOutputD2Ev, 
                       __ZN5raven12UserPosition10SharedCtorEv, __ZN5raven12UserPosition10SharedDtorEv, 
                       __ZN5raven12UserPosition10descriptorEv, __ZN5raven12UserPosition14kXMFieldNumberE, 
                       __ZN5raven12UserPosition14kYMFieldNumberE, __ZN5raven12UserPosition14kZMFieldNumberE, 
                       __ZN5raven12UserPosition16default_instanceEv, __ZN5raven12UserPosition17default_instance_E, 
                       __ZN5raven12UserPosition17kPXxM2FieldNumberE, __ZN5raven12UserPosition17kPXyM2FieldNumberE, 
                       __ZN5raven12UserPosition17kPXzM2FieldNumberE, __ZN5raven12UserPosition17kPYyM2FieldNumberE, 
                       __ZN5raven12UserPosition17kPYzM2FieldNumberE, __ZN5raven12UserPosition17kPZzM2FieldNumberE, 
                       __ZN5raven12UserPosition21InitAsDefaultInstanceEv, __ZN5raven12UserPosition21kTimestampFieldNumberE, 
                       __ZN5raven12UserPosition27MergePartialFromCodedStreamEPN20wireless_diagnostics6google8protobuf2io16CodedInputStreamE, 
                       __ZN5raven12UserPosition4SwapEPS0_, __ZN5raven12UserPosition5ClearEv, 
                       __ZN5raven12UserPosition8CopyFromERKN20wireless_diagnostics6google8protobuf7MessageE, 
                       __ZN5raven12UserPosition8CopyFromERKS0_, __ZN5raven12UserPosition9MergeFromERKN20wireless_diagnostics6google8protobuf7MessageE, 
                       __ZN5raven12UserPosition9MergeFromERKS0_, __ZN5raven12UserPositionC1ERKS0_, 
                       __ZN5raven12UserPositionC1Ev, __ZN5raven12UserPositionC2ERKS0_, 
                       __ZN5raven12UserPositionC2Ev, __ZN5raven12UserPositionD0Ev, 
                       __ZN5raven12UserPositionD1Ev, __ZN5raven12UserPositionD2Ev, 
                       __ZN5raven12UserVelocity10SharedCtorEv, __ZN5raven12UserVelocity10SharedDtorEv, 
                       __ZN5raven12UserVelocity10descriptorEv, __ZN5raven12UserVelocity15kEvxFieldNumberE, 
                       __ZN5raven12UserVelocity15kEvyFieldNumberE, __ZN5raven12UserVelocity15kEvzFieldNumberE, 
                       __ZN5raven12UserVelocity16default_instanceEv, __ZN5raven12UserVelocity17default_instance_E, 
                       __ZN5raven12UserVelocity19kPEvxevxFieldNumberE, __ZN5raven12UserVelocity19kPEvxevyFieldNumberE, 
                       __ZN5raven12UserVelocity19kPEvxevzFieldNumberE, __ZN5raven12UserVelocity19kPEvyevyFieldNumberE, 
                       __ZN5raven12UserVelocity19kPEvyevzFieldNumberE, __ZN5raven12UserVelocity19kPEvzevzFieldNumberE, 
                       __ZN5raven12UserVelocity20kPSevxMpsFieldNumberE, __ZN5raven12UserVelocity20kPSevyMpsFieldNumberE, 
                       __ZN5raven12UserVelocity20kPSevzMpsFieldNumberE, __ZN5raven12UserVelocity20kPSsM2Ps2FieldNumberE, 
                       __ZN5raven12UserVelocity20kSpeedMpsFieldNumberE, __ZN5raven12UserVelocity21InitAsDefaultInstanceEv, 
                       __ZN5raven12UserVelocity21kTimestampFieldNumberE, __ZN5raven12UserVelocity27MergePartialFromCodedStreamEPN20wireless_diagnostics6google8protobuf2io16CodedInputStreamE, 
                       __ZN5raven12UserVelocity4SwapEPS0_, __ZN5raven12UserVelocity5ClearEv, 
                       __ZN5raven12UserVelocity8CopyFromERKN20wireless_diagnostics6google8protobuf7MessageE, 
                       __ZN5raven12UserVelocity8CopyFromERKS0_, __ZN5raven12UserVelocity9MergeFromERKN20wireless_diagnostics6google8protobuf7MessageE, 
                       __ZN5raven12UserVelocity9MergeFromERKS0_, __ZN5raven12UserVelocityC1ERKS0_, 
                       __ZN5raven12UserVelocityC1Ev, __ZN5raven12UserVelocityC2ERKS0_, 
                       __ZN5raven12UserVelocityC2Ev, __ZN5raven12UserVelocityD0Ev, 
                       __ZN5raven12UserVelocityD1Ev, __ZN5raven12UserVelocityD2Ev, 
                       __ZN5raven13CNDebugLogger20enable_debug_output_E, __ZN5raven13CNDebugLogger22cn_debug_logger_mutex_E, 
                       __ZN5raven13CNDebugLogger3logENSt3__112basic_stringIcNS1_11char_traitsIcEENS1_9allocatorIcEEEES7_i6CNTimePKcz, 
                       __ZN5raven13CNDebugLogger5file_E, __ZN5raven13CNDebugLogger9configureEbNSt3__112basic_stringIcNS1_11char_traitsIcEENS1_9allocatorIcEEEE, 
                       __ZN5raven14DeviceAttitude10SharedCtorEv, __ZN5raven14DeviceAttitude10SharedDtorEv, 
                       __ZN5raven14DeviceAttitude10descriptorEv, __ZN5raven14DeviceAttitude14kQ1FieldNumberE, 
                       __ZN5raven14DeviceAttitude14kQ2FieldNumberE, __ZN5raven14DeviceAttitude14kQ3FieldNumberE, 
                       __ZN5raven14DeviceAttitude14kQ4FieldNumberE, __ZN5raven14DeviceAttitude16default_instanceEv, 
                       __ZN5raven14DeviceAttitude17default_instance_E, __ZN5raven14DeviceAttitude17kPQ1Q1FieldNumberE, 
                       __ZN5raven14DeviceAttitude17kPQ1Q2FieldNumberE, __ZN5raven14DeviceAttitude17kPQ1Q3FieldNumberE, 
                       __ZN5raven14DeviceAttitude17kPQ1Q4FieldNumberE, __ZN5raven14DeviceAttitude17kPQ2Q2FieldNumberE, 
                       __ZN5raven14DeviceAttitude17kPQ2Q3FieldNumberE, __ZN5raven14DeviceAttitude17kPQ2Q4FieldNumberE, 
                       __ZN5raven14DeviceAttitude17kPQ3Q3FieldNumberE, __ZN5raven14DeviceAttitude17kPQ3Q4FieldNumberE, 
                       __ZN5raven14DeviceAttitude17kPQ4Q4FieldNumberE, __ZN5raven14DeviceAttitude21InitAsDefaultInstanceEv, 
                       __ZN5raven14DeviceAttitude21kTimestampFieldNumberE, __ZN5raven14DeviceAttitude27MergePartialFromCodedStreamEPN20wireless_diagnostics6google8protobuf2io16CodedInputStreamE, 
                       __ZN5raven14DeviceAttitude4SwapEPS0_, __ZN5raven14DeviceAttitude5ClearEv, 
                       __ZN5raven14DeviceAttitude8CopyFromERKN20wireless_diagnostics6google8protobuf7MessageE, 
                       __ZN5raven14DeviceAttitude8CopyFromERKS0_, __ZN5raven14DeviceAttitude9MergeFromERKN20wireless_diagnostics6google8protobuf7MessageE, 
                       __ZN5raven14DeviceAttitude9MergeFromERKS0_, __ZN5raven14DeviceAttitudeC1ERKS0_, 
                       __ZN5raven14DeviceAttitudeC1Ev, __ZN5raven14DeviceAttitudeC2ERKS0_, 
                       __ZN5raven14DeviceAttitudeC2Ev, __ZN5raven14DeviceAttitudeD0Ev, 
                       __ZN5raven14DeviceAttitudeD1Ev, __ZN5raven14DeviceAttitudeD2Ev, 
                       __ZN5raven14DevicePosition10SharedCtorEv, __ZN5raven14DevicePosition10SharedDtorEv, 
                       __ZN5raven14DevicePosition10descriptorEv, __ZN5raven14DevicePosition14kXMFieldNumberE, 
                       __ZN5raven14DevicePosition14kYMFieldNumberE, __ZN5raven14DevicePosition14kZMFieldNumberE, 
                       __ZN5raven14DevicePosition16default_instanceEv, __ZN5raven14DevicePosition17default_instance_E, 
                       __ZN5raven14DevicePosition17kPXxM2FieldNumberE, __ZN5raven14DevicePosition17kPXyM2FieldNumberE, 
                       __ZN5raven14DevicePosition17kPXzM2FieldNumberE, __ZN5raven14DevicePosition17kPYyM2FieldNumberE, 
                       __ZN5raven14DevicePosition17kPYzM2FieldNumberE, __ZN5raven14DevicePosition17kPZzM2FieldNumberE, 
                       __ZN5raven14DevicePosition21InitAsDefaultInstanceEv, __ZN5raven14DevicePosition21kTimestampFieldNumberE, 
                       __ZN5raven14DevicePosition27MergePartialFromCodedStreamEPN20wireless_diagnostics6google8protobuf2io16CodedInputStreamE, 
                       __ZN5raven14DevicePosition4SwapEPS0_, __ZN5raven14DevicePosition5ClearEv, 
                       __ZN5raven14DevicePosition8CopyFromERKN20wireless_diagnostics6google8protobuf7MessageE, 
                       __ZN5raven14DevicePosition8CopyFromERKS0_, __ZN5raven14DevicePosition9MergeFromERKN20wireless_diagnostics6google8protobuf7MessageE, 
                       __ZN5raven14DevicePosition9MergeFromERKS0_, __ZN5raven14DevicePositionC1ERKS0_, 
                       __ZN5raven14DevicePositionC1Ev, __ZN5raven14DevicePositionC2ERKS0_, 
                       __ZN5raven14DevicePositionC2Ev, __ZN5raven14DevicePositionD0Ev, 
                       __ZN5raven14DevicePositionD1Ev, __ZN5raven14DevicePositionD2Ev, 
                       __ZN5raven14DeviceVelocity10SharedCtorEv, __ZN5raven14DeviceVelocity10SharedDtorEv, 
                       __ZN5raven14DeviceVelocity10descriptorEv, __ZN5raven14DeviceVelocity16default_instanceEv, 
                       __ZN5raven14DeviceVelocity17default_instance_E, __ZN5raven14DeviceVelocity17kVxMpsFieldNumberE, 
                       __ZN5raven14DeviceVelocity17kVyMpsFieldNumberE, __ZN5raven14DeviceVelocity17kVzMpsFieldNumberE, 
                       __ZN5raven14DeviceVelocity21InitAsDefaultInstanceEv, __ZN5raven14DeviceVelocity21kTimestampFieldNumberE, 
                       __ZN5raven14DeviceVelocity22kPVxvxM2Ps2FieldNumberE, __ZN5raven14DeviceVelocity22kPVxvyM2Ps2FieldNumberE, 
                       __ZN5raven14DeviceVelocity22kPVxvzM2Ps2FieldNumberE, __ZN5raven14DeviceVelocity22kPVyvyM2Ps2FieldNumberE, 
                       __ZN5raven14DeviceVelocity22kPVyvzM2Ps2FieldNumberE, __ZN5raven14DeviceVelocity22kPVzvzM2Ps2FieldNumberE, 
                       __ZN5raven14DeviceVelocity27MergePartialFromCodedStreamEPN20wireless_diagnostics6google8protobuf2io16CodedInputStreamE, 
                       __ZN5raven14DeviceVelocity4SwapEPS0_, __ZN5raven14DeviceVelocity5ClearEv, 
                       __ZN5raven14DeviceVelocity8CopyFromERKN20wireless_diagnostics6google8protobuf7MessageE, 
                       __ZN5raven14DeviceVelocity8CopyFromERKS0_, __ZN5raven14DeviceVelocity9MergeFromERKN20wireless_diagnostics6google8protobuf7MessageE, 
                       __ZN5raven14DeviceVelocity9MergeFromERKS0_, __ZN5raven14DeviceVelocityC1ERKS0_, 
                       __ZN5raven14DeviceVelocityC1Ev, __ZN5raven14DeviceVelocityC2ERKS0_, 
                       __ZN5raven14DeviceVelocityC2Ev, __ZN5raven14DeviceVelocityD0Ev, 
                       __ZN5raven14DeviceVelocityD1Ev, __ZN5raven14DeviceVelocityD2Ev, 
                       __ZN5raven14EstimatorState10SharedCtorEv, __ZN5raven14EstimatorState10SharedDtorEv, 
                       __ZN5raven14EstimatorState10descriptorEv, __ZN5raven14EstimatorState16default_instanceEv, 
                       __ZN5raven14EstimatorState17default_instance_E, __ZN5raven14EstimatorState21InitAsDefaultInstanceEv, 
                       __ZN5raven14EstimatorState21kTimestampFieldNumberE, __ZN5raven14EstimatorState27MergePartialFromCodedStreamEPN20wireless_diagnostics6google8protobuf2io16CodedInputStreamE, 
                       __ZN5raven14EstimatorState28kUserPositionEcefFieldNumberE, 
                       __ZN5raven14EstimatorState28kUserVelocityEcefFieldNumberE, 
                       __ZN5raven14EstimatorState30kDevicePositionEcefFieldNumberE, 
                       __ZN5raven14EstimatorState30kDeviceRateGyroBiasFieldNumberE, 
                       __ZN5raven14EstimatorState30kDeviceVelocityEcefFieldNumberE, 
                       __ZN5raven14EstimatorState35kDeviceAccelerometerBiasFieldNumberE, 
                       __ZN5raven14EstimatorState35kDeviceAttitudeEcef2BodyFieldNumberE, 
                       __ZN5raven14EstimatorState42kDeviceAccelerometerScaleFactorFieldNumberE, 
                       __ZN5raven14EstimatorState42kDeviceReceiverClockDiscrepancyFieldNumberE, 
                       __ZN5raven14EstimatorState4SwapEPS0_, __ZN5raven14EstimatorState5ClearEv, 
                       __ZN5raven14EstimatorState8CopyFromERKN20wireless_diagnostics6google8protobuf7MessageE, 
                       __ZN5raven14EstimatorState8CopyFromERKS0_, __ZN5raven14EstimatorState9MergeFromERKN20wireless_diagnostics6google8protobuf7MessageE, 
                       __ZN5raven14EstimatorState9MergeFromERKS0_, __ZN5raven14EstimatorStateC1ERKS0_, 
                       __ZN5raven14EstimatorStateC1Ev, __ZN5raven14EstimatorStateC2ERKS0_, 
                       __ZN5raven14EstimatorStateC2Ev, __ZN5raven14EstimatorStateD0Ev, 
                       __ZN5raven14EstimatorStateD1Ev, __ZN5raven14EstimatorStateD2Ev, 
                       __ZN5raven14GnssSvDatabase12UpdateSvInfoERKNSt3__16vectorINS_10GnssSvInfoENS1_9allocatorIS3_EEEERb, 
                       __ZN5raven14GnssSvDatabase18PopulateGnssSvDataERNSt3__16vectorINS_24GnssSvAndMeasurementDataENS1_9allocatorIS3_EEEE, 
                       __ZN5raven14GnssSvDatabase21FitAnchorPointsToPolyERKNSt3__16vectorIdNS1_9allocatorIdEEEERS5_, 
                       __ZN5raven14GnssSvDatabase24UpdateTimeConversionInfoERKNS_22GnssTimeConversionInfoE, 
                       __ZN5raven14GnssSvDatabase27RecomputeActiveGlonassSlotsERKNS_13PositionEventE, 
                       __ZN5raven14GnssSvDatabaseC1Ev, __ZN5raven14GnssSvDatabaseC2Ev, 
                       __ZN5raven14RavenEstimator15SetGravityModelEPN12cnnavigation12GravityModelE, 
                       __ZN5raven14RavenEstimator16SetMagneticModelEPN12cnnavigation13MagneticModelE, 
                       __ZN5raven14RavenEstimator16SetRateGyroCacheEPN12cnestimation25TimedMeasurementCacheBaseINS_19RateGyroMeasurementEEE, 
                       __ZN5raven14RavenEstimator17RemoveInformationEd, __ZN5raven14RavenEstimator18AddCellInformationEd, 
                       __ZN5raven14RavenEstimator18AddGNSSInformationEd, __ZN5raven14RavenEstimator18AddWiFiInformationEd, 
                       __ZN5raven14RavenEstimator18SetIonosphereModelEPN12cnnavigation15IonosphereModelE, 
                       __ZN5raven14RavenEstimator18SetRavenParametersEPNS_15RavenParametersE, 
                       __ZN5raven14RavenEstimator19SetTroposphereModelEPN12cnnavigation16TroposphereModelE, 
                       __ZN5raven14RavenEstimator20AddIndoorInformationEd, __ZN5raven14RavenEstimator21SetAccelerometerCacheEPN12cnestimation25TimedMeasurementCacheBaseINS_24AccelerometerMeasurementEEE, 
                       __ZN5raven14RavenEstimator22UpdatePriorInformationEd, __ZN5raven14RavenEstimator23AddAccessoryInformationEd, 
                       __ZN5raven14RavenEstimator23StoreHistoricalSolutionEv, __ZN5raven14RavenEstimator5ResetEv, 
                       __ZN5raven14RavenEstimator9ConfigureERKNS_24RavenEstimatorConfigArgsE, 
                       __ZN5raven14RavenPredictor11HandleEventERKNS_13RateGyroEventE, 
                       __ZN5raven14RavenPredictor11HandleEventERKNS_18AccelerometerEventE, 
                       __ZN5raven14RavenPredictor11HandleEventERKNS_18RavenSolutionEventE, 
                       __ZN5raven14RavenPredictor5ResetEv, __ZN5raven14RavenPredictor9ConfigureERKNS_24RavenPredictorConfigArgsE, 
                       __ZN5raven14RavenPredictorC1Ev, __ZN5raven14RavenPredictorC2Ev, 
                       __ZN5raven14RavenSingleton16GetRavenInstanceEv, __ZN5raven14RavenSingletonC1Ev, 
                       __ZN5raven14RavenSingletonC2Ev, __ZN5raven15EstimatorHealth10EH_HEALTHYE, 
                       __ZN5raven15EstimatorHealth10EH_UNKNOWNE, __ZN5raven15EstimatorHealth10ET_UNKNOWNE, 
                       __ZN5raven15EstimatorHealth10SharedCtorEv, __ZN5raven15EstimatorHealth10SharedDtorEv, 
                       __ZN5raven15EstimatorHealth10descriptorEv, __ZN5raven15EstimatorHealth12EH_UNHEALTHYE, 
                       __ZN5raven15EstimatorHealth14ET_CONVERGENCEE, __ZN5raven15EstimatorHealth15ET_PASS_THROUGHE, 
                       __ZN5raven15EstimatorHealth16EH_UNINITIALIZEDE, __ZN5raven15EstimatorHealth16ET_UNINITIALIZEDE, 
                       __ZN5raven15EstimatorHealth16default_instanceEv, __ZN5raven15EstimatorHealth17EstimatorType_MAXE, 
                       __ZN5raven15EstimatorHealth17EstimatorType_MINE, __ZN5raven15EstimatorHealth17default_instance_E, 
                       __ZN5raven15EstimatorHealth18kHealthFieldNumberE, __ZN5raven15EstimatorHealth21InitAsDefaultInstanceEv, 
                       __ZN5raven15EstimatorHealth21kTimestampFieldNumberE, __ZN5raven15EstimatorHealth22kWeightCellFieldNumberE, 
                       __ZN5raven15EstimatorHealth22kWeightGnssFieldNumberE, __ZN5raven15EstimatorHealth22kWeightWifiFieldNumberE, 
                       __ZN5raven15EstimatorHealth23EstimatorHealthType_MAXE, __ZN5raven15EstimatorHealth23EstimatorHealthType_MINE, 
                       __ZN5raven15EstimatorHealth23EstimatorType_ARRAYSIZEE, __ZN5raven15EstimatorHealth24kWeightIndoorFieldNumberE, 
                       __ZN5raven15EstimatorHealth25kEstimatorAgeSFieldNumberE, __ZN5raven15EstimatorHealth25kEstimatorTypeFieldNumberE, 
                       __ZN5raven15EstimatorHealth27MergePartialFromCodedStreamEPN20wireless_diagnostics6google8protobuf2io16CodedInputStreamE, 
                       __ZN5raven15EstimatorHealth27kWeightAccessoryFieldNumberE, 
                       __ZN5raven15EstimatorHealth29EstimatorHealthType_ARRAYSIZEE, 
                       __ZN5raven15EstimatorHealth31kWeightPriorSolutionFieldNumberE, 
                       __ZN5raven15EstimatorHealth38kNumberMeasurementsAcceptedFieldNumberE, 
                       __ZN5raven15EstimatorHealth38kNumberMeasurementsRejectedFieldNumberE, 
                       __ZN5raven15EstimatorHealth39kProbabilityAssumptionsValidFieldNumberE, 
                       __ZN5raven15EstimatorHealth47kNumberGnssSatellitesLastVendorEpochFieldNumberE, 
                       __ZN5raven15EstimatorHealth4SwapEPS0_, __ZN5raven15EstimatorHealth5ClearEv, 
                       __ZN5raven15EstimatorHealth6ET_PNTE, __ZN5raven15EstimatorHealth8CopyFromERKN20wireless_diagnostics6google8protobuf7MessageE, 
                       __ZN5raven15EstimatorHealth8CopyFromERKS0_, __ZN5raven15EstimatorHealth9MergeFromERKN20wireless_diagnostics6google8protobuf7MessageE, 
                       __ZN5raven15EstimatorHealth9MergeFromERKS0_, __ZN5raven15EstimatorHealthC1ERKS0_, 
                       __ZN5raven15EstimatorHealthC1Ev, __ZN5raven15EstimatorHealthC2ERKS0_, 
                       __ZN5raven15EstimatorHealthC2Ev, __ZN5raven15EstimatorHealthD0Ev, 
                       __ZN5raven15EstimatorHealthD1Ev, __ZN5raven15EstimatorHealthD2Ev, 
                       __ZN5raven15RavenParameters22ParseConfigurationFileEv, __ZN5raven15RavenParametersC1Ev, 
                       __ZN5raven15RavenParametersC2Ev, __ZN5raven15RavenSupervisor10InitializeEv, 
                       __ZN5raven15RavenSupervisor25GetMutableRavenParametersEv, 
                       __ZN5raven15RavenSupervisor5ResetEv, __ZN5raven15RavenSupervisor9ConfigureERKNS_25RavenSupervisorConfigArgsE, 
                       __ZN5raven15RavenSupervisorC1Ev, __ZN5raven15RavenSupervisorC2Ev, 
                       __ZN5raven17EstimatorActivity10FS_CYCLINGE, __ZN5raven17EstimatorActivity10FS_RUNNINGE, 
                       __ZN5raven17EstimatorActivity10FS_UNKNOWNE, __ZN5raven17EstimatorActivity10FS_WALKINGE, 
                       __ZN5raven17EstimatorActivity10MS_UNKNOWNE, __ZN5raven17EstimatorActivity10SharedCtorEv, 
                       __ZN5raven17EstimatorActivity10SharedDtorEv, __ZN5raven17EstimatorActivity10UA_CYCLINGE, 
                       __ZN5raven17EstimatorActivity10UA_DRIVINGE, __ZN5raven17EstimatorActivity10UA_RUNNINGE, 
                       __ZN5raven17EstimatorActivity10UA_UNKNOWNE, __ZN5raven17EstimatorActivity10UA_WALKINGE, 
                       __ZN5raven17EstimatorActivity10descriptorEv, __ZN5raven17EstimatorActivity11FS_SWIMMINGE, 
                       __ZN5raven17EstimatorActivity11UA_SWIMMINGE, __ZN5raven17EstimatorActivity13FS_WHEELCHAIRE, 
                       __ZN5raven17EstimatorActivity13MS_NOT_MOVINGE, __ZN5raven17EstimatorActivity13UA_WHEELCHAIRE, 
                       __ZN5raven17EstimatorActivity16default_instanceEv, __ZN5raven17EstimatorActivity17default_instance_E, 
                       __ZN5raven17EstimatorActivity19MovingStateType_MAXE, __ZN5raven17EstimatorActivity19MovingStateType_MINE, 
                       __ZN5raven17EstimatorActivity20UserActivityType_MAXE, __ZN5raven17EstimatorActivity20UserActivityType_MINE, 
                       __ZN5raven17EstimatorActivity21InitAsDefaultInstanceEv, __ZN5raven17EstimatorActivity21kTimestampFieldNumberE, 
                       __ZN5raven17EstimatorActivity25MovingStateType_ARRAYSIZEE, 
                       __ZN5raven17EstimatorActivity26UserActivityType_ARRAYSIZEE, 
                       __ZN5raven17EstimatorActivity26UserFitnessSessionType_MAXE, 
                       __ZN5raven17EstimatorActivity26UserFitnessSessionType_MINE, 
                       __ZN5raven17EstimatorActivity27MergePartialFromCodedStreamEPN20wireless_diagnostics6google8protobuf2io16CodedInputStreamE, 
                       __ZN5raven17EstimatorActivity30kUserFitnessSessionFieldNumberE, 
                       __ZN5raven17EstimatorActivity32UserFitnessSessionType_ARRAYSIZEE, 
                       __ZN5raven17EstimatorActivity32kEstimatedMovingStateFieldNumberE, 
                       __ZN5raven17EstimatorActivity33kEstimatedUserActivityFieldNumberE, 
                       __ZN5raven17EstimatorActivity41kProbabilityMovingStateCorrectFieldNumberE, 
                       __ZN5raven17EstimatorActivity42kProbabilityDeviceMountedToUserFieldNumberE, 
                       __ZN5raven17EstimatorActivity42kProbabilityUserActivityCorrectFieldNumberE, 
                       __ZN5raven17EstimatorActivity4SwapEPS0_, __ZN5raven17EstimatorActivity5ClearEv, 
                       __ZN5raven17EstimatorActivity7FS_NONEE, __ZN5raven17EstimatorActivity8CopyFromERKN20wireless_diagnostics6google8protobuf7MessageE, 
                       __ZN5raven17EstimatorActivity8CopyFromERKS0_, __ZN5raven17EstimatorActivity8FS_OTHERE, 
                       __ZN5raven17EstimatorActivity9MS_FROZENE, __ZN5raven17EstimatorActivity9MS_MOVINGE, 
                       __ZN5raven17EstimatorActivity9MergeFromERKN20wireless_diagnostics6google8protobuf7MessageE, 
                       __ZN5raven17EstimatorActivity9MergeFromERKS0_, __ZN5raven17EstimatorActivity9UA_MOVINGE, 
                       __ZN5raven17EstimatorActivityC1ERKS0_, __ZN5raven17EstimatorActivityC1Ev, 
                       __ZN5raven17EstimatorActivityC2ERKS0_, __ZN5raven17EstimatorActivityC2Ev, 
                       __ZN5raven17EstimatorActivityD0Ev, __ZN5raven17EstimatorActivityD1Ev, 
                       __ZN5raven17EstimatorActivityD2Ev, __ZN5raven17RavenPNTEstimator10InitializeERKNS_22RavenEstimatorInitArgsE, 
                       __ZN5raven17RavenPNTEstimator11HandleEventERKNS_10TimerEventE, 
                       __ZN5raven17RavenPNTEstimator11HandleEventERKNS_13AltitudeEventE, 
                       __ZN5raven17RavenPNTEstimator11HandleEventERKNS_13AttitudeEventE, 
                       __ZN5raven17RavenPNTEstimator11HandleEventERKNS_13PositionEventE, 
                       __ZN5raven17RavenPNTEstimator11HandleEventERKNS_13RateGyroEventE, 
                       __ZN5raven17RavenPNTEstimator11HandleEventERKNS_13VelocityEventE, 
                       __ZN5raven17RavenPNTEstimator11HandleEventERKNS_18AccelerometerEventE, 
                       __ZN5raven17RavenPNTEstimator11HandleEventERKNS_18RavenSolutionEventE, 
                       __ZN5raven17RavenPNTEstimator11HandleEventERKNS_19AltitudeChangeEventE, 
                       __ZN5raven17RavenPNTEstimator16PredictAndUpdateERKNS0_37RavenPNTEstimatorPredictAndUpdateArgsE, 
                       __ZN5raven17RavenPNTEstimator23UpdateFullStateEstimateEv, 
                       __ZN5raven17RavenPNTEstimator5ResetEv, __ZN5raven17RavenPNTEstimator9ConfigureERKNS_24RavenEstimatorConfigArgsE, 
                       __ZN5raven17RavenPNTEstimatorC1Ev, __ZN5raven17RavenPNTEstimatorC2Ev, 
                       __ZN5raven18DeviceRateGyroBias10SharedCtorEv, __ZN5raven18DeviceRateGyroBias10SharedDtorEv, 
                       __ZN5raven18DeviceRateGyroBias10descriptorEv, __ZN5raven18DeviceRateGyroBias16default_instanceEv, 
                       __ZN5raven18DeviceRateGyroBias17default_instance_E, __ZN5raven18DeviceRateGyroBias18kXRadpsFieldNumberE, 
                       __ZN5raven18DeviceRateGyroBias18kYRadpsFieldNumberE, __ZN5raven18DeviceRateGyroBias18kZRadpsFieldNumberE, 
                       __ZN5raven18DeviceRateGyroBias21InitAsDefaultInstanceEv, __ZN5raven18DeviceRateGyroBias21kTimestampFieldNumberE, 
                       __ZN5raven18DeviceRateGyroBias22kPXxRad2Ps2FieldNumberE, __ZN5raven18DeviceRateGyroBias22kPXyRad2Ps2FieldNumberE, 
                       __ZN5raven18DeviceRateGyroBias22kPXzRad2Ps2FieldNumberE, __ZN5raven18DeviceRateGyroBias22kPYyRad2Ps2FieldNumberE, 
                       __ZN5raven18DeviceRateGyroBias22kPYzRad2Ps2FieldNumberE, __ZN5raven18DeviceRateGyroBias22kPZzRad2Ps2FieldNumberE, 
                       __ZN5raven18DeviceRateGyroBias27MergePartialFromCodedStreamEPN20wireless_diagnostics6google8protobuf2io16CodedInputStreamE, 
                       __ZN5raven18DeviceRateGyroBias4SwapEPS0_, __ZN5raven18DeviceRateGyroBias5ClearEv, 
                       __ZN5raven18DeviceRateGyroBias8CopyFromERKN20wireless_diagnostics6google8protobuf7MessageE, 
                       __ZN5raven18DeviceRateGyroBias8CopyFromERKS0_, __ZN5raven18DeviceRateGyroBias9MergeFromERKN20wireless_diagnostics6google8protobuf7MessageE, 
                       __ZN5raven18DeviceRateGyroBias9MergeFromERKS0_, __ZN5raven18DeviceRateGyroBiasC1ERKS0_, 
                       __ZN5raven18DeviceRateGyroBiasC1Ev, __ZN5raven18DeviceRateGyroBiasC2ERKS0_, 
                       __ZN5raven18DeviceRateGyroBiasC2Ev, __ZN5raven18DeviceRateGyroBiasD0Ev, 
                       __ZN5raven18DeviceRateGyroBiasD1Ev, __ZN5raven18DeviceRateGyroBiasD2Ev, 
                       __ZN5raven18RavenSanityChecker11HandleEventERKNS_18RavenSolutionEventE, 
                       __ZN5raven18RavenSanityChecker5ResetEv, __ZN5raven18RavenSanityChecker9ConfigureERKNS_28RavenSanityCheckerConfigArgsE, 
                       __ZN5raven18RavenSanityCheckerC1Ev, __ZN5raven18RavenSanityCheckerC2Ev, 
                       __ZN5raven18RinexNavFileParser10CheckRangeEdRddd, __ZN5raven18RinexNavFileParser15ExtractFloatingERKNSt3__112basic_stringIcNS1_11char_traitsIcEENS1_9allocatorIcEEEEthRddd, 
                       __ZN5raven18RinexNavFileParser33ExtractScientificNotationFloatingERKNSt3__112basic_stringIcNS1_11char_traitsIcEENS1_9allocatorIcEEEEthRddd, 
                       __ZN5raven18RinexNavFileParser5ParseERKNSt3__16vectorIcNS1_9allocatorIcEEEE, 
                       __ZN5raven18RinexNavFileParserC1Ehh, __ZN5raven18RinexNavFileParserC2Ehh, 
                       __ZN5raven20RinexNavFileDatabase5ClearEv, __ZN5raven20RinexNavFileDatabase8LoadFileERKNSt3__16vectorIcNS1_9allocatorIcEEEENS_13RinexFileTypeE, 
                       __ZN5raven20RinexNavFileDatabaseC1Ev, __ZN5raven20RinexNavFileDatabaseC2Ev, 
                       __ZN5raven21GpsRinexNavFileParserC1Ev, __ZN5raven21GpsRinexNavFileParserC2Ev, 
                       __ZN5raven22RavenPeriodictyTracker15AddSignalSampleEd, __ZN5raven22RavenPeriodictyTracker5ResetEv, 
                       __ZN5raven22RavenPeriodictyTracker9ConfigureERKNS_32RavenPeriodictyTrackerConfigArgsE, 
                       __ZN5raven22RavenPeriodictyTrackerC1Ev, __ZN5raven22RavenPeriodictyTrackerC2Ev, 
                       __ZN5raven23DeviceAccelerometerBias10SharedCtorEv, __ZN5raven23DeviceAccelerometerBias10SharedDtorEv, 
                       __ZN5raven23DeviceAccelerometerBias10descriptorEv, __ZN5raven23DeviceAccelerometerBias16default_instanceEv, 
                       __ZN5raven23DeviceAccelerometerBias17default_instance_E, __ZN5raven23DeviceAccelerometerBias17kXMps2FieldNumberE, 
                       __ZN5raven23DeviceAccelerometerBias17kYMps2FieldNumberE, __ZN5raven23DeviceAccelerometerBias17kZMps2FieldNumberE, 
                       __ZN5raven23DeviceAccelerometerBias20kPXxM2Ps4FieldNumberE, 
                       __ZN5raven23DeviceAccelerometerBias20kPXyM2Ps4FieldNumberE, 
                       __ZN5raven23DeviceAccelerometerBias20kPXzM2Ps4FieldNumberE, 
                       __ZN5raven23DeviceAccelerometerBias20kPYyM2Ps4FieldNumberE, 
                       __ZN5raven23DeviceAccelerometerBias20kPYzM2Ps4FieldNumberE, 
                       __ZN5raven23DeviceAccelerometerBias20kPZzM2Ps4FieldNumberE, 
                       __ZN5raven23DeviceAccelerometerBias21InitAsDefaultInstanceEv, 
                       __ZN5raven23DeviceAccelerometerBias21kTimestampFieldNumberE, 
                       __ZN5raven23DeviceAccelerometerBias27MergePartialFromCodedStreamEPN20wireless_diagnostics6google8protobuf2io16CodedInputStreamE, 
                       __ZN5raven23DeviceAccelerometerBias4SwapEPS0_, __ZN5raven23DeviceAccelerometerBias5ClearEv, 
                       __ZN5raven23DeviceAccelerometerBias8CopyFromERKN20wireless_diagnostics6google8protobuf7MessageE, 
                       __ZN5raven23DeviceAccelerometerBias8CopyFromERKS0_, __ZN5raven23DeviceAccelerometerBias9MergeFromERKN20wireless_diagnostics6google8protobuf7MessageE, 
                       __ZN5raven23DeviceAccelerometerBias9MergeFromERKS0_, __ZN5raven23DeviceAccelerometerBiasC1ERKS0_, 
                       __ZN5raven23DeviceAccelerometerBiasC1Ev, __ZN5raven23DeviceAccelerometerBiasC2ERKS0_, 
                       __ZN5raven23DeviceAccelerometerBiasC2Ev, __ZN5raven23DeviceAccelerometerBiasD0Ev, 
                       __ZN5raven23DeviceAccelerometerBiasD1Ev, __ZN5raven23DeviceAccelerometerBiasD2Ev, 
                       __ZN5raven25GlonassRinexNavFileParserC1Ev, __ZN5raven25GlonassRinexNavFileParserC2Ev, 
                       __ZN5raven25RavenConvergenceEstimator10InitializeERKNS_22RavenEstimatorInitArgsE, 
                       __ZN5raven25RavenConvergenceEstimator11HandleEventERKNS_10TimerEventE, 
                       __ZN5raven25RavenConvergenceEstimator11HandleEventERKNS_13AltitudeEventE, 
                       __ZN5raven25RavenConvergenceEstimator11HandleEventERKNS_13OdometerEventE, 
                       __ZN5raven25RavenConvergenceEstimator11HandleEventERKNS_13PositionEventE, 
                       __ZN5raven25RavenConvergenceEstimator11HandleEventERKNS_13VelocityEventE, 
                       __ZN5raven25RavenConvergenceEstimator11HandleEventERKNS_14MapVectorEventE, 
                       __ZN5raven25RavenConvergenceEstimator11HandleEventERKNS_16MovingStateEventE, 
                       __ZN5raven25RavenConvergenceEstimator11HandleEventERKNS_18RavenSolutionEventE, 
                       __ZN5raven25RavenConvergenceEstimator11HandleEventERKNS_19AltitudeChangeEventE, 
                       __ZN5raven25RavenConvergenceEstimator11HandleEventERKNS_27DecomposedAccelerationEventE, 
                       __ZN5raven25RavenConvergenceEstimator11HandleEventERKNS_33GnssPreprocessedMeasurementsEventE, 
                       __ZN5raven25RavenConvergenceEstimator16PredictAndUpdateERKNS0_45RavenConvergenceEstimatorPredictAndUpdateArgsE, 
                       __ZN5raven25RavenConvergenceEstimator16ResetWahbaSolverEv, 
                       __ZN5raven25RavenConvergenceEstimator20HandleGnssClockJumpsE6CNTimed, 
                       __ZN5raven25RavenConvergenceEstimator43AdjustDynamicModelWithMovingStateContraintsERK6CNTime, 
                       __ZN5raven25RavenConvergenceEstimator5ResetEv, __ZN5raven25RavenConvergenceEstimator7PredictERKNS0_36RavenConvergenceEstimatorPredictArgsE, 
                       __ZN5raven25RavenConvergenceEstimator9ConfigureERKNS_24RavenEstimatorConfigArgsE, 
                       __ZN5raven25RavenConvergenceEstimatorC1Ev, __ZN5raven25RavenConvergenceEstimatorC2Ev, 
                       __ZN5raven25RavenPassThroughEstimator11HandleEventERKNS_13PositionEventE, 
                       __ZN5raven25RavenPassThroughEstimator11HandleEventERKNS_13VelocityEventE, 
                       __ZN5raven25RavenPassThroughEstimator16GetRavenSolutionERNS_18RavenSolutionEventE, 
                       __ZN5raven27GnssMeasurementPreprocessor11FormDopplerERKNS_15GnssMeasurementEdRNS_14GnssObservableE, 
                       __ZN5raven27GnssMeasurementPreprocessor11HandleEventERKNS_13PositionEventE, 
                       __ZN5raven27GnssMeasurementPreprocessor11HandleEventERKNS_24GnssMeasurementDataEventE, 
                       __ZN5raven27GnssMeasurementPreprocessor29UpdateReceiverBandCorrectionsENSt3__16vectorINS_27GnssReceiverBandCorrectionsENS1_9allocatorIS3_EEEE, 
                       __ZN5raven27GnssMeasurementPreprocessor31GetPreprocessedGnssMeasurementsERNS_33GnssPreprocessedMeasurementsEventE, 
                       __ZN5raven27GnssMeasurementPreprocessor7FormAdrERKNS_15GnssMeasurementEdRNS_14GnssObservableE, 
                       __ZN5raven27GnssMeasurementPreprocessorC1Ev, __ZN5raven27GnssMeasurementPreprocessorC2Ev, 
                       __ZN5raven29RinexConstellationDataManager18UpdateAnchorPointsERKN12cnnavigation7TAITimeERKNS1_7GPSTimeERKNS1_24KlobucharIonosphereModelERKNS1_29ParameterizedTroposphereModelEPKdRNS_17SvPositioningDataEdRNS1_17GNSSUTCParametersE, 
                       __ZN5raven29RinexConstellationDataManager38UpdateNavigationDataForPositionAndTimeERKN12cnnavigation7TAITimeERKNS_13PositionEventE, 
                       __ZN5raven29RinexConstellationDataManagerC1EPNS_20RinexNavFileDatabaseE, 
                       __ZN5raven29RinexConstellationDataManagerC2EPNS_20RinexNavFileDatabaseE, 
                       __ZN5raven29RinexConstellationDataMatcher11HandleEventERKNS_13PositionEventE, 
                       __ZN5raven29RinexConstellationDataMatcher11HandleEventERKNS_14RinexDataEventE, 
                       __ZN5raven29RinexConstellationDataMatcher11HandleEventERKNS_24GnssMeasurementDataEventE, 
                       __ZN5raven29RinexConstellationDataMatcher15EstimateTAITimeERK6CNTimeRKNS_24GnssMeasurementDataEventE, 
                       __ZN5raven29RinexConstellationDataMatcher16EstimatePositionERKNS_13PositionEventE, 
                       __ZN5raven29RinexConstellationDataMatcher22GetGnssMeasurementDataERNS_24GnssMeasurementDataEventE, 
                       __ZN5raven29RinexConstellationDataMatcherC1Ev, __ZN5raven29RinexConstellationDataMatcherC2Ev, 
                       __ZN5raven30DeviceAccelerometerScaleFactor10SharedCtorEv, 
                       __ZN5raven30DeviceAccelerometerScaleFactor10SharedDtorEv, 
                       __ZN5raven30DeviceAccelerometerScaleFactor10descriptorEv, 
                       __ZN5raven30DeviceAccelerometerScaleFactor13kXFieldNumberE, 
                       __ZN5raven30DeviceAccelerometerScaleFactor13kYFieldNumberE, 
                       __ZN5raven30DeviceAccelerometerScaleFactor13kZFieldNumberE, 
                       __ZN5raven30DeviceAccelerometerScaleFactor15kPXxFieldNumberE, 
                       __ZN5raven30DeviceAccelerometerScaleFactor15kPXyFieldNumberE, 
                       __ZN5raven30DeviceAccelerometerScaleFactor15kPXzFieldNumberE, 
                       __ZN5raven30DeviceAccelerometerScaleFactor15kPYyFieldNumberE, 
                       __ZN5raven30DeviceAccelerometerScaleFactor15kPYzFieldNumberE, 
                       __ZN5raven30DeviceAccelerometerScaleFactor15kPZzFieldNumberE, 
                       __ZN5raven30DeviceAccelerometerScaleFactor16default_instanceEv, 
                       __ZN5raven30DeviceAccelerometerScaleFactor17default_instance_E, 
                       __ZN5raven30DeviceAccelerometerScaleFactor21InitAsDefaultInstanceEv, 
                       __ZN5raven30DeviceAccelerometerScaleFactor21kTimestampFieldNumberE, 
                       __ZN5raven30DeviceAccelerometerScaleFactor27MergePartialFromCodedStreamEPN20wireless_diagnostics6google8protobuf2io16CodedInputStreamE, 
                       __ZN5raven30DeviceAccelerometerScaleFactor4SwapEPS0_, __ZN5raven30DeviceAccelerometerScaleFactor5ClearEv, 
                       __ZN5raven30DeviceAccelerometerScaleFactor8CopyFromERKN20wireless_diagnostics6google8protobuf7MessageE, 
                       __ZN5raven30DeviceAccelerometerScaleFactor8CopyFromERKS0_, 
                       __ZN5raven30DeviceAccelerometerScaleFactor9MergeFromERKN20wireless_diagnostics6google8protobuf7MessageE, 
                       __ZN5raven30DeviceAccelerometerScaleFactor9MergeFromERKS0_, 
                       __ZN5raven30DeviceAccelerometerScaleFactorC1ERKS0_, __ZN5raven30DeviceAccelerometerScaleFactorC1Ev, 
                       __ZN5raven30DeviceAccelerometerScaleFactorC2ERKS0_, __ZN5raven30DeviceAccelerometerScaleFactorC2Ev, 
                       __ZN5raven30DeviceAccelerometerScaleFactorD0Ev, __ZN5raven30DeviceAccelerometerScaleFactorD1Ev, 
                       __ZN5raven30DeviceAccelerometerScaleFactorD2Ev, __ZN5raven30DeviceReceiverClockDiscrepancy10SharedCtorEv, 
                       __ZN5raven30DeviceReceiverClockDiscrepancy10SharedDtorEv, 
                       __ZN5raven30DeviceReceiverClockDiscrepancy10descriptorEv, 
                       __ZN5raven30DeviceReceiverClockDiscrepancy16default_instanceEv, 
                       __ZN5raven30DeviceReceiverClockDiscrepancy17default_instance_E, 
                       __ZN5raven30DeviceReceiverClockDiscrepancy17kPOoS2FieldNumberE, 
                       __ZN5raven30DeviceReceiverClockDiscrepancy19kPOdS2PsFieldNumberE, 
                       __ZN5raven30DeviceReceiverClockDiscrepancy20kPDdS2Ps2FieldNumberE, 
                       __ZN5raven30DeviceReceiverClockDiscrepancy21InitAsDefaultInstanceEv, 
                       __ZN5raven30DeviceReceiverClockDiscrepancy21kTimestampFieldNumberE, 
                       __ZN5raven30DeviceReceiverClockDiscrepancy27MergePartialFromCodedStreamEPN20wireless_diagnostics6google8protobuf2io16CodedInputStreamE, 
                       __ZN5raven30DeviceReceiverClockDiscrepancy31kClockDriftWrtTaiSpsFieldNumberE, 
                       __ZN5raven30DeviceReceiverClockDiscrepancy34kClockOffsetWrtTaiTimeSFieldNumberE, 
                       __ZN5raven30DeviceReceiverClockDiscrepancy4SwapEPS0_, __ZN5raven30DeviceReceiverClockDiscrepancy5ClearEv, 
                       __ZN5raven30DeviceReceiverClockDiscrepancy8CopyFromERKN20wireless_diagnostics6google8protobuf7MessageE, 
                       __ZN5raven30DeviceReceiverClockDiscrepancy8CopyFromERKS0_, 
                       __ZN5raven30DeviceReceiverClockDiscrepancy9MergeFromERKN20wireless_diagnostics6google8protobuf7MessageE, 
                       __ZN5raven30DeviceReceiverClockDiscrepancy9MergeFromERKS0_, 
                       __ZN5raven30DeviceReceiverClockDiscrepancyC1ERKS0_, __ZN5raven30DeviceReceiverClockDiscrepancyC1Ev, 
                       __ZN5raven30DeviceReceiverClockDiscrepancyC2ERKS0_, __ZN5raven30DeviceReceiverClockDiscrepancyC2Ev, 
                       __ZN5raven30DeviceReceiverClockDiscrepancyD0Ev, __ZN5raven30DeviceReceiverClockDiscrepancyD1Ev, 
                       __ZN5raven30DeviceReceiverClockDiscrepancyD2Ev, __ZN5raven30RavenEstimatorActiveObjectBase9ConfigureERKNS_36RavenEstimatorActiveObjectConfigArgsE, 
                       __ZN5raven30RavenEstimatorActiveObjectBaseC2Ev, __ZN5raven30RavenEstimatorActiveObjectBaseD0Ev, 
                       __ZN5raven30RavenEstimatorActiveObjectBaseD1Ev, __ZN5raven30RavenEstimatorActiveObjectBaseD2Ev, 
                       __ZN5raven37EstimatorHealth_EstimatorType_IsValidEi, __ZN5raven38protobuf_AddDesc_CLRavenOutput_2eprotoEv, 
                       __ZN5raven40EstimatorHealth_EstimatorType_descriptorEv, __ZN5raven41EstimatorActivity_MovingStateType_IsValidEi, 
                       __ZN5raven41protobuf_AssignDesc_CLRavenOutput_2eprotoEv, __ZN5raven42EstimatorActivity_UserActivityType_IsValidEi, 
                       __ZN5raven43EstimatorHealth_EstimatorHealthType_IsValidEi, 
                       __ZN5raven43protobuf_ShutdownFile_CLRavenOutput_2eprotoEv, 
                       __ZN5raven44EstimatorActivity_MovingStateType_descriptorEv, 
                       __ZN5raven45EstimatorActivity_UserActivityType_descriptorEv, 
                       __ZN5raven46EstimatorHealth_EstimatorHealthType_descriptorEv, 
                       __ZN5raven48EstimatorActivity_UserFitnessSessionType_IsValidEi, 
                       __ZN5raven51EstimatorActivity_UserFitnessSessionType_descriptorEv, 
                       __ZN5raven52static_descriptor_initializer_CLRavenOutput_2eproto_E, 
                       __ZN5raven9TimeStamp10SharedCtorEv, __ZN5raven9TimeStamp10SharedDtorEv, 
                       __ZN5raven9TimeStamp10descriptorEv, __ZN5raven9TimeStamp16default_instanceEv, 
                       __ZN5raven9TimeStamp17default_instance_E, __ZN5raven9TimeStamp20kTaiTimeSFieldNumberE, 
                       __ZN5raven9TimeStamp21InitAsDefaultInstanceEv, __ZN5raven9TimeStamp27MergePartialFromCodedStreamEPN20wireless_diagnostics6google8protobuf2io16CodedInputStreamE, 
                       __ZN5raven9TimeStamp27kCfAbsoluteTimeSFieldNumberE, __ZN5raven9TimeStamp31kMachContinuousTimeSFieldNumberE, 
                       __ZN5raven9TimeStamp31kUncorrectedTaiTimeSFieldNumberE, __ZN5raven9TimeStamp39kEstimatedTaiTimeSynchErrorSFieldNumberE, 
                       __ZN5raven9TimeStamp4SwapEPS0_, __ZN5raven9TimeStamp5ClearEv, 
                       __ZN5raven9TimeStamp8CopyFromERKN20wireless_diagnostics6google8protobuf7MessageE, 
                       __ZN5raven9TimeStamp8CopyFromERKS0_, __ZN5raven9TimeStamp9MergeFromERKN20wireless_diagnostics6google8protobuf7MessageE, 
                       __ZN5raven9TimeStamp9MergeFromERKS0_, __ZN5raven9TimeStampC1ERKS0_, 
                       __ZN5raven9TimeStampC1Ev, __ZN5raven9TimeStampC2ERKS0_, __ZN5raven9TimeStampC2Ev, 
                       __ZN5raven9TimeStampD0Ev, __ZN5raven9TimeStampD1Ev, __ZN5raven9TimeStampD2Ev, 
                       __ZN6CNTime11DeserializeER21CNSerializationStream, __ZN6CNTimeC1ERK10CNTimeSpan, 
                       __ZN6CNTimeC1ERKS_, __ZN6CNTimeC1Ev, __ZN6CNTimeC2ERK10CNTimeSpan, 
                       __ZN6CNTimeC2ERKS_, __ZN6CNTimeC2Ev, __ZN6CNTimeD0Ev, __ZN6CNTimeD1Ev, 
                       __ZN6CNTimeD2Ev, __ZN6CNTimeaSERKS_, __ZN6CNTimemIERK10CNTimeSpan, 
                       __ZN6CNTimepLERK10CNTimeSpan, __ZN6cnrand21RandomNumberGenerator10InitializeEj, 
                       __ZN6cnrand21RandomNumberGenerator10InitializeEv, __ZN6cnrand21RandomNumberGenerator10WriteStateEPKc, 
                       __ZN6cnrand21RandomNumberGenerator13FillGeneratorEv, __ZN6cnrand21RandomNumberGenerator13RandomIntegerEv, 
                       __ZN6cnrand21RandomNumberGenerator13RandomUniformEv, __ZN6cnrand21RandomNumberGenerator14RandomGaussianEv, 
                       __ZN6cnrand21RandomNumberGenerator9LoadStateEPKc, __ZN6cnrand21RandomNumberGeneratorC1ERKS0_, 
                       __ZN6cnrand21RandomNumberGeneratorC1Ev, __ZN6cnrand21RandomNumberGeneratorC2ERKS0_, 
                       __ZN6cnrand21RandomNumberGeneratorC2Ev, __ZN6cnrand21RandomNumberGeneratoraSERKS0_, 
                       __ZN7cntimer12GenericTimer10ResetTimerEv, __ZN7cntimer12GenericTimer10StartTimerEv, 
                       __ZN7cntimer12GenericTimer9StopTimerEv, __ZN7cntimer12GenericTimerC1Ev, 
                       __ZN7cntimer12GenericTimerC2Ev, __ZN9cnconsole11ProgressBar17DisplayPercentageERKxS2_, 
                       __ZN9cnconsole11ProgressBar18DisplayElapsedTimeEv, __ZN9cnconsole11ProgressBar18DisplayProgressBarERKxS2_, 
                       __ZN9cnconsole11ProgressBar21DisplayBytesProcessedERKxS2_, 
                       __ZN9cnconsole11ProgressBar7DisplayERKxS2_b, __ZN9cnconsole11ProgressBarC1ERKd, 
                       __ZN9cnconsole11ProgressBarC1Ev, __ZN9cnconsole11ProgressBarC2ERKd, 
                       __ZN9cnconsole11ProgressBarC2Ev, __ZN9cnlogging19ProtobufInputStream16readLastProtobufERN20wireless_diagnostics6google8protobuf11MessageLiteE, 
                       __ZN9cnlogging19ProtobufInputStream16readNextProtobufERN20wireless_diagnostics6google8protobuf11MessageLiteE, 
                       __ZN9cnlogging19ProtobufInputStream16readPrevProtobufERN20wireless_diagnostics6google8protobuf11MessageLiteE, 
                       __ZN9cnlogging19ProtobufInputStream17readFirstProtobufERN20wireless_diagnostics6google8protobuf11MessageLiteE, 
                       __ZN9cnlogging19ProtobufInputStream25readProtobufContainingIdxERKxRN20wireless_diagnostics6google8protobuf11MessageLiteE, 
                       __ZN9cnlogging19ProtobufInputStream30readProtobufAtCurrentIdxNoSyncERN20wireless_diagnostics6google8protobuf11MessageLiteE, 
                       __ZN9cnlogging19ProtobufInputStream4openERKNSt3__112basic_stringIcNS1_11char_traitsIcEENS1_9allocatorIcEEEE, 
                       __ZN9cnlogging19ProtobufInputStream5closeEv, __ZN9cnlogging19ProtobufInputStream5resetEv, 
                       __ZN9cnlogging19ProtobufInputStreamC1ERKNSt3__112basic_stringIcNS1_11char_traitsIcEENS1_9allocatorIcEEEE, 
                       __ZN9cnlogging19ProtobufInputStreamC2ERKNSt3__112basic_stringIcNS1_11char_traitsIcEENS1_9allocatorIcEEEE, 
                       __ZN9cnlogging19ProtobufInputStreamD1Ev, __ZN9cnlogging19ProtobufInputStreamD2Ev, 
                       __ZN9cnlogging20ProtobufOutputStream23writeSentinelAndVersionEv, 
                       __ZN9cnlogging20ProtobufOutputStream4openERKNSt3__112basic_stringIcNS1_11char_traitsIcEENS1_9allocatorIcEEEERKNS_12FileOpenModeE, 
                       __ZN9cnlogging20ProtobufOutputStream5closeEv, __ZN9cnlogging20ProtobufOutputStream5flushEv, 
                       __ZN9cnlogging20ProtobufOutputStream6appendERKN20wireless_diagnostics6google8protobuf11MessageLiteE, 
                       __ZN9cnlogging20ProtobufOutputStreamC1ERKNSt3__112basic_stringIcNS1_11char_traitsIcEENS1_9allocatorIcEEEERKNS_12FileOpenModeE, 
                       __ZN9cnlogging20ProtobufOutputStreamC2ERKNSt3__112basic_stringIcNS1_11char_traitsIcEENS1_9allocatorIcEEEERKNS_12FileOpenModeE, 
                       __ZN9cnlogging20ProtobufOutputStreamD1Ev, __ZN9cnlogging20ProtobufOutputStreamD2Ev, 
                       __ZN9cnlogging7details10ByteReader10setReadIdxERKx, __ZN9cnlogging7details10ByteReader12readNextByteENS0_13ReadDirectionERh, 
                       __ZN9cnlogging7details10ByteReader13readByteAtIdxENS0_13ReadDirectionERKxRh, 
                       __ZN9cnlogging7details10ByteReader15computeFileSizeEv, __ZN9cnlogging7details10ByteReader4openERKNSt3__112basic_stringIcNS2_11char_traitsIcEENS2_9allocatorIcEEEE, 
                       __ZN9cnlogging7details10ByteReader5closeEv, __ZN9cnlogging7details10ByteReaderC1ERKNSt3__112basic_stringIcNS2_11char_traitsIcEENS2_9allocatorIcEEEE, 
                       __ZN9cnlogging7details10ByteReaderC2ERKNSt3__112basic_stringIcNS2_11char_traitsIcEENS2_9allocatorIcEEEE, 
                       __ZN9cnlogging7details10ByteReaderD1Ev, __ZN9cnlogging7details10ByteReaderD2Ev, 
                       __ZN9cnlogging7details11ByteStuffer13stuffAndWriteERKNSt3__16vectorIhNS2_9allocatorIhEEEE, 
                       __ZN9cnlogging7details11ByteStuffer15stuffAndWriteU8Eh, __ZN9cnlogging7details11MmapWrapper4openERKNSt3__112basic_stringIcNS2_11char_traitsIcEENS2_9allocatorIcEEEE, 
                       __ZN9cnlogging7details11MmapWrapper5closeEv, __ZN9cnlogging7details11MmapWrapperC1ERKNSt3__112basic_stringIcNS2_11char_traitsIcEENS2_9allocatorIcEEEE, 
                       __ZN9cnlogging7details11MmapWrapperC2ERKNSt3__112basic_stringIcNS2_11char_traitsIcEENS2_9allocatorIcEEEE, 
                       __ZN9cnlogging7details11MmapWrapperD1Ev, __ZN9cnlogging7details11MmapWrapperD2Ev, 
                       __ZN9cnlogging7details13ByteUnstuffer12decodeLengthERNSt3__16vectorIhNS2_9allocatorIhEEEEmRm, 
                       __ZN9cnlogging7details13ByteUnstuffer14decodeChecksumERNSt3__16vectorIhNS2_9allocatorIhEEEEmRj, 
                       __ZN9cnlogging7details13ByteUnstuffer14readAndUnstuffERNSt3__16vectorIhNS2_9allocatorIhEEEERmS8_, 
                       __ZN9cnlogging7details13ByteUnstuffer16readAndUnstuffU8ERh, 
                       __ZN9cnlogging7details15InputStreamSync36findNextSentinelAndGetVersionByteIdxENS0_13ReadDirectionERx, 
                       __ZN9cnlogging7details15InputStreamSync4syncENS0_13ReadDirectionERKx, 
                       __ZN9cnlogging7details24CNProtobufStreamChecksum10fletcher16ERKNSt3__16vectorIhNS2_9allocatorIhEEEEmm, 
                       __ZN9cnlogging7details24CNProtobufStreamChecksum7adler32ERKNSt3__16vectorIhNS2_9allocatorIhEEEEmm, 
                       __ZNK10CNTimeSpan14IntegerSecondsEv, __ZNK10CNTimeSpan17FractionalSecondsEv, 
                       __ZNK10CNTimeSpan8DurationEv, __ZNK10CNTimeSpan9SerializeER21CNSerializationStream, 
                       __ZNK10CNTimeSpancvdEv, __ZNK10CNTimeSpangeERKS_, __ZNK10CNTimeSpangtERKS_, 
                       __ZNK10CNTimeSpanleERKS_, __ZNK10CNTimeSpanltERKS_, __ZNK10CNTimeSpanmiERKS_, 
                       __ZNK10CNTimeSpanngEv, __ZNK10CNTimeSpanplERKS_, __ZNK10cnrotation10CNRotation14RotationMatrixEv, 
                       __ZNK10cnrotation10CNRotation18RotationQuaternionEv, __ZNK10cnrotation10CNRotation1QEddd, 
                       __ZNK10cnrotation10CNRotation20RotationYawPitchRollERdS1_S1_, 
                       __ZNK10cnrotation10CNRotation28RotationDerivativeQuaternionEddd, 
                       __ZNK10cnrotation10CNRotation5dQdwxEv, __ZNK10cnrotation10CNRotation5dQdwyEv, 
                       __ZNK10cnrotation10CNRotation5dQdwzEv, __ZNK10cnrotation10CNRotation5dRdq1Ev, 
                       __ZNK10cnrotation10CNRotation5dRdq2Ev, __ZNK10cnrotation10CNRotation5dRdq3Ev, 
                       __ZNK10cnrotation10CNRotation5dRdq4Ev, __ZNK10cnrotation10CNRotation5dqddqEv, 
                       __ZNK10cnrotation10CNRotation9SerializeER21CNSerializationStream, 
                       __ZNK12cnestimation18PeriodicityTracker12IsConfiguredEv, __ZNK12cnestimation18PeriodicityTracker16IsSignalPeriodicEv, 
                       __ZNK12cnestimation18PeriodicityTracker22IsLatestSampleAFeatureEv, 
                       __ZNK12cnestimation18PeriodicityTracker26SignalFundamentalFrequencyEv, 
                       __ZNK12cnestimation18PeriodicityTracker7IsValidEv, __ZNK12cnestimation18PeriodicityTracker8DFTPoint12DFTFrequencyEv, 
                       __ZNK12cnestimation18PeriodicityTracker8DFTPoint12DFTMagnitudeEv, 
                       __ZNK12cnestimation18PeriodicityTracker8DFTPoint7IsValidEv, 
                       __ZNK12cnestimation18PeriodicityTracker8DFTPoint8DFTValueEv, 
                       __ZNK12cnestimation39RotationStabilizedAccelerationEstimator12IsConfiguredEv, 
                       __ZNK12cnestimation39RotationStabilizedAccelerationEstimator13IsInitializedEv, 
                       __ZNK12cnestimation39RotationStabilizedAccelerationEstimator33GetRotationStabilizedAccelerationERNS_30RotationStabilizedAccelerationE, 
                       __ZNK12cnnavigation14GLONASSAlmanac9SerializeER21CNSerializationStream, 
                       __ZNK12cnnavigation14GPSEphemerides11GNSSFindSatERKNS_7TAITimeERKNS_17GNSSUTCParametersERNSt3__15arrayIdLm3EEESA_SA_, 
                       __ZNK12cnnavigation14GPSEphemerides24GNSSSatelliteClockOffsetERKNS_7TAITimeERKNS_17GNSSUTCParametersEdRdbRNS_32GNSSSatelliteClockOffsetJacobianE, 
                       __ZNK12cnnavigation14GPSEphemerides28GNSSSatelliteClockOffsetRateERKNS_7TAITimeERKNS_17GNSSUTCParametersEdRdbRNS_36GNSSSatelliteClockOffsetRateJacobianE, 
                       __ZNK12cnnavigation14GPSEphemerides9SerializeER21CNSerializationStream, 
                       __ZNK12cnnavigation15GNSSEphemerides11GNSSFindSatERKNS_7TAITimeERKNS_17GNSSUTCParametersERNSt3__15arrayIdLm3EEE, 
                       __ZNK12cnnavigation15GNSSEphemerides11GNSSFindSatERKNS_7TAITimeERKNS_17GNSSUTCParametersERNSt3__15arrayIdLm3EEESA_, 
                       __ZNK12cnnavigation15GNSSEphemerides11GNSSFindSatERKNS_7TAITimeERNSt3__15arrayIdLm3EEE, 
                       __ZNK12cnnavigation15GNSSEphemerides11GNSSFindSatERKNS_7TAITimeERNSt3__15arrayIdLm3EEES7_, 
                       __ZNK12cnnavigation15GNSSEphemerides11GNSSFindSatERKNS_7TAITimeERNSt3__15arrayIdLm3EEES7_S7_, 
                       __ZNK12cnnavigation15GNSSEphemerides24GNSSSatelliteClockOffsetERKNS_7TAITimeERKNS_17GNSSUTCParametersEdRd, 
                       __ZNK12cnnavigation15GNSSEphemerides24GNSSSatelliteClockOffsetERKNS_7TAITimeERKNS_17GNSSUTCParametersEdRdRNS_32GNSSSatelliteClockOffsetJacobianE, 
                       __ZNK12cnnavigation15GNSSEphemerides24GNSSSatelliteClockOffsetERKNS_7TAITimeEdRd, 
                       __ZNK12cnnavigation15GNSSEphemerides24GNSSSatelliteClockOffsetERKNS_7TAITimeEdRdRNS_32GNSSSatelliteClockOffsetJacobianE, 
                       __ZNK12cnnavigation15GNSSEphemerides28GNSSSatelliteClockOffsetRateERKNS_7TAITimeERKNS_17GNSSUTCParametersEdRd, 
                       __ZNK12cnnavigation15GNSSEphemerides28GNSSSatelliteClockOffsetRateERKNS_7TAITimeERKNS_17GNSSUTCParametersEdRdRNS_36GNSSSatelliteClockOffsetRateJacobianE, 
                       __ZNK12cnnavigation15GNSSEphemerides28GNSSSatelliteClockOffsetRateERKNS_7TAITimeEdRd, 
                       __ZNK12cnnavigation15GNSSEphemerides28GNSSSatelliteClockOffsetRateERKNS_7TAITimeEdRdRNS_36GNSSSatelliteClockOffsetRateJacobianE, 
                       __ZNK12cnnavigation17GNSSUTCParameters7IsValidEv, __ZNK12cnnavigation17GNSSUTCParameters9SerializeER21CNSerializationStream, 
                       __ZNK12cnnavigation17WGS84GravityModel24ComputeWGS84GravityModelEPKdbbRdPdRNS_20GravityModelJacobianE, 
                       __ZNK12cnnavigation17WGS84GravityModel25GetGravitationalPotentialEPKdRd, 
                       __ZNK12cnnavigation17WGS84GravityModel25GetGravitationalPotentialEPKdRdPd, 
                       __ZNK12cnnavigation17WGS84GravityModel25GetGravitationalPotentialEPKdRdPdRNS_20GravityModelJacobianE, 
                       __ZNK12cnnavigation17WGS84GravityModel28GetGravitationalAccelerationEPKdPd, 
                       __ZNK12cnnavigation17WGS84GravityModel28GetGravitationalAccelerationEPKdPdRNS_20GravityModelJacobianE, 
                       __ZNK12cnnavigation18GLONASSEphemerides11GNSSFindSatERKNS_7TAITimeERKNS_17GNSSUTCParametersERNSt3__15arrayIdLm3EEESA_SA_, 
                       __ZNK12cnnavigation18GLONASSEphemerides24GNSSSatelliteClockOffsetERKNS_7TAITimeERKNS_17GNSSUTCParametersEdRdbRNS_32GNSSSatelliteClockOffsetJacobianE, 
                       __ZNK12cnnavigation18GLONASSEphemerides28GNSSSatelliteClockOffsetRateERKNS_7TAITimeERKNS_17GNSSUTCParametersEdRdbRNS_36GNSSSatelliteClockOffsetRateJacobianE, 
                       __ZNK12cnnavigation18GLONASSEphemerides9SerializeER21CNSerializationStream, 
                       __ZNK12cnnavigation19NullIonosphereModel19GetIonosphericDelayEidPKdS2_dRd, 
                       __ZNK12cnnavigation19NullIonosphereModel19GetIonosphericDelayEidPKdS2_dRdRNS_23IonosphereModelJacobianE, 
                       __ZNK12cnnavigation20NullTroposphereModel20GetTroposphericDelayEidPKdS2_Rd, 
                       __ZNK12cnnavigation20NullTroposphereModel20GetTroposphericDelayEidPKdS2_RdRNS_24TroposphereModelJacobianE, 
                       __ZNK12cnnavigation21PolynomialEphemerides11GNSSFindSatERKNS_7TAITimeERKNS_17GNSSUTCParametersERNSt3__15arrayIdLm3EEESA_SA_, 
                       __ZNK12cnnavigation21PolynomialEphemerides24GNSSSatelliteClockOffsetERKNS_7TAITimeERKNS_17GNSSUTCParametersEdRdbRNS_32GNSSSatelliteClockOffsetJacobianE, 
                       __ZNK12cnnavigation21PolynomialEphemerides28GNSSSatelliteClockOffsetRateERKNS_7TAITimeERKNS_17GNSSUTCParametersEdRdbRNS_36GNSSSatelliteClockOffsetRateJacobianE, 
                       __ZNK12cnnavigation21PolynomialEphemerides9SerializeER21CNSerializationStream, 
                       __ZNK12cnnavigation22LinearizedGravityModel25GetGravitationalPotentialEPKdRd, 
                       __ZNK12cnnavigation22LinearizedGravityModel25GetGravitationalPotentialEPKdRdPd, 
                       __ZNK12cnnavigation22LinearizedGravityModel25GetGravitationalPotentialEPKdRdPdRNS_20GravityModelJacobianE, 
                       __ZNK12cnnavigation22LinearizedGravityModel28GetGravitationalAccelerationEPKdPd, 
                       __ZNK12cnnavigation22LinearizedGravityModel28GetGravitationalAccelerationEPKdPdRNS_20GravityModelJacobianE, 
                       __ZNK12cnnavigation22LinearizedGravityModel29ComputeLinearizedGravityModelEPKdbbRdPdRNS_20GravityModelJacobianE, 
                       __ZNK12cnnavigation23LinearizedMagneticModel22GetMagneticFieldVectorEidPKdPd, 
                       __ZNK12cnnavigation23LinearizedMagneticModel22GetMagneticFieldVectorEidPKdPdRNS_21MagneticModelJacobianE, 
                       __ZNK12cnnavigation23LinearizedMagneticModel25GetMagneticFieldPotentialEidPKdRd, 
                       __ZNK12cnnavigation23LinearizedMagneticModel25GetMagneticFieldPotentialEidPKdRdPd, 
                       __ZNK12cnnavigation23LinearizedMagneticModel25GetMagneticFieldPotentialEidPKdRdPdRNS_21MagneticModelJacobianE, 
                       __ZNK12cnnavigation23LinearizedMagneticModel30ComputeLinearizedMagneticModelEidPKdbbRdPdRNS_21MagneticModelJacobianE, 
                       __ZNK12cnnavigation24KlobucharIonosphereModel19GetIonosphericDelayEidPKdS2_dRd, 
                       __ZNK12cnnavigation24KlobucharIonosphereModel19GetIonosphericDelayEidPKdS2_dRdRNS_23IonosphereModelJacobianE, 
                       __ZNK12cnnavigation24KlobucharIonosphereModel19GetIonosphericDelayEidPKdS2_dRdbRNS_23IonosphereModelJacobianE, 
                       __ZNK12cnnavigation27PolynomialEphemerisDatabase14GetEphemeridesERKNS_15GNSSSatelliteIDERNS_21PolynomialEphemeridesE, 
                       __ZNK12cnnavigation29ParameterizedTroposphereModel15GetZenithDelaysERNS0_20TroposphereArgumentsE, 
                       __ZNK12cnnavigation29ParameterizedTroposphereModel17GetCurrentWeatherERNS0_20TroposphereArgumentsE, 
                       __ZNK12cnnavigation29ParameterizedTroposphereModel19GetMappingFunctionsERNS0_20TroposphereArgumentsE, 
                       __ZNK12cnnavigation29ParameterizedTroposphereModel20GetOrthometricHeightERNS0_20TroposphereArgumentsE, 
                       __ZNK12cnnavigation29ParameterizedTroposphereModel20GetTroposphericDelayEidPKdS2_Rd, 
                       __ZNK12cnnavigation29ParameterizedTroposphereModel20GetTroposphericDelayEidPKdS2_RdRNS_24TroposphereModelJacobianE, 
                       __ZNK12cnnavigation29ParameterizedTroposphereModel20GetTroposphericDelayEidPKdS2_RdbRNS_24TroposphereModelJacobianE, 
                       __ZNK12cnnavigation7TAITime13ToGLONASSTimeERKNS_17GNSSUTCParametersERNS_11GLONASSTimeE, 
                       __ZNK12cnnavigation7TAITime9ToGPSTimeERKNS_17GNSSUTCParametersE, 
                       __ZNK12cnnavigation7TAITime9ToGPSTimeEv, __ZNK12cnquaternion12CNQuaternion2q1Ev, 
                       __ZNK12cnquaternion12CNQuaternion2q2Ev, __ZNK12cnquaternion12CNQuaternion2q3Ev, 
                       __ZNK12cnquaternion12CNQuaternion2q4Ev, __ZNK12cnquaternion12CNQuaternion9SerializeER21CNSerializationStream, 
                       __ZNK12cnquaternion12CNQuaternionmiERKS0_, __ZNK12cnquaternion12CNQuaternionmlERKS0_, 
                       __ZNK12cnquaternion12CNQuaternionplERKS0_, __ZNK4swan18ConsistencyChecker34UpdateNormalizedInnovationsSquaredEmjRKNSt3__16vectorINS_7details6VectorILi6EEENS1_9allocatorIS5_EEEERKNS2_INS3_6MatrixILi6ELi6EEENS6_ISC_EEEERd, 
                       __ZNK4swan18ConsistencyChecker43UpdateNormalizedStateEstimationErrorSquaredEmjPKNS_7details6VectorILi6EEEPKNS1_6MatrixILi6ELi6EEES5_Rd, 
                       __ZNK4swan23BatchedGNSSDataSmoother10LoadMATLABEPKcmRNSt3__16vectorIdNS3_9allocatorIdEEEERNS4_INS_7details6VectorILi6EEENS5_ISB_EEEERNS4_INSA_ILi3EEENS5_ISF_EEEESI_RSB_RNS9_6MatrixILi6ELi6EEES8_S8_, 
                       __ZNK4swan23BatchedGNSSDataSmoother10SaveToDiskEPKcmRKNS_7details6VectorILi6EEERKNS3_6MatrixILi6ELi6EEERKNSt3__16vectorIdNSC_9allocatorIdEEEERKNSD_IS5_NSE_IS5_EEEERKNSD_INS4_ILi3EEENSE_ISN_EEEESR_, 
                       __ZNK4swan23BatchedGNSSDataSmoother10SaveToDiskEPKcmRKNSt3__16vectorIdNS3_9allocatorIdEEEERKNS4_INS_7details6VectorILi6EEENS5_ISC_EEEERKNS4_INSA_6MatrixILi6ELi6EEENS5_ISI_EEEESG_SM_, 
                       __ZNK4swan23BatchedGNSSDataSmoother10formatDataERKNSt3__16vectorINS_12GPSBatchDataENS1_9allocatorIS3_EEEEmRNS_7details6VectorILi6EEERNS9_6MatrixILi6ELi6EEEPdPSB_PNSA_ILi3EEESJ_, 
                       __ZNK4swan23BatchedGNSSDataSmoother10formatDataERKNSt3__16vectorINS_7stGPSsaENS1_9allocatorIS3_EEEEmRNS_7details6VectorILi6EEERNS9_6MatrixILi6ELi6EEERNS2_IdNS4_IdEEEERNS2_ISB_NS4_ISB_EEEERNS2_INSA_ILi3EEENS4_ISM_EEEESP_SI_RNS2_IiNS4_IiEEEE, 
                       __ZNK4swan23BatchedGNSSDataSmoother19CopySmootherOutputsEmRKNSt3__16vectorIdNS1_9allocatorIdEEEERKNS2_INS_7details6VectorILi6EEENS3_ISA_EEEERKNS2_INS8_6MatrixILi6ELi6EEENS3_ISG_EEEERS5_RSC_RSI_, 
                       __ZNK4swan23BatchedGNSSDataSmoother31convertErrorEllipseToCovarianceEdddRN8cnmatrix8CNMatrixILj2ELj2EdEE, 
                       __ZNK4swan23BatchedGNSSDataSmoother3RunERKNSt3__16vectorINS_7stGPSsaENS1_9allocatorIS3_EEEEmRNS0_14SmootherHealthERNS2_IdNS4_IdEEEESD_RNS2_IiNS4_IiEEEERNS2_INS_7details6VectorILi6EEENS4_ISJ_EEEERNS2_INSH_6MatrixILi6ELi6EEENS4_ISO_EEEERmRNS2_IbNS4_IbEEEE, 
                       __ZNK4swan23BatchedGNSSDataSmoother3RunERNSt3__16vectorINS_7details6VectorILi6EEENS1_9allocatorIS5_EEEERNS2_INS3_6MatrixILi6ELi6EEENS6_ISB_EEEERm, 
                       __ZNK4swan26PositionVelocityDataEditor14isIndexInArrayEmmRKNSt3__16vectorImNS1_9allocatorImEEEE, 
                       __ZNK4swan26PositionVelocityDataEditor25TestNormalizedInnovationsEmRKNSt3__16vectorINS_7details6VectorILi6EEENS1_9allocatorIS5_EEEERKNS2_INS3_6MatrixILi6ELi6EEENS6_ISC_EEEEdRmRNS2_ImNS6_ImEEEE, 
                       __ZNK4swan36ForwardBackwardFixedIntervalSmoother6UpdateERKNS_7details6VectorILi6EEERKNS1_6MatrixILi6ELi6EEEmRKNSt3__16vectorIdNSA_9allocatorIdEEEERKNSB_IS3_NSC_IS3_EEEERKNSB_INS2_ILi3EEENSC_ISL_EEEESP_SG_SG_bRSI_RNSB_IS7_NSC_IS7_EEEERdSQ_ST_, 
                       __ZNK5cndft10SlidingDFT12IsConfiguredEv, __ZNK5cndft10SlidingDFT15GetDFTFrequencyEv, 
                       __ZNK5cndft10SlidingDFT16GetConfigurationERNS_23SlidingDFTConfigurationE, 
                       __ZNK5cndft10SlidingDFT6LengthEv, __ZNK5cndft10SlidingDFT7IsValidEv, 
                       __ZNK5cndft10SlidingDFTixEj, __ZNK5raven10TimeStruct11GetMetadataEv, 
                       __ZNK5raven10TimeStruct13IsInitializedEv, __ZNK5raven10TimeStruct13SetCachedSizeEi, 
                       __ZNK5raven10TimeStruct24SerializeWithCachedSizesEPN20wireless_diagnostics6google8protobuf2io17CodedOutputStreamE, 
                       __ZNK5raven10TimeStruct31SerializeWithCachedSizesToArrayEPh, 
                       __ZNK5raven10TimeStruct3NewEv, __ZNK5raven10TimeStruct8ByteSizeEv, 
                       __ZNK5raven11RavenOutput11GetMetadataEv, __ZNK5raven11RavenOutput13IsInitializedEv, 
                       __ZNK5raven11RavenOutput13SetCachedSizeEi, __ZNK5raven11RavenOutput24SerializeWithCachedSizesEPN20wireless_diagnostics6google8protobuf2io17CodedOutputStreamE, 
                       __ZNK5raven11RavenOutput31SerializeWithCachedSizesToArrayEPh, 
                       __ZNK5raven11RavenOutput3NewEv, __ZNK5raven11RavenOutput8ByteSizeEv, 
                       __ZNK5raven12UserPosition11GetMetadataEv, __ZNK5raven12UserPosition13IsInitializedEv, 
                       __ZNK5raven12UserPosition13SetCachedSizeEi, __ZNK5raven12UserPosition24SerializeWithCachedSizesEPN20wireless_diagnostics6google8protobuf2io17CodedOutputStreamE, 
                       __ZNK5raven12UserPosition31SerializeWithCachedSizesToArrayEPh, 
                       __ZNK5raven12UserPosition3NewEv, __ZNK5raven12UserPosition8ByteSizeEv, 
                       __ZNK5raven12UserVelocity11GetMetadataEv, __ZNK5raven12UserVelocity13IsInitializedEv, 
                       __ZNK5raven12UserVelocity13SetCachedSizeEi, __ZNK5raven12UserVelocity24SerializeWithCachedSizesEPN20wireless_diagnostics6google8protobuf2io17CodedOutputStreamE, 
                       __ZNK5raven12UserVelocity31SerializeWithCachedSizesToArrayEPh, 
                       __ZNK5raven12UserVelocity3NewEv, __ZNK5raven12UserVelocity8ByteSizeEv, 
                       __ZNK5raven14DeviceAttitude11GetMetadataEv, __ZNK5raven14DeviceAttitude13IsInitializedEv, 
                       __ZNK5raven14DeviceAttitude13SetCachedSizeEi, __ZNK5raven14DeviceAttitude24SerializeWithCachedSizesEPN20wireless_diagnostics6google8protobuf2io17CodedOutputStreamE, 
                       __ZNK5raven14DeviceAttitude31SerializeWithCachedSizesToArrayEPh, 
                       __ZNK5raven14DeviceAttitude3NewEv, __ZNK5raven14DeviceAttitude8ByteSizeEv, 
                       __ZNK5raven14DevicePosition11GetMetadataEv, __ZNK5raven14DevicePosition13IsInitializedEv, 
                       __ZNK5raven14DevicePosition13SetCachedSizeEi, __ZNK5raven14DevicePosition24SerializeWithCachedSizesEPN20wireless_diagnostics6google8protobuf2io17CodedOutputStreamE, 
                       __ZNK5raven14DevicePosition31SerializeWithCachedSizesToArrayEPh, 
                       __ZNK5raven14DevicePosition3NewEv, __ZNK5raven14DevicePosition8ByteSizeEv, 
                       __ZNK5raven14DeviceVelocity11GetMetadataEv, __ZNK5raven14DeviceVelocity13IsInitializedEv, 
                       __ZNK5raven14DeviceVelocity13SetCachedSizeEi, __ZNK5raven14DeviceVelocity24SerializeWithCachedSizesEPN20wireless_diagnostics6google8protobuf2io17CodedOutputStreamE, 
                       __ZNK5raven14DeviceVelocity31SerializeWithCachedSizesToArrayEPh, 
                       __ZNK5raven14DeviceVelocity3NewEv, __ZNK5raven14DeviceVelocity8ByteSizeEv, 
                       __ZNK5raven14EstimatorState11GetMetadataEv, __ZNK5raven14EstimatorState13IsInitializedEv, 
                       __ZNK5raven14EstimatorState13SetCachedSizeEi, __ZNK5raven14EstimatorState24SerializeWithCachedSizesEPN20wireless_diagnostics6google8protobuf2io17CodedOutputStreamE, 
                       __ZNK5raven14EstimatorState31SerializeWithCachedSizesToArrayEPh, 
                       __ZNK5raven14EstimatorState3NewEv, __ZNK5raven14EstimatorState8ByteSizeEv, 
                       __ZNK5raven14GnssSvDatabase32PopulateGnssUTCParametersWithGpsERN12cnnavigation17GNSSUTCParametersE, 
                       __ZNK5raven14GnssSvDatabase36PopulateGnssUTCParametersWithGlonassERN12cnnavigation17GNSSUTCParametersE, 
                       __ZNK5raven14RavenEstimator12IsConfiguredEv, __ZNK5raven14RavenEstimator13GetActiveTimeEv, 
                       __ZNK5raven14RavenEstimator13GetCellWeightEv, __ZNK5raven14RavenEstimator13GetGNSSWeightEv, 
                       __ZNK5raven14RavenEstimator13GetWiFiWeightEv, __ZNK5raven14RavenEstimator13IsInitializedEv, 
                       __ZNK5raven14RavenEstimator14GetCurrentTimeEv, __ZNK5raven14RavenEstimator14GetPriorWeightEv, 
                       __ZNK5raven14RavenEstimator15GetIndoorWeightEv, __ZNK5raven14RavenEstimator17GetLastUpdateTimeEv, 
                       __ZNK5raven14RavenEstimator18GetAccessoryWeightEv, __ZNK5raven14RavenEstimator19GetTotalInformationEv, 
                       __ZNK5raven14RavenEstimator26GetValidHistoricalSolutionERNS_11RavenStatusERNS_13RavenSolutionE, 
                       __ZNK5raven14RavenEstimator27GetAcceptedMeasurementCountEv, 
                       __ZNK5raven14RavenEstimator27GetRejectedMeasurementCountEv, 
                       __ZNK5raven14RavenEstimator6IsSaneEv, __ZNK5raven14RavenPredictor12IsConfiguredEv, 
                       __ZNK5raven14RavenPredictor13BackupPredictERK6CNTimeRNS_13RavenSolutionERNS_11RavenStatusE, 
                       __ZNK5raven14RavenPredictor13IsInitializedEv, __ZNK5raven14RavenPredictor7PredictERK6CNTimeRNS_13RavenSolutionERNS_11RavenStatusE, 
                       __ZNK5raven15EstimatorHealth11GetMetadataEv, __ZNK5raven15EstimatorHealth13IsInitializedEv, 
                       __ZNK5raven15EstimatorHealth13SetCachedSizeEi, __ZNK5raven15EstimatorHealth24SerializeWithCachedSizesEPN20wireless_diagnostics6google8protobuf2io17CodedOutputStreamE, 
                       __ZNK5raven15EstimatorHealth31SerializeWithCachedSizesToArrayEPh, 
                       __ZNK5raven15EstimatorHealth3NewEv, __ZNK5raven15EstimatorHealth8ByteSizeEv, 
                       __ZNK5raven15RavenParameters13IsInitializedEv, __ZNK5raven15RavenSupervisor12IsConfiguredEv, 
                       __ZNK5raven15RavenSupervisor16GetRavenSolutionEv, __ZNK5raven17EstimatorActivity11GetMetadataEv, 
                       __ZNK5raven17EstimatorActivity13IsInitializedEv, __ZNK5raven17EstimatorActivity13SetCachedSizeEi, 
                       __ZNK5raven17EstimatorActivity24SerializeWithCachedSizesEPN20wireless_diagnostics6google8protobuf2io17CodedOutputStreamE, 
                       __ZNK5raven17EstimatorActivity31SerializeWithCachedSizesToArrayEPh, 
                       __ZNK5raven17EstimatorActivity3NewEv, __ZNK5raven17EstimatorActivity8ByteSizeEv, 
                       __ZNK5raven17RavenPNTEstimator12IsConsistentEv, __ZNK5raven17RavenPNTEstimator12IsObservableEv, 
                       __ZNK5raven17RavenPNTEstimator14GetRavenStatusEv, __ZNK5raven17RavenPNTEstimator16GetRavenSolutionERNS_13RavenSolutionE, 
                       __ZNK5raven17RavenPNTEstimator21GetFailureProbabilityEv, __ZNK5raven17RavenPNTEstimator6IsSaneEv, 
                       __ZNK5raven18DeviceRateGyroBias11GetMetadataEv, __ZNK5raven18DeviceRateGyroBias13IsInitializedEv, 
                       __ZNK5raven18DeviceRateGyroBias13SetCachedSizeEi, __ZNK5raven18DeviceRateGyroBias24SerializeWithCachedSizesEPN20wireless_diagnostics6google8protobuf2io17CodedOutputStreamE, 
                       __ZNK5raven18DeviceRateGyroBias31SerializeWithCachedSizesToArrayEPh, 
                       __ZNK5raven18DeviceRateGyroBias3NewEv, __ZNK5raven18DeviceRateGyroBias8ByteSizeEv, 
                       __ZNK5raven18RavenSanityChecker12IsConfiguredEv, __ZNK5raven18RavenSanityChecker13CheckAltitudeERKNS_13AltitudeEventE, 
                       __ZNK5raven18RavenSanityChecker13CheckOdometerERKNS_13OdometerEventE, 
                       __ZNK5raven18RavenSanityChecker13CheckPositionERKNS_13PositionEventE, 
                       __ZNK5raven18RavenSanityChecker13CheckVelocityERKNS_13VelocityEventE, 
                       __ZNK5raven18RavenSanityChecker14CheckMapVectorERKNS_14MapVectorEventE, 
                       __ZNK5raven18RavenSanityChecker16CheckMovingStateERKNS_16MovingStateEventE, 
                       __ZNK5raven18RavenSanityChecker19CheckAltitudeChangeERKNS_19AltitudeChangeEventE, 
                       __ZNK5raven18RavenSanityChecker20CheckGNSSObservationEN12cnnavigation15GNSSSatelliteIDERKNS_14GnssObservableE, 
                       __ZNK5raven18RavenSanityChecker6IsSaneEd, __ZNK5raven18RinexNavFileParser18ExtractSvidAndTimeERKNSt3__112basic_stringIcNS1_11char_traitsIcEENS1_9allocatorIcEEEERNS_18RinexEphemerisDataE, 
                       __ZNK5raven18RinexNavFileParser28GetSingleHeaderLineByCommentERKNSt3__112basic_stringIcNS1_11char_traitsIcEENS1_9allocatorIcEEEERS7_, 
                       __ZNK5raven20RinexNavFileDatabase14GetGpsUtcModelEidRN12cnnavigation16GPSUTCParametersE, 
                       __ZNK5raven20RinexNavFileDatabase15GetGpsEphemerisEhidRN12cnnavigation14GPSEphemeridesE, 
                       __ZNK5raven20RinexNavFileDatabase15GetGpsIonoModelEidRN12cnnavigation24KlobucharModelParametersE, 
                       __ZNK5raven20RinexNavFileDatabase18GetGlonassUtcModelEidRNS_20GlonassUtcParametersE, 
                       __ZNK5raven20RinexNavFileDatabase19GetGlonassEphemerisEhidRN12cnnavigation18GLONASSEphemeridesE, 
                       __ZNK5raven21GpsRinexNavFileParser11GetUtcModelERN12cnnavigation16GPSUTCParametersE, 
                       __ZNK5raven21GpsRinexNavFileParser12GetIonoModelERN12cnnavigation24KlobucharModelParametersE, 
                       __ZNK5raven21GpsRinexNavFileParser14GetEphemeridesERNSt3__16vectorIN12cnnavigation14GPSEphemeridesENS1_9allocatorIS4_EEEE, 
                       __ZNK5raven22RavenPeriodictyTracker12IsConfiguredEv, __ZNK5raven22RavenPeriodictyTracker16IsSignalPeriodicEv, 
                       __ZNK5raven22RavenPeriodictyTracker22IsLatestSampleAFeatureEv, 
                       __ZNK5raven22RavenPeriodictyTracker26SignalFundamentalFrequencyEv, 
                       __ZNK5raven22RavenPeriodictyTracker7IsValidEv, __ZNK5raven23DeviceAccelerometerBias11GetMetadataEv, 
                       __ZNK5raven23DeviceAccelerometerBias13IsInitializedEv, __ZNK5raven23DeviceAccelerometerBias13SetCachedSizeEi, 
                       __ZNK5raven23DeviceAccelerometerBias24SerializeWithCachedSizesEPN20wireless_diagnostics6google8protobuf2io17CodedOutputStreamE, 
                       __ZNK5raven23DeviceAccelerometerBias31SerializeWithCachedSizesToArrayEPh, 
                       __ZNK5raven23DeviceAccelerometerBias3NewEv, __ZNK5raven23DeviceAccelerometerBias8ByteSizeEv, 
                       __ZNK5raven25GlonassRinexNavFileParser11GetUtcModelERNS_25GlonassRinexUtcParametersE, 
                       __ZNK5raven25GlonassRinexNavFileParser14GetEphemeridesERNSt3__16vectorIN12cnnavigation18GLONASSEphemeridesENS1_9allocatorIS4_EEEE, 
                       __ZNK5raven25RavenConvergenceEstimator12IsConsistentEv, __ZNK5raven25RavenConvergenceEstimator12IsObservableEv, 
                       __ZNK5raven25RavenConvergenceEstimator14GetRavenStatusEv, 
                       __ZNK5raven25RavenConvergenceEstimator16GetRavenSolutionERNS_13RavenSolutionE, 
                       __ZNK5raven25RavenConvergenceEstimator21GetFailureProbabilityEv, 
                       __ZNK5raven25RavenConvergenceEstimator6IsSaneEv, __ZNK5raven25RavenPassThroughEstimator23CanPublishRavenSolutionEv, 
                       __ZNK5raven27GnssMeasurementPreprocessor15EstimateTaiTimeERKNS_19GnssMeasurementDataERKNSt3__16vectorINS_24GnssSvAndMeasurementDataENS4_9allocatorIS6_EEEEdRN12cnnavigation7TAITimeE, 
                       __ZNK5raven27GnssMeasurementPreprocessor15FormPseudorangeERKNS_15GnssMeasurementEdRKN12cnnavigation7TAITimeEdS7_S7_RKNS_24GnssSvAndMeasurementDataERKNS_27GnssReceiverBandCorrectionsERNS_14GnssObservableE, 
                       __ZNK5raven27GnssMeasurementPreprocessor24PopulateGnssMeasurementsERKNS_19GnssMeasurementDataERN12cnnavigation7TAITimeERNSt3__16vectorINS_24GnssSvAndMeasurementDataENS7_9allocatorIS9_EEEE, 
                       __ZNK5raven27GnssMeasurementPreprocessor32CalculateApproximateTimeOfFlightERKN12cnnavigation7TAITimeERKNS_24GnssSvAndMeasurementDataERd, 
                       __ZNK5raven29RinexConstellationDataManager14PopulateSvInfoERNSt3__16vectorINS_10GnssSvInfoENS1_9allocatorIS3_EEEE, 
                       __ZNK5raven29RinexConstellationDataManager22PopulateTimeConversionERNS_22GnssTimeConversionInfoE, 
                       __ZNK5raven30DeviceAccelerometerScaleFactor11GetMetadataEv, 
                       __ZNK5raven30DeviceAccelerometerScaleFactor13IsInitializedEv, 
                       __ZNK5raven30DeviceAccelerometerScaleFactor13SetCachedSizeEi, 
                       __ZNK5raven30DeviceAccelerometerScaleFactor24SerializeWithCachedSizesEPN20wireless_diagnostics6google8protobuf2io17CodedOutputStreamE, 
                       __ZNK5raven30DeviceAccelerometerScaleFactor31SerializeWithCachedSizesToArrayEPh, 
                       __ZNK5raven30DeviceAccelerometerScaleFactor3NewEv, __ZNK5raven30DeviceAccelerometerScaleFactor8ByteSizeEv, 
                       __ZNK5raven30DeviceReceiverClockDiscrepancy11GetMetadataEv, 
                       __ZNK5raven30DeviceReceiverClockDiscrepancy13IsInitializedEv, 
                       __ZNK5raven30DeviceReceiverClockDiscrepancy13SetCachedSizeEi, 
                       __ZNK5raven30DeviceReceiverClockDiscrepancy24SerializeWithCachedSizesEPN20wireless_diagnostics6google8protobuf2io17CodedOutputStreamE, 
                       __ZNK5raven30DeviceReceiverClockDiscrepancy31SerializeWithCachedSizesToArrayEPh, 
                       __ZNK5raven30DeviceReceiverClockDiscrepancy3NewEv, __ZNK5raven30DeviceReceiverClockDiscrepancy8ByteSizeEv, 
                       __ZNK5raven30RavenEstimatorActiveObjectBase12IsConfiguredEv, 
                       __ZNK5raven9TimeStamp11GetMetadataEv, __ZNK5raven9TimeStamp13IsInitializedEv, 
                       __ZNK5raven9TimeStamp13SetCachedSizeEi, __ZNK5raven9TimeStamp24SerializeWithCachedSizesEPN20wireless_diagnostics6google8protobuf2io17CodedOutputStreamE, 
                       __ZNK5raven9TimeStamp31SerializeWithCachedSizesToArrayEPh, 
                       __ZNK5raven9TimeStamp3NewEv, __ZNK5raven9TimeStamp8ByteSizeEv, 
                       __ZNK6CNTime14TimeSinceEpochEv, __ZNK6CNTime5Tof64Ev, __ZNK6CNTime9SerializeER21CNSerializationStream, 
                       __ZNK6CNTimegeERKS_, __ZNK6CNTimegtERKS_, __ZNK6CNTimeleERKS_, 
                       __ZNK6CNTimeltERKS_, __ZNK6CNTimemiERK10CNTimeSpan, __ZNK6CNTimemiERKS_, 
                       __ZNK6CNTimeplERK10CNTimeSpan, __ZNK7cntimer12GenericTimer14GetElapsedTimeEv, 
                       __ZNK9cnlogging7details10ByteReader6isOpenEv, __ZNK9cnlogging7details11MmapWrapper13readByteAtIdxERKxRh, 
                       __ZNK9cnlogging7details15InputStreamSync10getSyncIdxERx, __ZNK9cnlogging7details15InputStreamSync8isSyncedEv, 
                       __ZTI10CNTimeSpan, __ZTI6CNTime, __ZTIN10cnrotation10CNRotationE, 
                       __ZTIN12cnnavigation14GLONASSAlmanacE, __ZTIN12cnnavigation14GPSEphemeridesE, 
                       __ZTIN12cnnavigation15GNSSEphemeridesE, __ZTIN12cnnavigation17GNSSUTCParametersE, 
                       __ZTIN12cnnavigation17WGS84GravityModelE, __ZTIN12cnnavigation18GLONASSEphemeridesE, 
                       __ZTIN12cnnavigation19NullIonosphereModelE, __ZTIN12cnnavigation20NullTroposphereModelE, 
                       __ZTIN12cnnavigation21PolynomialEphemeridesE, __ZTIN12cnnavigation22LinearizedGravityModelE, 
                       __ZTIN12cnnavigation23LinearizedMagneticModelE, __ZTIN12cnnavigation24KlobucharIonosphereModelE, 
                       __ZTIN12cnnavigation29ParameterizedTroposphereModelE, __ZTIN12cnquaternion12CNQuaternionE, 
                       __ZTIN5raven10TimeStructE, __ZTIN5raven11RavenOutputE, __ZTIN5raven12UserPositionE, 
                       __ZTIN5raven12UserVelocityE, __ZTIN5raven14DeviceAttitudeE, 
                       __ZTIN5raven14DevicePositionE, __ZTIN5raven14DeviceVelocityE, 
                       __ZTIN5raven14EstimatorStateE, __ZTIN5raven14RavenEstimatorE, 
                       __ZTIN5raven15EstimatorHealthE, __ZTIN5raven15RavenParametersE, 
                       __ZTIN5raven15RavenSupervisorE, __ZTIN5raven17EstimatorActivityE, 
                       __ZTIN5raven17RavenPNTEstimatorE, __ZTIN5raven18DeviceRateGyroBiasE, 
                       __ZTIN5raven23DeviceAccelerometerBiasE, __ZTIN5raven25RavenConvergenceEstimatorE, 
                       __ZTIN5raven30DeviceAccelerometerScaleFactorE, __ZTIN5raven30DeviceReceiverClockDiscrepancyE, 
                       __ZTIN5raven30RavenEstimatorActiveObjectBaseE, __ZTIN5raven9TimeStampE, 
                       __ZTIN7cntimer12GenericTimerE, __ZTS10CNTimeSpan, __ZTS6CNTime, 
                       __ZTSN10cnrotation10CNRotationE, __ZTSN12cnnavigation14GLONASSAlmanacE, 
                       __ZTSN12cnnavigation14GPSEphemeridesE, __ZTSN12cnnavigation15GNSSEphemeridesE, 
                       __ZTSN12cnnavigation17GNSSUTCParametersE, __ZTSN12cnnavigation17WGS84GravityModelE, 
                       __ZTSN12cnnavigation18GLONASSEphemeridesE, __ZTSN12cnnavigation19NullIonosphereModelE, 
                       __ZTSN12cnnavigation20NullTroposphereModelE, __ZTSN12cnnavigation21PolynomialEphemeridesE, 
                       __ZTSN12cnnavigation22LinearizedGravityModelE, __ZTSN12cnnavigation23LinearizedMagneticModelE, 
                       __ZTSN12cnnavigation24KlobucharIonosphereModelE, __ZTSN12cnnavigation29ParameterizedTroposphereModelE, 
                       __ZTSN12cnquaternion12CNQuaternionE, __ZTSN5raven10TimeStructE, 
                       __ZTSN5raven11RavenOutputE, __ZTSN5raven12UserPositionE, __ZTSN5raven12UserVelocityE, 
                       __ZTSN5raven14DeviceAttitudeE, __ZTSN5raven14DevicePositionE, 
                       __ZTSN5raven14DeviceVelocityE, __ZTSN5raven14EstimatorStateE, 
                       __ZTSN5raven14RavenEstimatorE, __ZTSN5raven15EstimatorHealthE, 
                       __ZTSN5raven15RavenParametersE, __ZTSN5raven15RavenSupervisorE, 
                       __ZTSN5raven17EstimatorActivityE, __ZTSN5raven17RavenPNTEstimatorE, 
                       __ZTSN5raven18DeviceRateGyroBiasE, __ZTSN5raven23DeviceAccelerometerBiasE, 
                       __ZTSN5raven25RavenConvergenceEstimatorE, __ZTSN5raven30DeviceAccelerometerScaleFactorE, 
                       __ZTSN5raven30DeviceReceiverClockDiscrepancyE, __ZTSN5raven30RavenEstimatorActiveObjectBaseE, 
                       __ZTSN5raven9TimeStampE, __ZTSN7cntimer12GenericTimerE, __ZTV10CNTimeSpan, 
                       __ZTV6CNTime, __ZTVN10cnrotation10CNRotationE, __ZTVN12cnnavigation14GLONASSAlmanacE, 
                       __ZTVN12cnnavigation14GPSEphemeridesE, __ZTVN12cnnavigation15GNSSEphemeridesE, 
                       __ZTVN12cnnavigation17GNSSUTCParametersE, __ZTVN12cnnavigation17WGS84GravityModelE, 
                       __ZTVN12cnnavigation18GLONASSEphemeridesE, __ZTVN12cnnavigation19NullIonosphereModelE, 
                       __ZTVN12cnnavigation20NullTroposphereModelE, __ZTVN12cnnavigation21PolynomialEphemeridesE, 
                       __ZTVN12cnnavigation22LinearizedGravityModelE, __ZTVN12cnnavigation23LinearizedMagneticModelE, 
                       __ZTVN12cnnavigation24KlobucharIonosphereModelE, __ZTVN12cnnavigation29ParameterizedTroposphereModelE, 
                       __ZTVN12cnquaternion12CNQuaternionE, __ZTVN5raven10TimeStructE, 
                       __ZTVN5raven11RavenOutputE, __ZTVN5raven12UserPositionE, __ZTVN5raven12UserVelocityE, 
                       __ZTVN5raven14DeviceAttitudeE, __ZTVN5raven14DevicePositionE, 
                       __ZTVN5raven14DeviceVelocityE, __ZTVN5raven14EstimatorStateE, 
                       __ZTVN5raven14RavenEstimatorE, __ZTVN5raven15EstimatorHealthE, 
                       __ZTVN5raven15RavenParametersE, __ZTVN5raven15RavenSupervisorE, 
                       __ZTVN5raven17EstimatorActivityE, __ZTVN5raven17RavenPNTEstimatorE, 
                       __ZTVN5raven18DeviceRateGyroBiasE, __ZTVN5raven23DeviceAccelerometerBiasE, 
                       __ZTVN5raven25RavenConvergenceEstimatorE, __ZTVN5raven30DeviceAccelerometerScaleFactorE, 
                       __ZTVN5raven30DeviceReceiverClockDiscrepancyE, __ZTVN5raven30RavenEstimatorActiveObjectBaseE, 
                       __ZTVN5raven9TimeStampE, __ZTVN7cntimer12GenericTimerE, __ZlsRNSt3__113basic_ostreamIcNS_11char_traitsIcEEEERK6CNTime ]
    weak-def-symbols: [ __ZTI14CNSerializable, __ZTIN11cnframework10CNListBaseIPNS_15CNAllocatorBaseIN5raven24RavenMeasurementArgsBaseENS2_21RavenMeasurementTypesEEEEE, 
                        __ZTIN11cnframework11CNAllocatorIN5raven27h_UserAltitudeArgs_RavenPNTIdEENS1_24RavenMeasurementArgsBaseENS1_21RavenMeasurementTypesELj10EEE, 
                        __ZTIN11cnframework11CNAllocatorIN5raven29h_DevicePositionArgs_RavenPNTIdEENS1_24RavenMeasurementArgsBaseENS1_21RavenMeasurementTypesELj10EEE, 
                        __ZTIN11cnframework11CNAllocatorIN5raven29h_DeviceVelocityArgs_RavenPNTIdEENS1_24RavenMeasurementArgsBaseENS1_21RavenMeasurementTypesELj10EEE, 
                        __ZTIN11cnframework11CNAllocatorIN5raven30h_GnssADRArgs_RavenConvergenceENS1_24RavenMeasurementArgsBaseENS1_21RavenMeasurementTypesELj154EEE, 
                        __ZTIN11cnframework11CNAllocatorIN5raven30h_GnssPsrArgs_RavenConvergenceENS1_24RavenMeasurementArgsBaseENS1_21RavenMeasurementTypesELj154EEE, 
                        __ZTIN11cnframework11CNAllocatorIN5raven31h_AltitudeArgs_RavenConvergenceENS1_24RavenMeasurementArgsBaseENS1_21RavenMeasurementTypesELj154EEE, 
                        __ZTIN11cnframework11CNAllocatorIN5raven31h_PositionArgs_RavenConvergenceENS1_24RavenMeasurementArgsBaseENS1_21RavenMeasurementTypesELj154EEE, 
                        __ZTIN11cnframework11CNAllocatorIN5raven31h_VelocityArgs_RavenConvergenceENS1_24RavenMeasurementArgsBaseENS1_21RavenMeasurementTypesELj154EEE, 
                        __ZTIN11cnframework11CNAllocatorIN5raven34h_GnssDopplerArgs_RavenConvergenceENS1_24RavenMeasurementArgsBaseENS1_21RavenMeasurementTypesELj154EEE, 
                        __ZTIN11cnframework11CNAllocatorIN5raven35h_DeviceAltitudeChangeArgs_RavenPNTIdEENS1_24RavenMeasurementArgsBaseENS1_21RavenMeasurementTypesELj10EEE, 
                        __ZTIN11cnframework11CNAllocatorIN5raven37h_AltitudeChangeArgs_RavenConvergenceIdEENS1_24RavenMeasurementArgsBaseENS1_21RavenMeasurementTypesELj154EEE, 
                        __ZTIN11cnframework11CNAllocatorIN5raven43h_DeviceUserPositionDifferenceArgs_RavenPNTIdEENS1_24RavenMeasurementArgsBaseENS1_21RavenMeasurementTypesELj10EEE, 
                        __ZTIN11cnframework11CNAllocatorIN5raven49h_HorizontalDistanceTraveledArgs_RavenConvergenceIdEENS1_24RavenMeasurementArgsBaseENS1_21RavenMeasurementTypesELj154EEE, 
                        __ZTIN11cnframework11CNAllocatorIN5raven50h_MapVectorPositionConstraintArgs_RavenConvergenceENS1_24RavenMeasurementArgsBaseENS1_21RavenMeasurementTypesELj154EEE, 
                        __ZTIN11cnframework11CNAllocatorIN5raven50h_MapVectorVelocityConstraintArgs_RavenConvergenceENS1_24RavenMeasurementArgsBaseENS1_21RavenMeasurementTypesELj154EEE, 
                        __ZTIN11cnframework15CNAllocatorBaseIN5raven24RavenMeasurementArgsBaseENS1_21RavenMeasurementTypesEEE, 
                        __ZTIN11cnframework22CNAllocatorGetTypeBaseIN5raven21RavenMeasurementTypesEEE, 
                        __ZTIN11cnframework25CNAllocatorDeallocateBaseE, __ZTIN11cnframework27CNAllocatorItemAllocateBaseIN5raven24RavenMeasurementArgsBaseEEE, 
                        __ZTIN11cnframework6CNListIPNS_15CNAllocatorBaseIN5raven24RavenMeasurementArgsBaseENS2_21RavenMeasurementTypesEEELj100ELb1EEE, 
                        __ZTIN11cnframework6CNListIPNS_15CNAllocatorBaseIN5raven24RavenMeasurementArgsBaseENS2_21RavenMeasurementTypesEEELj23716ELb1EEE, 
                        __ZTIN12cnestimation11WahbaSolverIdEE, __ZTIN12cnestimation12WahbaOptionsIdEE, 
                        __ZTIN12cnestimation16TimedMeasurementIN5raven19RateGyroMeasurementEEE, 
                        __ZTIN12cnestimation16TimedMeasurementIN5raven24AccelerometerMeasurementEEE, 
                        __ZTIN12cnestimation18PeriodicityTracker8DFTPointE, __ZTIN12cnestimation19LeastSquaresOptionsILj26ELj3ELj3ELj10EdEE, 
                        __ZTIN12cnestimation19LeastSquaresOptionsILj8ELj3ELj3ELj154EdEE, 
                        __ZTIN12cnestimation21DiscreteEventDetectorIdEE, __ZTIN12cnestimation21LeastSquaresEstimatorILj26ELj3ELj3ELj10EdEE, 
                        __ZTIN12cnestimation21LeastSquaresEstimatorILj8ELj3ELj3ELj154EdEE, 
                        __ZTIN12cnestimation21TimedMeasurementCacheILj350EN5raven19RateGyroMeasurementEEE, 
                        __ZTIN12cnestimation21TimedMeasurementCacheILj350EN5raven24AccelerometerMeasurementEEE, 
                        __ZTIN12cnestimation24EstimatorFailureDetectorIdEE, __ZTIN12cnestimation25TimedMeasurementCacheBaseIN5raven19RateGyroMeasurementEEE, 
                        __ZTIN12cnestimation25TimedMeasurementCacheBaseIN5raven24AccelerometerMeasurementEEE, 
                        __ZTIN12cnestimation27SquareRootInformationFilterILj26ELj23ELj3ELj3ELj3ELj10ELj3EdEE, 
                        __ZTIN12cnestimation27SquareRootInformationFilterILj8ELj8ELj2ELj3ELj3ELj154ELj2EdEE, 
                        __ZTIN12cnestimation34SquareRootInformationFilterOptionsILj26ELj23ELj3ELj3ELj3ELj10ELj3EdEE, 
                        __ZTIN12cnestimation34SquareRootInformationFilterOptionsILj8ELj8ELj2ELj3ELj3ELj154ELj2EdEE, 
                        __ZTIN12cnnavigation12GravityModelE, __ZTIN12cnnavigation13MagneticModelE, 
                        __ZTIN12cnnavigation15GNSSSatelliteIDE, __ZTIN12cnnavigation15IonosphereModelE, 
                        __ZTIN12cnnavigation16GPSUTCParametersE, __ZTIN12cnnavigation16TroposphereModelE, 
                        __ZTIN12cnnavigation17ECEFToENUJacobianE, __ZTIN12cnnavigation17ENUToECEFJacobianE, 
                        __ZTIN12cnnavigation24KlobucharModelParametersE, __ZTIN12cnnavigation30SphericalHarmonicsGravityModelILj10EEE, 
                        __ZTIN12cnnavigation39ParameterizedTroposphereModelParametersE, 
                        __ZTIN12cnnavigation40SphericalHarmonicsGravityModelParametersILj10EEE, 
                        __ZTIN12cnnavigation7TAITimeE, __ZTIN12cnnavigation7details12JacobianBaseE, 
                        __ZTIN13cnintegration16CNIntegratorBaseI6CNTimeLj19ELj15EdEE, 
                        __ZTIN13cnintegration16CNIntegratorBaseI6CNTimeLj4ELj3EdEE, 
                        __ZTIN13cnintegration31FourthOrderRungeKuttaIntegratorI6CNTimeLj19ELj15EdEE, 
                        __ZTIN13cnintegration31FourthOrderRungeKuttaIntegratorI6CNTimeLj4ELj3EdEE, 
                        __ZTIN20cnframeworknothreads14SupervisorBaseINSt3__15tupleIJPN5raven42RavenAccelerationDecompositionActiveObjectEPNS3_39RavenActivityStateEstimatorActiveObjectEPNS3_31RavenCoarseOdometerActiveObjectEPNS3_37RavenConvergenceEstimatorActiveObjectEPNS3_30RavenDeltaAltitudeActiveObjectEPNS3_33RavenGnssPreprocessorActiveObjectEPNS3_32RavenIMUPreprocessorActiveObjectEPNS3_35RavenIntegrityEstimatorActiveObjectEPNS3_36RavenMountStateEstimatorActiveObjectEPNS3_37RavenMovingStateEstimatorActiveObjectEPNS3_37RavenPassThroughEstimatorActiveObjectEPNS3_35RavenPeriodicityTrackerActiveObjectEPNS3_29RavenPNTEstimatorActiveObjectEPNS3_34RavenPressurePrefilterActiveObjectEPNS3_22RavenRinexActiveObjectEPNS3_25RavenSolutionActiveObjectEEEEEE, 
                        __ZTIN20cnframeworknothreads16ActiveObjectBaseE, __ZTIN20cnframeworknothreads20TimeStampedEventBaseE, 
                        __ZTIN20cnframeworknothreads25ActiveObjectBaseTemplatedINS_14SupervisorBaseINSt3__15tupleIJPN5raven42RavenAccelerationDecompositionActiveObjectEPNS4_39RavenActivityStateEstimatorActiveObjectEPNS4_31RavenCoarseOdometerActiveObjectEPNS4_37RavenConvergenceEstimatorActiveObjectEPNS4_30RavenDeltaAltitudeActiveObjectEPNS4_33RavenGnssPreprocessorActiveObjectEPNS4_32RavenIMUPreprocessorActiveObjectEPNS4_35RavenIntegrityEstimatorActiveObjectEPNS4_36RavenMountStateEstimatorActiveObjectEPNS4_37RavenMovingStateEstimatorActiveObjectEPNS4_37RavenPassThroughEstimatorActiveObjectEPNS4_35RavenPeriodicityTrackerActiveObjectEPNS4_29RavenPNTEstimatorActiveObjectEPNS4_34RavenPressurePrefilterActiveObjectEPNS4_22RavenRinexActiveObjectEPNS4_25RavenSolutionActiveObjectEEEEEEE12EventHandlerINS4_29PrefilteredPressureResetEventES5_EE, 
                        __ZTIN20cnframeworknothreads25ActiveObjectBaseTemplatedINS_14SupervisorBaseINSt3__15tupleIJPN5raven42RavenAccelerationDecompositionActiveObjectEPNS4_39RavenActivityStateEstimatorActiveObjectEPNS4_31RavenCoarseOdometerActiveObjectEPNS4_37RavenConvergenceEstimatorActiveObjectEPNS4_30RavenDeltaAltitudeActiveObjectEPNS4_33RavenGnssPreprocessorActiveObjectEPNS4_32RavenIMUPreprocessorActiveObjectEPNS4_35RavenIntegrityEstimatorActiveObjectEPNS4_36RavenMountStateEstimatorActiveObjectEPNS4_37RavenMovingStateEstimatorActiveObjectEPNS4_37RavenPassThroughEstimatorActiveObjectEPNS4_35RavenPeriodicityTrackerActiveObjectEPNS4_29RavenPNTEstimatorActiveObjectEPNS4_34RavenPressurePrefilterActiveObjectEPNS4_22RavenRinexActiveObjectEPNS4_25RavenSolutionActiveObjectEEEEEEE12EventHandlerINS4_29PrefilteredPressureResetEventES7_EE, 
                        __ZTIN20cnframeworknothreads25ActiveObjectBaseTemplatedINS_14SupervisorBaseINSt3__15tupleIJPN5raven42RavenAccelerationDecompositionActiveObjectEPNS4_39RavenActivityStateEstimatorActiveObjectEPNS4_31RavenCoarseOdometerActiveObjectEPNS4_37RavenConvergenceEstimatorActiveObjectEPNS4_30RavenDeltaAltitudeActiveObjectEPNS4_33RavenGnssPreprocessorActiveObjectEPNS4_32RavenIMUPreprocessorActiveObjectEPNS4_35RavenIntegrityEstimatorActiveObjectEPNS4_36RavenMountStateEstimatorActiveObjectEPNS4_37RavenMovingStateEstimatorActiveObjectEPNS4_37RavenPassThroughEstimatorActiveObjectEPNS4_35RavenPeriodicityTrackerActiveObjectEPNS4_29RavenPNTEstimatorActiveObjectEPNS4_34RavenPressurePrefilterActiveObjectEPNS4_22RavenRinexActiveObjectEPNS4_25RavenSolutionActiveObjectEEEEEEE12EventHandlerINS4_29PrefilteredPressureResetEventES9_EE, 
                        __ZTIN20cnframeworknothreads25ActiveObjectBaseTemplatedINS_14SupervisorBaseINSt3__15tupleIJPN5raven42RavenAccelerationDecompositionActiveObjectEPNS4_39RavenActivityStateEstimatorActiveObjectEPNS4_31RavenCoarseOdometerActiveObjectEPNS4_37RavenConvergenceEstimatorActiveObjectEPNS4_30RavenDeltaAltitudeActiveObjectEPNS4_33RavenGnssPreprocessorActiveObjectEPNS4_32RavenIMUPreprocessorActiveObjectEPNS4_35RavenIntegrityEstimatorActiveObjectEPNS4_36RavenMountStateEstimatorActiveObjectEPNS4_37RavenMovingStateEstimatorActiveObjectEPNS4_37RavenPassThroughEstimatorActiveObjectEPNS4_35RavenPeriodicityTrackerActiveObjectEPNS4_29RavenPNTEstimatorActiveObjectEPNS4_34RavenPressurePrefilterActiveObjectEPNS4_22RavenRinexActiveObjectEPNS4_25RavenSolutionActiveObjectEEEEEEE12EventHandlerINS4_29PrefilteredPressureResetEventESB_EE, 
                        __ZTIN20cnframeworknothreads25ActiveObjectBaseTemplatedINS_14SupervisorBaseINSt3__15tupleIJPN5raven42RavenAccelerationDecompositionActiveObjectEPNS4_39RavenActivityStateEstimatorActiveObjectEPNS4_31RavenCoarseOdometerActiveObjectEPNS4_37RavenConvergenceEstimatorActiveObjectEPNS4_30RavenDeltaAltitudeActiveObjectEPNS4_33RavenGnssPreprocessorActiveObjectEPNS4_32RavenIMUPreprocessorActiveObjectEPNS4_35RavenIntegrityEstimatorActiveObjectEPNS4_36RavenMountStateEstimatorActiveObjectEPNS4_37RavenMovingStateEstimatorActiveObjectEPNS4_37RavenPassThroughEstimatorActiveObjectEPNS4_35RavenPeriodicityTrackerActiveObjectEPNS4_29RavenPNTEstimatorActiveObjectEPNS4_34RavenPressurePrefilterActiveObjectEPNS4_22RavenRinexActiveObjectEPNS4_25RavenSolutionActiveObjectEEEEEEE12EventHandlerINS4_29PrefilteredPressureResetEventESD_EE, 
                        __ZTIN20cnframeworknothreads25ActiveObjectBaseTemplatedINS_14SupervisorBaseINSt3__15tupleIJPN5raven42RavenAccelerationDecompositionActiveObjectEPNS4_39RavenActivityStateEstimatorActiveObjectEPNS4_31RavenCoarseOdometerActiveObjectEPNS4_37RavenConvergenceEstimatorActiveObjectEPNS4_30RavenDeltaAltitudeActiveObjectEPNS4_33RavenGnssPreprocessorActiveObjectEPNS4_32RavenIMUPreprocessorActiveObjectEPNS4_35RavenIntegrityEstimatorActiveObjectEPNS4_36RavenMountStateEstimatorActiveObjectEPNS4_37RavenMovingStateEstimatorActiveObjectEPNS4_37RavenPassThroughEstimatorActiveObjectEPNS4_35RavenPeriodicityTrackerActiveObjectEPNS4_29RavenPNTEstimatorActiveObjectEPNS4_34RavenPressurePrefilterActiveObjectEPNS4_22RavenRinexActiveObjectEPNS4_25RavenSolutionActiveObjectEEEEEEE12EventHandlerINS4_29PrefilteredPressureResetEventESF_EE, 
                        __ZTIN20cnframeworknothreads25ActiveObjectBaseTemplatedINS_14SupervisorBaseINSt3__15tupleIJPN5raven42RavenAccelerationDecompositionActiveObjectEPNS4_39RavenActivityStateEstimatorActiveObjectEPNS4_31RavenCoarseOdometerActiveObjectEPNS4_37RavenConvergenceEstimatorActiveObjectEPNS4_30RavenDeltaAltitudeActiveObjectEPNS4_33RavenGnssPreprocessorActiveObjectEPNS4_32RavenIMUPreprocessorActiveObjectEPNS4_35RavenIntegrityEstimatorActiveObjectEPNS4_36RavenMountStateEstimatorActiveObjectEPNS4_37RavenMovingStateEstimatorActiveObjectEPNS4_37RavenPassThroughEstimatorActiveObjectEPNS4_35RavenPeriodicityTrackerActiveObjectEPNS4_29RavenPNTEstimatorActiveObjectEPNS4_34RavenPressurePrefilterActiveObjectEPNS4_22RavenRinexActiveObjectEPNS4_25RavenSolutionActiveObjectEEEEEEE12EventHandlerINS4_29PrefilteredPressureResetEventESH_EE, 
                        __ZTIN20cnframeworknothreads25ActiveObjectBaseTemplatedINS_14SupervisorBaseINSt3__15tupleIJPN5raven42RavenAccelerationDecompositionActiveObjectEPNS4_39RavenActivityStateEstimatorActiveObjectEPNS4_31RavenCoarseOdometerActiveObjectEPNS4_37RavenConvergenceEstimatorActiveObjectEPNS4_30RavenDeltaAltitudeActiveObjectEPNS4_33RavenGnssPreprocessorActiveObjectEPNS4_32RavenIMUPreprocessorActiveObjectEPNS4_35RavenIntegrityEstimatorActiveObjectEPNS4_36RavenMountStateEstimatorActiveObjectEPNS4_37RavenMovingStateEstimatorActiveObjectEPNS4_37RavenPassThroughEstimatorActiveObjectEPNS4_35RavenPeriodicityTrackerActiveObjectEPNS4_29RavenPNTEstimatorActiveObjectEPNS4_34RavenPressurePrefilterActiveObjectEPNS4_22RavenRinexActiveObjectEPNS4_25RavenSolutionActiveObjectEEEEEEE12EventHandlerINS4_29PrefilteredPressureResetEventESJ_EE, 
                        __ZTIN20cnframeworknothreads25ActiveObjectBaseTemplatedINS_14SupervisorBaseINSt3__15tupleIJPN5raven42RavenAccelerationDecompositionActiveObjectEPNS4_39RavenActivityStateEstimatorActiveObjectEPNS4_31RavenCoarseOdometerActiveObjectEPNS4_37RavenConvergenceEstimatorActiveObjectEPNS4_30RavenDeltaAltitudeActiveObjectEPNS4_33RavenGnssPreprocessorActiveObjectEPNS4_32RavenIMUPreprocessorActiveObjectEPNS4_35RavenIntegrityEstimatorActiveObjectEPNS4_36RavenMountStateEstimatorActiveObjectEPNS4_37RavenMovingStateEstimatorActiveObjectEPNS4_37RavenPassThroughEstimatorActiveObjectEPNS4_35RavenPeriodicityTrackerActiveObjectEPNS4_29RavenPNTEstimatorActiveObjectEPNS4_34RavenPressurePrefilterActiveObjectEPNS4_22RavenRinexActiveObjectEPNS4_25RavenSolutionActiveObjectEEEEEEE12EventHandlerINS4_29PrefilteredPressureResetEventESL_EE, 
                        __ZTIN20cnframeworknothreads25ActiveObjectBaseTemplatedINS_14SupervisorBaseINSt3__15tupleIJPN5raven42RavenAccelerationDecompositionActiveObjectEPNS4_39RavenActivityStateEstimatorActiveObjectEPNS4_31RavenCoarseOdometerActiveObjectEPNS4_37RavenConvergenceEstimatorActiveObjectEPNS4_30RavenDeltaAltitudeActiveObjectEPNS4_33RavenGnssPreprocessorActiveObjectEPNS4_32RavenIMUPreprocessorActiveObjectEPNS4_35RavenIntegrityEstimatorActiveObjectEPNS4_36RavenMountStateEstimatorActiveObjectEPNS4_37RavenMovingStateEstimatorActiveObjectEPNS4_37RavenPassThroughEstimatorActiveObjectEPNS4_35RavenPeriodicityTrackerActiveObjectEPNS4_29RavenPNTEstimatorActiveObjectEPNS4_34RavenPressurePrefilterActiveObjectEPNS4_22RavenRinexActiveObjectEPNS4_25RavenSolutionActiveObjectEEEEEEE12EventHandlerINS4_29PrefilteredPressureResetEventESN_EE, 
                        __ZTIN20cnframeworknothreads25ActiveObjectBaseTemplatedINS_14SupervisorBaseINSt3__15tupleIJPN5raven42RavenAccelerationDecompositionActiveObjectEPNS4_39RavenActivityStateEstimatorActiveObjectEPNS4_31RavenCoarseOdometerActiveObjectEPNS4_37RavenConvergenceEstimatorActiveObjectEPNS4_30RavenDeltaAltitudeActiveObjectEPNS4_33RavenGnssPreprocessorActiveObjectEPNS4_32RavenIMUPreprocessorActiveObjectEPNS4_35RavenIntegrityEstimatorActiveObjectEPNS4_36RavenMountStateEstimatorActiveObjectEPNS4_37RavenMovingStateEstimatorActiveObjectEPNS4_37RavenPassThroughEstimatorActiveObjectEPNS4_35RavenPeriodicityTrackerActiveObjectEPNS4_29RavenPNTEstimatorActiveObjectEPNS4_34RavenPressurePrefilterActiveObjectEPNS4_22RavenRinexActiveObjectEPNS4_25RavenSolutionActiveObjectEEEEEEE12EventHandlerINS4_29PrefilteredPressureResetEventESP_EE, 
                        __ZTIN20cnframeworknothreads25ActiveObjectBaseTemplatedINS_14SupervisorBaseINSt3__15tupleIJPN5raven42RavenAccelerationDecompositionActiveObjectEPNS4_39RavenActivityStateEstimatorActiveObjectEPNS4_31RavenCoarseOdometerActiveObjectEPNS4_37RavenConvergenceEstimatorActiveObjectEPNS4_30RavenDeltaAltitudeActiveObjectEPNS4_33RavenGnssPreprocessorActiveObjectEPNS4_32RavenIMUPreprocessorActiveObjectEPNS4_35RavenIntegrityEstimatorActiveObjectEPNS4_36RavenMountStateEstimatorActiveObjectEPNS4_37RavenMovingStateEstimatorActiveObjectEPNS4_37RavenPassThroughEstimatorActiveObjectEPNS4_35RavenPeriodicityTrackerActiveObjectEPNS4_29RavenPNTEstimatorActiveObjectEPNS4_34RavenPressurePrefilterActiveObjectEPNS4_22RavenRinexActiveObjectEPNS4_25RavenSolutionActiveObjectEEEEEEE12EventHandlerINS4_29PrefilteredPressureResetEventESR_EE, 
                        __ZTIN20cnframeworknothreads25ActiveObjectBaseTemplatedINS_14SupervisorBaseINSt3__15tupleIJPN5raven42RavenAccelerationDecompositionActiveObjectEPNS4_39RavenActivityStateEstimatorActiveObjectEPNS4_31RavenCoarseOdometerActiveObjectEPNS4_37RavenConvergenceEstimatorActiveObjectEPNS4_30RavenDeltaAltitudeActiveObjectEPNS4_33RavenGnssPreprocessorActiveObjectEPNS4_32RavenIMUPreprocessorActiveObjectEPNS4_35RavenIntegrityEstimatorActiveObjectEPNS4_36RavenMountStateEstimatorActiveObjectEPNS4_37RavenMovingStateEstimatorActiveObjectEPNS4_37RavenPassThroughEstimatorActiveObjectEPNS4_35RavenPeriodicityTrackerActiveObjectEPNS4_29RavenPNTEstimatorActiveObjectEPNS4_34RavenPressurePrefilterActiveObjectEPNS4_22RavenRinexActiveObjectEPNS4_25RavenSolutionActiveObjectEEEEEEE12EventHandlerINS4_29PrefilteredPressureResetEventEST_EE, 
                        __ZTIN20cnframeworknothreads25ActiveObjectBaseTemplatedINS_14SupervisorBaseINSt3__15tupleIJPN5raven42RavenAccelerationDecompositionActiveObjectEPNS4_39RavenActivityStateEstimatorActiveObjectEPNS4_31RavenCoarseOdometerActiveObjectEPNS4_37RavenConvergenceEstimatorActiveObjectEPNS4_30RavenDeltaAltitudeActiveObjectEPNS4_33RavenGnssPreprocessorActiveObjectEPNS4_32RavenIMUPreprocessorActiveObjectEPNS4_35RavenIntegrityEstimatorActiveObjectEPNS4_36RavenMountStateEstimatorActiveObjectEPNS4_37RavenMovingStateEstimatorActiveObjectEPNS4_37RavenPassThroughEstimatorActiveObjectEPNS4_35RavenPeriodicityTrackerActiveObjectEPNS4_29RavenPNTEstimatorActiveObjectEPNS4_34RavenPressurePrefilterActiveObjectEPNS4_22RavenRinexActiveObjectEPNS4_25RavenSolutionActiveObjectEEEEEEE12EventHandlerINS4_29PrefilteredPressureResetEventESV_EE, 
                        __ZTIN20cnframeworknothreads25ActiveObjectBaseTemplatedINS_14SupervisorBaseINSt3__15tupleIJPN5raven42RavenAccelerationDecompositionActiveObjectEPNS4_39RavenActivityStateEstimatorActiveObjectEPNS4_31RavenCoarseOdometerActiveObjectEPNS4_37RavenConvergenceEstimatorActiveObjectEPNS4_30RavenDeltaAltitudeActiveObjectEPNS4_33RavenGnssPreprocessorActiveObjectEPNS4_32RavenIMUPreprocessorActiveObjectEPNS4_35RavenIntegrityEstimatorActiveObjectEPNS4_36RavenMountStateEstimatorActiveObjectEPNS4_37RavenMovingStateEstimatorActiveObjectEPNS4_37RavenPassThroughEstimatorActiveObjectEPNS4_35RavenPeriodicityTrackerActiveObjectEPNS4_29RavenPNTEstimatorActiveObjectEPNS4_34RavenPressurePrefilterActiveObjectEPNS4_22RavenRinexActiveObjectEPNS4_25RavenSolutionActiveObjectEEEEEEE12EventHandlerINS4_29PrefilteredPressureResetEventESX_EE, 
                        __ZTIN20cnframeworknothreads25ActiveObjectBaseTemplatedINS_14SupervisorBaseINSt3__15tupleIJPN5raven42RavenAccelerationDecompositionActiveObjectEPNS4_39RavenActivityStateEstimatorActiveObjectEPNS4_31RavenCoarseOdometerActiveObjectEPNS4_37RavenConvergenceEstimatorActiveObjectEPNS4_30RavenDeltaAltitudeActiveObjectEPNS4_33RavenGnssPreprocessorActiveObjectEPNS4_32RavenIMUPreprocessorActiveObjectEPNS4_35RavenIntegrityEstimatorActiveObjectEPNS4_36RavenMountStateEstimatorActiveObjectEPNS4_37RavenMovingStateEstimatorActiveObjectEPNS4_37RavenPassThroughEstimatorActiveObjectEPNS4_35RavenPeriodicityTrackerActiveObjectEPNS4_29RavenPNTEstimatorActiveObjectEPNS4_34RavenPressurePrefilterActiveObjectEPNS4_22RavenRinexActiveObjectEPNS4_25RavenSolutionActiveObjectEEEEEEE12EventHandlerINS4_29PrefilteredPressureResetEventESZ_EE, 
                        __ZTIN20cnframeworknothreads25ActiveObjectBaseTemplatedINS_14SupervisorBaseINSt3__15tupleIJPN5raven42RavenAccelerationDecompositionActiveObjectEPNS4_39RavenActivityStateEstimatorActiveObjectEPNS4_31RavenCoarseOdometerActiveObjectEPNS4_37RavenConvergenceEstimatorActiveObjectEPNS4_30RavenDeltaAltitudeActiveObjectEPNS4_33RavenGnssPreprocessorActiveObjectEPNS4_32RavenIMUPreprocessorActiveObjectEPNS4_35RavenIntegrityEstimatorActiveObjectEPNS4_36RavenMountStateEstimatorActiveObjectEPNS4_37RavenMovingStateEstimatorActiveObjectEPNS4_37RavenPassThroughEstimatorActiveObjectEPNS4_35RavenPeriodicityTrackerActiveObjectEPNS4_29RavenPNTEstimatorActiveObjectEPNS4_34RavenPressurePrefilterActiveObjectEPNS4_22RavenRinexActiveObjectEPNS4_25RavenSolutionActiveObjectEEEEEEE16EventHandlerBaseE, 
                        __ZTIN20cnframeworknothreads25ActiveObjectBaseTemplatedINS_14SupervisorBaseINSt3__15tupleIJPN5raven42RavenAccelerationDecompositionActiveObjectEPNS4_39RavenActivityStateEstimatorActiveObjectEPNS4_31RavenCoarseOdometerActiveObjectEPNS4_37RavenConvergenceEstimatorActiveObjectEPNS4_30RavenDeltaAltitudeActiveObjectEPNS4_33RavenGnssPreprocessorActiveObjectEPNS4_32RavenIMUPreprocessorActiveObjectEPNS4_35RavenIntegrityEstimatorActiveObjectEPNS4_36RavenMountStateEstimatorActiveObjectEPNS4_37RavenMovingStateEstimatorActiveObjectEPNS4_37RavenPassThroughEstimatorActiveObjectEPNS4_35RavenPeriodicityTrackerActiveObjectEPNS4_29RavenPNTEstimatorActiveObjectEPNS4_34RavenPressurePrefilterActiveObjectEPNS4_22RavenRinexActiveObjectEPNS4_25RavenSolutionActiveObjectEEEEEEEE, 
                        __ZTIN4swan29BatchedGNSSDataSmootherConfigE, __ZTIN5boost16bad_lexical_castE, 
                        __ZTIN5boost16exception_detail10clone_baseE, __ZTIN5boost16exception_detail10clone_implINS0_19error_info_injectorINS_16bad_lexical_castEEEEE, 
                        __ZTIN5boost16exception_detail19error_info_injectorINS_16bad_lexical_castEEE, 
                        __ZTIN5boost6detail16basic_pointerbufIcNSt3__115basic_streambufIcNS2_11char_traitsIcEEEEEE, 
                        __ZTIN5boost6detail17basic_unlockedbufINSt3__115basic_streambufIcNS2_11char_traitsIcEEEEcEE, 
                        __ZTIN5boost9exceptionE, __ZTIN5raven10TimerEventE, __ZTIN5raven11RavenStatusE, 
                        __ZTIN5raven13AltitudeEventE, __ZTIN5raven13AttitudeEventE, 
                        __ZTIN5raven13OdometerEventE, __ZTIN5raven13PositionEventE, 
                        __ZTIN5raven13RateGyroEventE, __ZTIN5raven13RavenSolutionE, 
                        __ZTIN5raven13VelocityEventE, __ZTIN5raven14BarometerEventE, 
                        __ZTIN5raven14MapVectorEventE, __ZTIN5raven14RavenMapVectorE, 
                        __ZTIN5raven14RinexDataEventE, __ZTIN5raven15MountStateEventE, 
                        __ZTIN5raven15RavenMountStateE, __ZTIN5raven16MovingStateEventE, 
                        __ZTIN5raven16RavenMovingStateE, __ZTIN5raven16RavenSystemEventE, 
                        __ZTIN5raven17SvPositioningDataE, __ZTIN5raven18AccelerometerEventE, 
                        __ZTIN5raven18ActivityStateEventE, __ZTIN5raven18RavenActivityStateE, 
                        __ZTIN5raven18RavenSolutionEventE, __ZTIN5raven19AltitudeChangeEventE, 
                        __ZTIN5raven19RateGyroMeasurementE, __ZTIN5raven19h_ArgsBase_RavenPNTIdEE, 
                        __ZTIN5raven20GpsSvPositioningDataE, __ZTIN5raven22RavenRinexActiveObjectE, 
                        __ZTIN5raven24AccelerometerMeasurementE, __ZTIN5raven24GlonassSvPositioningDataE, 
                        __ZTIN5raven24GnssMeasurementDataEventE, __ZTIN5raven24RavenMeasurementArgsBaseE, 
                        __ZTIN5raven25PrefilteredBarometerEventE, __ZTIN5raven25RavenSolutionActiveObjectE, 
                        __ZTIN5raven27DecomposedAccelerationEventE, __ZTIN5raven27h_UserAltitudeArgs_RavenPNTIdEE, 
                        __ZTIN5raven29PrefilteredPressureResetEventE, __ZTIN5raven29RavenPNTEstimatorActiveObjectE, 
                        __ZTIN5raven29h_DevicePositionArgs_RavenPNTIdEE, __ZTIN5raven29h_DeviceVelocityArgs_RavenPNTIdEE, 
                        __ZTIN5raven30RavenDeltaAltitudeActiveObjectE, __ZTIN5raven30SignalPeriodicityAnalysisEventE, 
                        __ZTIN5raven30h_GnssADRArgs_RavenConvergenceE, __ZTIN5raven30h_GnssPsrArgs_RavenConvergenceE, 
                        __ZTIN5raven31RavenCoarseOdometerActiveObjectE, __ZTIN5raven31h_AltitudeArgs_RavenConvergenceE, 
                        __ZTIN5raven31h_PositionArgs_RavenConvergenceE, __ZTIN5raven31h_VelocityArgs_RavenConvergenceE, 
                        __ZTIN5raven32RavenIMUPreprocessorActiveObjectE, __ZTIN5raven33GnssPreprocessedMeasurementsEventE, 
                        __ZTIN5raven33RavenGnssPreprocessorActiveObjectE, __ZTIN5raven34RavenPressurePrefilterActiveObjectE, 
                        __ZTIN5raven34h_GnssDopplerArgs_RavenConvergenceE, __ZTIN5raven35RavenIntegrityEstimatorActiveObjectE, 
                        __ZTIN5raven35RavenPeriodicityTrackerActiveObjectE, __ZTIN5raven35h_DeviceAltitudeChangeArgs_RavenPNTIdEE, 
                        __ZTIN5raven36RavenMountStateEstimatorActiveObjectE, __ZTIN5raven37RavenConvergenceEstimatorActiveObjectE, 
                        __ZTIN5raven37RavenMovingStateEstimatorActiveObjectE, __ZTIN5raven37RavenPassThroughEstimatorActiveObjectE, 
                        __ZTIN5raven37h_AltitudeChangeArgs_RavenConvergenceIdEE, 
                        __ZTIN5raven39RavenActivityStateEstimatorActiveObjectE, __ZTIN5raven42RavenAccelerationDecompositionActiveObjectE, 
                        __ZTIN5raven43h_DeviceUserPositionDifferenceArgs_RavenPNTIdEE, 
                        __ZTIN5raven49h_HorizontalDistanceTraveledArgs_RavenConvergenceIdEE, 
                        __ZTIN5raven50h_MapVectorPositionConstraintArgs_RavenConvergenceE, 
                        __ZTIN5raven50h_MapVectorVelocityConstraintArgs_RavenConvergenceE, 
                        __ZTIN5raven9RavenTimeE, __ZTIN7cntimer11CNTimerBaseE, __ZTIN8cnconfig12ConfigLoaderILj1024EEE, 
                        __ZTIN8cnconfig12ConfigLoaderILj256EEE, __ZTIN8cnmatrix11CNSubMatrixILj16ELj1ELj16ELj1EdEE, 
                        __ZTIN8cnmatrix11CNSubMatrixILj1ELj1ELj1ELj3EdEE, __ZTIN8cnmatrix11CNSubMatrixILj1ELj1ELj26ELj1EdEE, 
                        __ZTIN8cnmatrix11CNSubMatrixILj1ELj1ELj3ELj1EdEE, __ZTIN8cnmatrix11CNSubMatrixILj23ELj1ELj23ELj1EdEE, 
                        __ZTIN8cnmatrix11CNSubMatrixILj23ELj1ELj26ELj1EdEE, __ZTIN8cnmatrix11CNSubMatrixILj26ELj1ELj1ELj1EdEE, 
                        __ZTIN8cnmatrix11CNSubMatrixILj26ELj1ELj23ELj1EdEE, __ZTIN8cnmatrix11CNSubMatrixILj26ELj1ELj26ELj1EdEE, 
                        __ZTIN8cnmatrix11CNSubMatrixILj2ELj1ELj2ELj1EdEE, __ZTIN8cnmatrix11CNSubMatrixILj3ELj1ELj1ELj1EdEE, 
                        __ZTIN8cnmatrix11CNSubMatrixILj3ELj1ELj23ELj1EdEE, __ZTIN8cnmatrix11CNSubMatrixILj3ELj1ELj26ELj1EdEE, 
                        __ZTIN8cnmatrix11CNSubMatrixILj3ELj1ELj3ELj1EdEE, __ZTIN8cnmatrix11CNSubMatrixILj3ELj1ELj8ELj1EdEE, 
                        __ZTIN8cnmatrix11CNSubMatrixILj49ELj1ELj49ELj1EdEE, __ZTIN8cnmatrix11CNSubMatrixILj4ELj1ELj1ELj1EdEE, 
                        __ZTIN8cnmatrix11CNSubMatrixILj4ELj1ELj3ELj1EdEE, __ZTIN8cnmatrix11CNSubMatrixILj4ELj1ELj4ELj1EdEE, 
                        __ZTIN8cnmatrix11CNSubMatrixILj6ELj1ELj6ELj1EdEE, __ZTIN8cnmatrix11CNSubMatrixILj8ELj1ELj8ELj1EdEE, 
                        __ZTIN8cnmatrix11CNSubVectorILj100ELj1E6CNTimeEE, __ZTIN8cnmatrix11CNSubVectorILj100ELj1EN11cnframework17CNAllocatorHandleEEE, 
                        __ZTIN8cnmatrix11CNSubVectorILj100ELj1ENS_8CNMatrixILj3ELj1EdEEEE, 
                        __ZTIN8cnmatrix11CNSubVectorILj100ELj1ENS_8CNMatrixILj3ELj3EdEEEE, 
                        __ZTIN8cnmatrix11CNSubVectorILj100ELj1EPFiRKNS_8CNMatrixILj26ELj1EdEERKNS1_ILj3ELj1EdEEPvRS5_RNS1_ILj3ELj26EdEERNS1_ILj3ELj3EdEEEEE, 
                        __ZTIN8cnmatrix11CNSubVectorILj100ELj1EPvEE, __ZTIN8cnmatrix11CNSubVectorILj100ELj1EdEE, 
                        __ZTIN8cnmatrix11CNSubVectorILj100ELj1EiEE, __ZTIN8cnmatrix11CNSubVectorILj16ELj1EdEE, 
                        __ZTIN8cnmatrix11CNSubVectorILj19ELj1EdEE, __ZTIN8cnmatrix11CNSubVectorILj23716ELj1E6CNTimeEE, 
                        __ZTIN8cnmatrix11CNSubVectorILj23716ELj1EN11cnframework17CNAllocatorHandleEEE, 
                        __ZTIN8cnmatrix11CNSubVectorILj23716ELj1ENS_8CNMatrixILj3ELj1EdEEEE, 
                        __ZTIN8cnmatrix11CNSubVectorILj23716ELj1ENS_8CNMatrixILj3ELj3EdEEEE, 
                        __ZTIN8cnmatrix11CNSubVectorILj23716ELj1EPFiRKNS_8CNMatrixILj8ELj1EdEERKNS1_ILj3ELj1EdEEPvRS5_RNS1_ILj3ELj8EdEERNS1_ILj3ELj3EdEEEEE, 
                        __ZTIN8cnmatrix11CNSubVectorILj23716ELj1EPvEE, __ZTIN8cnmatrix11CNSubVectorILj23716ELj1EdEE, 
                        __ZTIN8cnmatrix11CNSubVectorILj23716ELj1EiEE, __ZTIN8cnmatrix11CNSubVectorILj23ELj1EdEE, 
                        __ZTIN8cnmatrix11CNSubVectorILj26ELj1EdEE, __ZTIN8cnmatrix11CNSubVectorILj26ELj1EiEE, 
                        __ZTIN8cnmatrix11CNSubVectorILj28ELj1EdEE, __ZTIN8cnmatrix11CNSubVectorILj2ELj1EdEE, 
                        __ZTIN8cnmatrix11CNSubVectorILj30ELj1EdEE, __ZTIN8cnmatrix11CNSubVectorILj3ELj1EdEE, 
                        __ZTIN8cnmatrix11CNSubVectorILj462ELj1EdEE, __ZTIN8cnmatrix11CNSubVectorILj49ELj1EdEE, 
                        __ZTIN8cnmatrix11CNSubVectorILj7ELj1EdEE, __ZTIN8cnmatrix11CNSubVectorILj8ELj1EdEE, 
                        __ZTIN8cnmatrix12CNMatrixBaseI6CNTimeEE, __ZTIN8cnmatrix12CNMatrixBaseIN11cnframework17CNAllocatorHandleEEE, 
                        __ZTIN8cnmatrix12CNMatrixBaseINS_8CNMatrixILj26ELj1EdEEEE, 
                        __ZTIN8cnmatrix12CNMatrixBaseINS_8CNMatrixILj26ELj23EdEEEE, 
                        __ZTIN8cnmatrix12CNMatrixBaseINS_8CNMatrixILj26ELj26EdEEEE, 
                        __ZTIN8cnmatrix12CNMatrixBaseINS_8CNMatrixILj30ELj1EdEEEE, 
                        __ZTIN8cnmatrix12CNMatrixBaseINS_8CNMatrixILj3ELj1EdEEEE, 
                        __ZTIN8cnmatrix12CNMatrixBaseINS_8CNMatrixILj3ELj23EdEEEE, 
                        __ZTIN8cnmatrix12CNMatrixBaseINS_8CNMatrixILj3ELj26EdEEEE, 
                        __ZTIN8cnmatrix12CNMatrixBaseINS_8CNMatrixILj3ELj3EdEEEE, 
                        __ZTIN8cnmatrix12CNMatrixBaseINS_8CNMatrixILj3ELj8EdEEEE, 
                        __ZTIN8cnmatrix12CNMatrixBaseINS_8CNMatrixILj462ELj1EdEEEE, 
                        __ZTIN8cnmatrix12CNMatrixBaseINS_8CNMatrixILj8ELj1EdEEEE, 
                        __ZTIN8cnmatrix12CNMatrixBaseINS_8CNMatrixILj8ELj8EdEEEE, 
                        __ZTIN8cnmatrix12CNMatrixBaseIPFiRKNS_8CNMatrixILj26ELj1EdEERKNS1_ILj23ELj1EdEEPvRS2_RNS1_ILj26ELj26EdEERNS1_ILj26ELj23EdEEEEE, 
                        __ZTIN8cnmatrix12CNMatrixBaseIPFiRKNS_8CNMatrixILj26ELj1EdEERKNS1_ILj3ELj1EdEEPvRS5_RNS1_ILj3ELj26EdEERNS1_ILj3ELj3EdEEEEE, 
                        __ZTIN8cnmatrix12CNMatrixBaseIPFiRKNS_8CNMatrixILj26ELj1EdEES4_dPvRS2_RNS1_ILj26ELj26EdEES8_EEE, 
                        __ZTIN8cnmatrix12CNMatrixBaseIPFiRKNS_8CNMatrixILj8ELj1EdEERKNS1_ILj3ELj1EdEEPvRS5_RNS1_ILj3ELj8EdEERNS1_ILj3ELj3EdEEEEE, 
                        __ZTIN8cnmatrix12CNMatrixBaseIPFiRKNS_8CNMatrixILj8ELj1EdEES4_PvRS2_RNS1_ILj8ELj8EdEES8_EEE, 
                        __ZTIN8cnmatrix12CNMatrixBaseIPFiRKNS_8CNMatrixILj8ELj1EdEES4_dPvRS2_RNS1_ILj8ELj8EdEES8_EEE, 
                        __ZTIN8cnmatrix12CNMatrixBaseIPvEE, __ZTIN8cnmatrix12CNMatrixBaseIbEE, 
                        __ZTIN8cnmatrix12CNMatrixBaseIdEE, __ZTIN8cnmatrix12CNMatrixBaseIiEE, 
                        __ZTIN8cnmatrix12CNMatrixBaseIjEE, __ZTIN8cnmatrix8CNMatrixILj100ELj1E6CNTimeEE, 
                        __ZTIN8cnmatrix8CNMatrixILj100ELj1EN11cnframework17CNAllocatorHandleEEE, 
                        __ZTIN8cnmatrix8CNMatrixILj100ELj1ENS0_ILj3ELj1EdEEEE, __ZTIN8cnmatrix8CNMatrixILj100ELj1ENS0_ILj3ELj3EdEEEE, 
                        __ZTIN8cnmatrix8CNMatrixILj100ELj1EPFiRKNS0_ILj26ELj1EdEERKNS0_ILj3ELj1EdEEPvRS4_RNS0_ILj3ELj26EdEERNS0_ILj3ELj3EdEEEEE, 
                        __ZTIN8cnmatrix8CNMatrixILj100ELj1EPvEE, __ZTIN8cnmatrix8CNMatrixILj100ELj1EdEE, 
                        __ZTIN8cnmatrix8CNMatrixILj100ELj1EiEE, __ZTIN8cnmatrix8CNMatrixILj104ELj1EdEE, 
                        __ZTIN8cnmatrix8CNMatrixILj10ELj1E6CNTimeEE, __ZTIN8cnmatrix8CNMatrixILj10ELj1ENS0_ILj26ELj1EdEEEE, 
                        __ZTIN8cnmatrix8CNMatrixILj10ELj1ENS0_ILj26ELj26EdEEEE, __ZTIN8cnmatrix8CNMatrixILj10ELj1ENS0_ILj3ELj1EdEEEE, 
                        __ZTIN8cnmatrix8CNMatrixILj10ELj1ENS0_ILj3ELj23EdEEEE, __ZTIN8cnmatrix8CNMatrixILj10ELj1ENS0_ILj3ELj26EdEEEE, 
                        __ZTIN8cnmatrix8CNMatrixILj10ELj1ENS0_ILj3ELj3EdEEEE, __ZTIN8cnmatrix8CNMatrixILj10ELj1EPFiRKNS0_ILj26ELj1EdEERKNS0_ILj3ELj1EdEEPvRS4_RNS0_ILj3ELj26EdEERNS0_ILj3ELj3EdEEEEE, 
                        __ZTIN8cnmatrix8CNMatrixILj10ELj1EPvEE, __ZTIN8cnmatrix8CNMatrixILj10ELj1EdEE, 
                        __ZTIN8cnmatrix8CNMatrixILj10ELj1EiEE, __ZTIN8cnmatrix8CNMatrixILj10ELj1EjEE, 
                        __ZTIN8cnmatrix8CNMatrixILj1116ELj1EdEE, __ZTIN8cnmatrix8CNMatrixILj12ELj1EdEE, 
                        __ZTIN8cnmatrix8CNMatrixILj154ELj1E6CNTimeEE, __ZTIN8cnmatrix8CNMatrixILj154ELj1ENS0_ILj3ELj1EdEEEE, 
                        __ZTIN8cnmatrix8CNMatrixILj154ELj1ENS0_ILj3ELj3EdEEEE, __ZTIN8cnmatrix8CNMatrixILj154ELj1ENS0_ILj3ELj8EdEEEE, 
                        __ZTIN8cnmatrix8CNMatrixILj154ELj1ENS0_ILj8ELj1EdEEEE, __ZTIN8cnmatrix8CNMatrixILj154ELj1ENS0_ILj8ELj8EdEEEE, 
                        __ZTIN8cnmatrix8CNMatrixILj154ELj1EPFiRKNS0_ILj8ELj1EdEERKNS0_ILj3ELj1EdEEPvRS4_RNS0_ILj3ELj8EdEERNS0_ILj3ELj3EdEEEEE, 
                        __ZTIN8cnmatrix8CNMatrixILj154ELj1EPvEE, __ZTIN8cnmatrix8CNMatrixILj154ELj1EdEE, 
                        __ZTIN8cnmatrix8CNMatrixILj154ELj1EiEE, __ZTIN8cnmatrix8CNMatrixILj154ELj1EjEE, 
                        __ZTIN8cnmatrix8CNMatrixILj15ELj1EdEE, __ZTIN8cnmatrix8CNMatrixILj1616ELj1EdEE, 
                        __ZTIN8cnmatrix8CNMatrixILj16ELj16EdEE, __ZTIN8cnmatrix8CNMatrixILj16ELj1EdEE, 
                        __ZTIN8cnmatrix8CNMatrixILj16ELj1EiEE, __ZTIN8cnmatrix8CNMatrixILj18ELj15EdEE, 
                        __ZTIN8cnmatrix8CNMatrixILj18ELj18EdEE, __ZTIN8cnmatrix8CNMatrixILj18ELj19EdEE, 
                        __ZTIN8cnmatrix8CNMatrixILj18ELj1EdEE, __ZTIN8cnmatrix8CNMatrixILj19ELj15EdEE, 
                        __ZTIN8cnmatrix8CNMatrixILj19ELj18EdEE, __ZTIN8cnmatrix8CNMatrixILj19ELj19EdEE, 
                        __ZTIN8cnmatrix8CNMatrixILj19ELj1EdEE, __ZTIN8cnmatrix8CNMatrixILj19ELj1EiEE, 
                        __ZTIN8cnmatrix8CNMatrixILj19ELj1EjEE, __ZTIN8cnmatrix8CNMatrixILj19ELj2EdEE, 
                        __ZTIN8cnmatrix8CNMatrixILj19ELj2EjEE, __ZTIN8cnmatrix8CNMatrixILj1ELj16EiEE, 
                        __ZTIN8cnmatrix8CNMatrixILj1ELj19EiEE, __ZTIN8cnmatrix8CNMatrixILj1ELj1EdEE, 
                        __ZTIN8cnmatrix8CNMatrixILj1ELj1EiEE, __ZTIN8cnmatrix8CNMatrixILj1ELj1EjEE, 
                        __ZTIN8cnmatrix8CNMatrixILj1ELj23EiEE, __ZTIN8cnmatrix8CNMatrixILj1ELj26EdEE, 
                        __ZTIN8cnmatrix8CNMatrixILj1ELj26EiEE, __ZTIN8cnmatrix8CNMatrixILj1ELj28EiEE, 
                        __ZTIN8cnmatrix8CNMatrixILj1ELj2EiEE, __ZTIN8cnmatrix8CNMatrixILj1ELj30EiEE, 
                        __ZTIN8cnmatrix8CNMatrixILj1ELj3EdEE, __ZTIN8cnmatrix8CNMatrixILj1ELj3EiEE, 
                        __ZTIN8cnmatrix8CNMatrixILj1ELj462EiEE, __ZTIN8cnmatrix8CNMatrixILj1ELj49EiEE, 
                        __ZTIN8cnmatrix8CNMatrixILj1ELj4EiEE, __ZTIN8cnmatrix8CNMatrixILj1ELj6EdEE, 
                        __ZTIN8cnmatrix8CNMatrixILj1ELj6EiEE, __ZTIN8cnmatrix8CNMatrixILj1ELj7EiEE, 
                        __ZTIN8cnmatrix8CNMatrixILj1ELj8EdEE, __ZTIN8cnmatrix8CNMatrixILj1ELj8EiEE, 
                        __ZTIN8cnmatrix8CNMatrixILj21ELj1EdEE, __ZTIN8cnmatrix8CNMatrixILj23716ELj1E6CNTimeEE, 
                        __ZTIN8cnmatrix8CNMatrixILj23716ELj1EN11cnframework17CNAllocatorHandleEEE, 
                        __ZTIN8cnmatrix8CNMatrixILj23716ELj1ENS0_ILj3ELj1EdEEEE, 
                        __ZTIN8cnmatrix8CNMatrixILj23716ELj1ENS0_ILj3ELj3EdEEEE, 
                        __ZTIN8cnmatrix8CNMatrixILj23716ELj1EPFiRKNS0_ILj8ELj1EdEERKNS0_ILj3ELj1EdEEPvRS4_RNS0_ILj3ELj8EdEERNS0_ILj3ELj3EdEEEEE, 
                        __ZTIN8cnmatrix8CNMatrixILj23716ELj1EPvEE, __ZTIN8cnmatrix8CNMatrixILj23716ELj1EdEE, 
                        __ZTIN8cnmatrix8CNMatrixILj23716ELj1EiEE, __ZTIN8cnmatrix8CNMatrixILj23ELj1EdEE, 
                        __ZTIN8cnmatrix8CNMatrixILj23ELj1EiEE, __ZTIN8cnmatrix8CNMatrixILj23ELj23EdEE, 
                        __ZTIN8cnmatrix8CNMatrixILj23ELj26EdEE, __ZTIN8cnmatrix8CNMatrixILj23ELj49EdEE, 
                        __ZTIN8cnmatrix8CNMatrixILj24ELj1EdEE, __ZTIN8cnmatrix8CNMatrixILj26ELj15EdEE, 
                        __ZTIN8cnmatrix8CNMatrixILj26ELj1EbEE, __ZTIN8cnmatrix8CNMatrixILj26ELj1EdEE, 
                        __ZTIN8cnmatrix8CNMatrixILj26ELj1EiEE, __ZTIN8cnmatrix8CNMatrixILj26ELj23EdEE, 
                        __ZTIN8cnmatrix8CNMatrixILj26ELj26EdEE, __ZTIN8cnmatrix8CNMatrixILj26ELj28EdEE, 
                        __ZTIN8cnmatrix8CNMatrixILj26ELj2EdEE, __ZTIN8cnmatrix8CNMatrixILj26ELj49EdEE, 
                        __ZTIN8cnmatrix8CNMatrixILj26ELj6EdEE, __ZTIN8cnmatrix8CNMatrixILj28ELj1EdEE, 
                        __ZTIN8cnmatrix8CNMatrixILj28ELj1EiEE, __ZTIN8cnmatrix8CNMatrixILj28ELj26EdEE, 
                        __ZTIN8cnmatrix8CNMatrixILj28ELj28EdEE, __ZTIN8cnmatrix8CNMatrixILj2ELj1ENS0_ILj8ELj1EdEEEE, 
                        __ZTIN8cnmatrix8CNMatrixILj2ELj1ENS0_ILj8ELj8EdEEEE, __ZTIN8cnmatrix8CNMatrixILj2ELj1EPFiRKNS0_ILj8ELj1EdEES3_PvRS1_RNS0_ILj8ELj8EdEES7_EEE, 
                        __ZTIN8cnmatrix8CNMatrixILj2ELj1EPFiRKNS0_ILj8ELj1EdEES3_dPvRS1_RNS0_ILj8ELj8EdEES7_EEE, 
                        __ZTIN8cnmatrix8CNMatrixILj2ELj1EPvEE, __ZTIN8cnmatrix8CNMatrixILj2ELj1EdEE, 
                        __ZTIN8cnmatrix8CNMatrixILj2ELj1EiEE, __ZTIN8cnmatrix8CNMatrixILj2ELj2EdEE, 
                        __ZTIN8cnmatrix8CNMatrixILj2ELj2EiEE, __ZTIN8cnmatrix8CNMatrixILj2ELj4EdEE, 
                        __ZTIN8cnmatrix8CNMatrixILj308ELj1EdEE, __ZTIN8cnmatrix8CNMatrixILj30ELj1ENS0_ILj30ELj1EdEEEE, 
                        __ZTIN8cnmatrix8CNMatrixILj30ELj1EdEE, __ZTIN8cnmatrix8CNMatrixILj30ELj1EiEE, 
                        __ZTIN8cnmatrix8CNMatrixILj30ELj23EdEE, __ZTIN8cnmatrix8CNMatrixILj30ELj26EdEE, 
                        __ZTIN8cnmatrix8CNMatrixILj30ELj49EdEE, __ZTIN8cnmatrix8CNMatrixILj32ELj1EdEE, 
                        __ZTIN8cnmatrix8CNMatrixILj368ELj1EdEE, __ZTIN8cnmatrix8CNMatrixILj395ELj1EdEE, 
                        __ZTIN8cnmatrix8CNMatrixILj3ELj1ENS0_ILj26ELj1EdEEEE, __ZTIN8cnmatrix8CNMatrixILj3ELj1ENS0_ILj26ELj23EdEEEE, 
                        __ZTIN8cnmatrix8CNMatrixILj3ELj1ENS0_ILj26ELj26EdEEEE, __ZTIN8cnmatrix8CNMatrixILj3ELj1EPFiRKNS0_ILj26ELj1EdEERKNS0_ILj23ELj1EdEEPvRS1_RNS0_ILj26ELj26EdEERNS0_ILj26ELj23EdEEEEE, 
                        __ZTIN8cnmatrix8CNMatrixILj3ELj1EPFiRKNS0_ILj26ELj1EdEES3_dPvRS1_RNS0_ILj26ELj26EdEES7_EEE, 
                        __ZTIN8cnmatrix8CNMatrixILj3ELj1EPvEE, __ZTIN8cnmatrix8CNMatrixILj3ELj1EdEE, 
                        __ZTIN8cnmatrix8CNMatrixILj3ELj1EiEE, __ZTIN8cnmatrix8CNMatrixILj3ELj23EdEE, 
                        __ZTIN8cnmatrix8CNMatrixILj3ELj26EdEE, __ZTIN8cnmatrix8CNMatrixILj3ELj28EdEE, 
                        __ZTIN8cnmatrix8CNMatrixILj3ELj2EdEE, __ZTIN8cnmatrix8CNMatrixILj3ELj2EiEE, 
                        __ZTIN8cnmatrix8CNMatrixILj3ELj3EdEE, __ZTIN8cnmatrix8CNMatrixILj3ELj3EjEE, 
                        __ZTIN8cnmatrix8CNMatrixILj3ELj4EdEE, __ZTIN8cnmatrix8CNMatrixILj3ELj6EdEE, 
                        __ZTIN8cnmatrix8CNMatrixILj3ELj8EdEE, __ZTIN8cnmatrix8CNMatrixILj462ELj16EdEE, 
                        __ZTIN8cnmatrix8CNMatrixILj462ELj1ENS0_ILj462ELj1EdEEEE, 
                        __ZTIN8cnmatrix8CNMatrixILj462ELj1EdEE, __ZTIN8cnmatrix8CNMatrixILj462ELj1EiEE, 
                        __ZTIN8cnmatrix8CNMatrixILj462ELj8EdEE, __ZTIN8cnmatrix8CNMatrixILj46ELj46EdEE, 
                        __ZTIN8cnmatrix8CNMatrixILj470ELj16EdEE, __ZTIN8cnmatrix8CNMatrixILj470ELj1EdEE, 
                        __ZTIN8cnmatrix8CNMatrixILj478ELj16EdEE, __ZTIN8cnmatrix8CNMatrixILj478ELj1EdEE, 
                        __ZTIN8cnmatrix8CNMatrixILj486ELj1EdEE, __ZTIN8cnmatrix8CNMatrixILj49ELj1EdEE, 
                        __ZTIN8cnmatrix8CNMatrixILj49ELj1EiEE, __ZTIN8cnmatrix8CNMatrixILj49ELj49EdEE, 
                        __ZTIN8cnmatrix8CNMatrixILj4ELj1EdEE, __ZTIN8cnmatrix8CNMatrixILj4ELj1EiEE, 
                        __ZTIN8cnmatrix8CNMatrixILj4ELj1EjEE, __ZTIN8cnmatrix8CNMatrixILj4ELj2EdEE, 
                        __ZTIN8cnmatrix8CNMatrixILj4ELj2EjEE, __ZTIN8cnmatrix8CNMatrixILj4ELj3EdEE, 
                        __ZTIN8cnmatrix8CNMatrixILj4ELj4EdEE, __ZTIN8cnmatrix8CNMatrixILj52ELj52EdEE, 
                        __ZTIN8cnmatrix8CNMatrixILj56ELj1EdEE, __ZTIN8cnmatrix8CNMatrixILj56ELj49EdEE, 
                        __ZTIN8cnmatrix8CNMatrixILj6ELj1EdEE, __ZTIN8cnmatrix8CNMatrixILj6ELj1EiEE, 
                        __ZTIN8cnmatrix8CNMatrixILj6ELj6EdEE, __ZTIN8cnmatrix8CNMatrixILj79ELj1EdEE, 
                        __ZTIN8cnmatrix8CNMatrixILj79ELj49EdEE, __ZTIN8cnmatrix8CNMatrixILj7ELj1EdEE, 
                        __ZTIN8cnmatrix8CNMatrixILj7ELj1EiEE, __ZTIN8cnmatrix8CNMatrixILj8996ELj1EdEE, 
                        __ZTIN8cnmatrix8CNMatrixILj8ELj16EdEE, __ZTIN8cnmatrix8CNMatrixILj8ELj1EdEE, 
                        __ZTIN8cnmatrix8CNMatrixILj8ELj1EiEE, __ZTIN8cnmatrix8CNMatrixILj8ELj2EdEE, 
                        __ZTIN8cnmatrix8CNMatrixILj8ELj6EdEE, __ZTIN8cnmatrix8CNMatrixILj8ELj8EdEE, 
                        __ZTIN8cnmatrix8CNMatrixILj92ELj1EdEE, __ZTINSt3__110__back_refIcEE, 
                        __ZTINSt3__110__l_anchorIcEE, __ZTINSt3__110__r_anchorIcEE, 
                        __ZTINSt3__111__alternateIcEE, __ZTINSt3__111__end_stateIcEE, 
                        __ZTINSt3__111__lookaheadIcNS_12regex_traitsIcEEEE, __ZTINSt3__111__match_anyIcEE, 
                        __ZTINSt3__112__match_charIcEE, __ZTINSt3__113__empty_stateIcEE, 
                        __ZTINSt3__113basic_filebufIcNS_11char_traitsIcEEEE, __ZTINSt3__114basic_ifstreamIcNS_11char_traitsIcEEEE, 
                        __ZTINSt3__114basic_ofstreamIcNS_11char_traitsIcEEEE, __ZTINSt3__115__has_one_stateIcEE, 
                        __ZTINSt3__115__word_boundaryIcNS_12regex_traitsIcEEEE, __ZTINSt3__115basic_stringbufIcNS_11char_traitsIcEENS_9allocatorIcEEEE, 
                        __ZTINSt3__116__back_ref_icaseIcNS_12regex_traitsIcEEEE, 
                        __ZTINSt3__116__owns_one_stateIcEE, __ZTINSt3__117__owns_two_statesIcEE, 
                        __ZTINSt3__117__repeat_one_loopIcEE, __ZTINSt3__118__back_ref_collateIcNS_12regex_traitsIcEEEE, 
                        __ZTINSt3__118__match_char_icaseIcNS_12regex_traitsIcEEEE, 
                        __ZTINSt3__118basic_stringstreamIcNS_11char_traitsIcEENS_9allocatorIcEEEE, 
                        __ZTINSt3__120__bracket_expressionIcNS_12regex_traitsIcEEEE, 
                        __ZTINSt3__120__match_char_collateIcNS_12regex_traitsIcEEEE, 
                        __ZTINSt3__120__shared_ptr_pointerIPNS_13__empty_stateIcEENS_14default_deleteIS2_EENS_9allocatorIS2_EEEE, 
                        __ZTINSt3__121__empty_non_own_stateIcEE, __ZTINSt3__123__match_any_but_newlineIcEE, 
                        __ZTINSt3__126__end_marked_subexpressionIcEE, __ZTINSt3__128__begin_marked_subexpressionIcEE, 
                        __ZTINSt3__16__loopIcEE, __ZTINSt3__16__nodeIcEE, __ZTS14CNSerializable, 
                        __ZTSN11cnframework10CNListBaseIPNS_15CNAllocatorBaseIN5raven24RavenMeasurementArgsBaseENS2_21RavenMeasurementTypesEEEEE, 
                        __ZTSN11cnframework11CNAllocatorIN5raven27h_UserAltitudeArgs_RavenPNTIdEENS1_24RavenMeasurementArgsBaseENS1_21RavenMeasurementTypesELj10EEE, 
                        __ZTSN11cnframework11CNAllocatorIN5raven29h_DevicePositionArgs_RavenPNTIdEENS1_24RavenMeasurementArgsBaseENS1_21RavenMeasurementTypesELj10EEE, 
                        __ZTSN11cnframework11CNAllocatorIN5raven29h_DeviceVelocityArgs_RavenPNTIdEENS1_24RavenMeasurementArgsBaseENS1_21RavenMeasurementTypesELj10EEE, 
                        __ZTSN11cnframework11CNAllocatorIN5raven30h_GnssADRArgs_RavenConvergenceENS1_24RavenMeasurementArgsBaseENS1_21RavenMeasurementTypesELj154EEE, 
                        __ZTSN11cnframework11CNAllocatorIN5raven30h_GnssPsrArgs_RavenConvergenceENS1_24RavenMeasurementArgsBaseENS1_21RavenMeasurementTypesELj154EEE, 
                        __ZTSN11cnframework11CNAllocatorIN5raven31h_AltitudeArgs_RavenConvergenceENS1_24RavenMeasurementArgsBaseENS1_21RavenMeasurementTypesELj154EEE, 
                        __ZTSN11cnframework11CNAllocatorIN5raven31h_PositionArgs_RavenConvergenceENS1_24RavenMeasurementArgsBaseENS1_21RavenMeasurementTypesELj154EEE, 
                        __ZTSN11cnframework11CNAllocatorIN5raven31h_VelocityArgs_RavenConvergenceENS1_24RavenMeasurementArgsBaseENS1_21RavenMeasurementTypesELj154EEE, 
                        __ZTSN11cnframework11CNAllocatorIN5raven34h_GnssDopplerArgs_RavenConvergenceENS1_24RavenMeasurementArgsBaseENS1_21RavenMeasurementTypesELj154EEE, 
                        __ZTSN11cnframework11CNAllocatorIN5raven35h_DeviceAltitudeChangeArgs_RavenPNTIdEENS1_24RavenMeasurementArgsBaseENS1_21RavenMeasurementTypesELj10EEE, 
                        __ZTSN11cnframework11CNAllocatorIN5raven37h_AltitudeChangeArgs_RavenConvergenceIdEENS1_24RavenMeasurementArgsBaseENS1_21RavenMeasurementTypesELj154EEE, 
                        __ZTSN11cnframework11CNAllocatorIN5raven43h_DeviceUserPositionDifferenceArgs_RavenPNTIdEENS1_24RavenMeasurementArgsBaseENS1_21RavenMeasurementTypesELj10EEE, 
                        __ZTSN11cnframework11CNAllocatorIN5raven49h_HorizontalDistanceTraveledArgs_RavenConvergenceIdEENS1_24RavenMeasurementArgsBaseENS1_21RavenMeasurementTypesELj154EEE, 
                        __ZTSN11cnframework11CNAllocatorIN5raven50h_MapVectorPositionConstraintArgs_RavenConvergenceENS1_24RavenMeasurementArgsBaseENS1_21RavenMeasurementTypesELj154EEE, 
                        __ZTSN11cnframework11CNAllocatorIN5raven50h_MapVectorVelocityConstraintArgs_RavenConvergenceENS1_24RavenMeasurementArgsBaseENS1_21RavenMeasurementTypesELj154EEE, 
                        __ZTSN11cnframework15CNAllocatorBaseIN5raven24RavenMeasurementArgsBaseENS1_21RavenMeasurementTypesEEE, 
                        __ZTSN11cnframework22CNAllocatorGetTypeBaseIN5raven21RavenMeasurementTypesEEE, 
                        __ZTSN11cnframework25CNAllocatorDeallocateBaseE, __ZTSN11cnframework27CNAllocatorItemAllocateBaseIN5raven24RavenMeasurementArgsBaseEEE, 
                        __ZTSN11cnframework6CNListIPNS_15CNAllocatorBaseIN5raven24RavenMeasurementArgsBaseENS2_21RavenMeasurementTypesEEELj100ELb1EEE, 
                        __ZTSN11cnframework6CNListIPNS_15CNAllocatorBaseIN5raven24RavenMeasurementArgsBaseENS2_21RavenMeasurementTypesEEELj23716ELb1EEE, 
                        __ZTSN12cnestimation11WahbaSolverIdEE, __ZTSN12cnestimation12WahbaOptionsIdEE, 
                        __ZTSN12cnestimation16TimedMeasurementIN5raven19RateGyroMeasurementEEE, 
                        __ZTSN12cnestimation16TimedMeasurementIN5raven24AccelerometerMeasurementEEE, 
                        __ZTSN12cnestimation18PeriodicityTracker8DFTPointE, __ZTSN12cnestimation19LeastSquaresOptionsILj26ELj3ELj3ELj10EdEE, 
                        __ZTSN12cnestimation19LeastSquaresOptionsILj8ELj3ELj3ELj154EdEE, 
                        __ZTSN12cnestimation21DiscreteEventDetectorIdEE, __ZTSN12cnestimation21LeastSquaresEstimatorILj26ELj3ELj3ELj10EdEE, 
                        __ZTSN12cnestimation21LeastSquaresEstimatorILj8ELj3ELj3ELj154EdEE, 
                        __ZTSN12cnestimation21TimedMeasurementCacheILj350EN5raven19RateGyroMeasurementEEE, 
                        __ZTSN12cnestimation21TimedMeasurementCacheILj350EN5raven24AccelerometerMeasurementEEE, 
                        __ZTSN12cnestimation24EstimatorFailureDetectorIdEE, __ZTSN12cnestimation25TimedMeasurementCacheBaseIN5raven19RateGyroMeasurementEEE, 
                        __ZTSN12cnestimation25TimedMeasurementCacheBaseIN5raven24AccelerometerMeasurementEEE, 
                        __ZTSN12cnestimation27SquareRootInformationFilterILj26ELj23ELj3ELj3ELj3ELj10ELj3EdEE, 
                        __ZTSN12cnestimation27SquareRootInformationFilterILj8ELj8ELj2ELj3ELj3ELj154ELj2EdEE, 
                        __ZTSN12cnestimation34SquareRootInformationFilterOptionsILj26ELj23ELj3ELj3ELj3ELj10ELj3EdEE, 
                        __ZTSN12cnestimation34SquareRootInformationFilterOptionsILj8ELj8ELj2ELj3ELj3ELj154ELj2EdEE, 
                        __ZTSN12cnnavigation12GravityModelE, __ZTSN12cnnavigation13MagneticModelE, 
                        __ZTSN12cnnavigation15GNSSSatelliteIDE, __ZTSN12cnnavigation15IonosphereModelE, 
                        __ZTSN12cnnavigation16GPSUTCParametersE, __ZTSN12cnnavigation16TroposphereModelE, 
                        __ZTSN12cnnavigation17ECEFToENUJacobianE, __ZTSN12cnnavigation17ENUToECEFJacobianE, 
                        __ZTSN12cnnavigation24KlobucharModelParametersE, __ZTSN12cnnavigation30SphericalHarmonicsGravityModelILj10EEE, 
                        __ZTSN12cnnavigation39ParameterizedTroposphereModelParametersE, 
                        __ZTSN12cnnavigation40SphericalHarmonicsGravityModelParametersILj10EEE, 
                        __ZTSN12cnnavigation7TAITimeE, __ZTSN12cnnavigation7details12JacobianBaseE, 
                        __ZTSN13cnintegration16CNIntegratorBaseI6CNTimeLj19ELj15EdEE, 
                        __ZTSN13cnintegration16CNIntegratorBaseI6CNTimeLj4ELj3EdEE, 
                        __ZTSN13cnintegration31FourthOrderRungeKuttaIntegratorI6CNTimeLj19ELj15EdEE, 
                        __ZTSN13cnintegration31FourthOrderRungeKuttaIntegratorI6CNTimeLj4ELj3EdEE, 
                        __ZTSN20cnframeworknothreads14SupervisorBaseINSt3__15tupleIJPN5raven42RavenAccelerationDecompositionActiveObjectEPNS3_39RavenActivityStateEstimatorActiveObjectEPNS3_31RavenCoarseOdometerActiveObjectEPNS3_37RavenConvergenceEstimatorActiveObjectEPNS3_30RavenDeltaAltitudeActiveObjectEPNS3_33RavenGnssPreprocessorActiveObjectEPNS3_32RavenIMUPreprocessorActiveObjectEPNS3_35RavenIntegrityEstimatorActiveObjectEPNS3_36RavenMountStateEstimatorActiveObjectEPNS3_37RavenMovingStateEstimatorActiveObjectEPNS3_37RavenPassThroughEstimatorActiveObjectEPNS3_35RavenPeriodicityTrackerActiveObjectEPNS3_29RavenPNTEstimatorActiveObjectEPNS3_34RavenPressurePrefilterActiveObjectEPNS3_22RavenRinexActiveObjectEPNS3_25RavenSolutionActiveObjectEEEEEE, 
                        __ZTSN20cnframeworknothreads16ActiveObjectBaseE, __ZTSN20cnframeworknothreads20TimeStampedEventBaseE, 
                        __ZTSN20cnframeworknothreads25ActiveObjectBaseTemplatedINS_14SupervisorBaseINSt3__15tupleIJPN5raven42RavenAccelerationDecompositionActiveObjectEPNS4_39RavenActivityStateEstimatorActiveObjectEPNS4_31RavenCoarseOdometerActiveObjectEPNS4_37RavenConvergenceEstimatorActiveObjectEPNS4_30RavenDeltaAltitudeActiveObjectEPNS4_33RavenGnssPreprocessorActiveObjectEPNS4_32RavenIMUPreprocessorActiveObjectEPNS4_35RavenIntegrityEstimatorActiveObjectEPNS4_36RavenMountStateEstimatorActiveObjectEPNS4_37RavenMovingStateEstimatorActiveObjectEPNS4_37RavenPassThroughEstimatorActiveObjectEPNS4_35RavenPeriodicityTrackerActiveObjectEPNS4_29RavenPNTEstimatorActiveObjectEPNS4_34RavenPressurePrefilterActiveObjectEPNS4_22RavenRinexActiveObjectEPNS4_25RavenSolutionActiveObjectEEEEEEE12EventHandlerINS4_29PrefilteredPressureResetEventES5_EE, 
                        __ZTSN20cnframeworknothreads25ActiveObjectBaseTemplatedINS_14SupervisorBaseINSt3__15tupleIJPN5raven42RavenAccelerationDecompositionActiveObjectEPNS4_39RavenActivityStateEstimatorActiveObjectEPNS4_31RavenCoarseOdometerActiveObjectEPNS4_37RavenConvergenceEstimatorActiveObjectEPNS4_30RavenDeltaAltitudeActiveObjectEPNS4_33RavenGnssPreprocessorActiveObjectEPNS4_32RavenIMUPreprocessorActiveObjectEPNS4_35RavenIntegrityEstimatorActiveObjectEPNS4_36RavenMountStateEstimatorActiveObjectEPNS4_37RavenMovingStateEstimatorActiveObjectEPNS4_37RavenPassThroughEstimatorActiveObjectEPNS4_35RavenPeriodicityTrackerActiveObjectEPNS4_29RavenPNTEstimatorActiveObjectEPNS4_34RavenPressurePrefilterActiveObjectEPNS4_22RavenRinexActiveObjectEPNS4_25RavenSolutionActiveObjectEEEEEEE12EventHandlerINS4_29PrefilteredPressureResetEventES7_EE, 
                        __ZTSN20cnframeworknothreads25ActiveObjectBaseTemplatedINS_14SupervisorBaseINSt3__15tupleIJPN5raven42RavenAccelerationDecompositionActiveObjectEPNS4_39RavenActivityStateEstimatorActiveObjectEPNS4_31RavenCoarseOdometerActiveObjectEPNS4_37RavenConvergenceEstimatorActiveObjectEPNS4_30RavenDeltaAltitudeActiveObjectEPNS4_33RavenGnssPreprocessorActiveObjectEPNS4_32RavenIMUPreprocessorActiveObjectEPNS4_35RavenIntegrityEstimatorActiveObjectEPNS4_36RavenMountStateEstimatorActiveObjectEPNS4_37RavenMovingStateEstimatorActiveObjectEPNS4_37RavenPassThroughEstimatorActiveObjectEPNS4_35RavenPeriodicityTrackerActiveObjectEPNS4_29RavenPNTEstimatorActiveObjectEPNS4_34RavenPressurePrefilterActiveObjectEPNS4_22RavenRinexActiveObjectEPNS4_25RavenSolutionActiveObjectEEEEEEE12EventHandlerINS4_29PrefilteredPressureResetEventES9_EE, 
                        __ZTSN20cnframeworknothreads25ActiveObjectBaseTemplatedINS_14SupervisorBaseINSt3__15tupleIJPN5raven42RavenAccelerationDecompositionActiveObjectEPNS4_39RavenActivityStateEstimatorActiveObjectEPNS4_31RavenCoarseOdometerActiveObjectEPNS4_37RavenConvergenceEstimatorActiveObjectEPNS4_30RavenDeltaAltitudeActiveObjectEPNS4_33RavenGnssPreprocessorActiveObjectEPNS4_32RavenIMUPreprocessorActiveObjectEPNS4_35RavenIntegrityEstimatorActiveObjectEPNS4_36RavenMountStateEstimatorActiveObjectEPNS4_37RavenMovingStateEstimatorActiveObjectEPNS4_37RavenPassThroughEstimatorActiveObjectEPNS4_35RavenPeriodicityTrackerActiveObjectEPNS4_29RavenPNTEstimatorActiveObjectEPNS4_34RavenPressurePrefilterActiveObjectEPNS4_22RavenRinexActiveObjectEPNS4_25RavenSolutionActiveObjectEEEEEEE12EventHandlerINS4_29PrefilteredPressureResetEventESB_EE, 
                        __ZTSN20cnframeworknothreads25ActiveObjectBaseTemplatedINS_14SupervisorBaseINSt3__15tupleIJPN5raven42RavenAccelerationDecompositionActiveObjectEPNS4_39RavenActivityStateEstimatorActiveObjectEPNS4_31RavenCoarseOdometerActiveObjectEPNS4_37RavenConvergenceEstimatorActiveObjectEPNS4_30RavenDeltaAltitudeActiveObjectEPNS4_33RavenGnssPreprocessorActiveObjectEPNS4_32RavenIMUPreprocessorActiveObjectEPNS4_35RavenIntegrityEstimatorActiveObjectEPNS4_36RavenMountStateEstimatorActiveObjectEPNS4_37RavenMovingStateEstimatorActiveObjectEPNS4_37RavenPassThroughEstimatorActiveObjectEPNS4_35RavenPeriodicityTrackerActiveObjectEPNS4_29RavenPNTEstimatorActiveObjectEPNS4_34RavenPressurePrefilterActiveObjectEPNS4_22RavenRinexActiveObjectEPNS4_25RavenSolutionActiveObjectEEEEEEE12EventHandlerINS4_29PrefilteredPressureResetEventESD_EE, 
                        __ZTSN20cnframeworknothreads25ActiveObjectBaseTemplatedINS_14SupervisorBaseINSt3__15tupleIJPN5raven42RavenAccelerationDecompositionActiveObjectEPNS4_39RavenActivityStateEstimatorActiveObjectEPNS4_31RavenCoarseOdometerActiveObjectEPNS4_37RavenConvergenceEstimatorActiveObjectEPNS4_30RavenDeltaAltitudeActiveObjectEPNS4_33RavenGnssPreprocessorActiveObjectEPNS4_32RavenIMUPreprocessorActiveObjectEPNS4_35RavenIntegrityEstimatorActiveObjectEPNS4_36RavenMountStateEstimatorActiveObjectEPNS4_37RavenMovingStateEstimatorActiveObjectEPNS4_37RavenPassThroughEstimatorActiveObjectEPNS4_35RavenPeriodicityTrackerActiveObjectEPNS4_29RavenPNTEstimatorActiveObjectEPNS4_34RavenPressurePrefilterActiveObjectEPNS4_22RavenRinexActiveObjectEPNS4_25RavenSolutionActiveObjectEEEEEEE12EventHandlerINS4_29PrefilteredPressureResetEventESF_EE, 
                        __ZTSN20cnframeworknothreads25ActiveObjectBaseTemplatedINS_14SupervisorBaseINSt3__15tupleIJPN5raven42RavenAccelerationDecompositionActiveObjectEPNS4_39RavenActivityStateEstimatorActiveObjectEPNS4_31RavenCoarseOdometerActiveObjectEPNS4_37RavenConvergenceEstimatorActiveObjectEPNS4_30RavenDeltaAltitudeActiveObjectEPNS4_33RavenGnssPreprocessorActiveObjectEPNS4_32RavenIMUPreprocessorActiveObjectEPNS4_35RavenIntegrityEstimatorActiveObjectEPNS4_36RavenMountStateEstimatorActiveObjectEPNS4_37RavenMovingStateEstimatorActiveObjectEPNS4_37RavenPassThroughEstimatorActiveObjectEPNS4_35RavenPeriodicityTrackerActiveObjectEPNS4_29RavenPNTEstimatorActiveObjectEPNS4_34RavenPressurePrefilterActiveObjectEPNS4_22RavenRinexActiveObjectEPNS4_25RavenSolutionActiveObjectEEEEEEE12EventHandlerINS4_29PrefilteredPressureResetEventESH_EE, 
                        __ZTSN20cnframeworknothreads25ActiveObjectBaseTemplatedINS_14SupervisorBaseINSt3__15tupleIJPN5raven42RavenAccelerationDecompositionActiveObjectEPNS4_39RavenActivityStateEstimatorActiveObjectEPNS4_31RavenCoarseOdometerActiveObjectEPNS4_37RavenConvergenceEstimatorActiveObjectEPNS4_30RavenDeltaAltitudeActiveObjectEPNS4_33RavenGnssPreprocessorActiveObjectEPNS4_32RavenIMUPreprocessorActiveObjectEPNS4_35RavenIntegrityEstimatorActiveObjectEPNS4_36RavenMountStateEstimatorActiveObjectEPNS4_37RavenMovingStateEstimatorActiveObjectEPNS4_37RavenPassThroughEstimatorActiveObjectEPNS4_35RavenPeriodicityTrackerActiveObjectEPNS4_29RavenPNTEstimatorActiveObjectEPNS4_34RavenPressurePrefilterActiveObjectEPNS4_22RavenRinexActiveObjectEPNS4_25RavenSolutionActiveObjectEEEEEEE12EventHandlerINS4_29PrefilteredPressureResetEventESJ_EE, 
                        __ZTSN20cnframeworknothreads25ActiveObjectBaseTemplatedINS_14SupervisorBaseINSt3__15tupleIJPN5raven42RavenAccelerationDecompositionActiveObjectEPNS4_39RavenActivityStateEstimatorActiveObjectEPNS4_31RavenCoarseOdometerActiveObjectEPNS4_37RavenConvergenceEstimatorActiveObjectEPNS4_30RavenDeltaAltitudeActiveObjectEPNS4_33RavenGnssPreprocessorActiveObjectEPNS4_32RavenIMUPreprocessorActiveObjectEPNS4_35RavenIntegrityEstimatorActiveObjectEPNS4_36RavenMountStateEstimatorActiveObjectEPNS4_37RavenMovingStateEstimatorActiveObjectEPNS4_37RavenPassThroughEstimatorActiveObjectEPNS4_35RavenPeriodicityTrackerActiveObjectEPNS4_29RavenPNTEstimatorActiveObjectEPNS4_34RavenPressurePrefilterActiveObjectEPNS4_22RavenRinexActiveObjectEPNS4_25RavenSolutionActiveObjectEEEEEEE12EventHandlerINS4_29PrefilteredPressureResetEventESL_EE, 
                        __ZTSN20cnframeworknothreads25ActiveObjectBaseTemplatedINS_14SupervisorBaseINSt3__15tupleIJPN5raven42RavenAccelerationDecompositionActiveObjectEPNS4_39RavenActivityStateEstimatorActiveObjectEPNS4_31RavenCoarseOdometerActiveObjectEPNS4_37RavenConvergenceEstimatorActiveObjectEPNS4_30RavenDeltaAltitudeActiveObjectEPNS4_33RavenGnssPreprocessorActiveObjectEPNS4_32RavenIMUPreprocessorActiveObjectEPNS4_35RavenIntegrityEstimatorActiveObjectEPNS4_36RavenMountStateEstimatorActiveObjectEPNS4_37RavenMovingStateEstimatorActiveObjectEPNS4_37RavenPassThroughEstimatorActiveObjectEPNS4_35RavenPeriodicityTrackerActiveObjectEPNS4_29RavenPNTEstimatorActiveObjectEPNS4_34RavenPressurePrefilterActiveObjectEPNS4_22RavenRinexActiveObjectEPNS4_25RavenSolutionActiveObjectEEEEEEE12EventHandlerINS4_29PrefilteredPressureResetEventESN_EE, 
                        __ZTSN20cnframeworknothreads25ActiveObjectBaseTemplatedINS_14SupervisorBaseINSt3__15tupleIJPN5raven42RavenAccelerationDecompositionActiveObjectEPNS4_39RavenActivityStateEstimatorActiveObjectEPNS4_31RavenCoarseOdometerActiveObjectEPNS4_37RavenConvergenceEstimatorActiveObjectEPNS4_30RavenDeltaAltitudeActiveObjectEPNS4_33RavenGnssPreprocessorActiveObjectEPNS4_32RavenIMUPreprocessorActiveObjectEPNS4_35RavenIntegrityEstimatorActiveObjectEPNS4_36RavenMountStateEstimatorActiveObjectEPNS4_37RavenMovingStateEstimatorActiveObjectEPNS4_37RavenPassThroughEstimatorActiveObjectEPNS4_35RavenPeriodicityTrackerActiveObjectEPNS4_29RavenPNTEstimatorActiveObjectEPNS4_34RavenPressurePrefilterActiveObjectEPNS4_22RavenRinexActiveObjectEPNS4_25RavenSolutionActiveObjectEEEEEEE12EventHandlerINS4_29PrefilteredPressureResetEventESP_EE, 
                        __ZTSN20cnframeworknothreads25ActiveObjectBaseTemplatedINS_14SupervisorBaseINSt3__15tupleIJPN5raven42RavenAccelerationDecompositionActiveObjectEPNS4_39RavenActivityStateEstimatorActiveObjectEPNS4_31RavenCoarseOdometerActiveObjectEPNS4_37RavenConvergenceEstimatorActiveObjectEPNS4_30RavenDeltaAltitudeActiveObjectEPNS4_33RavenGnssPreprocessorActiveObjectEPNS4_32RavenIMUPreprocessorActiveObjectEPNS4_35RavenIntegrityEstimatorActiveObjectEPNS4_36RavenMountStateEstimatorActiveObjectEPNS4_37RavenMovingStateEstimatorActiveObjectEPNS4_37RavenPassThroughEstimatorActiveObjectEPNS4_35RavenPeriodicityTrackerActiveObjectEPNS4_29RavenPNTEstimatorActiveObjectEPNS4_34RavenPressurePrefilterActiveObjectEPNS4_22RavenRinexActiveObjectEPNS4_25RavenSolutionActiveObjectEEEEEEE12EventHandlerINS4_29PrefilteredPressureResetEventESR_EE, 
                        __ZTSN20cnframeworknothreads25ActiveObjectBaseTemplatedINS_14SupervisorBaseINSt3__15tupleIJPN5raven42RavenAccelerationDecompositionActiveObjectEPNS4_39RavenActivityStateEstimatorActiveObjectEPNS4_31RavenCoarseOdometerActiveObjectEPNS4_37RavenConvergenceEstimatorActiveObjectEPNS4_30RavenDeltaAltitudeActiveObjectEPNS4_33RavenGnssPreprocessorActiveObjectEPNS4_32RavenIMUPreprocessorActiveObjectEPNS4_35RavenIntegrityEstimatorActiveObjectEPNS4_36RavenMountStateEstimatorActiveObjectEPNS4_37RavenMovingStateEstimatorActiveObjectEPNS4_37RavenPassThroughEstimatorActiveObjectEPNS4_35RavenPeriodicityTrackerActiveObjectEPNS4_29RavenPNTEstimatorActiveObjectEPNS4_34RavenPressurePrefilterActiveObjectEPNS4_22RavenRinexActiveObjectEPNS4_25RavenSolutionActiveObjectEEEEEEE12EventHandlerINS4_29PrefilteredPressureResetEventEST_EE, 
                        __ZTSN20cnframeworknothreads25ActiveObjectBaseTemplatedINS_14SupervisorBaseINSt3__15tupleIJPN5raven42RavenAccelerationDecompositionActiveObjectEPNS4_39RavenActivityStateEstimatorActiveObjectEPNS4_31RavenCoarseOdometerActiveObjectEPNS4_37RavenConvergenceEstimatorActiveObjectEPNS4_30RavenDeltaAltitudeActiveObjectEPNS4_33RavenGnssPreprocessorActiveObjectEPNS4_32RavenIMUPreprocessorActiveObjectEPNS4_35RavenIntegrityEstimatorActiveObjectEPNS4_36RavenMountStateEstimatorActiveObjectEPNS4_37RavenMovingStateEstimatorActiveObjectEPNS4_37RavenPassThroughEstimatorActiveObjectEPNS4_35RavenPeriodicityTrackerActiveObjectEPNS4_29RavenPNTEstimatorActiveObjectEPNS4_34RavenPressurePrefilterActiveObjectEPNS4_22RavenRinexActiveObjectEPNS4_25RavenSolutionActiveObjectEEEEEEE12EventHandlerINS4_29PrefilteredPressureResetEventESV_EE, 
                        __ZTSN20cnframeworknothreads25ActiveObjectBaseTemplatedINS_14SupervisorBaseINSt3__15tupleIJPN5raven42RavenAccelerationDecompositionActiveObjectEPNS4_39RavenActivityStateEstimatorActiveObjectEPNS4_31RavenCoarseOdometerActiveObjectEPNS4_37RavenConvergenceEstimatorActiveObjectEPNS4_30RavenDeltaAltitudeActiveObjectEPNS4_33RavenGnssPreprocessorActiveObjectEPNS4_32RavenIMUPreprocessorActiveObjectEPNS4_35RavenIntegrityEstimatorActiveObjectEPNS4_36RavenMountStateEstimatorActiveObjectEPNS4_37RavenMovingStateEstimatorActiveObjectEPNS4_37RavenPassThroughEstimatorActiveObjectEPNS4_35RavenPeriodicityTrackerActiveObjectEPNS4_29RavenPNTEstimatorActiveObjectEPNS4_34RavenPressurePrefilterActiveObjectEPNS4_22RavenRinexActiveObjectEPNS4_25RavenSolutionActiveObjectEEEEEEE12EventHandlerINS4_29PrefilteredPressureResetEventESX_EE, 
                        __ZTSN20cnframeworknothreads25ActiveObjectBaseTemplatedINS_14SupervisorBaseINSt3__15tupleIJPN5raven42RavenAccelerationDecompositionActiveObjectEPNS4_39RavenActivityStateEstimatorActiveObjectEPNS4_31RavenCoarseOdometerActiveObjectEPNS4_37RavenConvergenceEstimatorActiveObjectEPNS4_30RavenDeltaAltitudeActiveObjectEPNS4_33RavenGnssPreprocessorActiveObjectEPNS4_32RavenIMUPreprocessorActiveObjectEPNS4_35RavenIntegrityEstimatorActiveObjectEPNS4_36RavenMountStateEstimatorActiveObjectEPNS4_37RavenMovingStateEstimatorActiveObjectEPNS4_37RavenPassThroughEstimatorActiveObjectEPNS4_35RavenPeriodicityTrackerActiveObjectEPNS4_29RavenPNTEstimatorActiveObjectEPNS4_34RavenPressurePrefilterActiveObjectEPNS4_22RavenRinexActiveObjectEPNS4_25RavenSolutionActiveObjectEEEEEEE12EventHandlerINS4_29PrefilteredPressureResetEventESZ_EE, 
                        __ZTSN20cnframeworknothreads25ActiveObjectBaseTemplatedINS_14SupervisorBaseINSt3__15tupleIJPN5raven42RavenAccelerationDecompositionActiveObjectEPNS4_39RavenActivityStateEstimatorActiveObjectEPNS4_31RavenCoarseOdometerActiveObjectEPNS4_37RavenConvergenceEstimatorActiveObjectEPNS4_30RavenDeltaAltitudeActiveObjectEPNS4_33RavenGnssPreprocessorActiveObjectEPNS4_32RavenIMUPreprocessorActiveObjectEPNS4_35RavenIntegrityEstimatorActiveObjectEPNS4_36RavenMountStateEstimatorActiveObjectEPNS4_37RavenMovingStateEstimatorActiveObjectEPNS4_37RavenPassThroughEstimatorActiveObjectEPNS4_35RavenPeriodicityTrackerActiveObjectEPNS4_29RavenPNTEstimatorActiveObjectEPNS4_34RavenPressurePrefilterActiveObjectEPNS4_22RavenRinexActiveObjectEPNS4_25RavenSolutionActiveObjectEEEEEEE16EventHandlerBaseE, 
                        __ZTSN20cnframeworknothreads25ActiveObjectBaseTemplatedINS_14SupervisorBaseINSt3__15tupleIJPN5raven42RavenAccelerationDecompositionActiveObjectEPNS4_39RavenActivityStateEstimatorActiveObjectEPNS4_31RavenCoarseOdometerActiveObjectEPNS4_37RavenConvergenceEstimatorActiveObjectEPNS4_30RavenDeltaAltitudeActiveObjectEPNS4_33RavenGnssPreprocessorActiveObjectEPNS4_32RavenIMUPreprocessorActiveObjectEPNS4_35RavenIntegrityEstimatorActiveObjectEPNS4_36RavenMountStateEstimatorActiveObjectEPNS4_37RavenMovingStateEstimatorActiveObjectEPNS4_37RavenPassThroughEstimatorActiveObjectEPNS4_35RavenPeriodicityTrackerActiveObjectEPNS4_29RavenPNTEstimatorActiveObjectEPNS4_34RavenPressurePrefilterActiveObjectEPNS4_22RavenRinexActiveObjectEPNS4_25RavenSolutionActiveObjectEEEEEEEE, 
                        __ZTSN4swan29BatchedGNSSDataSmootherConfigE, __ZTSN5boost16bad_lexical_castE, 
                        __ZTSN5boost16exception_detail10clone_baseE, __ZTSN5boost16exception_detail10clone_implINS0_19error_info_injectorINS_16bad_lexical_castEEEEE, 
                        __ZTSN5boost16exception_detail19error_info_injectorINS_16bad_lexical_castEEE, 
                        __ZTSN5boost6detail16basic_pointerbufIcNSt3__115basic_streambufIcNS2_11char_traitsIcEEEEEE, 
                        __ZTSN5boost6detail17basic_unlockedbufINSt3__115basic_streambufIcNS2_11char_traitsIcEEEEcEE, 
                        __ZTSN5boost9exceptionE, __ZTSN5raven10TimerEventE, __ZTSN5raven11RavenStatusE, 
                        __ZTSN5raven13AltitudeEventE, __ZTSN5raven13AttitudeEventE, 
                        __ZTSN5raven13OdometerEventE, __ZTSN5raven13PositionEventE, 
                        __ZTSN5raven13RateGyroEventE, __ZTSN5raven13RavenSolutionE, 
                        __ZTSN5raven13VelocityEventE, __ZTSN5raven14BarometerEventE, 
                        __ZTSN5raven14MapVectorEventE, __ZTSN5raven14RavenMapVectorE, 
                        __ZTSN5raven14RinexDataEventE, __ZTSN5raven15MountStateEventE, 
                        __ZTSN5raven15RavenMountStateE, __ZTSN5raven16MovingStateEventE, 
                        __ZTSN5raven16RavenMovingStateE, __ZTSN5raven16RavenSystemEventE, 
                        __ZTSN5raven17SvPositioningDataE, __ZTSN5raven18AccelerometerEventE, 
                        __ZTSN5raven18ActivityStateEventE, __ZTSN5raven18RavenActivityStateE, 
                        __ZTSN5raven18RavenSolutionEventE, __ZTSN5raven19AltitudeChangeEventE, 
                        __ZTSN5raven19RateGyroMeasurementE, __ZTSN5raven19h_ArgsBase_RavenPNTIdEE, 
                        __ZTSN5raven20GpsSvPositioningDataE, __ZTSN5raven22RavenRinexActiveObjectE, 
                        __ZTSN5raven24AccelerometerMeasurementE, __ZTSN5raven24GlonassSvPositioningDataE, 
                        __ZTSN5raven24GnssMeasurementDataEventE, __ZTSN5raven24RavenMeasurementArgsBaseE, 
                        __ZTSN5raven25PrefilteredBarometerEventE, __ZTSN5raven25RavenSolutionActiveObjectE, 
                        __ZTSN5raven27DecomposedAccelerationEventE, __ZTSN5raven27h_UserAltitudeArgs_RavenPNTIdEE, 
                        __ZTSN5raven29PrefilteredPressureResetEventE, __ZTSN5raven29RavenPNTEstimatorActiveObjectE, 
                        __ZTSN5raven29h_DevicePositionArgs_RavenPNTIdEE, __ZTSN5raven29h_DeviceVelocityArgs_RavenPNTIdEE, 
                        __ZTSN5raven30RavenDeltaAltitudeActiveObjectE, __ZTSN5raven30SignalPeriodicityAnalysisEventE, 
                        __ZTSN5raven30h_GnssADRArgs_RavenConvergenceE, __ZTSN5raven30h_GnssPsrArgs_RavenConvergenceE, 
                        __ZTSN5raven31RavenCoarseOdometerActiveObjectE, __ZTSN5raven31h_AltitudeArgs_RavenConvergenceE, 
                        __ZTSN5raven31h_PositionArgs_RavenConvergenceE, __ZTSN5raven31h_VelocityArgs_RavenConvergenceE, 
                        __ZTSN5raven32RavenIMUPreprocessorActiveObjectE, __ZTSN5raven33GnssPreprocessedMeasurementsEventE, 
                        __ZTSN5raven33RavenGnssPreprocessorActiveObjectE, __ZTSN5raven34RavenPressurePrefilterActiveObjectE, 
                        __ZTSN5raven34h_GnssDopplerArgs_RavenConvergenceE, __ZTSN5raven35RavenIntegrityEstimatorActiveObjectE, 
                        __ZTSN5raven35RavenPeriodicityTrackerActiveObjectE, __ZTSN5raven35h_DeviceAltitudeChangeArgs_RavenPNTIdEE, 
                        __ZTSN5raven36RavenMountStateEstimatorActiveObjectE, __ZTSN5raven37RavenConvergenceEstimatorActiveObjectE, 
                        __ZTSN5raven37RavenMovingStateEstimatorActiveObjectE, __ZTSN5raven37RavenPassThroughEstimatorActiveObjectE, 
                        __ZTSN5raven37h_AltitudeChangeArgs_RavenConvergenceIdEE, 
                        __ZTSN5raven39RavenActivityStateEstimatorActiveObjectE, __ZTSN5raven42RavenAccelerationDecompositionActiveObjectE, 
                        __ZTSN5raven43h_DeviceUserPositionDifferenceArgs_RavenPNTIdEE, 
                        __ZTSN5raven49h_HorizontalDistanceTraveledArgs_RavenConvergenceIdEE, 
                        __ZTSN5raven50h_MapVectorPositionConstraintArgs_RavenConvergenceE, 
                        __ZTSN5raven50h_MapVectorVelocityConstraintArgs_RavenConvergenceE, 
                        __ZTSN5raven9RavenTimeE, __ZTSN7cntimer11CNTimerBaseE, __ZTSN8cnconfig12ConfigLoaderILj1024EEE, 
                        __ZTSN8cnconfig12ConfigLoaderILj256EEE, __ZTSN8cnmatrix11CNSubMatrixILj16ELj1ELj16ELj1EdEE, 
                        __ZTSN8cnmatrix11CNSubMatrixILj1ELj1ELj1ELj3EdEE, __ZTSN8cnmatrix11CNSubMatrixILj1ELj1ELj26ELj1EdEE, 
                        __ZTSN8cnmatrix11CNSubMatrixILj1ELj1ELj3ELj1EdEE, __ZTSN8cnmatrix11CNSubMatrixILj23ELj1ELj23ELj1EdEE, 
                        __ZTSN8cnmatrix11CNSubMatrixILj23ELj1ELj26ELj1EdEE, __ZTSN8cnmatrix11CNSubMatrixILj26ELj1ELj1ELj1EdEE, 
                        __ZTSN8cnmatrix11CNSubMatrixILj26ELj1ELj23ELj1EdEE, __ZTSN8cnmatrix11CNSubMatrixILj26ELj1ELj26ELj1EdEE, 
                        __ZTSN8cnmatrix11CNSubMatrixILj2ELj1ELj2ELj1EdEE, __ZTSN8cnmatrix11CNSubMatrixILj3ELj1ELj1ELj1EdEE, 
                        __ZTSN8cnmatrix11CNSubMatrixILj3ELj1ELj23ELj1EdEE, __ZTSN8cnmatrix11CNSubMatrixILj3ELj1ELj26ELj1EdEE, 
                        __ZTSN8cnmatrix11CNSubMatrixILj3ELj1ELj3ELj1EdEE, __ZTSN8cnmatrix11CNSubMatrixILj3ELj1ELj8ELj1EdEE, 
                        __ZTSN8cnmatrix11CNSubMatrixILj49ELj1ELj49ELj1EdEE, __ZTSN8cnmatrix11CNSubMatrixILj4ELj1ELj1ELj1EdEE, 
                        __ZTSN8cnmatrix11CNSubMatrixILj4ELj1ELj3ELj1EdEE, __ZTSN8cnmatrix11CNSubMatrixILj4ELj1ELj4ELj1EdEE, 
                        __ZTSN8cnmatrix11CNSubMatrixILj6ELj1ELj6ELj1EdEE, __ZTSN8cnmatrix11CNSubMatrixILj8ELj1ELj8ELj1EdEE, 
                        __ZTSN8cnmatrix11CNSubVectorILj100ELj1E6CNTimeEE, __ZTSN8cnmatrix11CNSubVectorILj100ELj1EN11cnframework17CNAllocatorHandleEEE, 
                        __ZTSN8cnmatrix11CNSubVectorILj100ELj1ENS_8CNMatrixILj3ELj1EdEEEE, 
                        __ZTSN8cnmatrix11CNSubVectorILj100ELj1ENS_8CNMatrixILj3ELj3EdEEEE, 
                        __ZTSN8cnmatrix11CNSubVectorILj100ELj1EPFiRKNS_8CNMatrixILj26ELj1EdEERKNS1_ILj3ELj1EdEEPvRS5_RNS1_ILj3ELj26EdEERNS1_ILj3ELj3EdEEEEE, 
                        __ZTSN8cnmatrix11CNSubVectorILj100ELj1EPvEE, __ZTSN8cnmatrix11CNSubVectorILj100ELj1EdEE, 
                        __ZTSN8cnmatrix11CNSubVectorILj100ELj1EiEE, __ZTSN8cnmatrix11CNSubVectorILj16ELj1EdEE, 
                        __ZTSN8cnmatrix11CNSubVectorILj19ELj1EdEE, __ZTSN8cnmatrix11CNSubVectorILj23716ELj1E6CNTimeEE, 
                        __ZTSN8cnmatrix11CNSubVectorILj23716ELj1EN11cnframework17CNAllocatorHandleEEE, 
                        __ZTSN8cnmatrix11CNSubVectorILj23716ELj1ENS_8CNMatrixILj3ELj1EdEEEE, 
                        __ZTSN8cnmatrix11CNSubVectorILj23716ELj1ENS_8CNMatrixILj3ELj3EdEEEE, 
                        __ZTSN8cnmatrix11CNSubVectorILj23716ELj1EPFiRKNS_8CNMatrixILj8ELj1EdEERKNS1_ILj3ELj1EdEEPvRS5_RNS1_ILj3ELj8EdEERNS1_ILj3ELj3EdEEEEE, 
                        __ZTSN8cnmatrix11CNSubVectorILj23716ELj1EPvEE, __ZTSN8cnmatrix11CNSubVectorILj23716ELj1EdEE, 
                        __ZTSN8cnmatrix11CNSubVectorILj23716ELj1EiEE, __ZTSN8cnmatrix11CNSubVectorILj23ELj1EdEE, 
                        __ZTSN8cnmatrix11CNSubVectorILj26ELj1EdEE, __ZTSN8cnmatrix11CNSubVectorILj26ELj1EiEE, 
                        __ZTSN8cnmatrix11CNSubVectorILj28ELj1EdEE, __ZTSN8cnmatrix11CNSubVectorILj2ELj1EdEE, 
                        __ZTSN8cnmatrix11CNSubVectorILj30ELj1EdEE, __ZTSN8cnmatrix11CNSubVectorILj3ELj1EdEE, 
                        __ZTSN8cnmatrix11CNSubVectorILj462ELj1EdEE, __ZTSN8cnmatrix11CNSubVectorILj49ELj1EdEE, 
                        __ZTSN8cnmatrix11CNSubVectorILj7ELj1EdEE, __ZTSN8cnmatrix11CNSubVectorILj8ELj1EdEE, 
                        __ZTSN8cnmatrix12CNMatrixBaseI6CNTimeEE, __ZTSN8cnmatrix12CNMatrixBaseIN11cnframework17CNAllocatorHandleEEE, 
                        __ZTSN8cnmatrix12CNMatrixBaseINS_8CNMatrixILj26ELj1EdEEEE, 
                        __ZTSN8cnmatrix12CNMatrixBaseINS_8CNMatrixILj26ELj23EdEEEE, 
                        __ZTSN8cnmatrix12CNMatrixBaseINS_8CNMatrixILj26ELj26EdEEEE, 
                        __ZTSN8cnmatrix12CNMatrixBaseINS_8CNMatrixILj30ELj1EdEEEE, 
                        __ZTSN8cnmatrix12CNMatrixBaseINS_8CNMatrixILj3ELj1EdEEEE, 
                        __ZTSN8cnmatrix12CNMatrixBaseINS_8CNMatrixILj3ELj23EdEEEE, 
                        __ZTSN8cnmatrix12CNMatrixBaseINS_8CNMatrixILj3ELj26EdEEEE, 
                        __ZTSN8cnmatrix12CNMatrixBaseINS_8CNMatrixILj3ELj3EdEEEE, 
                        __ZTSN8cnmatrix12CNMatrixBaseINS_8CNMatrixILj3ELj8EdEEEE, 
                        __ZTSN8cnmatrix12CNMatrixBaseINS_8CNMatrixILj462ELj1EdEEEE, 
                        __ZTSN8cnmatrix12CNMatrixBaseINS_8CNMatrixILj8ELj1EdEEEE, 
                        __ZTSN8cnmatrix12CNMatrixBaseINS_8CNMatrixILj8ELj8EdEEEE, 
                        __ZTSN8cnmatrix12CNMatrixBaseIPFiRKNS_8CNMatrixILj26ELj1EdEERKNS1_ILj23ELj1EdEEPvRS2_RNS1_ILj26ELj26EdEERNS1_ILj26ELj23EdEEEEE, 
                        __ZTSN8cnmatrix12CNMatrixBaseIPFiRKNS_8CNMatrixILj26ELj1EdEERKNS1_ILj3ELj1EdEEPvRS5_RNS1_ILj3ELj26EdEERNS1_ILj3ELj3EdEEEEE, 
                        __ZTSN8cnmatrix12CNMatrixBaseIPFiRKNS_8CNMatrixILj26ELj1EdEES4_dPvRS2_RNS1_ILj26ELj26EdEES8_EEE, 
                        __ZTSN8cnmatrix12CNMatrixBaseIPFiRKNS_8CNMatrixILj8ELj1EdEERKNS1_ILj3ELj1EdEEPvRS5_RNS1_ILj3ELj8EdEERNS1_ILj3ELj3EdEEEEE, 
                        __ZTSN8cnmatrix12CNMatrixBaseIPFiRKNS_8CNMatrixILj8ELj1EdEES4_PvRS2_RNS1_ILj8ELj8EdEES8_EEE, 
                        __ZTSN8cnmatrix12CNMatrixBaseIPFiRKNS_8CNMatrixILj8ELj1EdEES4_dPvRS2_RNS1_ILj8ELj8EdEES8_EEE, 
                        __ZTSN8cnmatrix12CNMatrixBaseIPvEE, __ZTSN8cnmatrix12CNMatrixBaseIbEE, 
                        __ZTSN8cnmatrix12CNMatrixBaseIdEE, __ZTSN8cnmatrix12CNMatrixBaseIiEE, 
                        __ZTSN8cnmatrix12CNMatrixBaseIjEE, __ZTSN8cnmatrix8CNMatrixILj100ELj1E6CNTimeEE, 
                        __ZTSN8cnmatrix8CNMatrixILj100ELj1EN11cnframework17CNAllocatorHandleEEE, 
                        __ZTSN8cnmatrix8CNMatrixILj100ELj1ENS0_ILj3ELj1EdEEEE, __ZTSN8cnmatrix8CNMatrixILj100ELj1ENS0_ILj3ELj3EdEEEE, 
                        __ZTSN8cnmatrix8CNMatrixILj100ELj1EPFiRKNS0_ILj26ELj1EdEERKNS0_ILj3ELj1EdEEPvRS4_RNS0_ILj3ELj26EdEERNS0_ILj3ELj3EdEEEEE, 
                        __ZTSN8cnmatrix8CNMatrixILj100ELj1EPvEE, __ZTSN8cnmatrix8CNMatrixILj100ELj1EdEE, 
                        __ZTSN8cnmatrix8CNMatrixILj100ELj1EiEE, __ZTSN8cnmatrix8CNMatrixILj104ELj1EdEE, 
                        __ZTSN8cnmatrix8CNMatrixILj10ELj1E6CNTimeEE, __ZTSN8cnmatrix8CNMatrixILj10ELj1ENS0_ILj26ELj1EdEEEE, 
                        __ZTSN8cnmatrix8CNMatrixILj10ELj1ENS0_ILj26ELj26EdEEEE, __ZTSN8cnmatrix8CNMatrixILj10ELj1ENS0_ILj3ELj1EdEEEE, 
                        __ZTSN8cnmatrix8CNMatrixILj10ELj1ENS0_ILj3ELj23EdEEEE, __ZTSN8cnmatrix8CNMatrixILj10ELj1ENS0_ILj3ELj26EdEEEE, 
                        __ZTSN8cnmatrix8CNMatrixILj10ELj1ENS0_ILj3ELj3EdEEEE, __ZTSN8cnmatrix8CNMatrixILj10ELj1EPFiRKNS0_ILj26ELj1EdEERKNS0_ILj3ELj1EdEEPvRS4_RNS0_ILj3ELj26EdEERNS0_ILj3ELj3EdEEEEE, 
                        __ZTSN8cnmatrix8CNMatrixILj10ELj1EPvEE, __ZTSN8cnmatrix8CNMatrixILj10ELj1EdEE, 
                        __ZTSN8cnmatrix8CNMatrixILj10ELj1EiEE, __ZTSN8cnmatrix8CNMatrixILj10ELj1EjEE, 
                        __ZTSN8cnmatrix8CNMatrixILj1116ELj1EdEE, __ZTSN8cnmatrix8CNMatrixILj12ELj1EdEE, 
                        __ZTSN8cnmatrix8CNMatrixILj154ELj1E6CNTimeEE, __ZTSN8cnmatrix8CNMatrixILj154ELj1ENS0_ILj3ELj1EdEEEE, 
                        __ZTSN8cnmatrix8CNMatrixILj154ELj1ENS0_ILj3ELj3EdEEEE, __ZTSN8cnmatrix8CNMatrixILj154ELj1ENS0_ILj3ELj8EdEEEE, 
                        __ZTSN8cnmatrix8CNMatrixILj154ELj1ENS0_ILj8ELj1EdEEEE, __ZTSN8cnmatrix8CNMatrixILj154ELj1ENS0_ILj8ELj8EdEEEE, 
                        __ZTSN8cnmatrix8CNMatrixILj154ELj1EPFiRKNS0_ILj8ELj1EdEERKNS0_ILj3ELj1EdEEPvRS4_RNS0_ILj3ELj8EdEERNS0_ILj3ELj3EdEEEEE, 
                        __ZTSN8cnmatrix8CNMatrixILj154ELj1EPvEE, __ZTSN8cnmatrix8CNMatrixILj154ELj1EdEE, 
                        __ZTSN8cnmatrix8CNMatrixILj154ELj1EiEE, __ZTSN8cnmatrix8CNMatrixILj154ELj1EjEE, 
                        __ZTSN8cnmatrix8CNMatrixILj15ELj1EdEE, __ZTSN8cnmatrix8CNMatrixILj1616ELj1EdEE, 
                        __ZTSN8cnmatrix8CNMatrixILj16ELj16EdEE, __ZTSN8cnmatrix8CNMatrixILj16ELj1EdEE, 
                        __ZTSN8cnmatrix8CNMatrixILj16ELj1EiEE, __ZTSN8cnmatrix8CNMatrixILj18ELj15EdEE, 
                        __ZTSN8cnmatrix8CNMatrixILj18ELj18EdEE, __ZTSN8cnmatrix8CNMatrixILj18ELj19EdEE, 
                        __ZTSN8cnmatrix8CNMatrixILj18ELj1EdEE, __ZTSN8cnmatrix8CNMatrixILj19ELj15EdEE, 
                        __ZTSN8cnmatrix8CNMatrixILj19ELj18EdEE, __ZTSN8cnmatrix8CNMatrixILj19ELj19EdEE, 
                        __ZTSN8cnmatrix8CNMatrixILj19ELj1EdEE, __ZTSN8cnmatrix8CNMatrixILj19ELj1EiEE, 
                        __ZTSN8cnmatrix8CNMatrixILj19ELj1EjEE, __ZTSN8cnmatrix8CNMatrixILj19ELj2EdEE, 
                        __ZTSN8cnmatrix8CNMatrixILj19ELj2EjEE, __ZTSN8cnmatrix8CNMatrixILj1ELj16EiEE, 
                        __ZTSN8cnmatrix8CNMatrixILj1ELj19EiEE, __ZTSN8cnmatrix8CNMatrixILj1ELj1EdEE, 
                        __ZTSN8cnmatrix8CNMatrixILj1ELj1EiEE, __ZTSN8cnmatrix8CNMatrixILj1ELj1EjEE, 
                        __ZTSN8cnmatrix8CNMatrixILj1ELj23EiEE, __ZTSN8cnmatrix8CNMatrixILj1ELj26EdEE, 
                        __ZTSN8cnmatrix8CNMatrixILj1ELj26EiEE, __ZTSN8cnmatrix8CNMatrixILj1ELj28EiEE, 
                        __ZTSN8cnmatrix8CNMatrixILj1ELj2EiEE, __ZTSN8cnmatrix8CNMatrixILj1ELj30EiEE, 
                        __ZTSN8cnmatrix8CNMatrixILj1ELj3EdEE, __ZTSN8cnmatrix8CNMatrixILj1ELj3EiEE, 
                        __ZTSN8cnmatrix8CNMatrixILj1ELj462EiEE, __ZTSN8cnmatrix8CNMatrixILj1ELj49EiEE, 
                        __ZTSN8cnmatrix8CNMatrixILj1ELj4EiEE, __ZTSN8cnmatrix8CNMatrixILj1ELj6EdEE, 
                        __ZTSN8cnmatrix8CNMatrixILj1ELj6EiEE, __ZTSN8cnmatrix8CNMatrixILj1ELj7EiEE, 
                        __ZTSN8cnmatrix8CNMatrixILj1ELj8EdEE, __ZTSN8cnmatrix8CNMatrixILj1ELj8EiEE, 
                        __ZTSN8cnmatrix8CNMatrixILj21ELj1EdEE, __ZTSN8cnmatrix8CNMatrixILj23716ELj1E6CNTimeEE, 
                        __ZTSN8cnmatrix8CNMatrixILj23716ELj1EN11cnframework17CNAllocatorHandleEEE, 
                        __ZTSN8cnmatrix8CNMatrixILj23716ELj1ENS0_ILj3ELj1EdEEEE, 
                        __ZTSN8cnmatrix8CNMatrixILj23716ELj1ENS0_ILj3ELj3EdEEEE, 
                        __ZTSN8cnmatrix8CNMatrixILj23716ELj1EPFiRKNS0_ILj8ELj1EdEERKNS0_ILj3ELj1EdEEPvRS4_RNS0_ILj3ELj8EdEERNS0_ILj3ELj3EdEEEEE, 
                        __ZTSN8cnmatrix8CNMatrixILj23716ELj1EPvEE, __ZTSN8cnmatrix8CNMatrixILj23716ELj1EdEE, 
                        __ZTSN8cnmatrix8CNMatrixILj23716ELj1EiEE, __ZTSN8cnmatrix8CNMatrixILj23ELj1EdEE, 
                        __ZTSN8cnmatrix8CNMatrixILj23ELj1EiEE, __ZTSN8cnmatrix8CNMatrixILj23ELj23EdEE, 
                        __ZTSN8cnmatrix8CNMatrixILj23ELj26EdEE, __ZTSN8cnmatrix8CNMatrixILj23ELj49EdEE, 
                        __ZTSN8cnmatrix8CNMatrixILj24ELj1EdEE, __ZTSN8cnmatrix8CNMatrixILj26ELj15EdEE, 
                        __ZTSN8cnmatrix8CNMatrixILj26ELj1EbEE, __ZTSN8cnmatrix8CNMatrixILj26ELj1EdEE, 
                        __ZTSN8cnmatrix8CNMatrixILj26ELj1EiEE, __ZTSN8cnmatrix8CNMatrixILj26ELj23EdEE, 
                        __ZTSN8cnmatrix8CNMatrixILj26ELj26EdEE, __ZTSN8cnmatrix8CNMatrixILj26ELj28EdEE, 
                        __ZTSN8cnmatrix8CNMatrixILj26ELj2EdEE, __ZTSN8cnmatrix8CNMatrixILj26ELj49EdEE, 
                        __ZTSN8cnmatrix8CNMatrixILj26ELj6EdEE, __ZTSN8cnmatrix8CNMatrixILj28ELj1EdEE, 
                        __ZTSN8cnmatrix8CNMatrixILj28ELj1EiEE, __ZTSN8cnmatrix8CNMatrixILj28ELj26EdEE, 
                        __ZTSN8cnmatrix8CNMatrixILj28ELj28EdEE, __ZTSN8cnmatrix8CNMatrixILj2ELj1ENS0_ILj8ELj1EdEEEE, 
                        __ZTSN8cnmatrix8CNMatrixILj2ELj1ENS0_ILj8ELj8EdEEEE, __ZTSN8cnmatrix8CNMatrixILj2ELj1EPFiRKNS0_ILj8ELj1EdEES3_PvRS1_RNS0_ILj8ELj8EdEES7_EEE, 
                        __ZTSN8cnmatrix8CNMatrixILj2ELj1EPFiRKNS0_ILj8ELj1EdEES3_dPvRS1_RNS0_ILj8ELj8EdEES7_EEE, 
                        __ZTSN8cnmatrix8CNMatrixILj2ELj1EPvEE, __ZTSN8cnmatrix8CNMatrixILj2ELj1EdEE, 
                        __ZTSN8cnmatrix8CNMatrixILj2ELj1EiEE, __ZTSN8cnmatrix8CNMatrixILj2ELj2EdEE, 
                        __ZTSN8cnmatrix8CNMatrixILj2ELj2EiEE, __ZTSN8cnmatrix8CNMatrixILj2ELj4EdEE, 
                        __ZTSN8cnmatrix8CNMatrixILj308ELj1EdEE, __ZTSN8cnmatrix8CNMatrixILj30ELj1ENS0_ILj30ELj1EdEEEE, 
                        __ZTSN8cnmatrix8CNMatrixILj30ELj1EdEE, __ZTSN8cnmatrix8CNMatrixILj30ELj1EiEE, 
                        __ZTSN8cnmatrix8CNMatrixILj30ELj23EdEE, __ZTSN8cnmatrix8CNMatrixILj30ELj26EdEE, 
                        __ZTSN8cnmatrix8CNMatrixILj30ELj49EdEE, __ZTSN8cnmatrix8CNMatrixILj32ELj1EdEE, 
                        __ZTSN8cnmatrix8CNMatrixILj368ELj1EdEE, __ZTSN8cnmatrix8CNMatrixILj395ELj1EdEE, 
                        __ZTSN8cnmatrix8CNMatrixILj3ELj1ENS0_ILj26ELj1EdEEEE, __ZTSN8cnmatrix8CNMatrixILj3ELj1ENS0_ILj26ELj23EdEEEE, 
                        __ZTSN8cnmatrix8CNMatrixILj3ELj1ENS0_ILj26ELj26EdEEEE, __ZTSN8cnmatrix8CNMatrixILj3ELj1EPFiRKNS0_ILj26ELj1EdEERKNS0_ILj23ELj1EdEEPvRS1_RNS0_ILj26ELj26EdEERNS0_ILj26ELj23EdEEEEE, 
                        __ZTSN8cnmatrix8CNMatrixILj3ELj1EPFiRKNS0_ILj26ELj1EdEES3_dPvRS1_RNS0_ILj26ELj26EdEES7_EEE, 
                        __ZTSN8cnmatrix8CNMatrixILj3ELj1EPvEE, __ZTSN8cnmatrix8CNMatrixILj3ELj1EdEE, 
                        __ZTSN8cnmatrix8CNMatrixILj3ELj1EiEE, __ZTSN8cnmatrix8CNMatrixILj3ELj23EdEE, 
                        __ZTSN8cnmatrix8CNMatrixILj3ELj26EdEE, __ZTSN8cnmatrix8CNMatrixILj3ELj28EdEE, 
                        __ZTSN8cnmatrix8CNMatrixILj3ELj2EdEE, __ZTSN8cnmatrix8CNMatrixILj3ELj2EiEE, 
                        __ZTSN8cnmatrix8CNMatrixILj3ELj3EdEE, __ZTSN8cnmatrix8CNMatrixILj3ELj3EjEE, 
                        __ZTSN8cnmatrix8CNMatrixILj3ELj4EdEE, __ZTSN8cnmatrix8CNMatrixILj3ELj6EdEE, 
                        __ZTSN8cnmatrix8CNMatrixILj3ELj8EdEE, __ZTSN8cnmatrix8CNMatrixILj462ELj16EdEE, 
                        __ZTSN8cnmatrix8CNMatrixILj462ELj1ENS0_ILj462ELj1EdEEEE, 
                        __ZTSN8cnmatrix8CNMatrixILj462ELj1EdEE, __ZTSN8cnmatrix8CNMatrixILj462ELj1EiEE, 
                        __ZTSN8cnmatrix8CNMatrixILj462ELj8EdEE, __ZTSN8cnmatrix8CNMatrixILj46ELj46EdEE, 
                        __ZTSN8cnmatrix8CNMatrixILj470ELj16EdEE, __ZTSN8cnmatrix8CNMatrixILj470ELj1EdEE, 
                        __ZTSN8cnmatrix8CNMatrixILj478ELj16EdEE, __ZTSN8cnmatrix8CNMatrixILj478ELj1EdEE, 
                        __ZTSN8cnmatrix8CNMatrixILj486ELj1EdEE, __ZTSN8cnmatrix8CNMatrixILj49ELj1EdEE, 
                        __ZTSN8cnmatrix8CNMatrixILj49ELj1EiEE, __ZTSN8cnmatrix8CNMatrixILj49ELj49EdEE, 
                        __ZTSN8cnmatrix8CNMatrixILj4ELj1EdEE, __ZTSN8cnmatrix8CNMatrixILj4ELj1EiEE, 
                        __ZTSN8cnmatrix8CNMatrixILj4ELj1EjEE, __ZTSN8cnmatrix8CNMatrixILj4ELj2EdEE, 
                        __ZTSN8cnmatrix8CNMatrixILj4ELj2EjEE, __ZTSN8cnmatrix8CNMatrixILj4ELj3EdEE, 
                        __ZTSN8cnmatrix8CNMatrixILj4ELj4EdEE, __ZTSN8cnmatrix8CNMatrixILj52ELj52EdEE, 
                        __ZTSN8cnmatrix8CNMatrixILj56ELj1EdEE, __ZTSN8cnmatrix8CNMatrixILj56ELj49EdEE, 
                        __ZTSN8cnmatrix8CNMatrixILj6ELj1EdEE, __ZTSN8cnmatrix8CNMatrixILj6ELj1EiEE, 
                        __ZTSN8cnmatrix8CNMatrixILj6ELj6EdEE, __ZTSN8cnmatrix8CNMatrixILj79ELj1EdEE, 
                        __ZTSN8cnmatrix8CNMatrixILj79ELj49EdEE, __ZTSN8cnmatrix8CNMatrixILj7ELj1EdEE, 
                        __ZTSN8cnmatrix8CNMatrixILj7ELj1EiEE, __ZTSN8cnmatrix8CNMatrixILj8996ELj1EdEE, 
                        __ZTSN8cnmatrix8CNMatrixILj8ELj16EdEE, __ZTSN8cnmatrix8CNMatrixILj8ELj1EdEE, 
                        __ZTSN8cnmatrix8CNMatrixILj8ELj1EiEE, __ZTSN8cnmatrix8CNMatrixILj8ELj2EdEE, 
                        __ZTSN8cnmatrix8CNMatrixILj8ELj6EdEE, __ZTSN8cnmatrix8CNMatrixILj8ELj8EdEE, 
                        __ZTSN8cnmatrix8CNMatrixILj92ELj1EdEE, __ZTSNSt3__110__back_refIcEE, 
                        __ZTSNSt3__110__l_anchorIcEE, __ZTSNSt3__110__r_anchorIcEE, 
                        __ZTSNSt3__111__alternateIcEE, __ZTSNSt3__111__end_stateIcEE, 
                        __ZTSNSt3__111__lookaheadIcNS_12regex_traitsIcEEEE, __ZTSNSt3__111__match_anyIcEE, 
                        __ZTSNSt3__112__match_charIcEE, __ZTSNSt3__113__empty_stateIcEE, 
                        __ZTSNSt3__113basic_filebufIcNS_11char_traitsIcEEEE, __ZTSNSt3__114basic_ifstreamIcNS_11char_traitsIcEEEE, 
                        __ZTSNSt3__114basic_ofstreamIcNS_11char_traitsIcEEEE, __ZTSNSt3__114default_deleteINS_13__empty_stateIcEEEE, 
                        __ZTSNSt3__115__has_one_stateIcEE, __ZTSNSt3__115__word_boundaryIcNS_12regex_traitsIcEEEE, 
                        __ZTSNSt3__115basic_stringbufIcNS_11char_traitsIcEENS_9allocatorIcEEEE, 
                        __ZTSNSt3__116__back_ref_icaseIcNS_12regex_traitsIcEEEE, 
                        __ZTSNSt3__116__owns_one_stateIcEE, __ZTSNSt3__117__owns_two_statesIcEE, 
                        __ZTSNSt3__117__repeat_one_loopIcEE, __ZTSNSt3__118__back_ref_collateIcNS_12regex_traitsIcEEEE, 
                        __ZTSNSt3__118__match_char_icaseIcNS_12regex_traitsIcEEEE, 
                        __ZTSNSt3__118basic_stringstreamIcNS_11char_traitsIcEENS_9allocatorIcEEEE, 
                        __ZTSNSt3__120__bracket_expressionIcNS_12regex_traitsIcEEEE, 
                        __ZTSNSt3__120__match_char_collateIcNS_12regex_traitsIcEEEE, 
                        __ZTSNSt3__120__shared_ptr_pointerIPNS_13__empty_stateIcEENS_14default_deleteIS2_EENS_9allocatorIS2_EEEE, 
                        __ZTSNSt3__121__empty_non_own_stateIcEE, __ZTSNSt3__123__match_any_but_newlineIcEE, 
                        __ZTSNSt3__126__end_marked_subexpressionIcEE, __ZTSNSt3__128__begin_marked_subexpressionIcEE, 
                        __ZTSNSt3__16__loopIcEE, __ZTSNSt3__16__nodeIcEE ]
...
