--- !tapi-tbd
tbd-version:     4
targets:         [ x86_64-macos, arm64-macos, arm64e-macos ]
uuids:
  - target:          x86_64-macos
    value:           0E97E4D3-56D2-3433-958B-3D740A82AA7B
  - target:          arm64-macos
    value:           00000000-0000-0000-0000-000000000000
  - target:          arm64e-macos
    value:           438E47AC-FBB8-303C-8D4D-7A95DAE88769
install-name:    '/System/Library/PrivateFrameworks/AppleDepth.framework/Versions/A/AppleDepth'
exports:
  - targets:         [ x86_64-macos ]
    symbols:         [ __Z13ADMLModelPathP8NSStringa ]
  - targets:         [ x86_64-macos, arm64e-macos, arm64-macos ]
    symbols:         [ _ADExecutorCalibrationAttachmentName, _AdaptiveCorrection_applyDistortionModel, 
                       _AdaptiveCorrection_applyDistortionModelSimplified, _AdaptiveCorrection_applyTemporalCorrectionState, 
                       _AdaptiveCorrection_approximateCorrection, _AdaptiveCorrection_computeStereoRectificationHomographies, 
                       _AdaptiveCorrection_computeVerticalBaselineTransform, _AdaptiveCorrection_create, 
                       _AdaptiveCorrection_createWithConfig, _AdaptiveCorrection_destroy, 
                       _AdaptiveCorrection_fullCorrection, _AdaptiveCorrection_fullCorrectionWithDistortion, 
                       _AdaptiveCorrection_fullTemporalCorrectionWithDistortion, 
                       _AdaptiveCorrection_getStatus, _AdaptiveCorrection_rotateCalModel, 
                       _AdaptiveCorrection_rotateDistortionModel, _AdaptiveCorrection_setConfiguration, 
                       _AdaptiveCorrection_transformPointsWithMatrix, _AdjustCalibrationDistorted, 
                       _AdjustCalibrationFocalLengthAndOpticalCenterX_Gradient, _AdjustYOpticalCenterForValidDistanceRange, 
                       _AppleDepthRuntimeAPIVersion, _AppleDepthRuntimeVersionString, 
                       _AppleDepthVersionNumber, _AppleDepthVersionString, _CalcDirectZPlaneHomographyAtoBCoords, 
                       _FundamentalDistortionError_MeanVal, _FundamentalDistortionError_MeanValPlusGradient, 
                       _FundamentalEpipolarErrorForCalModel, _FundamentalEpipolarError_ABSVec, 
                       _FundamentalEpipolarError_MeanVal, _FundamentalEpipolarError_MeanValPlusGradient, 
                       _FundamentalEpipolarError_precomputeFundamental, _PCE_BIAS_METADATA_KEY, 
                       _SelectPointsWithEpipolarThreshold, __Z11dumpTextureNSt3__112basic_stringIcNS_11char_traitsIcEENS_9allocatorIcEEEEPU21objcproto10MTLTexture11objc_object, 
                       __Z11getterDummyP11objc_objectP13objc_selector, __Z11setterDummyP11objc_objectP13objc_selectorS0_, 
                       __Z16dumpRawImageFileNSt3__112basic_stringIcNS_11char_traitsIcEENS_9allocatorIcEEEEPfm, 
                       __Z16dumpRawImageFileNSt3__112basic_stringIcNS_11char_traitsIcEENS_9allocatorIcEEEEPhm, 
                       __Z16dumpRawImageFileNSt3__112basic_stringIcNS_11char_traitsIcEENS_9allocatorIcEEEEPtm, 
                       __Z17calibrationAttachP10__CVBufferPK14__CFDictionary, __Z25calibrationFromAttachmentP10__CVBuffer, 
                       __Z31debugQuickLookObjectFromCGImageP7CGImage, __ZN10appledepth16JasperPointCloud13initByCloningERKS0_Pv, 
                       __ZN10appledepth16JasperPointCloud13initByMergingEmPPKS0_Pv, 
                       __ZN10appledepth16JasperPointCloud13replacePointsEmmRKS0_m, 
                       __ZN10appledepth16JasperPointCloud14prepareStorageEPvmm, __ZN10appledepth16JasperPointCloud21initByApplyingFiltersEPKS0_15ADSpotsEchoModefffff, 
                       __ZN10appledepth16JasperPointCloud23lengthFromStorageBufferEPvm, 
                       __ZN10appledepth16JasperPointCloud24initPerformanceOverridesERKNSt3__112basic_stringIcNS1_11char_traitsIcEENS1_9allocatorIcEEEE, 
                       __ZN10appledepth16JasperPointCloud25applyPerformanceOverridesEv, 
                       __ZN10appledepth16JasperPointCloud25resetPerformanceOverridesEv, 
                       __ZN10appledepth16JasperPointCloud29requiredStorageBytesForLengthEm, 
                       __ZN10appledepth16JasperPointCloud32initWithDictionaryRepresentationEPK14__CFDictionaryPv, 
                       __ZN10appledepth16JasperPointCloud32makeWithDictionaryRepresentationEPK14__CFDictionary, 
                       __ZN10appledepth16JasperPointCloud4initEmPv, __ZN10appledepth16JasperPointCloud5mergeEmPPKS0_Pv, 
                       __ZN10appledepth16JasperPointCloud5resetEv, __ZN10appledepth16JasperPointCloud6resizeEm, 
                       __ZN10appledepth16JasperPointCloud7blackenEv, __ZN10appledepth16JasperPointCloudC1EOS0_, 
                       __ZN10appledepth16JasperPointCloudC1EmPv, __ZN10appledepth16JasperPointCloudC1Ev, 
                       __ZN10appledepth16JasperPointCloudC2EOS0_, __ZN10appledepth16JasperPointCloudC2EmPv, 
                       __ZN10appledepth16JasperPointCloudC2Ev, __ZN10appledepth16JasperPointCloudD1Ev, 
                       __ZN10appledepth16JasperPointCloudD2Ev, __ZN13ADCommonUtils11matrixTo4x3E13simd_float4x4, 
                       __ZN13ADCommonUtils11matrixTo4x4E13simd_float4x3, __ZN13ADCommonUtils15reverseRotationE10ADRotation, 
                       __ZN13ADCommonUtils16computeTransformE13simd_float4x3S0_, 
                       __ZN13ADCommonUtils16extrinsicsToFileEPKc13simd_float4x3, 
                       __ZN13ADCommonUtils16extrinsicsToFileEPKc13simd_float4x4, 
                       __ZN13ADCommonUtils16inverseTransformE13simd_float4x3, __ZN13ADCommonUtils16inverseTransformE13simd_float4x4, 
                       __ZN13ADCommonUtils17computeMaximalRoiE6CGSizeS0_, __ZN13ADCommonUtils18extrinsicsFromFileEPKc, 
                       __ZN13ADCommonUtils21extrinsics4x4FromFileEPKc, __ZN13ADCommonUtils21runtimePlatformHasANEEv, 
                       __ZN13ADCommonUtils22matrixForImageRotationE10ADRotation, 
                       __ZN13ADCommonUtils23matrixFromArrayRowFirstEP7NSArray, __ZN13ADCommonUtils26matrixFromArrayColumnFirstEP7NSArray, 
                       __ZN13ADCommonUtils28transformMetersToMillimitersE13simd_float4x4, 
                       __ZN13ADCommonUtils28transformMillimitersToMetersE13simd_float4x4, 
                       __ZN13ADCommonUtils31runtimePlatformANEVersionNumberEv, __ZN13ADCommonUtils31runtimePlatformANEVersionStringEv, 
                       __ZN16PixelBufferUtils11getJetColorEfRfS0_S0_, __ZN16PixelBufferUtils13asPixelBufferEmmjPv, 
                       __ZN16PixelBufferUtils13forEveryPixelEP10__CVBufferS1_U13block_pointerFvPvjS2_jEi, 
                       __ZN16PixelBufferUtils13forEveryPixelEP10__CVBufferU13block_pointerFvPvjEi, 
                       __ZN16PixelBufferUtils14asVImageBufferEP10__CVBuffer, __ZN16PixelBufferUtils14asVImageBufferEP10__CVBufferm, 
                       __ZN16PixelBufferUtils14copyAttachmentEP10__CVBufferPK10__CFStringP16CVAttachmentMode, 
                       __ZN16PixelBufferUtils15copyAttachmentsEP10__CVBuffer16CVAttachmentMode, 
                       __ZN16PixelBufferUtils15copyPixelBufferEP10__CVBufferS1_b, 
                       __ZN16PixelBufferUtils15createTiledViewEmmmmPP10__CVBufferPb, 
                       __ZN16PixelBufferUtils17createPixelBufferE6CGSizejb, __ZN16PixelBufferUtils17createPixelBufferEmmjb, 
                       __ZN16PixelBufferUtils17errorsPixelBufferEP10__CVBufferS1_, 
                       __ZN16PixelBufferUtils17errorsPixelBufferEP10__CVBufferS1_bi, 
                       __ZN16PixelBufferUtils17rotatePixelBufferEP10__CVBufferS1_ib, 
                       __ZN16PixelBufferUtils18releasePixelBufferEPP10__CVBuffer, 
                       __ZN16PixelBufferUtils19inPlaceColorScalingEP10__CVBufferffbb, 
                       __ZN16PixelBufferUtils19pixelFormatAsStringEj, __ZN16PixelBufferUtils20countDifferentPixelsEP10__CVBufferS1_ff, 
                       __ZN16PixelBufferUtils20pixelBufferToCGImageEP10__CVBuffer, 
                       __ZN16PixelBufferUtils20pixelBufferToRawFileEPKcP10__CVBuffer, 
                       __ZN16PixelBufferUtils21createPixelBufferCopyEP10__CVBuffer, 
                       __ZN16PixelBufferUtils21pixelFormatFromStringEPKc, __ZN16PixelBufferUtils22pixelBufferFromCGImageEP7CGImagej, 
                       __ZN16PixelBufferUtils22pixelBufferFromRawFileEPKcmmj, __ZN16PixelBufferUtils22pixelBufferToImageFileEPKcP10__CVBufferPK10__CFString, 
                       __ZN16PixelBufferUtils22savePlyFromDepthBufferEP10__CVBufferPKcf7CGPointfffbb, 
                       __ZN16PixelBufferUtils23cropAndScalePixelBufferEP10__CVBufferS1_6CGRectb, 
                       __ZN16PixelBufferUtils23pixelSizeForPixelFormatEjm, __ZN16PixelBufferUtils24convertPixelBufferFormatEP10__CVBufferS1_b, 
                       __ZN16PixelBufferUtils24createRotatedPixelBufferEP10__CVBufferib, 
                       __ZN16PixelBufferUtils24pixelBufferFromImageFileEPKcj, __ZN16PixelBufferUtils24planeCountForPixelFormatEj, 
                       __ZN16PixelBufferUtils25colorizedDepthPixelBufferEP10__CVBufferbffbPfS1_, 
                       __ZN16PixelBufferUtils27rotationBetweenOrientationsE26CGImagePropertyOrientationS0_, 
                       __ZN16PixelBufferUtils29createPixelBufferWithSameSizeEP10__CVBufferjb, 
                       __ZN16PixelBufferUtils29scaleConvertRotatePixelBufferEP10__CVBufferi6CGRectS1_PS1_S3_b, 
                       __ZN16PixelBufferUtils31createColorizedDepthPixelBufferEP10__CVBufferbffbPf, 
                       __ZN16PixelBufferUtils32componentsPerPixelForPixelFormatEjm, 
                       __ZN16PixelBufferUtils32createConvertedPixelBufferFormatEP10__CVBufferjb, 
                       __ZN16PixelBufferUtils33createCroppedAndScaledPixelBufferEP10__CVBuffer6CGRect6CGSizeb, 
                       __ZN16PixelBufferUtils33verticalSubsamplingForPixelFormatEjm, 
                       __ZN16PixelBufferUtils35horizontalSubsamplingForPixelFormatEjm, 
                       __ZN16PixelBufferUtils44rotationAngleAndMirroringFromExifOrientationE26CGImagePropertyOrientationPb, 
                       __ZN16PixelBufferUtils7blackenEP10__CVBuffer, __ZN27ADJasperPerformanceOverride11getInstanceEv, 
                       __ZN27ADJasperPerformanceOverride11initFromCsvERKNSt3__112basic_stringIcNS0_11char_traitsIcEENS0_9allocatorIcEEEE, 
                       __ZN27ADJasperPerformanceOverride12getOverridesEiiP24SpotPerformanceOverrides, 
                       __ZN27ADJasperPerformanceOverride14resetOverridesEv, __ZN27ADJasperPerformanceOverrideC1Ev, 
                       __ZN27ADJasperPerformanceOverrideC2Ev, __ZN27ADReprojectionOptimizations13projectPointsEmPKDv3_f13simd_float3x3P7CGPoint, 
                       __ZN27ADReprojectionOptimizations28backProjectUndistortedPixelsEmPK7CGPointPKf13simd_float3x3PDv3_f, 
                       __ZN27ADReprojectionOptimizations28reprojectUndistortedDepthMapEP10__CVBuffer12ADDepthUnitsS2_13simd_float3x313simd_float4x3S3_S1_S1_, 
                       __ZNK10appledepth16JasperPointCloud11confidencesEv, __ZNK10appledepth16JasperPointCloud11intensitiesEv, 
                       __ZNK10appledepth16JasperPointCloud12cameraPixelsEv, __ZNK10appledepth16JasperPointCloud14getBaseAddressEv, 
                       __ZNK10appledepth16JasperPointCloud18euclideanDistancesEv, 
                       __ZNK10appledepth16JasperPointCloud19projectJasperPointsE10ADRotation6CGRect15ADSpotsEchoModefffffP10__CVBufferb, 
                       __ZNK10appledepth16JasperPointCloud19signalToNoiseRatiosEv, 
                       __ZNK10appledepth16JasperPointCloud23undistortedCameraPixelsEv, 
                       __ZNK10appledepth16JasperPointCloud30createDictionaryRepresentationEv, 
                       __ZNK10appledepth16JasperPointCloud5flagsEv, __ZNK10appledepth16JasperPointCloud6lengthEv, 
                       __ZNK10appledepth16JasperPointCloud6pointsEv, __ZNK10appledepth16JasperPointCloud7bankIdsEv, 
                       __ZNK10appledepth16JasperPointCloud7echoIdsEv, __ZNK10appledepth16JasperPointCloud7spotIdsEv, 
                       __ZNK10appledepth16JasperPointCloud8capacityEv, _fmincon_spg, 
                       _kADDeviceConfigurationKeyEnabledLoggers, _kADDeviceConfigurationKeyIntermediatesPathOverride, 
                       _kADDeviceConfigurationKeyJasperPerformanceOverridePath, _kADDeviceConfigurationKeyLogFolder, 
                       _kADDeviceConfigurationKeyLoggingHostName, _kADDeviceConfigurationKeyModelConfigurationFolder, 
                       _kADEspressoBufferIDAnglesVector, _kADEspressoBufferIDErrorPpx, 
                       _kADEspressoBufferIDErrorPpy, _kADEspressoBufferIDErrorRotationX, 
                       _kADEspressoBufferIDErrorRotationY, _kADEspressoBufferIDErrorsVector, 
                       _kADEspressoBufferIDInputAuxColor, _kADEspressoBufferIDInputColor, 
                       _kADEspressoBufferIDInputDisparity, _kADEspressoBufferIDInputJasper, 
                       _kADEspressoBufferIDInputOpaqueFeatures, _kADEspressoBufferIDInputPCEStereo, 
                       _kADEspressoBufferIDInputPearl, _kADEspressoBufferIDInputPrevAleatoricUncertainty, 
                       _kADEspressoBufferIDInputPrevDepth, _kADEspressoBufferIDInputPrevDisparity, 
                       _kADEspressoBufferIDInputRefColor, _kADEspressoBufferIDOutputAlphaMap, 
                       _kADEspressoBufferIDOutputAuxiliaryConfidence, _kADEspressoBufferIDOutputAuxiliaryDisparity, 
                       _kADEspressoBufferIDOutputBinaryMask, _kADEspressoBufferIDOutputConfidence, 
                       _kADEspressoBufferIDOutputDepth, _kADEspressoBufferIDOutputDisparity, 
                       _kADEspressoBufferIDOutputNormals, _kADEspressoBufferIDOutputOpaqueFeatures, 
                       _kADEspressoBufferIDPpx, _kADEspressoBufferIDPpy, _kADEspressoBufferIDRotationX, 
                       _kADEspressoBufferIDRotationY, _kADNetworkIDCinVidPearl, _kADNetworkIDCinVidStereoTeleWide, 
                       _kADNetworkIDCinVidStereoWideSuperwide, _kADNetworkIDJasperColor, 
                       _kADNetworkIDMonocular, _kADNetworkIDMonocularV2, _kADNetworkIDSIJNetBackend, 
                       _kADNetworkIDSIJNetFrontend, _kADNetworkIDStereoFSD, _kADNetworkIDStereoFSD45Deg, 
                       _kADNetworkIDStereoFSD60Deg, _kADNetworkIDStereoStillImages, 
                       _kADNetworkIDStillImage ]
    objc-classes:    [ ADAdaptiveCorrectionDualCameraCalibrationModel, ADAdaptiveCorrectionPipeline, 
                       ADAdaptiveCorrectionPipelineParameters, ADAggregationParameters, 
                       ADAnchoredVector, ADCameraCalibration, ADDepthScaler, ADDeviceConfiguration, 
                       ADDynamicPolynomialsLensDistortionModel, ADEspressoBufferHandle, 
                       ADEspressoImageDescriptor, ADEspressoInferenceDescriptor, 
                       ADEspressoJasperColorInferenceDescriptor, ADEspressoJasperToColorTransformCorrectionBackendInfrerenceDescriptor, 
                       ADEspressoJasperToColorTransformCorrectionFrontendInfrerenceDescriptor, 
                       ADEspressoMonocularInferenceDescriptor, ADEspressoMonocularV2InferenceDescriptor, 
                       ADEspressoPCEDisparityColorInferenceDescriptor, ADEspressoPCEStereoColorInferenceDescriptor, 
                       ADEspressoRunner, ADEspressoStereoInferenceDescriptor, ADEspressoStillImageInferenceDescriptor, 
                       ADEspressoWrapper, ADExecutor, ADExecutorParameters, ADFileLoggerHandler, 
                       ADImageDescriptor, ADImageSupportedSize, ADJasperColorExecutor, 
                       ADJasperColorExecutorParameters, ADJasperColorPipeline, ADJasperColorPipelineParameters, 
                       ADJasperColorStillsExecutor, ADJasperColorStillsExecutorParameters, 
                       ADJasperColorStillsPipeline, ADJasperColorStillsPipelineParameters, 
                       ADJasperPointCloud, ADJasperPointCloudFilterParamaters, ADJasperPointCloudFilterParameters, 
                       ADJasperToColorTransformCorrectionResult, ADLKTExecutor, ADLKTOpticalFlow, 
                       ADLKTTexturesDescriptor, ADLayoutUtils, ADLogger, ADLoggerHandler, 
                       ADMagnificationForRadiusLensDistortionModel, ADMetalUtils, 
                       ADMillimeterRadiusPairsLensDistortionModel, ADMonocularExecutor, 
                       ADMonocularExecutorParameters, ADMonocularPipeline, ADMonocularPipelineParameters, 
                       ADMonocularV2Executor, ADMonocularV2ExecutorParameters, ADMonocularV2Pipeline, 
                       ADMonocularV2PipelineParameters, ADMutableCameraCalibration, 
                       ADMutableJasperPointCloud, ADNetworkProvider, ADNilDistortionModel, 
                       ADNormals, ADNormalsBuffer, ADPCEDisparityColorExecutor, ADPCEDisparityColorExecutorParameters, 
                       ADPCEDisparityColorPipeline, ADPCEDisparityColorPipelineParameters, 
                       ADPCEStereoColorExecutor, ADPCEStereoColorExecutorParameters, 
                       ADPCEStereoColorPipeline, ADPCEStereoColorPipelineParameters, 
                       ADPipelineParameters, ADPointCloudAggregator, ADPolynomialsLensDistortionModel, 
                       ADRefinedPolynomialsLensDistortionModel, ADReprojection, ADSignpostUtils, 
                       ADStereoExecutor, ADStereoExecutorParameters, ADStereoPipeline, 
                       ADStereoPipelineParameters, ADTimeProfiler, ADTimeSync, ADTimeSyncJasperParameters, 
                       ADTimeSyncNode, ADTimeSyncParameters, ADTimeSyncPushResults, 
                       ADUtils, ADVisualLoggerHandler, ADWarperMeshLensDistortionModel, 
                       ADXThetaDistortionModel ]
    objc-ivars:      [ ADCameraCalibration._cameraToPlatformTransform, ADCameraCalibration._distortionModel, 
                       ADCameraCalibration._intrinsicMatrix, ADCameraCalibration._pixelSize, 
                       ADCameraCalibration._referenceDimensions, ADExecutor._engineType, 
                       ADExecutor._espressoRunner, ADExecutor._inputOrientation, 
                       ADExecutor._inputRoi, ADExecutor._layout, ADExecutor._rotationConstant, 
                       ADExecutor._rotationPreference, ADJasperPointCloud._dataBuffer, 
                       ADJasperPointCloud._pc, ADNormalsBuffer._vertices, ADPolynomialsLensDistortionModel._polynomials ]
  - targets:         [ arm64e-macos, arm64-macos ]
    symbols:         [ __Z13ADMLModelPathP8NSStringb ]
...
