--- !tapi-tbd-v2
archs:           [ x86_64 ]
uuids:           [ 'x86_64: 323C0759-7786-33A8-B0BA-C74B9D0F98E5' ]
platform:        macosx
install-name:    /System/Library/PrivateFrameworks/VectorKit.framework/Versions/A/VectorKit
current-version: 1337.20.7
exports:         
  - archs:           [ x86_64 ]
    symbols:         [ _GEOMapRectEnclosingCameraProperties, _GEOPDCameraPathFrameFromVKCameraFrame, 
                       _VKAnimationCurveDefaultCameraSpring, _VKAnimationCurveDefaultSpring, 
                       _VKAnimationCurveEaseIn, _VKAnimationCurveEaseInOut, _VKAnimationCurveEaseOut, 
                       _VKAnimationCurveExponentialEaseIn, _VKAnimationCurveExponentialEaseInOut, 
                       _VKAnimationCurveExponentialEaseOut, _VKAnimationCurveLinear, 
                       _VKAnimationCurveSpring, _VKCameraFrameFromGEOPDCameraPathFrame, 
                       _VKCameraPropertiesForRect, _VKDisablePerformanceHUD, _VKEnablePerformanceHUD, 
                       _VKExpandedPerformanceHUD, _VKLineDrawWithOuterStroke, _VKLocationCoordinate2DForVKPoint, 
                       _VKLocationCoordinate2DMake, _VKLocationCoordinate3DMake, 
                       _VKMapDisplayStyleDay, _VKMapDisplayStyleNight, _VKMapDisplayStyleRoute, 
                       _VKMapDisplayStyleTransit, _VKMapDisplayStyleTransitRoute, 
                       _VKMapViewDidBecomeFullyDrawnNotification, _VKMapViewDidBecomePartiallyDrawnNotification, 
                       _VKMinimalPerformanceHUD, _VKPerfDiagGetNameForRoadClass, 
                       _VKPerfDiagGetNumberOfRoadClasses, _VKPerfDoPostLoadSingleTileTestSetup, 
                       _VKPerfDoSingleTileTestSetup, _VKPerfGetDecodeStats, _VKPerfSetSingleTileNameAndReset, 
                       _VKPointForVKLocationCoordinate2D, _VKPounceDidEndNotification, 
                       _VKPounceWillStartNotification, _VKRectContainsPoint, _VKShieldColorsFromHexString, 
                       _VKShouldFlushTileCachesNotification, _VKTrafficIncidentSetSubtitleBlock, 
                       _VKTrafficIncidentSetTitleBlock, _VKWorldBoundsFromGEOTileKey, 
                       __ZN10MITManager12treeSnapshotEv, __ZN10MITManager13rootMITObjectEv, 
                       __ZN10MITManager18treeSnapshotHelperERK9MITObjectP14NSMutableArray, 
                       __ZN10MITManager20propertiesForMITPathERK7MITPath, __ZN10MITManagerC1EP9VKMapView, 
                       __ZN10MITManagerC2EP9VKMapView, __ZN11MITRegistry11PODRegistryEv, 
                       __ZN11MITRegistry13ClassRegistryEv, __ZN11MITRegistry17MITTypeInRegistryERKNSt3__112basic_stringIcNS0_11char_traitsIcEENS0_9allocatorIcEEEE, 
                       __ZN2md13DebugTreeNode10identifierEv, __ZN2md13DebugTreeNode11addPropertyENSt3__110shared_ptrINS_17DebugTreePropertyEEE, 
                       __ZN2md13DebugTreeNode11addPropertyENSt3__112basic_stringIcNS1_11char_traitsIcEENS1_9allocatorIcEEEENS1_6vectorINS_14DebugTreeValueENS5_IS9_EEEE, 
                       __ZN2md13DebugTreeNode11addPropertyENSt3__112basic_stringIcNS1_11char_traitsIcEENS1_9allocatorIcEEEENS1_6vectorINS_14DebugTreeValueENS5_IS9_EEEENS8_IS7_NS5_IS7_EEEE, 
                       __ZN2md13DebugTreeNode11addPropertyENSt3__112basic_stringIcNS1_11char_traitsIcEENS1_9allocatorIcEEEENS1_6vectorINS_14DebugTreeValueENS5_IS9_EEEES7_, 
                       __ZN2md13DebugTreeNode11addPropertyENSt3__112basic_stringIcNS1_11char_traitsIcEENS1_9allocatorIcEEEENS_14DebugTreeValueE, 
                       __ZN2md13DebugTreeNode11addPropertyENSt3__112basic_stringIcNS1_11char_traitsIcEENS1_9allocatorIcEEEENS_14DebugTreeValueENS1_6vectorIS7_NS5_IS7_EEEE, 
                       __ZN2md13DebugTreeNode11addPropertyENSt3__112basic_stringIcNS1_11char_traitsIcEENS1_9allocatorIcEEEENS_14DebugTreeValueES7_, 
                       __ZN2md13DebugTreeNode11addPropertyENSt3__112basic_stringIcNS1_11char_traitsIcEENS1_9allocatorIcEEEENS_17DebugTreeProperty14VisualizerTypeENS1_6vectorINS_14DebugTreeValueENS5_ISB_EEEE, 
                       __ZN2md13DebugTreeNode11addPropertyENSt3__112basic_stringIcNS1_11char_traitsIcEENS1_9allocatorIcEEEENS_17DebugTreeProperty14VisualizerTypeENS1_6vectorINS_14DebugTreeValueENS5_ISB_EEEENSA_IS7_NS5_IS7_EEEE, 
                       __ZN2md13DebugTreeNode11addPropertyENSt3__112basic_stringIcNS1_11char_traitsIcEENS1_9allocatorIcEEEENS_17DebugTreeProperty14VisualizerTypeENS1_6vectorINS_14DebugTreeValueENS5_ISB_EEEES7_, 
                       __ZN2md13DebugTreeNode11addPropertyENSt3__112basic_stringIcNS1_11char_traitsIcEENS1_9allocatorIcEEEENS_17DebugTreeProperty14VisualizerTypeENS_14DebugTreeValueE, 
                       __ZN2md13DebugTreeNode11addPropertyENSt3__112basic_stringIcNS1_11char_traitsIcEENS1_9allocatorIcEEEENS_17DebugTreeProperty14VisualizerTypeENS_14DebugTreeValueENS1_6vectorIS7_NS5_IS7_EEEE, 
                       __ZN2md13DebugTreeNode11addPropertyENSt3__112basic_stringIcNS1_11char_traitsIcEENS1_9allocatorIcEEEENS_17DebugTreeProperty14VisualizerTypeENS_14DebugTreeValueES7_, 
                       __ZN2md13DebugTreeNode12findRootNodeEv, __ZN2md13DebugTreeNode15createChildNodeENSt3__112basic_stringIcNS1_11char_traitsIcEENS1_9allocatorIcEEEE, 
                       __ZN2md13DebugTreeNode15createChildNodeENSt3__112basic_stringIcNS1_11char_traitsIcEENS1_9allocatorIcEEEES7_, 
                       __ZN2md13DebugTreeNode15deserializeNodeEP11objc_objecti, __ZN2md13DebugTreeNode18isIdentifierUniqueENSt3__112basic_stringIcNS1_11char_traitsIcEENS1_9allocatorIcEEEE, 
                       __ZN2md13DebugTreeNode20isPropertyNameUniqueENSt3__112basic_stringIcNS1_11char_traitsIcEENS1_9allocatorIcEEEE, 
                       __ZN2md13DebugTreeNode33isIdentifierUniqueRecursiveHelperENSt3__112basic_stringIcNS1_11char_traitsIcEENS1_9allocatorIcEEEE, 
                       __ZN2md13DebugTreeNode8addChildENSt3__110shared_ptrIS0_EE, 
                       __ZN2md13DebugTreeNodeC1ENSt3__112basic_stringIcNS1_11char_traitsIcEENS1_9allocatorIcEEEE, 
                       __ZN2md13DebugTreeNodeC1ENSt3__112basic_stringIcNS1_11char_traitsIcEENS1_9allocatorIcEEEES7_, 
                       __ZN2md13DebugTreeNodeC2ENSt3__112basic_stringIcNS1_11char_traitsIcEENS1_9allocatorIcEEEE, 
                       __ZN2md13DebugTreeNodeC2ENSt3__112basic_stringIcNS1_11char_traitsIcEENS1_9allocatorIcEEEES7_, 
                       __ZN2md14DebugTreeValue16deserializeValueEP11objc_objecti, 
                       __ZN2md14DebugTreeValueC1ENSt3__112basic_stringIcNS1_11char_traitsIcEENS1_9allocatorIcEEEE, 
                       __ZN2md14DebugTreeValueC1EP8NSString, __ZN2md14DebugTreeValueC1Eb, 
                       __ZN2md14DebugTreeValueC1Ed, __ZN2md14DebugTreeValueC1Ef, 
                       __ZN2md14DebugTreeValueC1Ex, __ZN2md14DebugTreeValueC1Ey, 
                       __ZN2md14DebugTreeValueC2ENSt3__112basic_stringIcNS1_11char_traitsIcEENS1_9allocatorIcEEEE, 
                       __ZN2md14DebugTreeValueC2EP8NSString, __ZN2md14DebugTreeValueC2Eb, 
                       __ZN2md14DebugTreeValueC2Ed, __ZN2md14DebugTreeValueC2Ef, 
                       __ZN2md14DebugTreeValueC2Ex, __ZN2md14DebugTreeValueC2Ey, 
                       __ZN2md17DebugTreeProperty19deserializePropertyEP11objc_objecti, 
                       __ZN2md17DebugTreeProperty6addTagENSt3__112basic_stringIcNS1_11char_traitsIcEENS1_9allocatorIcEEEE, 
                       __ZN2md17DebugTreeProperty8addValueENS_14DebugTreeValueE, 
                       __ZN2md17DebugTreePropertyC1ENSt3__112basic_stringIcNS1_11char_traitsIcEENS1_9allocatorIcEEEENS0_14VisualizerTypeE, 
                       __ZN2md17DebugTreePropertyC2ENSt3__112basic_stringIcNS1_11char_traitsIcEENS1_9allocatorIcEEEENS0_14VisualizerTypeE, 
                       __ZN2md9DebugTree10deactivateEv, __ZN2md9DebugTree12populateDataEv, 
                       __ZN2md9DebugTree15deserializeTreeEP11objc_object, __ZN2md9DebugTree8activateEP9VKMapView, 
                       __ZN2md9DebugTree9setOptionENS0_7OptionsEb, __ZN2md9DebugTreeC1Ev, 
                       __ZN2md9DebugTreeC2Ev, __ZN3ggl10ClutShader15typedReflectionEv, 
                       __ZN3ggl10ClutShader24vertexFunctionDescriptorEv, __ZN3ggl10ClutShader26fragmentFunctionDescriptorEv, 
                       __ZN3ggl10ClutShaderC1Ev, __ZN3ggl10ClutShaderC2Ev, __ZN3ggl10EndOfWorld10DefaultVbo10reflectionEv, 
                       __ZN3ggl10EndOfWorld17BasePipelineSetup11setBaseMeshEPKNS0_8BaseMeshE, 
                       __ZN3ggl10EndOfWorld17BasePipelineSetup15typedReflectionEv, 
                       __ZN3ggl10EndOfWorld17BasePipelineSetup18sharedConstantDataEv, 
                       __ZN3ggl10EndOfWorld17BasePipelineSetup19elementConstantDataEv, 
                       __ZN3ggl10EndOfWorld17BasePipelineSetup21setSharedConstantDataENSt3__110shared_ptrINS_17ConstantDataTypedINS0_6SharedEEEEE, 
                       __ZN3ggl10EndOfWorld17BasePipelineSetup22setElementConstantDataENSt3__110shared_ptrINS_17ConstantDataTypedINS0_7ElementEEEEE, 
                       __ZN3ggl10EndOfWorld17BasePipelineSetup8baseMeshEv, __ZN3ggl10EndOfWorld17BasePipelineSetup8setStateERKNSt3__110shared_ptrINS0_17BasePipelineStateEEE, 
                       __ZN3ggl10EndOfWorld17BasePipelineSetupC1ERKNSt3__110shared_ptrINS0_17BasePipelineStateEEE, 
                       __ZN3ggl10EndOfWorld17BasePipelineSetupC1ERKNSt3__110shared_ptrINS0_17BasePipelineStateEEERKNS3_INS_17ConstantDataTypedINS0_7ElementEEEEERKNS3_INS8_INS0_6SharedEEEEEPNS_9Texture2DE, 
                       __ZN3ggl10EndOfWorld17BasePipelineSetupC1Ev, __ZN3ggl10EndOfWorld17BasePipelineSetupC2ERKNSt3__110shared_ptrINS0_17BasePipelineStateEEE, 
                       __ZN3ggl10EndOfWorld17BasePipelineSetupC2ERKNSt3__110shared_ptrINS0_17BasePipelineStateEEERKNS3_INS_17ConstantDataTypedINS0_7ElementEEEEERKNS3_INS8_INS0_6SharedEEEEEPNS_9Texture2DE, 
                       __ZN3ggl10EndOfWorld17BasePipelineSetupC2Ev, __ZN3ggl10EndOfWorld17BasePipelineState15typedReflectionEv, 
                       __ZN3ggl10EndOfWorld17BasePipelineStateC1ERKNS_20ColorBufferOperationENS_18RenderTargetFormatE, 
                       __ZN3ggl10EndOfWorld17BasePipelineStateC1ERKNSt3__110shared_ptrINS_16EndOfWorldShaderEEERKNS_20ColorBufferOperationENS_18RenderTargetFormatE, 
                       __ZN3ggl10EndOfWorld17BasePipelineStateC2ERKNS_20ColorBufferOperationENS_18RenderTargetFormatE, 
                       __ZN3ggl10EndOfWorld17BasePipelineStateC2ERKNSt3__110shared_ptrINS_16EndOfWorldShaderEEERKNS_20ColorBufferOperationENS_18RenderTargetFormatE, 
                       __ZN3ggl10EndOfWorld6Shared10reflectionEv, __ZN3ggl10EndOfWorld7Element10reflectionEv, 
                       __ZN3ggl10EndOfWorld8BaseMeshC1EPKc, __ZN3ggl10EndOfWorld8BaseMeshC1EPKcNSt3__110shared_ptrINS_15VertexDataTypedINS0_10DefaultVboEEEEENS5_INS_9IndexDataEEE, 
                       __ZN3ggl10EndOfWorld8BaseMeshC2EPKc, __ZN3ggl10EndOfWorld8BaseMeshC2EPKcNSt3__110shared_ptrINS_15VertexDataTypedINS0_10DefaultVboEEEEENS5_INS_9IndexDataEEE, 
                       __ZN3ggl10GlowShader15typedReflectionEv, __ZN3ggl10GlowShader24vertexFunctionDescriptorEv, 
                       __ZN3ggl10GlowShader26fragmentFunctionDescriptorEv, __ZN3ggl10GlowShaderC1Ev, 
                       __ZN3ggl10GlowShaderC2Ev, __ZN3ggl10GridShader15typedReflectionEv, 
                       __ZN3ggl10GridShader24vertexFunctionDescriptorEv, __ZN3ggl10GridShader26fragmentFunctionDescriptorEv, 
                       __ZN3ggl10GridShaderC1Ev, __ZN3ggl10GridShaderC2Ev, __ZN3ggl10IconShader15typedReflectionEv, 
                       __ZN3ggl10IconShader24vertexFunctionDescriptorEv, __ZN3ggl10IconShader26fragmentFunctionDescriptorEv, 
                       __ZN3ggl10IconShaderC1Ev, __ZN3ggl10IconShaderC2Ev, __ZN3ggl10LineShader15typedReflectionEv, 
                       __ZN3ggl10LineShader24vertexFunctionDescriptorEv, __ZN3ggl10LineShader26fragmentFunctionDescriptorEv, 
                       __ZN3ggl10LineShaderC1Ev, __ZN3ggl10LineShaderC2Ev, __ZN3ggl10SimpleGrid17GridPipelineSetup11setGridMeshEPKNS_8GridBase8GridMeshE, 
                       __ZN3ggl10SimpleGrid17GridPipelineSetup15typedReflectionEv, 
                       __ZN3ggl10SimpleGrid17GridPipelineSetup16viewConstantDataEv, 
                       __ZN3ggl10SimpleGrid17GridPipelineSetup17styleConstantDataEv, 
                       __ZN3ggl10SimpleGrid17GridPipelineSetup19setViewConstantDataENSt3__110shared_ptrINS_17ConstantDataTypedINS_4Tile4ViewEEEEE, 
                       __ZN3ggl10SimpleGrid17GridPipelineSetup20gridViewConstantDataEv, 
                       __ZN3ggl10SimpleGrid17GridPipelineSetup20setStyleConstantDataENSt3__110shared_ptrINS_17ConstantDataTypedINS0_5StyleEEEEE, 
                       __ZN3ggl10SimpleGrid17GridPipelineSetup23setGridViewConstantDataENSt3__110shared_ptrINS_17ConstantDataTypedINS_8GridBase8GridViewEEEEE, 
                       __ZN3ggl10SimpleGrid17GridPipelineSetup8gridMeshEv, __ZN3ggl10SimpleGrid17GridPipelineSetup8setStateERKNSt3__110shared_ptrINS0_17GridPipelineStateEEE, 
                       __ZN3ggl10SimpleGrid17GridPipelineSetupC1ERKNSt3__110shared_ptrINS0_17GridPipelineStateEEE, 
                       __ZN3ggl10SimpleGrid17GridPipelineSetupC1ERKNSt3__110shared_ptrINS0_17GridPipelineStateEEERKNS3_INS_17ConstantDataTypedINS_4Tile4ViewEEEEERKNS3_INS8_INS_8GridBase8GridViewEEEEERKNS3_INS8_INS0_5StyleEEEEE, 
                       __ZN3ggl10SimpleGrid17GridPipelineSetupC1Ev, __ZN3ggl10SimpleGrid17GridPipelineSetupC2ERKNSt3__110shared_ptrINS0_17GridPipelineStateEEE, 
                       __ZN3ggl10SimpleGrid17GridPipelineSetupC2ERKNSt3__110shared_ptrINS0_17GridPipelineStateEEERKNS3_INS_17ConstantDataTypedINS_4Tile4ViewEEEEERKNS3_INS8_INS_8GridBase8GridViewEEEEERKNS3_INS8_INS0_5StyleEEEEE, 
                       __ZN3ggl10SimpleGrid17GridPipelineSetupC2Ev, __ZN3ggl10SimpleGrid17GridPipelineState15typedReflectionEv, 
                       __ZN3ggl10SimpleGrid17GridPipelineStateC1ERKNS_20ColorBufferOperationENS_18RenderTargetFormatE, 
                       __ZN3ggl10SimpleGrid17GridPipelineStateC1ERKNSt3__110shared_ptrINS_16SimpleGridShaderEEERKNS_20ColorBufferOperationENS_18RenderTargetFormatE, 
                       __ZN3ggl10SimpleGrid17GridPipelineStateC2ERKNS_20ColorBufferOperationENS_18RenderTargetFormatE, 
                       __ZN3ggl10SimpleGrid17GridPipelineStateC2ERKNSt3__110shared_ptrINS_16SimpleGridShaderEEERKNS_20ColorBufferOperationENS_18RenderTargetFormatE, 
                       __ZN3ggl10SimpleGrid5Style10reflectionEv, __ZN3ggl10TileSkybox10DefaultVbo10reflectionEv, 
                       __ZN3ggl10TileSkybox17BasePipelineSetup11setBaseMeshEPKNS0_8BaseMeshE, 
                       __ZN3ggl10TileSkybox17BasePipelineSetup15typedReflectionEv, 
                       __ZN3ggl10TileSkybox17BasePipelineSetup16viewConstantDataEv, 
                       __ZN3ggl10TileSkybox17BasePipelineSetup19elementConstantDataEv, 
                       __ZN3ggl10TileSkybox17BasePipelineSetup19setViewConstantDataENSt3__110shared_ptrINS_17ConstantDataTypedINS0_4ViewEEEEE, 
                       __ZN3ggl10TileSkybox17BasePipelineSetup22setElementConstantDataENSt3__110shared_ptrINS_17ConstantDataTypedINS0_7ElementEEEEE, 
                       __ZN3ggl10TileSkybox17BasePipelineSetup8baseMeshEv, __ZN3ggl10TileSkybox17BasePipelineSetup8setStateERKNSt3__110shared_ptrINS0_17BasePipelineStateEEE, 
                       __ZN3ggl10TileSkybox17BasePipelineSetupC1ERKNSt3__110shared_ptrINS0_17BasePipelineStateEEE, 
                       __ZN3ggl10TileSkybox17BasePipelineSetupC1ERKNSt3__110shared_ptrINS0_17BasePipelineStateEEERKNS3_INS_17ConstantDataTypedINS0_7ElementEEEEERKNS3_INS8_INS0_4ViewEEEEEPNS_9Texture2DE, 
                       __ZN3ggl10TileSkybox17BasePipelineSetupC1Ev, __ZN3ggl10TileSkybox17BasePipelineSetupC2ERKNSt3__110shared_ptrINS0_17BasePipelineStateEEE, 
                       __ZN3ggl10TileSkybox17BasePipelineSetupC2ERKNSt3__110shared_ptrINS0_17BasePipelineStateEEERKNS3_INS_17ConstantDataTypedINS0_7ElementEEEEERKNS3_INS8_INS0_4ViewEEEEEPNS_9Texture2DE, 
                       __ZN3ggl10TileSkybox17BasePipelineSetupC2Ev, __ZN3ggl10TileSkybox17BasePipelineState15typedReflectionEv, 
                       __ZN3ggl10TileSkybox17BasePipelineStateC1ERKNS_20ColorBufferOperationENS_18RenderTargetFormatE, 
                       __ZN3ggl10TileSkybox17BasePipelineStateC1ERKNSt3__110shared_ptrINS_16TileSkyboxShaderEEERKNS_20ColorBufferOperationENS_18RenderTargetFormatE, 
                       __ZN3ggl10TileSkybox17BasePipelineStateC2ERKNS_20ColorBufferOperationENS_18RenderTargetFormatE, 
                       __ZN3ggl10TileSkybox17BasePipelineStateC2ERKNSt3__110shared_ptrINS_16TileSkyboxShaderEEERKNS_20ColorBufferOperationENS_18RenderTargetFormatE, 
                       __ZN3ggl10TileSkybox4View10reflectionEv, __ZN3ggl10TileSkybox7Element10reflectionEv, 
                       __ZN3ggl10TileSkybox8BaseMeshC1EPKc, __ZN3ggl10TileSkybox8BaseMeshC1EPKcNSt3__110shared_ptrINS_15VertexDataTypedINS0_10DefaultVboEEEEENS5_INS_9IndexDataEEE, 
                       __ZN3ggl10TileSkybox8BaseMeshC2EPKc, __ZN3ggl10TileSkybox8BaseMeshC2EPKcNSt3__110shared_ptrINS_15VertexDataTypedINS0_10DefaultVboEEEEENS5_INS_9IndexDataEEE, 
                       __ZN3ggl11ClearShader15typedReflectionEv, __ZN3ggl11ClearShader24vertexFunctionDescriptorEv, 
                       __ZN3ggl11ClearShader26fragmentFunctionDescriptorEv, __ZN3ggl11ClearShaderC1Ev, 
                       __ZN3ggl11ClearShaderC2Ev, __ZN3ggl11ColoredText15MyPipelineSetup15typedReflectionEv, 
                       __ZN3ggl11ColoredText15MyPipelineSetup16viewConstantDataEv, 
                       __ZN3ggl11ColoredText15MyPipelineSetup19setViewConstantDataENSt3__110shared_ptrINS_17ConstantDataTypedINS0_4ViewEEEEE, 
                       __ZN3ggl11ColoredText15MyPipelineSetup6myMeshEv, __ZN3ggl11ColoredText15MyPipelineSetup8setStateERKNSt3__110shared_ptrINS0_15MyPipelineStateEEE, 
                       __ZN3ggl11ColoredText15MyPipelineSetup9setMyMeshEPKNS0_6MyMeshE, 
                       __ZN3ggl11ColoredText15MyPipelineSetupC1ERKNSt3__110shared_ptrINS0_15MyPipelineStateEEE, 
                       __ZN3ggl11ColoredText15MyPipelineSetupC1ERKNSt3__110shared_ptrINS0_15MyPipelineStateEEERKNS3_INS_17ConstantDataTypedINS0_4ViewEEEEEPNS_9Texture2DE, 
                       __ZN3ggl11ColoredText15MyPipelineSetupC1Ev, __ZN3ggl11ColoredText15MyPipelineSetupC2ERKNSt3__110shared_ptrINS0_15MyPipelineStateEEE, 
                       __ZN3ggl11ColoredText15MyPipelineSetupC2ERKNSt3__110shared_ptrINS0_15MyPipelineStateEEERKNS3_INS_17ConstantDataTypedINS0_4ViewEEEEEPNS_9Texture2DE, 
                       __ZN3ggl11ColoredText15MyPipelineSetupC2Ev, __ZN3ggl11ColoredText15MyPipelineState15typedReflectionEv, 
                       __ZN3ggl11ColoredText15MyPipelineStateC1ERKNS_20ColorBufferOperationENS_18RenderTargetFormatE, 
                       __ZN3ggl11ColoredText15MyPipelineStateC1ERKNSt3__110shared_ptrINS_17ColoredTextShaderEEERKNS_20ColorBufferOperationENS_18RenderTargetFormatE, 
                       __ZN3ggl11ColoredText15MyPipelineStateC2ERKNS_20ColorBufferOperationENS_18RenderTargetFormatE, 
                       __ZN3ggl11ColoredText15MyPipelineStateC2ERKNSt3__110shared_ptrINS_17ColoredTextShaderEEERKNS_20ColorBufferOperationENS_18RenderTargetFormatE, 
                       __ZN3ggl11ColoredText2My10reflectionEv, __ZN3ggl11ColoredText4View10reflectionEv, 
                       __ZN3ggl11ColoredText6MyMeshC1EPKc, __ZN3ggl11ColoredText6MyMeshC1EPKcNSt3__110shared_ptrINS_15VertexDataTypedINS0_2MyEEEEENS5_INS_9IndexDataEEE, 
                       __ZN3ggl11ColoredText6MyMeshC2EPKc, __ZN3ggl11ColoredText6MyMeshC2EPKcNSt3__110shared_ptrINS_15VertexDataTypedINS0_2MyEEEEENS5_INS_9IndexDataEEE, 
                       __ZN3ggl11DebugPoints10DefaultVbo10reflectionEv, __ZN3ggl11DebugPoints17BasePipelineSetup11setBaseMeshEPKNS0_8BaseMeshE, 
                       __ZN3ggl11DebugPoints17BasePipelineSetup15typedReflectionEv, 
                       __ZN3ggl11DebugPoints17BasePipelineSetup16viewConstantDataEv, 
                       __ZN3ggl11DebugPoints17BasePipelineSetup19setViewConstantDataENSt3__110shared_ptrINS_17ConstantDataTypedINS0_4ViewEEEEE, 
                       __ZN3ggl11DebugPoints17BasePipelineSetup8baseMeshEv, __ZN3ggl11DebugPoints17BasePipelineSetup8setStateERKNSt3__110shared_ptrINS0_17BasePipelineStateEEE, 
                       __ZN3ggl11DebugPoints17BasePipelineSetupC1ERKNSt3__110shared_ptrINS0_17BasePipelineStateEEE, 
                       __ZN3ggl11DebugPoints17BasePipelineSetupC1ERKNSt3__110shared_ptrINS0_17BasePipelineStateEEERKNS3_INS_17ConstantDataTypedINS0_4ViewEEEEE, 
                       __ZN3ggl11DebugPoints17BasePipelineSetupC1Ev, __ZN3ggl11DebugPoints17BasePipelineSetupC2ERKNSt3__110shared_ptrINS0_17BasePipelineStateEEE, 
                       __ZN3ggl11DebugPoints17BasePipelineSetupC2ERKNSt3__110shared_ptrINS0_17BasePipelineStateEEERKNS3_INS_17ConstantDataTypedINS0_4ViewEEEEE, 
                       __ZN3ggl11DebugPoints17BasePipelineSetupC2Ev, __ZN3ggl11DebugPoints17BasePipelineState15typedReflectionEv, 
                       __ZN3ggl11DebugPoints17BasePipelineStateC1ERKNS_20ColorBufferOperationENS_18RenderTargetFormatE, 
                       __ZN3ggl11DebugPoints17BasePipelineStateC1ERKNSt3__110shared_ptrINS_17DebugPointsShaderEEERKNS_20ColorBufferOperationENS_18RenderTargetFormatE, 
                       __ZN3ggl11DebugPoints17BasePipelineStateC2ERKNS_20ColorBufferOperationENS_18RenderTargetFormatE, 
                       __ZN3ggl11DebugPoints17BasePipelineStateC2ERKNSt3__110shared_ptrINS_17DebugPointsShaderEEERKNS_20ColorBufferOperationENS_18RenderTargetFormatE, 
                       __ZN3ggl11DebugPoints4View10reflectionEv, __ZN3ggl11DebugPoints8BaseMeshC1EPKc, 
                       __ZN3ggl11DebugPoints8BaseMeshC1EPKcNSt3__110shared_ptrINS_15VertexDataTypedINS0_10DefaultVboEEEEENS5_INS_9IndexDataEEE, 
                       __ZN3ggl11DebugPoints8BaseMeshC2EPKc, __ZN3ggl11DebugPoints8BaseMeshC2EPKcNSt3__110shared_ptrINS_15VertexDataTypedINS0_10DefaultVboEEEEENS5_INS_9IndexDataEEE, 
                       __ZN3ggl11DebugShader15typedReflectionEv, __ZN3ggl11DebugShader24vertexFunctionDescriptorEv, 
                       __ZN3ggl11DebugShader26fragmentFunctionDescriptorEv, __ZN3ggl11DebugShaderC1Ev, 
                       __ZN3ggl11DebugShaderC2Ev, __ZN3ggl11EarthCorona10DefaultVbo10reflectionEv, 
                       __ZN3ggl11EarthCorona17BasePipelineSetup11setBaseMeshEPKNS0_8BaseMeshE, 
                       __ZN3ggl11EarthCorona17BasePipelineSetup15typedReflectionEv, 
                       __ZN3ggl11EarthCorona17BasePipelineSetup16baseConstantDataEv, 
                       __ZN3ggl11EarthCorona17BasePipelineSetup19setBaseConstantDataENSt3__110shared_ptrINS_17ConstantDataTypedINS0_4BaseEEEEE, 
                       __ZN3ggl11EarthCorona17BasePipelineSetup8baseMeshEv, __ZN3ggl11EarthCorona17BasePipelineSetup8setStateERKNSt3__110shared_ptrINS0_17BasePipelineStateEEE, 
                       __ZN3ggl11EarthCorona17BasePipelineSetupC1ERKNSt3__110shared_ptrINS0_17BasePipelineStateEEE, 
                       __ZN3ggl11EarthCorona17BasePipelineSetupC1ERKNSt3__110shared_ptrINS0_17BasePipelineStateEEERKNS3_INS_17ConstantDataTypedINS0_4BaseEEEEEPNS_9Texture2DE, 
                       __ZN3ggl11EarthCorona17BasePipelineSetupC1Ev, __ZN3ggl11EarthCorona17BasePipelineSetupC2ERKNSt3__110shared_ptrINS0_17BasePipelineStateEEE, 
                       __ZN3ggl11EarthCorona17BasePipelineSetupC2ERKNSt3__110shared_ptrINS0_17BasePipelineStateEEERKNS3_INS_17ConstantDataTypedINS0_4BaseEEEEEPNS_9Texture2DE, 
                       __ZN3ggl11EarthCorona17BasePipelineSetupC2Ev, __ZN3ggl11EarthCorona17BasePipelineState15typedReflectionEv, 
                       __ZN3ggl11EarthCorona17BasePipelineStateC1ERKNS_20ColorBufferOperationENS_18RenderTargetFormatE, 
                       __ZN3ggl11EarthCorona17BasePipelineStateC1ERKNSt3__110shared_ptrINS_17EarthCoronaShaderEEERKNS_20ColorBufferOperationENS_18RenderTargetFormatE, 
                       __ZN3ggl11EarthCorona17BasePipelineStateC2ERKNS_20ColorBufferOperationENS_18RenderTargetFormatE, 
                       __ZN3ggl11EarthCorona17BasePipelineStateC2ERKNSt3__110shared_ptrINS_17EarthCoronaShaderEEERKNS_20ColorBufferOperationENS_18RenderTargetFormatE, 
                       __ZN3ggl11EarthCorona4Base10reflectionEv, __ZN3ggl11EarthCorona8BaseMeshC1EPKc, 
                       __ZN3ggl11EarthCorona8BaseMeshC1EPKcNSt3__110shared_ptrINS_15VertexDataTypedINS0_10DefaultVboEEEEENS5_INS_9IndexDataEEE, 
                       __ZN3ggl11EarthCorona8BaseMeshC2EPKc, __ZN3ggl11EarthCorona8BaseMeshC2EPKcNSt3__110shared_ptrINS_15VertexDataTypedINS0_10DefaultVboEEEEENS5_INS_9IndexDataEEE, 
                       __ZN3ggl11FlyoverFlat10FlatFactor10reflectionEv, __ZN3ggl11FlyoverFlat17FlatPipelineSetup11setFlatMeshEPKNS0_8FlatMeshE, 
                       __ZN3ggl11FlyoverFlat17FlatPipelineSetup15typedReflectionEv, 
                       __ZN3ggl11FlyoverFlat17FlatPipelineSetup16clipConstantDataEv, 
                       __ZN3ggl11FlyoverFlat17FlatPipelineSetup18sharedConstantDataEv, 
                       __ZN3ggl11FlyoverFlat17FlatPipelineSetup19setClipConstantDataENSt3__110shared_ptrINS_17ConstantDataTypedINS_13FlyoverCommon4ClipEEEEE, 
                       __ZN3ggl11FlyoverFlat17FlatPipelineSetup20materialConstantDataEv, 
                       __ZN3ggl11FlyoverFlat17FlatPipelineSetup21setSharedConstantDataENSt3__110shared_ptrINS_17ConstantDataTypedINS_13FlyoverCommon6SharedEEEEE, 
                       __ZN3ggl11FlyoverFlat17FlatPipelineSetup21texcoordsConstantDataEv, 
                       __ZN3ggl11FlyoverFlat17FlatPipelineSetup21transformConstantDataEv, 
                       __ZN3ggl11FlyoverFlat17FlatPipelineSetup22flatFactorConstantDataEv, 
                       __ZN3ggl11FlyoverFlat17FlatPipelineSetup23setMaterialConstantDataENSt3__110shared_ptrINS_17ConstantDataTypedINS_13FlyoverCommon8MaterialEEEEE, 
                       __ZN3ggl11FlyoverFlat17FlatPipelineSetup24setTexcoordsConstantDataENSt3__110shared_ptrINS_17ConstantDataTypedINS_13FlyoverCommon9TexcoordsEEEEE, 
                       __ZN3ggl11FlyoverFlat17FlatPipelineSetup24setTransformConstantDataENSt3__110shared_ptrINS_17ConstantDataTypedINS_13FlyoverCommon9TransformEEEEE, 
                       __ZN3ggl11FlyoverFlat17FlatPipelineSetup25setFlatFactorConstantDataENSt3__110shared_ptrINS_17ConstantDataTypedINS0_10FlatFactorEEEEE, 
                       __ZN3ggl11FlyoverFlat17FlatPipelineSetup8flatMeshEv, __ZN3ggl11FlyoverFlat17FlatPipelineSetup8setStateERKNSt3__110shared_ptrINS0_17FlatPipelineStateEEE, 
                       __ZN3ggl11FlyoverFlat17FlatPipelineSetupC1ERKNSt3__110shared_ptrINS0_17FlatPipelineStateEEE, 
                       __ZN3ggl11FlyoverFlat17FlatPipelineSetupC1ERKNSt3__110shared_ptrINS0_17FlatPipelineStateEEERKNS3_INS_17ConstantDataTypedINS_13FlyoverCommon6SharedEEEEERKNS3_INS8_INS9_9TransformEEEEERKNS3_INS8_INS9_4ClipEEEEERKNS3_INS8_INS9_8MaterialEEEEERKNS3_INS8_INS9_9TexcoordsEEEEERKNS3_INS8_INS0_10FlatFactorEEEEEPNS_9Texture2DES15_S15_, 
                       __ZN3ggl11FlyoverFlat17FlatPipelineSetupC1Ev, __ZN3ggl11FlyoverFlat17FlatPipelineSetupC2ERKNSt3__110shared_ptrINS0_17FlatPipelineStateEEE, 
                       __ZN3ggl11FlyoverFlat17FlatPipelineSetupC2ERKNSt3__110shared_ptrINS0_17FlatPipelineStateEEERKNS3_INS_17ConstantDataTypedINS_13FlyoverCommon6SharedEEEEERKNS3_INS8_INS9_9TransformEEEEERKNS3_INS8_INS9_4ClipEEEEERKNS3_INS8_INS9_8MaterialEEEEERKNS3_INS8_INS9_9TexcoordsEEEEERKNS3_INS8_INS0_10FlatFactorEEEEEPNS_9Texture2DES15_S15_, 
                       __ZN3ggl11FlyoverFlat17FlatPipelineSetupC2Ev, __ZN3ggl11FlyoverFlat17FlatPipelineState15typedReflectionEv, 
                       __ZN3ggl11FlyoverFlat17FlatPipelineStateC1ERKNS_20ColorBufferOperationENS_18RenderTargetFormatE, 
                       __ZN3ggl11FlyoverFlat17FlatPipelineStateC1ERKNSt3__110shared_ptrINS_17FlyoverFlatShaderEEERKNS_20ColorBufferOperationENS_18RenderTargetFormatE, 
                       __ZN3ggl11FlyoverFlat17FlatPipelineStateC2ERKNS_20ColorBufferOperationENS_18RenderTargetFormatE, 
                       __ZN3ggl11FlyoverFlat17FlatPipelineStateC2ERKNSt3__110shared_ptrINS_17FlyoverFlatShaderEEERKNS_20ColorBufferOperationENS_18RenderTargetFormatE, 
                       __ZN3ggl11FlyoverFlat6Vertex10reflectionEv, __ZN3ggl11FlyoverFlat8FlatMeshC1EPKc, 
                       __ZN3ggl11FlyoverFlat8FlatMeshC1EPKcNSt3__110shared_ptrINS_15VertexDataTypedINS0_6VertexEEEEENS5_INS_9IndexDataEEE, 
                       __ZN3ggl11FlyoverFlat8FlatMeshC2EPKc, __ZN3ggl11FlyoverFlat8FlatMeshC2EPKcNSt3__110shared_ptrINS_15VertexDataTypedINS0_6VertexEEEEENS5_INS_9IndexDataEEE, 
                       __ZN3ggl11FlyoverRoad11DefaultMeshC1EPKc, __ZN3ggl11FlyoverRoad11DefaultMeshC1EPKcNSt3__110shared_ptrINS_15VertexDataTypedINS0_7DefaultEEEEENS5_INS_9IndexDataEEE, 
                       __ZN3ggl11FlyoverRoad11DefaultMeshC2EPKc, __ZN3ggl11FlyoverRoad11DefaultMeshC2EPKcNSt3__110shared_ptrINS_15VertexDataTypedINS0_7DefaultEEEEENS5_INS_9IndexDataEEE, 
                       __ZN3ggl11FlyoverRoad11RibbonExtra10reflectionEv, __ZN3ggl11FlyoverRoad5Blend10reflectionEv, 
                       __ZN3ggl11FlyoverRoad5Color10reflectionEv, __ZN3ggl11FlyoverRoad7Default10reflectionEv, 
                       __ZN3ggl11FlyoverRoad9Transform10reflectionEv, __ZN3ggl11GroundCover10DefaultVbo10reflectionEv, 
                       __ZN3ggl11GroundCover15GroundCoverMeshC1EPKc, __ZN3ggl11GroundCover15GroundCoverMeshC1EPKcNSt3__110shared_ptrINS_15VertexDataTypedINS0_10DefaultVboEEEEENS5_INS_9IndexDataEEE, 
                       __ZN3ggl11GroundCover15GroundCoverMeshC2EPKc, __ZN3ggl11GroundCover15GroundCoverMeshC2EPKcNSt3__110shared_ptrINS_15VertexDataTypedINS0_10DefaultVboEEEEENS5_INS_9IndexDataEEE, 
                       __ZN3ggl11PolygonBase10DefaultVbo10reflectionEv, __ZN3ggl11PolygonBase13CompressedVbo10reflectionEv, 
                       __ZN3ggl11PolygonBase18CompressedMeshMeshC1EPKc, __ZN3ggl11PolygonBase18CompressedMeshMeshC1EPKcNSt3__110shared_ptrINS_15VertexDataTypedINS0_13CompressedVboEEEEENS5_INS_9IndexDataEEE, 
                       __ZN3ggl11PolygonBase18CompressedMeshMeshC2EPKc, __ZN3ggl11PolygonBase18CompressedMeshMeshC2EPKcNSt3__110shared_ptrINS_15VertexDataTypedINS0_13CompressedVboEEEEENS5_INS_9IndexDataEEE, 
                       __ZN3ggl11PolygonBase8MeshMeshC1EPKc, __ZN3ggl11PolygonBase8MeshMeshC1EPKcNSt3__110shared_ptrINS_15VertexDataTypedINS0_10DefaultVboEEEEENS5_INS_9IndexDataEEE, 
                       __ZN3ggl11PolygonBase8MeshMeshC2EPKc, __ZN3ggl11PolygonBase8MeshMeshC2EPKcNSt3__110shared_ptrINS_15VertexDataTypedINS0_10DefaultVboEEEEENS5_INS_9IndexDataEEE, 
                       __ZN3ggl11PolygonFill17MeshPipelineSetup11setMeshMeshEPKNS_11PolygonBase8MeshMeshE, 
                       __ZN3ggl11PolygonFill17MeshPipelineSetup15typedReflectionEv, 
                       __ZN3ggl11PolygonFill17MeshPipelineSetup16fillConstantDataEv, 
                       __ZN3ggl11PolygonFill17MeshPipelineSetup16viewConstantDataEv, 
                       __ZN3ggl11PolygonFill17MeshPipelineSetup19setFillConstantDataENSt3__110shared_ptrINS_17ConstantDataTypedINS0_4FillEEEEE, 
                       __ZN3ggl11PolygonFill17MeshPipelineSetup19setViewConstantDataENSt3__110shared_ptrINS_17ConstantDataTypedINS_4Tile4ViewEEEEE, 
                       __ZN3ggl11PolygonFill17MeshPipelineSetup8meshMeshEv, __ZN3ggl11PolygonFill17MeshPipelineSetup8setStateERKNSt3__110shared_ptrINS0_17MeshPipelineStateEEE, 
                       __ZN3ggl11PolygonFill17MeshPipelineSetupC1ERKNSt3__110shared_ptrINS0_17MeshPipelineStateEEE, 
                       __ZN3ggl11PolygonFill17MeshPipelineSetupC1ERKNSt3__110shared_ptrINS0_17MeshPipelineStateEEERKNS3_INS_17ConstantDataTypedINS_4Tile4ViewEEEEERKNS3_INS8_INS0_4FillEEEEEPNS_9Texture2DE, 
                       __ZN3ggl11PolygonFill17MeshPipelineSetupC1Ev, __ZN3ggl11PolygonFill17MeshPipelineSetupC2ERKNSt3__110shared_ptrINS0_17MeshPipelineStateEEE, 
                       __ZN3ggl11PolygonFill17MeshPipelineSetupC2ERKNSt3__110shared_ptrINS0_17MeshPipelineStateEEERKNS3_INS_17ConstantDataTypedINS_4Tile4ViewEEEEERKNS3_INS8_INS0_4FillEEEEEPNS_9Texture2DE, 
                       __ZN3ggl11PolygonFill17MeshPipelineSetupC2Ev, __ZN3ggl11PolygonFill17MeshPipelineState15typedReflectionEv, 
                       __ZN3ggl11PolygonFill17MeshPipelineStateC1ERKNS_20ColorBufferOperationENS_18RenderTargetFormatE, 
                       __ZN3ggl11PolygonFill17MeshPipelineStateC1ERKNSt3__110shared_ptrINS_17PolygonFillShaderEEERKNS_20ColorBufferOperationENS_18RenderTargetFormatE, 
                       __ZN3ggl11PolygonFill17MeshPipelineStateC2ERKNS_20ColorBufferOperationENS_18RenderTargetFormatE, 
                       __ZN3ggl11PolygonFill17MeshPipelineStateC2ERKNSt3__110shared_ptrINS_17PolygonFillShaderEEERKNS_20ColorBufferOperationENS_18RenderTargetFormatE, 
                       __ZN3ggl11PolygonFill27CompressedMeshPipelineSetup15typedReflectionEv, 
                       __ZN3ggl11PolygonFill27CompressedMeshPipelineSetup16fillConstantDataEv, 
                       __ZN3ggl11PolygonFill27CompressedMeshPipelineSetup16viewConstantDataEv, 
                       __ZN3ggl11PolygonFill27CompressedMeshPipelineSetup18compressedMeshMeshEv, 
                       __ZN3ggl11PolygonFill27CompressedMeshPipelineSetup19setFillConstantDataENSt3__110shared_ptrINS_17ConstantDataTypedINS0_4FillEEEEE, 
                       __ZN3ggl11PolygonFill27CompressedMeshPipelineSetup19setViewConstantDataENSt3__110shared_ptrINS_17ConstantDataTypedINS_4Tile4ViewEEEEE, 
                       __ZN3ggl11PolygonFill27CompressedMeshPipelineSetup21setCompressedMeshMeshEPKNS_11PolygonBase18CompressedMeshMeshE, 
                       __ZN3ggl11PolygonFill27CompressedMeshPipelineSetup8setStateERKNSt3__110shared_ptrINS0_27CompressedMeshPipelineStateEEE, 
                       __ZN3ggl11PolygonFill27CompressedMeshPipelineSetupC1ERKNSt3__110shared_ptrINS0_27CompressedMeshPipelineStateEEE, 
                       __ZN3ggl11PolygonFill27CompressedMeshPipelineSetupC1ERKNSt3__110shared_ptrINS0_27CompressedMeshPipelineStateEEERKNS3_INS_17ConstantDataTypedINS_4Tile4ViewEEEEERKNS3_INS8_INS0_4FillEEEEEPNS_9Texture2DE, 
                       __ZN3ggl11PolygonFill27CompressedMeshPipelineSetupC1Ev, __ZN3ggl11PolygonFill27CompressedMeshPipelineSetupC2ERKNSt3__110shared_ptrINS0_27CompressedMeshPipelineStateEEE, 
                       __ZN3ggl11PolygonFill27CompressedMeshPipelineSetupC2ERKNSt3__110shared_ptrINS0_27CompressedMeshPipelineStateEEERKNS3_INS_17ConstantDataTypedINS_4Tile4ViewEEEEERKNS3_INS8_INS0_4FillEEEEEPNS_9Texture2DE, 
                       __ZN3ggl11PolygonFill27CompressedMeshPipelineSetupC2Ev, __ZN3ggl11PolygonFill27CompressedMeshPipelineState15typedReflectionEv, 
                       __ZN3ggl11PolygonFill27CompressedMeshPipelineStateC1ERKNS_20ColorBufferOperationENS_18RenderTargetFormatE, 
                       __ZN3ggl11PolygonFill27CompressedMeshPipelineStateC1ERKNSt3__110shared_ptrINS_17PolygonFillShaderEEERKNS_20ColorBufferOperationENS_18RenderTargetFormatE, 
                       __ZN3ggl11PolygonFill27CompressedMeshPipelineStateC2ERKNS_20ColorBufferOperationENS_18RenderTargetFormatE, 
                       __ZN3ggl11PolygonFill27CompressedMeshPipelineStateC2ERKNSt3__110shared_ptrINS_17PolygonFillShaderEEERKNS_20ColorBufferOperationENS_18RenderTargetFormatE, 
                       __ZN3ggl11PolygonFill4Fill10reflectionEv, __ZN3ggl11ShadedColor16P3NPipelineSetup10setP3NMeshEPKNS_15DebugRenderUtil7P3NMeshE, 
                       __ZN3ggl11ShadedColor16P3NPipelineSetup15typedReflectionEv, 
                       __ZN3ggl11ShadedColor16P3NPipelineSetup17propsConstantDataEv, 
                       __ZN3ggl11ShadedColor16P3NPipelineSetup18sharedConstantDataEv, 
                       __ZN3ggl11ShadedColor16P3NPipelineSetup20setPropsConstantDataENSt3__110shared_ptrINS_17ConstantDataTypedINS0_5PropsEEEEE, 
                       __ZN3ggl11ShadedColor16P3NPipelineSetup21setSharedConstantDataENSt3__110shared_ptrINS_17ConstantDataTypedINS_15DebugRenderUtil6SharedEEEEE, 
                       __ZN3ggl11ShadedColor16P3NPipelineSetup7p3NMeshEv, __ZN3ggl11ShadedColor16P3NPipelineSetup8setStateERKNSt3__110shared_ptrINS0_16P3NPipelineStateEEE, 
                       __ZN3ggl11ShadedColor16P3NPipelineSetupC1ERKNSt3__110shared_ptrINS0_16P3NPipelineStateEEE, 
                       __ZN3ggl11ShadedColor16P3NPipelineSetupC1ERKNSt3__110shared_ptrINS0_16P3NPipelineStateEEERKNS3_INS_17ConstantDataTypedINS_15DebugRenderUtil6SharedEEEEERKNS3_INS8_INS0_5PropsEEEEE, 
                       __ZN3ggl11ShadedColor16P3NPipelineSetupC1Ev, __ZN3ggl11ShadedColor16P3NPipelineSetupC2ERKNSt3__110shared_ptrINS0_16P3NPipelineStateEEE, 
                       __ZN3ggl11ShadedColor16P3NPipelineSetupC2ERKNSt3__110shared_ptrINS0_16P3NPipelineStateEEERKNS3_INS_17ConstantDataTypedINS_15DebugRenderUtil6SharedEEEEERKNS3_INS8_INS0_5PropsEEEEE, 
                       __ZN3ggl11ShadedColor16P3NPipelineSetupC2Ev, __ZN3ggl11ShadedColor16P3NPipelineState15typedReflectionEv, 
                       __ZN3ggl11ShadedColor16P3NPipelineStateC1ERKNS_20ColorBufferOperationENS_18RenderTargetFormatE, 
                       __ZN3ggl11ShadedColor16P3NPipelineStateC1ERKNSt3__110shared_ptrINS_17ShadedColorShaderEEERKNS_20ColorBufferOperationENS_18RenderTargetFormatE, 
                       __ZN3ggl11ShadedColor16P3NPipelineStateC2ERKNS_20ColorBufferOperationENS_18RenderTargetFormatE, 
                       __ZN3ggl11ShadedColor16P3NPipelineStateC2ERKNSt3__110shared_ptrINS_17ShadedColorShaderEEERKNS_20ColorBufferOperationENS_18RenderTargetFormatE, 
                       __ZN3ggl11ShadedColor5Props10reflectionEv, __ZN3ggl11SolidRibbon13PipelineSetup11setBaseMeshEPKNS_6Ribbon8BaseMeshE, 
                       __ZN3ggl11SolidRibbon13PipelineSetup15typedReflectionEv, __ZN3ggl11SolidRibbon13PipelineSetup16viewConstantDataEv, 
                       __ZN3ggl11SolidRibbon13PipelineSetup17styleConstantDataEv, 
                       __ZN3ggl11SolidRibbon13PipelineSetup19setViewConstantDataENSt3__110shared_ptrINS_17ConstantDataTypedINS_4Tile4ViewEEEEE, 
                       __ZN3ggl11SolidRibbon13PipelineSetup20setStyleConstantDataENSt3__110shared_ptrINS_17ConstantDataTypedINS_12OffsetRibbon5StyleEEEEE, 
                       __ZN3ggl11SolidRibbon13PipelineSetup8baseMeshEv, __ZN3ggl11SolidRibbon13PipelineSetup8setStateERKNSt3__110shared_ptrINS0_13PipelineStateEEE, 
                       __ZN3ggl11SolidRibbon13PipelineSetupC1ERKNSt3__110shared_ptrINS0_13PipelineStateEEE, 
                       __ZN3ggl11SolidRibbon13PipelineSetupC1ERKNSt3__110shared_ptrINS0_13PipelineStateEEERKNS3_INS_17ConstantDataTypedINS_4Tile4ViewEEEEERKNS3_INS8_INS_12OffsetRibbon5StyleEEEEEPNS_9Texture2DE, 
                       __ZN3ggl11SolidRibbon13PipelineSetupC1Ev, __ZN3ggl11SolidRibbon13PipelineSetupC2ERKNSt3__110shared_ptrINS0_13PipelineStateEEE, 
                       __ZN3ggl11SolidRibbon13PipelineSetupC2ERKNSt3__110shared_ptrINS0_13PipelineStateEEERKNS3_INS_17ConstantDataTypedINS_4Tile4ViewEEEEERKNS3_INS8_INS_12OffsetRibbon5StyleEEEEEPNS_9Texture2DE, 
                       __ZN3ggl11SolidRibbon13PipelineSetupC2Ev, __ZN3ggl11SolidRibbon13PipelineState15typedReflectionEv, 
                       __ZN3ggl11SolidRibbon13PipelineStateC1ERKNS_20ColorBufferOperationENS_18RenderTargetFormatE, 
                       __ZN3ggl11SolidRibbon13PipelineStateC1ERKNSt3__110shared_ptrINS_17SolidRibbonShaderEEERKNS_20ColorBufferOperationENS_18RenderTargetFormatE, 
                       __ZN3ggl11SolidRibbon13PipelineStateC2ERKNS_20ColorBufferOperationENS_18RenderTargetFormatE, 
                       __ZN3ggl11SolidRibbon13PipelineStateC2ERKNSt3__110shared_ptrINS_17SolidRibbonShaderEEERKNS_20ColorBufferOperationENS_18RenderTargetFormatE, 
                       __ZN3ggl11StarsShader15typedReflectionEv, __ZN3ggl11StarsShader24vertexFunctionDescriptorEv, 
                       __ZN3ggl11StarsShader26fragmentFunctionDescriptorEv, __ZN3ggl11StarsShaderC1Ev, 
                       __ZN3ggl11StarsShaderC2Ev, __ZN3ggl11TextureMesh10DefaultVbo10reflectionEv, 
                       __ZN3ggl11TextureMesh8MeshMeshC1EPKc, __ZN3ggl11TextureMesh8MeshMeshC1EPKcNSt3__110shared_ptrINS_15VertexDataTypedINS0_10DefaultVboEEEEENS5_INS_9IndexDataEEE, 
                       __ZN3ggl11TextureMesh8MeshMeshC2EPKc, __ZN3ggl11TextureMesh8MeshMeshC2EPKcNSt3__110shared_ptrINS_15VertexDataTypedINS0_10DefaultVboEEEEENS5_INS_9IndexDataEEE, 
                       __ZN3ggl11TrafficBase10DefaultVbo10reflectionEv, __ZN3ggl11TrafficBase5Style10reflectionEv, 
                       __ZN3ggl11TrafficBase8BaseMeshC1EPKc, __ZN3ggl11TrafficBase8BaseMeshC1EPKcNSt3__110shared_ptrINS_15VertexDataTypedINS0_10DefaultVboEEEEENS5_INS_9IndexDataEEE, 
                       __ZN3ggl11TrafficBase8BaseMeshC2EPKc, __ZN3ggl11TrafficBase8BaseMeshC2EPKcNSt3__110shared_ptrINS_15VertexDataTypedINS0_10DefaultVboEEEEENS5_INS_9IndexDataEEE, 
                       __ZN3ggl11TrafficGlow17BasePipelineSetup11setBaseMeshEPKNS_11TrafficBase8BaseMeshE, 
                       __ZN3ggl11TrafficGlow17BasePipelineSetup15typedReflectionEv, 
                       __ZN3ggl11TrafficGlow17BasePipelineSetup16viewConstantDataEv, 
                       __ZN3ggl11TrafficGlow17BasePipelineSetup17styleConstantDataEv, 
                       __ZN3ggl11TrafficGlow17BasePipelineSetup19setViewConstantDataENSt3__110shared_ptrINS_17ConstantDataTypedINS_4Tile4ViewEEEEE, 
                       __ZN3ggl11TrafficGlow17BasePipelineSetup20setStyleConstantDataENSt3__110shared_ptrINS_17ConstantDataTypedINS0_5StyleEEEEE, 
                       __ZN3ggl11TrafficGlow17BasePipelineSetup8baseMeshEv, __ZN3ggl11TrafficGlow17BasePipelineSetup8setStateERKNSt3__110shared_ptrINS0_17BasePipelineStateEEE, 
                       __ZN3ggl11TrafficGlow17BasePipelineSetupC1ERKNSt3__110shared_ptrINS0_17BasePipelineStateEEE, 
                       __ZN3ggl11TrafficGlow17BasePipelineSetupC1ERKNSt3__110shared_ptrINS0_17BasePipelineStateEEERKNS3_INS_17ConstantDataTypedINS_4Tile4ViewEEEEERKNS3_INS8_INS0_5StyleEEEEE, 
                       __ZN3ggl11TrafficGlow17BasePipelineSetupC1Ev, __ZN3ggl11TrafficGlow17BasePipelineSetupC2ERKNSt3__110shared_ptrINS0_17BasePipelineStateEEE, 
                       __ZN3ggl11TrafficGlow17BasePipelineSetupC2ERKNSt3__110shared_ptrINS0_17BasePipelineStateEEERKNS3_INS_17ConstantDataTypedINS_4Tile4ViewEEEEERKNS3_INS8_INS0_5StyleEEEEE, 
                       __ZN3ggl11TrafficGlow17BasePipelineSetupC2Ev, __ZN3ggl11TrafficGlow17BasePipelineState15typedReflectionEv, 
                       __ZN3ggl11TrafficGlow17BasePipelineStateC1ERKNS_20ColorBufferOperationENS_18RenderTargetFormatE, 
                       __ZN3ggl11TrafficGlow17BasePipelineStateC1ERKNSt3__110shared_ptrINS_17TrafficGlowShaderEEERKNS_20ColorBufferOperationENS_18RenderTargetFormatE, 
                       __ZN3ggl11TrafficGlow17BasePipelineStateC2ERKNS_20ColorBufferOperationENS_18RenderTargetFormatE, 
                       __ZN3ggl11TrafficGlow17BasePipelineStateC2ERKNSt3__110shared_ptrINS_17TrafficGlowShaderEEERKNS_20ColorBufferOperationENS_18RenderTargetFormatE, 
                       __ZN3ggl11TrafficGlow5Style10reflectionEv, __ZN3ggl11TransitNode10DefaultVbo10reflectionEv, 
                       __ZN3ggl11TransitNode8BaseMeshC1EPKc, __ZN3ggl11TransitNode8BaseMeshC1EPKcNSt3__110shared_ptrINS_15VertexDataTypedINS0_10DefaultVboEEEEENS5_INS_9IndexDataEEE, 
                       __ZN3ggl11TransitNode8BaseMeshC2EPKc, __ZN3ggl11TransitNode8BaseMeshC2EPKcNSt3__110shared_ptrINS_15VertexDataTypedINS0_10DefaultVboEEEEENS5_INS_9IndexDataEEE, 
                       __ZN3ggl11TransitNode8Settings10reflectionEv, __ZN3ggl12BuildingFlat27CompressedMeshPipelineSetup15typedReflectionEv, 
                       __ZN3ggl12BuildingFlat27CompressedMeshPipelineSetup16viewConstantDataEv, 
                       __ZN3ggl12BuildingFlat27CompressedMeshPipelineSetup18compressedMeshMeshEv, 
                       __ZN3ggl12BuildingFlat27CompressedMeshPipelineSetup19setViewConstantDataENSt3__110shared_ptrINS_17ConstantDataTypedINS_4Tile4ViewEEEEE, 
                       __ZN3ggl12BuildingFlat27CompressedMeshPipelineSetup20buildingConstantDataEv, 
                       __ZN3ggl12BuildingFlat27CompressedMeshPipelineSetup21setCompressedMeshMeshEPKNS_11PolygonBase18CompressedMeshMeshE, 
                       __ZN3ggl12BuildingFlat27CompressedMeshPipelineSetup23setBuildingConstantDataENSt3__110shared_ptrINS_17ConstantDataTypedINS0_8BuildingEEEEE, 
                       __ZN3ggl12BuildingFlat27CompressedMeshPipelineSetup8setStateERKNSt3__110shared_ptrINS0_27CompressedMeshPipelineStateEEE, 
                       __ZN3ggl12BuildingFlat27CompressedMeshPipelineSetupC1ERKNSt3__110shared_ptrINS0_27CompressedMeshPipelineStateEEE, 
                       __ZN3ggl12BuildingFlat27CompressedMeshPipelineSetupC1ERKNSt3__110shared_ptrINS0_27CompressedMeshPipelineStateEEERKNS3_INS_17ConstantDataTypedINS_4Tile4ViewEEEEERKNS3_INS8_INS0_8BuildingEEEEE, 
                       __ZN3ggl12BuildingFlat27CompressedMeshPipelineSetupC1Ev, __ZN3ggl12BuildingFlat27CompressedMeshPipelineSetupC2ERKNSt3__110shared_ptrINS0_27CompressedMeshPipelineStateEEE, 
                       __ZN3ggl12BuildingFlat27CompressedMeshPipelineSetupC2ERKNSt3__110shared_ptrINS0_27CompressedMeshPipelineStateEEERKNS3_INS_17ConstantDataTypedINS_4Tile4ViewEEEEERKNS3_INS8_INS0_8BuildingEEEEE, 
                       __ZN3ggl12BuildingFlat27CompressedMeshPipelineSetupC2Ev, __ZN3ggl12BuildingFlat27CompressedMeshPipelineState15typedReflectionEv, 
                       __ZN3ggl12BuildingFlat27CompressedMeshPipelineStateC1ERKNS_20ColorBufferOperationENS_18RenderTargetFormatE, 
                       __ZN3ggl12BuildingFlat27CompressedMeshPipelineStateC1ERKNSt3__110shared_ptrINS_18BuildingFlatShaderEEERKNS_20ColorBufferOperationENS_18RenderTargetFormatE, 
                       __ZN3ggl12BuildingFlat27CompressedMeshPipelineStateC2ERKNS_20ColorBufferOperationENS_18RenderTargetFormatE, 
                       __ZN3ggl12BuildingFlat27CompressedMeshPipelineStateC2ERKNSt3__110shared_ptrINS_18BuildingFlatShaderEEERKNS_20ColorBufferOperationENS_18RenderTargetFormatE, 
                       __ZN3ggl12BuildingFlat8Building10reflectionEv, __ZN3ggl12FlyoverMorph18MorphPipelineSetup12setMorphMeshEPKNS0_9MorphMeshE, 
                       __ZN3ggl12FlyoverMorph18MorphPipelineSetup15typedReflectionEv, 
                       __ZN3ggl12FlyoverMorph18MorphPipelineSetup16clipConstantDataEv, 
                       __ZN3ggl12FlyoverMorph18MorphPipelineSetup17morphConstantDataEv, 
                       __ZN3ggl12FlyoverMorph18MorphPipelineSetup18sharedConstantDataEv, 
                       __ZN3ggl12FlyoverMorph18MorphPipelineSetup19setClipConstantDataENSt3__110shared_ptrINS_17ConstantDataTypedINS_13FlyoverCommon4ClipEEEEE, 
                       __ZN3ggl12FlyoverMorph18MorphPipelineSetup20materialConstantDataEv, 
                       __ZN3ggl12FlyoverMorph18MorphPipelineSetup20setMorphConstantDataENSt3__110shared_ptrINS_17ConstantDataTypedINS0_5MorphEEEEE, 
                       __ZN3ggl12FlyoverMorph18MorphPipelineSetup21setSharedConstantDataENSt3__110shared_ptrINS_17ConstantDataTypedINS_13FlyoverCommon6SharedEEEEE, 
                       __ZN3ggl12FlyoverMorph18MorphPipelineSetup21texcoordsConstantDataEv, 
                       __ZN3ggl12FlyoverMorph18MorphPipelineSetup21transformConstantDataEv, 
                       __ZN3ggl12FlyoverMorph18MorphPipelineSetup23setMaterialConstantDataENSt3__110shared_ptrINS_17ConstantDataTypedINS_13FlyoverCommon8MaterialEEEEE, 
                       __ZN3ggl12FlyoverMorph18MorphPipelineSetup24setTexcoordsConstantDataENSt3__110shared_ptrINS_17ConstantDataTypedINS_13FlyoverCommon9TexcoordsEEEEE, 
                       __ZN3ggl12FlyoverMorph18MorphPipelineSetup24setTransformConstantDataENSt3__110shared_ptrINS_17ConstantDataTypedINS_13FlyoverCommon9TransformEEEEE, 
                       __ZN3ggl12FlyoverMorph18MorphPipelineSetup8setStateERKNSt3__110shared_ptrINS0_18MorphPipelineStateEEE, 
                       __ZN3ggl12FlyoverMorph18MorphPipelineSetup9morphMeshEv, __ZN3ggl12FlyoverMorph18MorphPipelineSetupC1ERKNSt3__110shared_ptrINS0_18MorphPipelineStateEEE, 
                       __ZN3ggl12FlyoverMorph18MorphPipelineSetupC1ERKNSt3__110shared_ptrINS0_18MorphPipelineStateEEERKNS3_INS_17ConstantDataTypedINS_13FlyoverCommon6SharedEEEEERKNS3_INS8_INS9_9TransformEEEEERKNS3_INS8_INS9_4ClipEEEEERKNS3_INS8_INS9_8MaterialEEEEERKNS3_INS8_INS9_9TexcoordsEEEEERKNS3_INS8_INS0_5MorphEEEEEPNS_9Texture2DES15_S15_, 
                       __ZN3ggl12FlyoverMorph18MorphPipelineSetupC1Ev, __ZN3ggl12FlyoverMorph18MorphPipelineSetupC2ERKNSt3__110shared_ptrINS0_18MorphPipelineStateEEE, 
                       __ZN3ggl12FlyoverMorph18MorphPipelineSetupC2ERKNSt3__110shared_ptrINS0_18MorphPipelineStateEEERKNS3_INS_17ConstantDataTypedINS_13FlyoverCommon6SharedEEEEERKNS3_INS8_INS9_9TransformEEEEERKNS3_INS8_INS9_4ClipEEEEERKNS3_INS8_INS9_8MaterialEEEEERKNS3_INS8_INS9_9TexcoordsEEEEERKNS3_INS8_INS0_5MorphEEEEEPNS_9Texture2DES15_S15_, 
                       __ZN3ggl12FlyoverMorph18MorphPipelineSetupC2Ev, __ZN3ggl12FlyoverMorph18MorphPipelineState15typedReflectionEv, 
                       __ZN3ggl12FlyoverMorph18MorphPipelineStateC1ERKNS_20ColorBufferOperationENS_18RenderTargetFormatE, 
                       __ZN3ggl12FlyoverMorph18MorphPipelineStateC1ERKNSt3__110shared_ptrINS_18FlyoverMorphShaderEEERKNS_20ColorBufferOperationENS_18RenderTargetFormatE, 
                       __ZN3ggl12FlyoverMorph18MorphPipelineStateC2ERKNS_20ColorBufferOperationENS_18RenderTargetFormatE, 
                       __ZN3ggl12FlyoverMorph18MorphPipelineStateC2ERKNSt3__110shared_ptrINS_18FlyoverMorphShaderEEERKNS_20ColorBufferOperationENS_18RenderTargetFormatE, 
                       __ZN3ggl12FlyoverMorph5Morph10reflectionEv, __ZN3ggl12FlyoverMorph6Vertex10reflectionEv, 
                       __ZN3ggl12FlyoverMorph9MorphMeshC1EPKc, __ZN3ggl12FlyoverMorph9MorphMeshC1EPKcNSt3__110shared_ptrINS_15VertexDataTypedINS0_6VertexEEEEENS5_INS_9IndexDataEEE, 
                       __ZN3ggl12FlyoverMorph9MorphMeshC2EPKc, __ZN3ggl12FlyoverMorph9MorphMeshC2EPKcNSt3__110shared_ptrINS_15VertexDataTypedINS0_6VertexEEEEENS5_INS_9IndexDataEEE, 
                       __ZN3ggl12FlyoverNight20FlyoverPipelineSetup11setP3T2MeshEPKNS_8TileBase8P3T2MeshE, 
                       __ZN3ggl12FlyoverNight20FlyoverPipelineSetup15typedReflectionEv, 
                       __ZN3ggl12FlyoverNight20FlyoverPipelineSetup16clipConstantDataEv, 
                       __ZN3ggl12FlyoverNight20FlyoverPipelineSetup18sharedConstantDataEv, 
                       __ZN3ggl12FlyoverNight20FlyoverPipelineSetup19setClipConstantDataENSt3__110shared_ptrINS_17ConstantDataTypedINS_13FlyoverCommon4ClipEEEEE, 
                       __ZN3ggl12FlyoverNight20FlyoverPipelineSetup20materialConstantDataEv, 
                       __ZN3ggl12FlyoverNight20FlyoverPipelineSetup21setSharedConstantDataENSt3__110shared_ptrINS_17ConstantDataTypedINS_13FlyoverCommon6SharedEEEEE, 
                       __ZN3ggl12FlyoverNight20FlyoverPipelineSetup21texcoordsConstantDataEv, 
                       __ZN3ggl12FlyoverNight20FlyoverPipelineSetup21transformConstantDataEv, 
                       __ZN3ggl12FlyoverNight20FlyoverPipelineSetup23setMaterialConstantDataENSt3__110shared_ptrINS_17ConstantDataTypedINS_13FlyoverCommon8MaterialEEEEE, 
                       __ZN3ggl12FlyoverNight20FlyoverPipelineSetup24setTexcoordsConstantDataENSt3__110shared_ptrINS_17ConstantDataTypedINS_13FlyoverCommon9TexcoordsEEEEE, 
                       __ZN3ggl12FlyoverNight20FlyoverPipelineSetup24setTransformConstantDataENSt3__110shared_ptrINS_17ConstantDataTypedINS_13FlyoverCommon9TransformEEEEE, 
                       __ZN3ggl12FlyoverNight20FlyoverPipelineSetup8p3T2MeshEv, __ZN3ggl12FlyoverNight20FlyoverPipelineSetup8setStateERKNSt3__110shared_ptrINS0_20FlyoverPipelineStateEEE, 
                       __ZN3ggl12FlyoverNight20FlyoverPipelineSetupC1ERKNSt3__110shared_ptrINS0_20FlyoverPipelineStateEEE, 
                       __ZN3ggl12FlyoverNight20FlyoverPipelineSetupC1ERKNSt3__110shared_ptrINS0_20FlyoverPipelineStateEEERKNS3_INS_17ConstantDataTypedINS_13FlyoverCommon6SharedEEEEERKNS3_INS8_INS9_9TransformEEEEERKNS3_INS8_INS9_4ClipEEEEERKNS3_INS8_INS9_8MaterialEEEEERKNS3_INS8_INS9_9TexcoordsEEEEEPNS_9Texture2DES10_S10_, 
                       __ZN3ggl12FlyoverNight20FlyoverPipelineSetupC1Ev, __ZN3ggl12FlyoverNight20FlyoverPipelineSetupC2ERKNSt3__110shared_ptrINS0_20FlyoverPipelineStateEEE, 
                       __ZN3ggl12FlyoverNight20FlyoverPipelineSetupC2ERKNSt3__110shared_ptrINS0_20FlyoverPipelineStateEEERKNS3_INS_17ConstantDataTypedINS_13FlyoverCommon6SharedEEEEERKNS3_INS8_INS9_9TransformEEEEERKNS3_INS8_INS9_4ClipEEEEERKNS3_INS8_INS9_8MaterialEEEEERKNS3_INS8_INS9_9TexcoordsEEEEEPNS_9Texture2DES10_S10_, 
                       __ZN3ggl12FlyoverNight20FlyoverPipelineSetupC2Ev, __ZN3ggl12FlyoverNight20FlyoverPipelineState15typedReflectionEv, 
                       __ZN3ggl12FlyoverNight20FlyoverPipelineStateC1ERKNS_20ColorBufferOperationENS_18RenderTargetFormatE, 
                       __ZN3ggl12FlyoverNight20FlyoverPipelineStateC1ERKNSt3__110shared_ptrINS_18FlyoverNightShaderEEERKNS_20ColorBufferOperationENS_18RenderTargetFormatE, 
                       __ZN3ggl12FlyoverNight20FlyoverPipelineStateC2ERKNS_20ColorBufferOperationENS_18RenderTargetFormatE, 
                       __ZN3ggl12FlyoverNight20FlyoverPipelineStateC2ERKNSt3__110shared_ptrINS_18FlyoverNightShaderEEERKNS_20ColorBufferOperationENS_18RenderTargetFormatE, 
                       __ZN3ggl12FlyoverRoute11DefaultMeshC1EPKc, __ZN3ggl12FlyoverRoute11DefaultMeshC1EPKcNSt3__110shared_ptrINS_15VertexDataTypedINS0_7DefaultEEEEENS5_INS_9IndexDataEEE, 
                       __ZN3ggl12FlyoverRoute11DefaultMeshC2EPKc, __ZN3ggl12FlyoverRoute11DefaultMeshC2EPKcNSt3__110shared_ptrINS_15VertexDataTypedINS0_7DefaultEEEEENS5_INS_9IndexDataEEE, 
                       __ZN3ggl12FlyoverRoute12Displacement10reflectionEv, __ZN3ggl12FlyoverRoute20DefaultPipelineSetup11defaultMeshEv, 
                       __ZN3ggl12FlyoverRoute20DefaultPipelineSetup14setDefaultMeshEPKNS0_11DefaultMeshE, 
                       __ZN3ggl12FlyoverRoute20DefaultPipelineSetup15typedReflectionEv, 
                       __ZN3ggl12FlyoverRoute20DefaultPipelineSetup16viewConstantDataEv, 
                       __ZN3ggl12FlyoverRoute20DefaultPipelineSetup17styleConstantDataEv, 
                       __ZN3ggl12FlyoverRoute20DefaultPipelineSetup19setViewConstantDataENSt3__110shared_ptrINS_17ConstantDataTypedINS_13FlyoverRibbon4ViewEEEEE, 
                       __ZN3ggl12FlyoverRoute20DefaultPipelineSetup20setStyleConstantDataENSt3__110shared_ptrINS_17ConstantDataTypedINS0_5StyleEEEEE, 
                       __ZN3ggl12FlyoverRoute20DefaultPipelineSetup24displacementConstantDataEv, 
                       __ZN3ggl12FlyoverRoute20DefaultPipelineSetup27setDisplacementConstantDataENSt3__110shared_ptrINS_17ConstantDataTypedINS0_12DisplacementEEEEE, 
                       __ZN3ggl12FlyoverRoute20DefaultPipelineSetup8setStateERKNSt3__110shared_ptrINS0_20DefaultPipelineStateEEE, 
                       __ZN3ggl12FlyoverRoute20DefaultPipelineSetupC1ERKNSt3__110shared_ptrINS0_20DefaultPipelineStateEEE, 
                       __ZN3ggl12FlyoverRoute20DefaultPipelineSetupC1ERKNSt3__110shared_ptrINS0_20DefaultPipelineStateEEERKNS3_INS_17ConstantDataTypedINS_13FlyoverRibbon4ViewEEEEERKNS3_INS8_INS0_12DisplacementEEEEERKNS3_INS8_INS0_5StyleEEEEEPNS_9Texture2DE, 
                       __ZN3ggl12FlyoverRoute20DefaultPipelineSetupC1Ev, __ZN3ggl12FlyoverRoute20DefaultPipelineSetupC2ERKNSt3__110shared_ptrINS0_20DefaultPipelineStateEEE, 
                       __ZN3ggl12FlyoverRoute20DefaultPipelineSetupC2ERKNSt3__110shared_ptrINS0_20DefaultPipelineStateEEERKNS3_INS_17ConstantDataTypedINS_13FlyoverRibbon4ViewEEEEERKNS3_INS8_INS0_12DisplacementEEEEERKNS3_INS8_INS0_5StyleEEEEEPNS_9Texture2DE, 
                       __ZN3ggl12FlyoverRoute20DefaultPipelineSetupC2Ev, __ZN3ggl12FlyoverRoute20DefaultPipelineState15typedReflectionEv, 
                       __ZN3ggl12FlyoverRoute20DefaultPipelineStateC1ERKNS_20ColorBufferOperationENS_18RenderTargetFormatE, 
                       __ZN3ggl12FlyoverRoute20DefaultPipelineStateC1ERKNSt3__110shared_ptrINS_18FlyoverRouteShaderEEERKNS_20ColorBufferOperationENS_18RenderTargetFormatE, 
                       __ZN3ggl12FlyoverRoute20DefaultPipelineStateC2ERKNS_20ColorBufferOperationENS_18RenderTargetFormatE, 
                       __ZN3ggl12FlyoverRoute20DefaultPipelineStateC2ERKNSt3__110shared_ptrINS_18FlyoverRouteShaderEEERKNS_20ColorBufferOperationENS_18RenderTargetFormatE, 
                       __ZN3ggl12FlyoverRoute5Style10reflectionEv, __ZN3ggl12FlyoverRoute7Default10reflectionEv, 
                       __ZN3ggl12LandmarkFlat21LandmarkPipelineSetup12landmarkMeshEv, 
                       __ZN3ggl12LandmarkFlat21LandmarkPipelineSetup15setLandmarkMeshEPKNS_8Landmark12LandmarkMeshE, 
                       __ZN3ggl12LandmarkFlat21LandmarkPipelineSetup15typedReflectionEv, 
                       __ZN3ggl12LandmarkFlat21LandmarkPipelineSetup16viewConstantDataEv, 
                       __ZN3ggl12LandmarkFlat21LandmarkPipelineSetup17scaleConstantDataEv, 
                       __ZN3ggl12LandmarkFlat21LandmarkPipelineSetup17styleConstantDataEv, 
                       __ZN3ggl12LandmarkFlat21LandmarkPipelineSetup18skyfogConstantDataEv, 
                       __ZN3ggl12LandmarkFlat21LandmarkPipelineSetup19setViewConstantDataENSt3__110shared_ptrINS_17ConstantDataTypedINS_4Tile4ViewEEEEE, 
                       __ZN3ggl12LandmarkFlat21LandmarkPipelineSetup20setScaleConstantDataENSt3__110shared_ptrINS_17ConstantDataTypedINS_8Building5ScaleEEEEE, 
                       __ZN3ggl12LandmarkFlat21LandmarkPipelineSetup20setStyleConstantDataENSt3__110shared_ptrINS_17ConstantDataTypedINS_8Building5StyleEEEEE, 
                       __ZN3ggl12LandmarkFlat21LandmarkPipelineSetup21setSkyfogConstantDataENSt3__110shared_ptrINS_17ConstantDataTypedINS_3Fog6SkyfogEEEEE, 
                       __ZN3ggl12LandmarkFlat21LandmarkPipelineSetup8setStateERKNSt3__110shared_ptrINS0_21LandmarkPipelineStateEEE, 
                       __ZN3ggl12LandmarkFlat21LandmarkPipelineSetupC1ERKNSt3__110shared_ptrINS0_21LandmarkPipelineStateEEE, 
                       __ZN3ggl12LandmarkFlat21LandmarkPipelineSetupC1ERKNSt3__110shared_ptrINS0_21LandmarkPipelineStateEEERKNS3_INS_17ConstantDataTypedINS_3Fog6SkyfogEEEEERKNS3_INS8_INS_4Tile4ViewEEEEERKNS3_INS8_INS_8Building5ScaleEEEEERKNS3_INS8_INSL_5StyleEEEEEPNS_9Texture2DE, 
                       __ZN3ggl12LandmarkFlat21LandmarkPipelineSetupC1Ev, __ZN3ggl12LandmarkFlat21LandmarkPipelineSetupC2ERKNSt3__110shared_ptrINS0_21LandmarkPipelineStateEEE, 
                       __ZN3ggl12LandmarkFlat21LandmarkPipelineSetupC2ERKNSt3__110shared_ptrINS0_21LandmarkPipelineStateEEERKNS3_INS_17ConstantDataTypedINS_3Fog6SkyfogEEEEERKNS3_INS8_INS_4Tile4ViewEEEEERKNS3_INS8_INS_8Building5ScaleEEEEERKNS3_INS8_INSL_5StyleEEEEEPNS_9Texture2DE, 
                       __ZN3ggl12LandmarkFlat21LandmarkPipelineSetupC2Ev, __ZN3ggl12LandmarkFlat21LandmarkPipelineState15typedReflectionEv, 
                       __ZN3ggl12LandmarkFlat21LandmarkPipelineStateC1ERKNS_20ColorBufferOperationENS_18RenderTargetFormatE, 
                       __ZN3ggl12LandmarkFlat21LandmarkPipelineStateC1ERKNSt3__110shared_ptrINS_18LandmarkFlatShaderEEERKNS_20ColorBufferOperationENS_18RenderTargetFormatE, 
                       __ZN3ggl12LandmarkFlat21LandmarkPipelineStateC2ERKNS_20ColorBufferOperationENS_18RenderTargetFormatE, 
                       __ZN3ggl12LandmarkFlat21LandmarkPipelineStateC2ERKNSt3__110shared_ptrINS_18LandmarkFlatShaderEEERKNS_20ColorBufferOperationENS_18RenderTargetFormatE, 
                       __ZN3ggl12OffsetRibbon5Noise10reflectionEv, __ZN3ggl12OffsetRibbon5Style10reflectionEv, 
                       __ZN3ggl12SolidTraffic17BasePipelineSetup11setBaseMeshEPKNS_11TrafficBase8BaseMeshE, 
                       __ZN3ggl12SolidTraffic17BasePipelineSetup15typedReflectionEv, 
                       __ZN3ggl12SolidTraffic17BasePipelineSetup16viewConstantDataEv, 
                       __ZN3ggl12SolidTraffic17BasePipelineSetup17styleConstantDataEv, 
                       __ZN3ggl12SolidTraffic17BasePipelineSetup19setViewConstantDataENSt3__110shared_ptrINS_17ConstantDataTypedINS_4Tile4ViewEEEEE, 
                       __ZN3ggl12SolidTraffic17BasePipelineSetup20setStyleConstantDataENSt3__110shared_ptrINS_17ConstantDataTypedINS_11TrafficBase5StyleEEEEE, 
                       __ZN3ggl12SolidTraffic17BasePipelineSetup8baseMeshEv, __ZN3ggl12SolidTraffic17BasePipelineSetup8setStateERKNSt3__110shared_ptrINS0_17BasePipelineStateEEE, 
                       __ZN3ggl12SolidTraffic17BasePipelineSetupC1ERKNSt3__110shared_ptrINS0_17BasePipelineStateEEE, 
                       __ZN3ggl12SolidTraffic17BasePipelineSetupC1ERKNSt3__110shared_ptrINS0_17BasePipelineStateEEERKNS3_INS_17ConstantDataTypedINS_4Tile4ViewEEEEERKNS3_INS8_INS_11TrafficBase5StyleEEEEEPNS_9Texture2DE, 
                       __ZN3ggl12SolidTraffic17BasePipelineSetupC1Ev, __ZN3ggl12SolidTraffic17BasePipelineSetupC2ERKNSt3__110shared_ptrINS0_17BasePipelineStateEEE, 
                       __ZN3ggl12SolidTraffic17BasePipelineSetupC2ERKNSt3__110shared_ptrINS0_17BasePipelineStateEEERKNS3_INS_17ConstantDataTypedINS_4Tile4ViewEEEEERKNS3_INS8_INS_11TrafficBase5StyleEEEEEPNS_9Texture2DE, 
                       __ZN3ggl12SolidTraffic17BasePipelineSetupC2Ev, __ZN3ggl12SolidTraffic17BasePipelineState15typedReflectionEv, 
                       __ZN3ggl12SolidTraffic17BasePipelineStateC1ERKNS_20ColorBufferOperationENS_18RenderTargetFormatE, 
                       __ZN3ggl12SolidTraffic17BasePipelineStateC1ERKNSt3__110shared_ptrINS_18SolidTrafficShaderEEERKNS_20ColorBufferOperationENS_18RenderTargetFormatE, 
                       __ZN3ggl12SolidTraffic17BasePipelineStateC2ERKNS_20ColorBufferOperationENS_18RenderTargetFormatE, 
                       __ZN3ggl12SolidTraffic17BasePipelineStateC2ERKNSt3__110shared_ptrINS_18SolidTrafficShaderEEERKNS_20ColorBufferOperationENS_18RenderTargetFormatE, 
                       __ZN3ggl13CommonLibrary15typedReflectionEv, __ZN3ggl13CommonLibraryC1ENSt3__110shared_ptrINS_17ShaderLibraryDataEEE, 
                       __ZN3ggl13CommonLibraryC1Ev, __ZN3ggl13CommonLibraryC2ENSt3__110shared_ptrINS_17ShaderLibraryDataEEE, 
                       __ZN3ggl13CommonLibraryC2Ev, __ZN3ggl13CommonLibraryD0Ev, 
                       __ZN3ggl13CommonLibraryD1Ev, __ZN3ggl13CommonLibraryD2Ev, 
                       __ZN3ggl13FlyoverBorder17FlyoverBorderMeshC1EPKc, __ZN3ggl13FlyoverBorder17FlyoverBorderMeshC1EPKcNSt3__110shared_ptrINS_15VertexDataTypedINS0_6VertexEEEEENS5_INS_9IndexDataEEE, 
                       __ZN3ggl13FlyoverBorder17FlyoverBorderMeshC2EPKc, __ZN3ggl13FlyoverBorder17FlyoverBorderMeshC2EPKcNSt3__110shared_ptrINS_15VertexDataTypedINS0_6VertexEEEEENS5_INS_9IndexDataEEE, 
                       __ZN3ggl13FlyoverBorder26FlyoverBorderPipelineSetup15typedReflectionEv, 
                       __ZN3ggl13FlyoverBorder26FlyoverBorderPipelineSetup16clipConstantDataEv, 
                       __ZN3ggl13FlyoverBorder26FlyoverBorderPipelineSetup17flyoverBorderMeshEv, 
                       __ZN3ggl13FlyoverBorder26FlyoverBorderPipelineSetup18sharedConstantDataEv, 
                       __ZN3ggl13FlyoverBorder26FlyoverBorderPipelineSetup19setClipConstantDataENSt3__110shared_ptrINS_17ConstantDataTypedINS_13FlyoverCommon4ClipEEEEE, 
                       __ZN3ggl13FlyoverBorder26FlyoverBorderPipelineSetup20materialConstantDataEv, 
                       __ZN3ggl13FlyoverBorder26FlyoverBorderPipelineSetup20setFlyoverBorderMeshEPKNS0_17FlyoverBorderMeshE, 
                       __ZN3ggl13FlyoverBorder26FlyoverBorderPipelineSetup21setSharedConstantDataENSt3__110shared_ptrINS_17ConstantDataTypedINS_13FlyoverCommon6SharedEEEEE, 
                       __ZN3ggl13FlyoverBorder26FlyoverBorderPipelineSetup21texcoordsConstantDataEv, 
                       __ZN3ggl13FlyoverBorder26FlyoverBorderPipelineSetup21transformConstantDataEv, 
                       __ZN3ggl13FlyoverBorder26FlyoverBorderPipelineSetup23setMaterialConstantDataENSt3__110shared_ptrINS_17ConstantDataTypedINS_13FlyoverCommon8MaterialEEEEE, 
                       __ZN3ggl13FlyoverBorder26FlyoverBorderPipelineSetup24setTexcoordsConstantDataENSt3__110shared_ptrINS_17ConstantDataTypedINS_13FlyoverCommon9TexcoordsEEEEE, 
                       __ZN3ggl13FlyoverBorder26FlyoverBorderPipelineSetup24setTransformConstantDataENSt3__110shared_ptrINS_17ConstantDataTypedINS_13FlyoverCommon9TransformEEEEE, 
                       __ZN3ggl13FlyoverBorder26FlyoverBorderPipelineSetup8setStateERKNSt3__110shared_ptrINS0_26FlyoverBorderPipelineStateEEE, 
                       __ZN3ggl13FlyoverBorder26FlyoverBorderPipelineSetupC1ERKNSt3__110shared_ptrINS0_26FlyoverBorderPipelineStateEEE, 
                       __ZN3ggl13FlyoverBorder26FlyoverBorderPipelineSetupC1ERKNSt3__110shared_ptrINS0_26FlyoverBorderPipelineStateEEERKNS3_INS_17ConstantDataTypedINS_13FlyoverCommon6SharedEEEEERKNS3_INS8_INS9_9TransformEEEEERKNS3_INS8_INS9_4ClipEEEEERKNS3_INS8_INS9_8MaterialEEEEERKNS3_INS8_INS9_9TexcoordsEEEEEPNS_9Texture2DES10_S10_S10_, 
                       __ZN3ggl13FlyoverBorder26FlyoverBorderPipelineSetupC1Ev, __ZN3ggl13FlyoverBorder26FlyoverBorderPipelineSetupC2ERKNSt3__110shared_ptrINS0_26FlyoverBorderPipelineStateEEE, 
                       __ZN3ggl13FlyoverBorder26FlyoverBorderPipelineSetupC2ERKNSt3__110shared_ptrINS0_26FlyoverBorderPipelineStateEEERKNS3_INS_17ConstantDataTypedINS_13FlyoverCommon6SharedEEEEERKNS3_INS8_INS9_9TransformEEEEERKNS3_INS8_INS9_4ClipEEEEERKNS3_INS8_INS9_8MaterialEEEEERKNS3_INS8_INS9_9TexcoordsEEEEEPNS_9Texture2DES10_S10_S10_, 
                       __ZN3ggl13FlyoverBorder26FlyoverBorderPipelineSetupC2Ev, __ZN3ggl13FlyoverBorder26FlyoverBorderPipelineState15typedReflectionEv, 
                       __ZN3ggl13FlyoverBorder26FlyoverBorderPipelineStateC1ERKNS_20ColorBufferOperationENS_18RenderTargetFormatE, 
                       __ZN3ggl13FlyoverBorder26FlyoverBorderPipelineStateC1ERKNSt3__110shared_ptrINS_19FlyoverBorderShaderEEERKNS_20ColorBufferOperationENS_18RenderTargetFormatE, 
                       __ZN3ggl13FlyoverBorder26FlyoverBorderPipelineStateC2ERKNS_20ColorBufferOperationENS_18RenderTargetFormatE, 
                       __ZN3ggl13FlyoverBorder26FlyoverBorderPipelineStateC2ERKNSt3__110shared_ptrINS_19FlyoverBorderShaderEEERKNS_20ColorBufferOperationENS_18RenderTargetFormatE, 
                       __ZN3ggl13FlyoverBorder6Vertex10reflectionEv, __ZN3ggl13FlyoverCommon4Clip10reflectionEv, 
                       __ZN3ggl13FlyoverCommon6Shared10reflectionEv, __ZN3ggl13FlyoverCommon8Material10reflectionEv, 
                       __ZN3ggl13FlyoverCommon9Texcoords10reflectionEv, __ZN3ggl13FlyoverCommon9Transform10reflectionEv, 
                       __ZN3ggl13FlyoverMasked20FlyoverPipelineSetup11setP3T2MeshEPKNS_8TileBase8P3T2MeshE, 
                       __ZN3ggl13FlyoverMasked20FlyoverPipelineSetup15typedReflectionEv, 
                       __ZN3ggl13FlyoverMasked20FlyoverPipelineSetup16clipConstantDataEv, 
                       __ZN3ggl13FlyoverMasked20FlyoverPipelineSetup18sharedConstantDataEv, 
                       __ZN3ggl13FlyoverMasked20FlyoverPipelineSetup19setClipConstantDataENSt3__110shared_ptrINS_17ConstantDataTypedINS_13FlyoverCommon4ClipEEEEE, 
                       __ZN3ggl13FlyoverMasked20FlyoverPipelineSetup20materialConstantDataEv, 
                       __ZN3ggl13FlyoverMasked20FlyoverPipelineSetup21setSharedConstantDataENSt3__110shared_ptrINS_17ConstantDataTypedINS_13FlyoverCommon6SharedEEEEE, 
                       __ZN3ggl13FlyoverMasked20FlyoverPipelineSetup21texcoordsConstantDataEv, 
                       __ZN3ggl13FlyoverMasked20FlyoverPipelineSetup21transformConstantDataEv, 
                       __ZN3ggl13FlyoverMasked20FlyoverPipelineSetup23setMaterialConstantDataENSt3__110shared_ptrINS_17ConstantDataTypedINS_13FlyoverCommon8MaterialEEEEE, 
                       __ZN3ggl13FlyoverMasked20FlyoverPipelineSetup24setTexcoordsConstantDataENSt3__110shared_ptrINS_17ConstantDataTypedINS_13FlyoverCommon9TexcoordsEEEEE, 
                       __ZN3ggl13FlyoverMasked20FlyoverPipelineSetup24setTransformConstantDataENSt3__110shared_ptrINS_17ConstantDataTypedINS_13FlyoverCommon9TransformEEEEE, 
                       __ZN3ggl13FlyoverMasked20FlyoverPipelineSetup8p3T2MeshEv, 
                       __ZN3ggl13FlyoverMasked20FlyoverPipelineSetup8setStateERKNSt3__110shared_ptrINS0_20FlyoverPipelineStateEEE, 
                       __ZN3ggl13FlyoverMasked20FlyoverPipelineSetupC1ERKNSt3__110shared_ptrINS0_20FlyoverPipelineStateEEE, 
                       __ZN3ggl13FlyoverMasked20FlyoverPipelineSetupC1ERKNSt3__110shared_ptrINS0_20FlyoverPipelineStateEEERKNS3_INS_17ConstantDataTypedINS_13FlyoverCommon6SharedEEEEERKNS3_INS8_INS9_9TransformEEEEERKNS3_INS8_INS9_4ClipEEEEERKNS3_INS8_INS9_8MaterialEEEEERKNS3_INS8_INS9_9TexcoordsEEEEEPNS_9Texture2DES10_S10_, 
                       __ZN3ggl13FlyoverMasked20FlyoverPipelineSetupC1Ev, __ZN3ggl13FlyoverMasked20FlyoverPipelineSetupC2ERKNSt3__110shared_ptrINS0_20FlyoverPipelineStateEEE, 
                       __ZN3ggl13FlyoverMasked20FlyoverPipelineSetupC2ERKNSt3__110shared_ptrINS0_20FlyoverPipelineStateEEERKNS3_INS_17ConstantDataTypedINS_13FlyoverCommon6SharedEEEEERKNS3_INS8_INS9_9TransformEEEEERKNS3_INS8_INS9_4ClipEEEEERKNS3_INS8_INS9_8MaterialEEEEERKNS3_INS8_INS9_9TexcoordsEEEEEPNS_9Texture2DES10_S10_, 
                       __ZN3ggl13FlyoverMasked20FlyoverPipelineSetupC2Ev, __ZN3ggl13FlyoverMasked20FlyoverPipelineState15typedReflectionEv, 
                       __ZN3ggl13FlyoverMasked20FlyoverPipelineStateC1ERKNS_20ColorBufferOperationENS_18RenderTargetFormatE, 
                       __ZN3ggl13FlyoverMasked20FlyoverPipelineStateC1ERKNSt3__110shared_ptrINS_19FlyoverMaskedShaderEEERKNS_20ColorBufferOperationENS_18RenderTargetFormatE, 
                       __ZN3ggl13FlyoverMasked20FlyoverPipelineStateC2ERKNS_20ColorBufferOperationENS_18RenderTargetFormatE, 
                       __ZN3ggl13FlyoverMasked20FlyoverPipelineStateC2ERKNSt3__110shared_ptrINS_19FlyoverMaskedShaderEEERKNS_20ColorBufferOperationENS_18RenderTargetFormatE, 
                       __ZN3ggl13FlyoverRibbon4View10reflectionEv, __ZN3ggl13FlyoverShader15typedReflectionEv, 
                       __ZN3ggl13FlyoverShader24vertexFunctionDescriptorEv, __ZN3ggl13FlyoverShader26fragmentFunctionDescriptorEv, 
                       __ZN3ggl13FlyoverShaderC1Ev, __ZN3ggl13FlyoverShaderC2Ev, 
                       __ZN3ggl13LandmarkDepth21BuildingPipelineSetup12landmarkMeshEv, 
                       __ZN3ggl13LandmarkDepth21BuildingPipelineSetup15setLandmarkMeshEPKNS_8Landmark12LandmarkMeshE, 
                       __ZN3ggl13LandmarkDepth21BuildingPipelineSetup15typedReflectionEv, 
                       __ZN3ggl13LandmarkDepth21BuildingPipelineSetup16viewConstantDataEv, 
                       __ZN3ggl13LandmarkDepth21BuildingPipelineSetup17scaleConstantDataEv, 
                       __ZN3ggl13LandmarkDepth21BuildingPipelineSetup19setViewConstantDataENSt3__110shared_ptrINS_17ConstantDataTypedINS_4Tile4ViewEEEEE, 
                       __ZN3ggl13LandmarkDepth21BuildingPipelineSetup20setScaleConstantDataENSt3__110shared_ptrINS_17ConstantDataTypedINS_8Building5ScaleEEEEE, 
                       __ZN3ggl13LandmarkDepth21BuildingPipelineSetup8setStateERKNSt3__110shared_ptrINS0_21BuildingPipelineStateEEE, 
                       __ZN3ggl13LandmarkDepth21BuildingPipelineSetupC1ERKNSt3__110shared_ptrINS0_21BuildingPipelineStateEEE, 
                       __ZN3ggl13LandmarkDepth21BuildingPipelineSetupC1ERKNSt3__110shared_ptrINS0_21BuildingPipelineStateEEERKNS3_INS_17ConstantDataTypedINS_4Tile4ViewEEEEERKNS3_INS8_INS_8Building5ScaleEEEEE, 
                       __ZN3ggl13LandmarkDepth21BuildingPipelineSetupC1Ev, __ZN3ggl13LandmarkDepth21BuildingPipelineSetupC2ERKNSt3__110shared_ptrINS0_21BuildingPipelineStateEEE, 
                       __ZN3ggl13LandmarkDepth21BuildingPipelineSetupC2ERKNSt3__110shared_ptrINS0_21BuildingPipelineStateEEERKNS3_INS_17ConstantDataTypedINS_4Tile4ViewEEEEERKNS3_INS8_INS_8Building5ScaleEEEEE, 
                       __ZN3ggl13LandmarkDepth21BuildingPipelineSetupC2Ev, __ZN3ggl13LandmarkDepth21BuildingPipelineState15typedReflectionEv, 
                       __ZN3ggl13LandmarkDepth21BuildingPipelineStateC1ERKNS_20ColorBufferOperationENS_18RenderTargetFormatE, 
                       __ZN3ggl13LandmarkDepth21BuildingPipelineStateC1ERKNSt3__110shared_ptrINS_19LandmarkDepthShaderEEERKNS_20ColorBufferOperationENS_18RenderTargetFormatE, 
                       __ZN3ggl13LandmarkDepth21BuildingPipelineStateC2ERKNS_20ColorBufferOperationENS_18RenderTargetFormatE, 
                       __ZN3ggl13LandmarkDepth21BuildingPipelineStateC2ERKNSt3__110shared_ptrINS_19LandmarkDepthShaderEEERKNS_20ColorBufferOperationENS_18RenderTargetFormatE, 
                       __ZN3ggl13ManeuverPoint10DefaultVbo10reflectionEv, __ZN3ggl13ManeuverPoint17BasePipelineSetup15typedReflectionEv, 
                       __ZN3ggl13ManeuverPoint17BasePipelineSetup16viewConstantDataEv, 
                       __ZN3ggl13ManeuverPoint17BasePipelineSetup17styleConstantDataEv, 
                       __ZN3ggl13ManeuverPoint17BasePipelineSetup19setViewConstantDataENSt3__110shared_ptrINS_17ConstantDataTypedINS_4Tile4ViewEEEEE, 
                       __ZN3ggl13ManeuverPoint17BasePipelineSetup20setStyleConstantDataENSt3__110shared_ptrINS_17ConstantDataTypedINS0_5StyleEEEEE, 
                       __ZN3ggl13ManeuverPoint17BasePipelineSetup4meshEv, __ZN3ggl13ManeuverPoint17BasePipelineSetup7setMeshEPKNS0_4MeshE, 
                       __ZN3ggl13ManeuverPoint17BasePipelineSetup8setStateERKNSt3__110shared_ptrINS0_17BasePipelineStateEEE, 
                       __ZN3ggl13ManeuverPoint17BasePipelineSetupC1ERKNSt3__110shared_ptrINS0_17BasePipelineStateEEE, 
                       __ZN3ggl13ManeuverPoint17BasePipelineSetupC1ERKNSt3__110shared_ptrINS0_17BasePipelineStateEEERKNS3_INS_17ConstantDataTypedINS_4Tile4ViewEEEEERKNS3_INS8_INS0_5StyleEEEEEPNS_9Texture2DE, 
                       __ZN3ggl13ManeuverPoint17BasePipelineSetupC1Ev, __ZN3ggl13ManeuverPoint17BasePipelineSetupC2ERKNSt3__110shared_ptrINS0_17BasePipelineStateEEE, 
                       __ZN3ggl13ManeuverPoint17BasePipelineSetupC2ERKNSt3__110shared_ptrINS0_17BasePipelineStateEEERKNS3_INS_17ConstantDataTypedINS_4Tile4ViewEEEEERKNS3_INS8_INS0_5StyleEEEEEPNS_9Texture2DE, 
                       __ZN3ggl13ManeuverPoint17BasePipelineSetupC2Ev, __ZN3ggl13ManeuverPoint17BasePipelineState15typedReflectionEv, 
                       __ZN3ggl13ManeuverPoint17BasePipelineStateC1ERKNS_20ColorBufferOperationENS_18RenderTargetFormatE, 
                       __ZN3ggl13ManeuverPoint17BasePipelineStateC1ERKNSt3__110shared_ptrINS_19ManeuverPointShaderEEERKNS_20ColorBufferOperationENS_18RenderTargetFormatE, 
                       __ZN3ggl13ManeuverPoint17BasePipelineStateC2ERKNS_20ColorBufferOperationENS_18RenderTargetFormatE, 
                       __ZN3ggl13ManeuverPoint17BasePipelineStateC2ERKNSt3__110shared_ptrINS_19ManeuverPointShaderEEERKNS_20ColorBufferOperationENS_18RenderTargetFormatE, 
                       __ZN3ggl13ManeuverPoint4MeshC1EPKc, __ZN3ggl13ManeuverPoint4MeshC1EPKcNSt3__110shared_ptrINS_15VertexDataTypedINS0_10DefaultVboEEEEENS5_INS_9IndexDataEEE, 
                       __ZN3ggl13ManeuverPoint4MeshC2EPKc, __ZN3ggl13ManeuverPoint4MeshC2EPKcNSt3__110shared_ptrINS_15VertexDataTypedINS0_10DefaultVboEEEEENS5_INS_9IndexDataEEE, 
                       __ZN3ggl13ManeuverPoint5Style10reflectionEv, __ZN3ggl13OcclusionLine10DefaultVbo10reflectionEv, 
                       __ZN3ggl13OcclusionLine17OcclusionLineMeshC1EPKc, __ZN3ggl13OcclusionLine17OcclusionLineMeshC1EPKcNSt3__110shared_ptrINS_15VertexDataTypedINS0_10DefaultVboEEEEENS5_INS_9IndexDataEEE, 
                       __ZN3ggl13OcclusionLine17OcclusionLineMeshC2EPKc, __ZN3ggl13OcclusionLine17OcclusionLineMeshC2EPKcNSt3__110shared_ptrINS_15VertexDataTypedINS0_10DefaultVboEEEEENS5_INS_9IndexDataEEE, 
                       __ZN3ggl13OcclusionLine26OcclusionLinePipelineSetup15typedReflectionEv, 
                       __ZN3ggl13OcclusionLine26OcclusionLinePipelineSetup16viewConstantDataEv, 
                       __ZN3ggl13OcclusionLine26OcclusionLinePipelineSetup17occlusionLineMeshEv, 
                       __ZN3ggl13OcclusionLine26OcclusionLinePipelineSetup19setViewConstantDataENSt3__110shared_ptrINS_17ConstantDataTypedINS0_4ViewEEEEE, 
                       __ZN3ggl13OcclusionLine26OcclusionLinePipelineSetup20setOcclusionLineMeshEPKNS0_17OcclusionLineMeshE, 
                       __ZN3ggl13OcclusionLine26OcclusionLinePipelineSetup8setStateERKNSt3__110shared_ptrINS0_26OcclusionLinePipelineStateEEE, 
                       __ZN3ggl13OcclusionLine26OcclusionLinePipelineSetupC1ERKNSt3__110shared_ptrINS0_26OcclusionLinePipelineStateEEE, 
                       __ZN3ggl13OcclusionLine26OcclusionLinePipelineSetupC1ERKNSt3__110shared_ptrINS0_26OcclusionLinePipelineStateEEERKNS3_INS_17ConstantDataTypedINS0_4ViewEEEEE, 
                       __ZN3ggl13OcclusionLine26OcclusionLinePipelineSetupC1Ev, __ZN3ggl13OcclusionLine26OcclusionLinePipelineSetupC2ERKNSt3__110shared_ptrINS0_26OcclusionLinePipelineStateEEE, 
                       __ZN3ggl13OcclusionLine26OcclusionLinePipelineSetupC2ERKNSt3__110shared_ptrINS0_26OcclusionLinePipelineStateEEERKNS3_INS_17ConstantDataTypedINS0_4ViewEEEEE, 
                       __ZN3ggl13OcclusionLine26OcclusionLinePipelineSetupC2Ev, __ZN3ggl13OcclusionLine26OcclusionLinePipelineState15typedReflectionEv, 
                       __ZN3ggl13OcclusionLine26OcclusionLinePipelineStateC1ERKNS_20ColorBufferOperationENS_18RenderTargetFormatE, 
                       __ZN3ggl13OcclusionLine26OcclusionLinePipelineStateC1ERKNSt3__110shared_ptrINS_19OcclusionLineShaderEEERKNS_20ColorBufferOperationENS_18RenderTargetFormatE, 
                       __ZN3ggl13OcclusionLine26OcclusionLinePipelineStateC2ERKNS_20ColorBufferOperationENS_18RenderTargetFormatE, 
                       __ZN3ggl13OcclusionLine26OcclusionLinePipelineStateC2ERKNSt3__110shared_ptrINS_19OcclusionLineShaderEEERKNS_20ColorBufferOperationENS_18RenderTargetFormatE, 
                       __ZN3ggl13OcclusionLine4View10reflectionEv, __ZN3ggl13PolygonStroke17MeshPipelineSetup11setMeshMeshEPKNS_19PolygonCommonStroke8MeshMeshE, 
                       __ZN3ggl13PolygonStroke17MeshPipelineSetup15typedReflectionEv, 
                       __ZN3ggl13PolygonStroke17MeshPipelineSetup16viewConstantDataEv, 
                       __ZN3ggl13PolygonStroke17MeshPipelineSetup19polygonConstantDataEv, 
                       __ZN3ggl13PolygonStroke17MeshPipelineSetup19setViewConstantDataENSt3__110shared_ptrINS_17ConstantDataTypedINS_4Tile4ViewEEEEE, 
                       __ZN3ggl13PolygonStroke17MeshPipelineSetup22setPolygonConstantDataENSt3__110shared_ptrINS_17ConstantDataTypedINS_19PolygonCommonStroke7PolygonEEEEE, 
                       __ZN3ggl13PolygonStroke17MeshPipelineSetup8meshMeshEv, __ZN3ggl13PolygonStroke17MeshPipelineSetup8setStateERKNSt3__110shared_ptrINS0_17MeshPipelineStateEEE, 
                       __ZN3ggl13PolygonStroke17MeshPipelineSetupC1ERKNSt3__110shared_ptrINS0_17MeshPipelineStateEEE, 
                       __ZN3ggl13PolygonStroke17MeshPipelineSetupC1ERKNSt3__110shared_ptrINS0_17MeshPipelineStateEEERKNS3_INS_17ConstantDataTypedINS_4Tile4ViewEEEEERKNS3_INS8_INS_19PolygonCommonStroke7PolygonEEEEEPNS_9Texture2DESM_, 
                       __ZN3ggl13PolygonStroke17MeshPipelineSetupC1Ev, __ZN3ggl13PolygonStroke17MeshPipelineSetupC2ERKNSt3__110shared_ptrINS0_17MeshPipelineStateEEE, 
                       __ZN3ggl13PolygonStroke17MeshPipelineSetupC2ERKNSt3__110shared_ptrINS0_17MeshPipelineStateEEERKNS3_INS_17ConstantDataTypedINS_4Tile4ViewEEEEERKNS3_INS8_INS_19PolygonCommonStroke7PolygonEEEEEPNS_9Texture2DESM_, 
                       __ZN3ggl13PolygonStroke17MeshPipelineSetupC2Ev, __ZN3ggl13PolygonStroke17MeshPipelineState15typedReflectionEv, 
                       __ZN3ggl13PolygonStroke17MeshPipelineStateC1ERKNS_20ColorBufferOperationENS_18RenderTargetFormatE, 
                       __ZN3ggl13PolygonStroke17MeshPipelineStateC1ERKNSt3__110shared_ptrINS_19PolygonStrokeShaderEEERKNS_20ColorBufferOperationENS_18RenderTargetFormatE, 
                       __ZN3ggl13PolygonStroke17MeshPipelineStateC2ERKNS_20ColorBufferOperationENS_18RenderTargetFormatE, 
                       __ZN3ggl13PolygonStroke17MeshPipelineStateC2ERKNSt3__110shared_ptrINS_19PolygonStrokeShaderEEERKNS_20ColorBufferOperationENS_18RenderTargetFormatE, 
                       __ZN3ggl13TrafficCasing17BasePipelineSetup11setBaseMeshEPKNS_6Ribbon8BaseMeshE, 
                       __ZN3ggl13TrafficCasing17BasePipelineSetup15typedReflectionEv, 
                       __ZN3ggl13TrafficCasing17BasePipelineSetup16viewConstantDataEv, 
                       __ZN3ggl13TrafficCasing17BasePipelineSetup17styleConstantDataEv, 
                       __ZN3ggl13TrafficCasing17BasePipelineSetup19setViewConstantDataENSt3__110shared_ptrINS_17ConstantDataTypedINS_4Tile4ViewEEEEE, 
                       __ZN3ggl13TrafficCasing17BasePipelineSetup20setStyleConstantDataENSt3__110shared_ptrINS_17ConstantDataTypedINS0_5StyleEEEEE, 
                       __ZN3ggl13TrafficCasing17BasePipelineSetup8baseMeshEv, __ZN3ggl13TrafficCasing17BasePipelineSetup8setStateERKNSt3__110shared_ptrINS0_17BasePipelineStateEEE, 
                       __ZN3ggl13TrafficCasing17BasePipelineSetupC1ERKNSt3__110shared_ptrINS0_17BasePipelineStateEEE, 
                       __ZN3ggl13TrafficCasing17BasePipelineSetupC1ERKNSt3__110shared_ptrINS0_17BasePipelineStateEEERKNS3_INS_17ConstantDataTypedINS_4Tile4ViewEEEEERKNS3_INS8_INS0_5StyleEEEEEPNS_9Texture2DESL_, 
                       __ZN3ggl13TrafficCasing17BasePipelineSetupC1Ev, __ZN3ggl13TrafficCasing17BasePipelineSetupC2ERKNSt3__110shared_ptrINS0_17BasePipelineStateEEE, 
                       __ZN3ggl13TrafficCasing17BasePipelineSetupC2ERKNSt3__110shared_ptrINS0_17BasePipelineStateEEERKNS3_INS_17ConstantDataTypedINS_4Tile4ViewEEEEERKNS3_INS8_INS0_5StyleEEEEEPNS_9Texture2DESL_, 
                       __ZN3ggl13TrafficCasing17BasePipelineSetupC2Ev, __ZN3ggl13TrafficCasing17BasePipelineState15typedReflectionEv, 
                       __ZN3ggl13TrafficCasing17BasePipelineStateC1ERKNS_20ColorBufferOperationENS_18RenderTargetFormatE, 
                       __ZN3ggl13TrafficCasing17BasePipelineStateC1ERKNSt3__110shared_ptrINS_19TrafficCasingShaderEEERKNS_20ColorBufferOperationENS_18RenderTargetFormatE, 
                       __ZN3ggl13TrafficCasing17BasePipelineStateC2ERKNS_20ColorBufferOperationENS_18RenderTargetFormatE, 
                       __ZN3ggl13TrafficCasing17BasePipelineStateC2ERKNSt3__110shared_ptrINS_19TrafficCasingShaderEEERKNS_20ColorBufferOperationENS_18RenderTargetFormatE, 
                       __ZN3ggl13TrafficCasing5Style10reflectionEv, __ZN3ggl13Venue3DStroke18VerticalDefaultVbo10reflectionEv, 
                       __ZN3ggl13Venue3DStroke20HorizontalDefaultVbo10reflectionEv, 
                       __ZN3ggl13Venue3DStroke25VerticalVenue3DStrokeMeshC1EPKc, 
                       __ZN3ggl13Venue3DStroke25VerticalVenue3DStrokeMeshC1EPKcNSt3__110shared_ptrINS_15VertexDataTypedINS0_18VerticalDefaultVboEEEEENS5_INS_9IndexDataEEE, 
                       __ZN3ggl13Venue3DStroke25VerticalVenue3DStrokeMeshC2EPKc, 
                       __ZN3ggl13Venue3DStroke25VerticalVenue3DStrokeMeshC2EPKcNSt3__110shared_ptrINS_15VertexDataTypedINS0_18VerticalDefaultVboEEEEENS5_INS_9IndexDataEEE, 
                       __ZN3ggl13Venue3DStroke27HorizontalVenue3DStrokeMeshC1EPKc, 
                       __ZN3ggl13Venue3DStroke27HorizontalVenue3DStrokeMeshC1EPKcNSt3__110shared_ptrINS_15VertexDataTypedINS0_20HorizontalDefaultVboEEEEENS5_INS_9IndexDataEEE, 
                       __ZN3ggl13Venue3DStroke27HorizontalVenue3DStrokeMeshC2EPKc, 
                       __ZN3ggl13Venue3DStroke27HorizontalVenue3DStrokeMeshC2EPKcNSt3__110shared_ptrINS_15VertexDataTypedINS0_20HorizontalDefaultVboEEEEENS5_INS_9IndexDataEEE, 
                       __ZN3ggl13Venue3DStroke34VerticalVenue3DStrokePipelineSetup15typedReflectionEv, 
                       __ZN3ggl13Venue3DStroke34VerticalVenue3DStrokePipelineSetup16viewConstantDataEv, 
                       __ZN3ggl13Venue3DStroke34VerticalVenue3DStrokePipelineSetup17styleConstantDataEv, 
                       __ZN3ggl13Venue3DStroke34VerticalVenue3DStrokePipelineSetup19setViewConstantDataENSt3__110shared_ptrINS_17ConstantDataTypedINS_4Tile4ViewEEEEE, 
                       __ZN3ggl13Venue3DStroke34VerticalVenue3DStrokePipelineSetup20setStyleConstantDataENSt3__110shared_ptrINS_17ConstantDataTypedINS0_5StyleEEEEE, 
                       __ZN3ggl13Venue3DStroke34VerticalVenue3DStrokePipelineSetup25verticalVenue3DStrokeMeshEv, 
                       __ZN3ggl13Venue3DStroke34VerticalVenue3DStrokePipelineSetup28setVerticalVenue3DStrokeMeshEPKNS0_25VerticalVenue3DStrokeMeshE, 
                       __ZN3ggl13Venue3DStroke34VerticalVenue3DStrokePipelineSetup8setStateERKNSt3__110shared_ptrINS0_34VerticalVenue3DStrokePipelineStateEEE, 
                       __ZN3ggl13Venue3DStroke34VerticalVenue3DStrokePipelineSetupC1ERKNSt3__110shared_ptrINS0_34VerticalVenue3DStrokePipelineStateEEE, 
                       __ZN3ggl13Venue3DStroke34VerticalVenue3DStrokePipelineSetupC1ERKNSt3__110shared_ptrINS0_34VerticalVenue3DStrokePipelineStateEEERKNS3_INS_17ConstantDataTypedINS_4Tile4ViewEEEEERKNS3_INS8_INS0_5StyleEEEEEPNS_9Texture2DE, 
                       __ZN3ggl13Venue3DStroke34VerticalVenue3DStrokePipelineSetupC1Ev, 
                       __ZN3ggl13Venue3DStroke34VerticalVenue3DStrokePipelineSetupC2ERKNSt3__110shared_ptrINS0_34VerticalVenue3DStrokePipelineStateEEE, 
                       __ZN3ggl13Venue3DStroke34VerticalVenue3DStrokePipelineSetupC2ERKNSt3__110shared_ptrINS0_34VerticalVenue3DStrokePipelineStateEEERKNS3_INS_17ConstantDataTypedINS_4Tile4ViewEEEEERKNS3_INS8_INS0_5StyleEEEEEPNS_9Texture2DE, 
                       __ZN3ggl13Venue3DStroke34VerticalVenue3DStrokePipelineSetupC2Ev, 
                       __ZN3ggl13Venue3DStroke34VerticalVenue3DStrokePipelineState15typedReflectionEv, 
                       __ZN3ggl13Venue3DStroke34VerticalVenue3DStrokePipelineStateC1ERKNS_20ColorBufferOperationENS_18RenderTargetFormatE, 
                       __ZN3ggl13Venue3DStroke34VerticalVenue3DStrokePipelineStateC1ERKNSt3__110shared_ptrINS_27VerticalVenue3DStrokeShaderEEERKNS_20ColorBufferOperationENS_18RenderTargetFormatE, 
                       __ZN3ggl13Venue3DStroke34VerticalVenue3DStrokePipelineStateC2ERKNS_20ColorBufferOperationENS_18RenderTargetFormatE, 
                       __ZN3ggl13Venue3DStroke34VerticalVenue3DStrokePipelineStateC2ERKNSt3__110shared_ptrINS_27VerticalVenue3DStrokeShaderEEERKNS_20ColorBufferOperationENS_18RenderTargetFormatE, 
                       __ZN3ggl13Venue3DStroke36HorizontalVenue3DStrokePipelineSetup15typedReflectionEv, 
                       __ZN3ggl13Venue3DStroke36HorizontalVenue3DStrokePipelineSetup16viewConstantDataEv, 
                       __ZN3ggl13Venue3DStroke36HorizontalVenue3DStrokePipelineSetup17styleConstantDataEv, 
                       __ZN3ggl13Venue3DStroke36HorizontalVenue3DStrokePipelineSetup19setViewConstantDataENSt3__110shared_ptrINS_17ConstantDataTypedINS_4Tile4ViewEEEEE, 
                       __ZN3ggl13Venue3DStroke36HorizontalVenue3DStrokePipelineSetup20setStyleConstantDataENSt3__110shared_ptrINS_17ConstantDataTypedINS0_5StyleEEEEE, 
                       __ZN3ggl13Venue3DStroke36HorizontalVenue3DStrokePipelineSetup27horizontalVenue3DStrokeMeshEv, 
                       __ZN3ggl13Venue3DStroke36HorizontalVenue3DStrokePipelineSetup30setHorizontalVenue3DStrokeMeshEPKNS0_27HorizontalVenue3DStrokeMeshE, 
                       __ZN3ggl13Venue3DStroke36HorizontalVenue3DStrokePipelineSetup8setStateERKNSt3__110shared_ptrINS0_36HorizontalVenue3DStrokePipelineStateEEE, 
                       __ZN3ggl13Venue3DStroke36HorizontalVenue3DStrokePipelineSetupC1ERKNSt3__110shared_ptrINS0_36HorizontalVenue3DStrokePipelineStateEEE, 
                       __ZN3ggl13Venue3DStroke36HorizontalVenue3DStrokePipelineSetupC1ERKNSt3__110shared_ptrINS0_36HorizontalVenue3DStrokePipelineStateEEERKNS3_INS_17ConstantDataTypedINS_4Tile4ViewEEEEERKNS3_INS8_INS0_5StyleEEEEEPNS_9Texture2DE, 
                       __ZN3ggl13Venue3DStroke36HorizontalVenue3DStrokePipelineSetupC1Ev, 
                       __ZN3ggl13Venue3DStroke36HorizontalVenue3DStrokePipelineSetupC2ERKNSt3__110shared_ptrINS0_36HorizontalVenue3DStrokePipelineStateEEE, 
                       __ZN3ggl13Venue3DStroke36HorizontalVenue3DStrokePipelineSetupC2ERKNSt3__110shared_ptrINS0_36HorizontalVenue3DStrokePipelineStateEEERKNS3_INS_17ConstantDataTypedINS_4Tile4ViewEEEEERKNS3_INS8_INS0_5StyleEEEEEPNS_9Texture2DE, 
                       __ZN3ggl13Venue3DStroke36HorizontalVenue3DStrokePipelineSetupC2Ev, 
                       __ZN3ggl13Venue3DStroke36HorizontalVenue3DStrokePipelineState15typedReflectionEv, 
                       __ZN3ggl13Venue3DStroke36HorizontalVenue3DStrokePipelineStateC1ERKNS_20ColorBufferOperationENS_18RenderTargetFormatE, 
                       __ZN3ggl13Venue3DStroke36HorizontalVenue3DStrokePipelineStateC1ERKNSt3__110shared_ptrINS_29HorizontalVenue3DStrokeShaderEEERKNS_20ColorBufferOperationENS_18RenderTargetFormatE, 
                       __ZN3ggl13Venue3DStroke36HorizontalVenue3DStrokePipelineStateC2ERKNS_20ColorBufferOperationENS_18RenderTargetFormatE, 
                       __ZN3ggl13Venue3DStroke36HorizontalVenue3DStrokePipelineStateC2ERKNSt3__110shared_ptrINS_29HorizontalVenue3DStrokeShaderEEERKNS_20ColorBufferOperationENS_18RenderTargetFormatE, 
                       __ZN3ggl13Venue3DStroke5Style10reflectionEv, __ZN3ggl14BuildingFacade10DefaultVbo10reflectionEv, 
                       __ZN3ggl14BuildingFacade12BuildingMeshC1EPKc, __ZN3ggl14BuildingFacade12BuildingMeshC1EPKcNSt3__110shared_ptrINS_15VertexDataTypedINS0_10DefaultVboEEEEENS5_INS_9IndexDataEEE, 
                       __ZN3ggl14BuildingFacade12BuildingMeshC2EPKc, __ZN3ggl14BuildingFacade12BuildingMeshC2EPKcNSt3__110shared_ptrINS_15VertexDataTypedINS0_10DefaultVboEEEEENS5_INS_9IndexDataEEE, 
                       __ZN3ggl14BuildingShadow17MeshPipelineSetup11setMeshMeshEPKNS_11TextureMesh8MeshMeshE, 
                       __ZN3ggl14BuildingShadow17MeshPipelineSetup15typedReflectionEv, 
                       __ZN3ggl14BuildingShadow17MeshPipelineSetup16viewConstantDataEv, 
                       __ZN3ggl14BuildingShadow17MeshPipelineSetup18shadowConstantDataEv, 
                       __ZN3ggl14BuildingShadow17MeshPipelineSetup19setViewConstantDataENSt3__110shared_ptrINS_17ConstantDataTypedINS_4Tile4ViewEEEEE, 
                       __ZN3ggl14BuildingShadow17MeshPipelineSetup21setShadowConstantDataENSt3__110shared_ptrINS_17ConstantDataTypedINS0_6ShadowEEEEE, 
                       __ZN3ggl14BuildingShadow17MeshPipelineSetup8meshMeshEv, __ZN3ggl14BuildingShadow17MeshPipelineSetup8setStateERKNSt3__110shared_ptrINS0_17MeshPipelineStateEEE, 
                       __ZN3ggl14BuildingShadow17MeshPipelineSetupC1ERKNSt3__110shared_ptrINS0_17MeshPipelineStateEEE, 
                       __ZN3ggl14BuildingShadow17MeshPipelineSetupC1ERKNSt3__110shared_ptrINS0_17MeshPipelineStateEEERKNS3_INS_17ConstantDataTypedINS_4Tile4ViewEEEEERKNS3_INS8_INS0_6ShadowEEEEEPNS_9Texture2DE, 
                       __ZN3ggl14BuildingShadow17MeshPipelineSetupC1Ev, __ZN3ggl14BuildingShadow17MeshPipelineSetupC2ERKNSt3__110shared_ptrINS0_17MeshPipelineStateEEE, 
                       __ZN3ggl14BuildingShadow17MeshPipelineSetupC2ERKNSt3__110shared_ptrINS0_17MeshPipelineStateEEERKNS3_INS_17ConstantDataTypedINS_4Tile4ViewEEEEERKNS3_INS8_INS0_6ShadowEEEEEPNS_9Texture2DE, 
                       __ZN3ggl14BuildingShadow17MeshPipelineSetupC2Ev, __ZN3ggl14BuildingShadow17MeshPipelineState15typedReflectionEv, 
                       __ZN3ggl14BuildingShadow17MeshPipelineStateC1ERKNS_20ColorBufferOperationENS_18RenderTargetFormatE, 
                       __ZN3ggl14BuildingShadow17MeshPipelineStateC1ERKNSt3__110shared_ptrINS_20BuildingShadowShaderEEERKNS_20ColorBufferOperationENS_18RenderTargetFormatE, 
                       __ZN3ggl14BuildingShadow17MeshPipelineStateC2ERKNS_20ColorBufferOperationENS_18RenderTargetFormatE, 
                       __ZN3ggl14BuildingShadow17MeshPipelineStateC2ERKNSt3__110shared_ptrINS_20BuildingShadowShaderEEERKNS_20ColorBufferOperationENS_18RenderTargetFormatE, 
                       __ZN3ggl14BuildingShadow6Shadow10reflectionEv, __ZN3ggl14FlyoverLibrary15typedReflectionEv, 
                       __ZN3ggl14FlyoverLibraryC1ENSt3__110shared_ptrINS_17ShaderLibraryDataEEE, 
                       __ZN3ggl14FlyoverLibraryC1Ev, __ZN3ggl14FlyoverLibraryC2ENSt3__110shared_ptrINS_17ShaderLibraryDataEEE, 
                       __ZN3ggl14FlyoverLibraryC2Ev, __ZN3ggl14FlyoverLibraryD0Ev, 
                       __ZN3ggl14FlyoverLibraryD1Ev, __ZN3ggl14FlyoverLibraryD2Ev, 
                       __ZN3ggl14FlyoverOverlay17P3T2PipelineSetup11setP3T2MeshEPKNS_8TileBase8P3T2MeshE, 
                       __ZN3ggl14FlyoverOverlay17P3T2PipelineSetup15typedReflectionEv, 
                       __ZN3ggl14FlyoverOverlay17P3T2PipelineSetup18sharedConstantDataEv, 
                       __ZN3ggl14FlyoverOverlay17P3T2PipelineSetup21setSharedConstantDataENSt3__110shared_ptrINS_17ConstantDataTypedINS0_6SharedEEEEE, 
                       __ZN3ggl14FlyoverOverlay17P3T2PipelineSetup21transformConstantDataEv, 
                       __ZN3ggl14FlyoverOverlay17P3T2PipelineSetup24setTransformConstantDataENSt3__110shared_ptrINS_17ConstantDataTypedINS0_9TransformEEEEE, 
                       __ZN3ggl14FlyoverOverlay17P3T2PipelineSetup8p3T2MeshEv, __ZN3ggl14FlyoverOverlay17P3T2PipelineSetup8setStateERKNSt3__110shared_ptrINS0_17P3T2PipelineStateEEE, 
                       __ZN3ggl14FlyoverOverlay17P3T2PipelineSetupC1ERKNSt3__110shared_ptrINS0_17P3T2PipelineStateEEE, 
                       __ZN3ggl14FlyoverOverlay17P3T2PipelineSetupC1ERKNSt3__110shared_ptrINS0_17P3T2PipelineStateEEERKNS3_INS_17ConstantDataTypedINS0_6SharedEEEEERKNS3_INS8_INS0_9TransformEEEEEPNS_9Texture2DE, 
                       __ZN3ggl14FlyoverOverlay17P3T2PipelineSetupC1Ev, __ZN3ggl14FlyoverOverlay17P3T2PipelineSetupC2ERKNSt3__110shared_ptrINS0_17P3T2PipelineStateEEE, 
                       __ZN3ggl14FlyoverOverlay17P3T2PipelineSetupC2ERKNSt3__110shared_ptrINS0_17P3T2PipelineStateEEERKNS3_INS_17ConstantDataTypedINS0_6SharedEEEEERKNS3_INS8_INS0_9TransformEEEEEPNS_9Texture2DE, 
                       __ZN3ggl14FlyoverOverlay17P3T2PipelineSetupC2Ev, __ZN3ggl14FlyoverOverlay17P3T2PipelineState15typedReflectionEv, 
                       __ZN3ggl14FlyoverOverlay17P3T2PipelineStateC1ERKNS_20ColorBufferOperationENS_18RenderTargetFormatE, 
                       __ZN3ggl14FlyoverOverlay17P3T2PipelineStateC1ERKNSt3__110shared_ptrINS_20FlyoverOverlayShaderEEERKNS_20ColorBufferOperationENS_18RenderTargetFormatE, 
                       __ZN3ggl14FlyoverOverlay17P3T2PipelineStateC2ERKNS_20ColorBufferOperationENS_18RenderTargetFormatE, 
                       __ZN3ggl14FlyoverOverlay17P3T2PipelineStateC2ERKNSt3__110shared_ptrINS_20FlyoverOverlayShaderEEERKNS_20ColorBufferOperationENS_18RenderTargetFormatE, 
                       __ZN3ggl14FlyoverOverlay6Shared10reflectionEv, __ZN3ggl14FlyoverOverlay9Transform10reflectionEv, 
                       __ZN3ggl14FlyoverTraffic11DefaultMeshC1EPKc, __ZN3ggl14FlyoverTraffic11DefaultMeshC1EPKcNSt3__110shared_ptrINS_15VertexDataTypedINS0_7DefaultEEEEENS5_INS_9IndexDataEEE, 
                       __ZN3ggl14FlyoverTraffic11DefaultMeshC2EPKc, __ZN3ggl14FlyoverTraffic11DefaultMeshC2EPKcNSt3__110shared_ptrINS_15VertexDataTypedINS0_7DefaultEEEEENS5_INS_9IndexDataEEE, 
                       __ZN3ggl14FlyoverTraffic12Displacement10reflectionEv, __ZN3ggl14FlyoverTraffic20DefaultPipelineSetup11defaultMeshEv, 
                       __ZN3ggl14FlyoverTraffic20DefaultPipelineSetup14setDefaultMeshEPKNS0_11DefaultMeshE, 
                       __ZN3ggl14FlyoverTraffic20DefaultPipelineSetup15typedReflectionEv, 
                       __ZN3ggl14FlyoverTraffic20DefaultPipelineSetup16viewConstantDataEv, 
                       __ZN3ggl14FlyoverTraffic20DefaultPipelineSetup17styleConstantDataEv, 
                       __ZN3ggl14FlyoverTraffic20DefaultPipelineSetup18sharedConstantDataEv, 
                       __ZN3ggl14FlyoverTraffic20DefaultPipelineSetup19patternConstantDataEv, 
                       __ZN3ggl14FlyoverTraffic20DefaultPipelineSetup19setViewConstantDataENSt3__110shared_ptrINS_17ConstantDataTypedINS_13FlyoverRibbon4ViewEEEEE, 
                       __ZN3ggl14FlyoverTraffic20DefaultPipelineSetup20setStyleConstantDataENSt3__110shared_ptrINS_17ConstantDataTypedINS0_5StyleEEEEE, 
                       __ZN3ggl14FlyoverTraffic20DefaultPipelineSetup21setSharedConstantDataENSt3__110shared_ptrINS_17ConstantDataTypedINS0_6SharedEEEEE, 
                       __ZN3ggl14FlyoverTraffic20DefaultPipelineSetup22setPatternConstantDataENSt3__110shared_ptrINS_17ConstantDataTypedINS0_7PatternEEEEE, 
                       __ZN3ggl14FlyoverTraffic20DefaultPipelineSetup24displacementConstantDataEv, 
                       __ZN3ggl14FlyoverTraffic20DefaultPipelineSetup27setDisplacementConstantDataENSt3__110shared_ptrINS_17ConstantDataTypedINS0_12DisplacementEEEEE, 
                       __ZN3ggl14FlyoverTraffic20DefaultPipelineSetup8setStateERKNSt3__110shared_ptrINS0_20DefaultPipelineStateEEE, 
                       __ZN3ggl14FlyoverTraffic20DefaultPipelineSetupC1ERKNSt3__110shared_ptrINS0_20DefaultPipelineStateEEE, 
                       __ZN3ggl14FlyoverTraffic20DefaultPipelineSetupC1ERKNSt3__110shared_ptrINS0_20DefaultPipelineStateEEERKNS3_INS_17ConstantDataTypedINS_13FlyoverRibbon4ViewEEEEERKNS3_INS8_INS0_12DisplacementEEEEERKNS3_INS8_INS0_7PatternEEEEERKNS3_INS8_INS0_5StyleEEEEERKNS3_INS8_INS0_6SharedEEEEE, 
                       __ZN3ggl14FlyoverTraffic20DefaultPipelineSetupC1Ev, __ZN3ggl14FlyoverTraffic20DefaultPipelineSetupC2ERKNSt3__110shared_ptrINS0_20DefaultPipelineStateEEE, 
                       __ZN3ggl14FlyoverTraffic20DefaultPipelineSetupC2ERKNSt3__110shared_ptrINS0_20DefaultPipelineStateEEERKNS3_INS_17ConstantDataTypedINS_13FlyoverRibbon4ViewEEEEERKNS3_INS8_INS0_12DisplacementEEEEERKNS3_INS8_INS0_7PatternEEEEERKNS3_INS8_INS0_5StyleEEEEERKNS3_INS8_INS0_6SharedEEEEE, 
                       __ZN3ggl14FlyoverTraffic20DefaultPipelineSetupC2Ev, __ZN3ggl14FlyoverTraffic20DefaultPipelineState15typedReflectionEv, 
                       __ZN3ggl14FlyoverTraffic20DefaultPipelineStateC1ERKNS_20ColorBufferOperationENS_18RenderTargetFormatE, 
                       __ZN3ggl14FlyoverTraffic20DefaultPipelineStateC1ERKNSt3__110shared_ptrINS_20FlyoverTrafficShaderEEERKNS_20ColorBufferOperationENS_18RenderTargetFormatE, 
                       __ZN3ggl14FlyoverTraffic20DefaultPipelineStateC2ERKNS_20ColorBufferOperationENS_18RenderTargetFormatE, 
                       __ZN3ggl14FlyoverTraffic20DefaultPipelineStateC2ERKNSt3__110shared_ptrINS_20FlyoverTrafficShaderEEERKNS_20ColorBufferOperationENS_18RenderTargetFormatE, 
                       __ZN3ggl14FlyoverTraffic5Style10reflectionEv, __ZN3ggl14FlyoverTraffic6Shared10reflectionEv, 
                       __ZN3ggl14FlyoverTraffic7Default10reflectionEv, __ZN3ggl14FlyoverTraffic7Pattern10reflectionEv, 
                       __ZN3ggl14RouteLineArrow10DefaultVbo10reflectionEv, __ZN3ggl14RouteLineArrow17BasePipelineSetup11setBaseMeshEPKNS0_8BaseMeshE, 
                       __ZN3ggl14RouteLineArrow17BasePipelineSetup15typedReflectionEv, 
                       __ZN3ggl14RouteLineArrow17BasePipelineSetup16viewConstantDataEv, 
                       __ZN3ggl14RouteLineArrow17BasePipelineSetup17styleConstantDataEv, 
                       __ZN3ggl14RouteLineArrow17BasePipelineSetup19setViewConstantDataENSt3__110shared_ptrINS_17ConstantDataTypedINS_4Tile4ViewEEEEE, 
                       __ZN3ggl14RouteLineArrow17BasePipelineSetup20setStyleConstantDataENSt3__110shared_ptrINS_17ConstantDataTypedINS0_5StyleEEEEE, 
                       __ZN3ggl14RouteLineArrow17BasePipelineSetup8baseMeshEv, __ZN3ggl14RouteLineArrow17BasePipelineSetup8setStateERKNSt3__110shared_ptrINS0_17BasePipelineStateEEE, 
                       __ZN3ggl14RouteLineArrow17BasePipelineSetupC1ERKNSt3__110shared_ptrINS0_17BasePipelineStateEEE, 
                       __ZN3ggl14RouteLineArrow17BasePipelineSetupC1ERKNSt3__110shared_ptrINS0_17BasePipelineStateEEERKNS3_INS_17ConstantDataTypedINS_4Tile4ViewEEEEERKNS3_INS8_INS0_5StyleEEEEEPNS_9Texture2DE, 
                       __ZN3ggl14RouteLineArrow17BasePipelineSetupC1Ev, __ZN3ggl14RouteLineArrow17BasePipelineSetupC2ERKNSt3__110shared_ptrINS0_17BasePipelineStateEEE, 
                       __ZN3ggl14RouteLineArrow17BasePipelineSetupC2ERKNSt3__110shared_ptrINS0_17BasePipelineStateEEERKNS3_INS_17ConstantDataTypedINS_4Tile4ViewEEEEERKNS3_INS8_INS0_5StyleEEEEEPNS_9Texture2DE, 
                       __ZN3ggl14RouteLineArrow17BasePipelineSetupC2Ev, __ZN3ggl14RouteLineArrow17BasePipelineState15typedReflectionEv, 
                       __ZN3ggl14RouteLineArrow17BasePipelineStateC1ERKNS_20ColorBufferOperationENS_18RenderTargetFormatE, 
                       __ZN3ggl14RouteLineArrow17BasePipelineStateC1ERKNSt3__110shared_ptrINS_20RouteLineArrowShaderEEERKNS_20ColorBufferOperationENS_18RenderTargetFormatE, 
                       __ZN3ggl14RouteLineArrow17BasePipelineStateC2ERKNS_20ColorBufferOperationENS_18RenderTargetFormatE, 
                       __ZN3ggl14RouteLineArrow17BasePipelineStateC2ERKNSt3__110shared_ptrINS_20RouteLineArrowShaderEEERKNS_20ColorBufferOperationENS_18RenderTargetFormatE, 
                       __ZN3ggl14RouteLineArrow5Style10reflectionEv, __ZN3ggl14RouteLineArrow8BaseMeshC1EPKc, 
                       __ZN3ggl14RouteLineArrow8BaseMeshC1EPKcNSt3__110shared_ptrINS_15VertexDataTypedINS0_10DefaultVboEEEEENS5_INS_9IndexDataEEE, 
                       __ZN3ggl14RouteLineArrow8BaseMeshC2EPKc, __ZN3ggl14RouteLineArrow8BaseMeshC2EPKcNSt3__110shared_ptrINS_15VertexDataTypedINS0_10DefaultVboEEEEENS5_INS_9IndexDataEEE, 
                       __ZN3ggl14TexturedShader15typedReflectionEv, __ZN3ggl14TexturedShader24vertexFunctionDescriptorEv, 
                       __ZN3ggl14TexturedShader26fragmentFunctionDescriptorEv, __ZN3ggl14TexturedShaderC1Ev, 
                       __ZN3ggl14TexturedShaderC2Ev, __ZN3ggl14TransitNodeRGB17BasePipelineSetup11setBaseMeshEPKNS_11TransitNode8BaseMeshE, 
                       __ZN3ggl14TransitNodeRGB17BasePipelineSetup15typedReflectionEv, 
                       __ZN3ggl14TransitNodeRGB17BasePipelineSetup20settingsConstantDataEv, 
                       __ZN3ggl14TransitNodeRGB17BasePipelineSetup23setSettingsConstantDataENSt3__110shared_ptrINS_17ConstantDataTypedINS_11TransitNode8SettingsEEEEE, 
                       __ZN3ggl14TransitNodeRGB17BasePipelineSetup8baseMeshEv, __ZN3ggl14TransitNodeRGB17BasePipelineSetup8setStateERKNSt3__110shared_ptrINS0_17BasePipelineStateEEE, 
                       __ZN3ggl14TransitNodeRGB17BasePipelineSetupC1ERKNSt3__110shared_ptrINS0_17BasePipelineStateEEE, 
                       __ZN3ggl14TransitNodeRGB17BasePipelineSetupC1ERKNSt3__110shared_ptrINS0_17BasePipelineStateEEERKNS3_INS_17ConstantDataTypedINS_11TransitNode8SettingsEEEEEPNS_9Texture2DE, 
                       __ZN3ggl14TransitNodeRGB17BasePipelineSetupC1Ev, __ZN3ggl14TransitNodeRGB17BasePipelineSetupC2ERKNSt3__110shared_ptrINS0_17BasePipelineStateEEE, 
                       __ZN3ggl14TransitNodeRGB17BasePipelineSetupC2ERKNSt3__110shared_ptrINS0_17BasePipelineStateEEERKNS3_INS_17ConstantDataTypedINS_11TransitNode8SettingsEEEEEPNS_9Texture2DE, 
                       __ZN3ggl14TransitNodeRGB17BasePipelineSetupC2Ev, __ZN3ggl14TransitNodeRGB17BasePipelineState15typedReflectionEv, 
                       __ZN3ggl14TransitNodeRGB17BasePipelineStateC1ERKNS_20ColorBufferOperationENS_18RenderTargetFormatE, 
                       __ZN3ggl14TransitNodeRGB17BasePipelineStateC1ERKNSt3__110shared_ptrINS_20TransitNodeRGBShaderEEERKNS_20ColorBufferOperationENS_18RenderTargetFormatE, 
                       __ZN3ggl14TransitNodeRGB17BasePipelineStateC2ERKNS_20ColorBufferOperationENS_18RenderTargetFormatE, 
                       __ZN3ggl14TransitNodeRGB17BasePipelineStateC2ERKNSt3__110shared_ptrINS_20TransitNodeRGBShaderEEERKNS_20ColorBufferOperationENS_18RenderTargetFormatE, 
                       __ZN3ggl15DebugRenderUtil6P3NVbo10reflectionEv, __ZN3ggl15DebugRenderUtil6Shared10reflectionEv, 
                       __ZN3ggl15DebugRenderUtil7P3NMeshC1EPKc, __ZN3ggl15DebugRenderUtil7P3NMeshC1EPKcNSt3__110shared_ptrINS_15VertexDataTypedINS0_6P3NVboEEEEENS5_INS_9IndexDataEEE, 
                       __ZN3ggl15DebugRenderUtil7P3NMeshC2EPKc, __ZN3ggl15DebugRenderUtil7P3NMeshC2EPKcNSt3__110shared_ptrINS_15VertexDataTypedINS0_6P3NVboEEEEENS5_INS_9IndexDataEEE, 
                       __ZN3ggl15DiffuseBuilding21BuildingPipelineSetup12buildingMeshEv, 
                       __ZN3ggl15DiffuseBuilding21BuildingPipelineSetup15setBuildingMeshEPKNS_14BuildingFacade12BuildingMeshE, 
                       __ZN3ggl15DiffuseBuilding21BuildingPipelineSetup15typedReflectionEv, 
                       __ZN3ggl15DiffuseBuilding21BuildingPipelineSetup16fadeConstantDataEv, 
                       __ZN3ggl15DiffuseBuilding21BuildingPipelineSetup16viewConstantDataEv, 
                       __ZN3ggl15DiffuseBuilding21BuildingPipelineSetup17scaleConstantDataEv, 
                       __ZN3ggl15DiffuseBuilding21BuildingPipelineSetup17styleConstantDataEv, 
                       __ZN3ggl15DiffuseBuilding21BuildingPipelineSetup18skyfogConstantDataEv, 
                       __ZN3ggl15DiffuseBuilding21BuildingPipelineSetup19setFadeConstantDataENSt3__110shared_ptrINS_17ConstantDataTypedINS_8Building4FadeEEEEE, 
                       __ZN3ggl15DiffuseBuilding21BuildingPipelineSetup19setViewConstantDataENSt3__110shared_ptrINS_17ConstantDataTypedINS_4Tile4ViewEEEEE, 
                       __ZN3ggl15DiffuseBuilding21BuildingPipelineSetup20gradientConstantDataEv, 
                       __ZN3ggl15DiffuseBuilding21BuildingPipelineSetup20lightingConstantDataEv, 
                       __ZN3ggl15DiffuseBuilding21BuildingPipelineSetup20setScaleConstantDataENSt3__110shared_ptrINS_17ConstantDataTypedINS_8Building5ScaleEEEEE, 
                       __ZN3ggl15DiffuseBuilding21BuildingPipelineSetup20setStyleConstantDataENSt3__110shared_ptrINS_17ConstantDataTypedINS_8Building5StyleEEEEE, 
                       __ZN3ggl15DiffuseBuilding21BuildingPipelineSetup21setSkyfogConstantDataENSt3__110shared_ptrINS_17ConstantDataTypedINS_3Fog6SkyfogEEEEE, 
                       __ZN3ggl15DiffuseBuilding21BuildingPipelineSetup23setGradientConstantDataENSt3__110shared_ptrINS_17ConstantDataTypedINS_8Building8GradientEEEEE, 
                       __ZN3ggl15DiffuseBuilding21BuildingPipelineSetup23setLightingConstantDataENSt3__110shared_ptrINS_17ConstantDataTypedINS_8Building8LightingEEEEE, 
                       __ZN3ggl15DiffuseBuilding21BuildingPipelineSetup8setStateERKNSt3__110shared_ptrINS0_21BuildingPipelineStateEEE, 
                       __ZN3ggl15DiffuseBuilding21BuildingPipelineSetupC1ERKNSt3__110shared_ptrINS0_21BuildingPipelineStateEEE, 
                       __ZN3ggl15DiffuseBuilding21BuildingPipelineSetupC1ERKNSt3__110shared_ptrINS0_21BuildingPipelineStateEEERKNS3_INS_17ConstantDataTypedINS_3Fog6SkyfogEEEEERKNS3_INS8_INS_4Tile4ViewEEEEERKNS3_INS8_INS_8Building5ScaleEEEEERKNS3_INS8_INSL_5StyleEEEEERKNS3_INS8_INSL_8GradientEEEEERKNS3_INS8_INSL_8LightingEEEEERKNS3_INS8_INSL_4FadeEEEEEPNS_9Texture2DE, 
                       __ZN3ggl15DiffuseBuilding21BuildingPipelineSetupC1Ev, __ZN3ggl15DiffuseBuilding21BuildingPipelineSetupC2ERKNSt3__110shared_ptrINS0_21BuildingPipelineStateEEE, 
                       __ZN3ggl15DiffuseBuilding21BuildingPipelineSetupC2ERKNSt3__110shared_ptrINS0_21BuildingPipelineStateEEERKNS3_INS_17ConstantDataTypedINS_3Fog6SkyfogEEEEERKNS3_INS8_INS_4Tile4ViewEEEEERKNS3_INS8_INS_8Building5ScaleEEEEERKNS3_INS8_INSL_5StyleEEEEERKNS3_INS8_INSL_8GradientEEEEERKNS3_INS8_INSL_8LightingEEEEERKNS3_INS8_INSL_4FadeEEEEEPNS_9Texture2DE, 
                       __ZN3ggl15DiffuseBuilding21BuildingPipelineSetupC2Ev, __ZN3ggl15DiffuseBuilding21BuildingPipelineState15typedReflectionEv, 
                       __ZN3ggl15DiffuseBuilding21BuildingPipelineStateC1ERKNS_20ColorBufferOperationENS_18RenderTargetFormatE, 
                       __ZN3ggl15DiffuseBuilding21BuildingPipelineStateC1ERKNSt3__110shared_ptrINS_21DiffuseBuildingShaderEEERKNS_20ColorBufferOperationENS_18RenderTargetFormatE, 
                       __ZN3ggl15DiffuseBuilding21BuildingPipelineStateC2ERKNS_20ColorBufferOperationENS_18RenderTargetFormatE, 
                       __ZN3ggl15DiffuseBuilding21BuildingPipelineStateC2ERKNSt3__110shared_ptrINS_21DiffuseBuildingShaderEEERKNS_20ColorBufferOperationENS_18RenderTargetFormatE, 
                       __ZN3ggl15DiffuseLandmark21BuildingPipelineSetup12landmarkMeshEv, 
                       __ZN3ggl15DiffuseLandmark21BuildingPipelineSetup15setLandmarkMeshEPKNS_8Landmark12LandmarkMeshE, 
                       __ZN3ggl15DiffuseLandmark21BuildingPipelineSetup15typedReflectionEv, 
                       __ZN3ggl15DiffuseLandmark21BuildingPipelineSetup16fadeConstantDataEv, 
                       __ZN3ggl15DiffuseLandmark21BuildingPipelineSetup16viewConstantDataEv, 
                       __ZN3ggl15DiffuseLandmark21BuildingPipelineSetup17scaleConstantDataEv, 
                       __ZN3ggl15DiffuseLandmark21BuildingPipelineSetup17styleConstantDataEv, 
                       __ZN3ggl15DiffuseLandmark21BuildingPipelineSetup18skyfogConstantDataEv, 
                       __ZN3ggl15DiffuseLandmark21BuildingPipelineSetup19setFadeConstantDataENSt3__110shared_ptrINS_17ConstantDataTypedINS_8Building4FadeEEEEE, 
                       __ZN3ggl15DiffuseLandmark21BuildingPipelineSetup19setViewConstantDataENSt3__110shared_ptrINS_17ConstantDataTypedINS_4Tile4ViewEEEEE, 
                       __ZN3ggl15DiffuseLandmark21BuildingPipelineSetup20gradientConstantDataEv, 
                       __ZN3ggl15DiffuseLandmark21BuildingPipelineSetup20lightingConstantDataEv, 
                       __ZN3ggl15DiffuseLandmark21BuildingPipelineSetup20setScaleConstantDataENSt3__110shared_ptrINS_17ConstantDataTypedINS_8Building5ScaleEEEEE, 
                       __ZN3ggl15DiffuseLandmark21BuildingPipelineSetup20setStyleConstantDataENSt3__110shared_ptrINS_17ConstantDataTypedINS_8Building5StyleEEEEE, 
                       __ZN3ggl15DiffuseLandmark21BuildingPipelineSetup21setSkyfogConstantDataENSt3__110shared_ptrINS_17ConstantDataTypedINS_3Fog6SkyfogEEEEE, 
                       __ZN3ggl15DiffuseLandmark21BuildingPipelineSetup23setGradientConstantDataENSt3__110shared_ptrINS_17ConstantDataTypedINS_8Building8GradientEEEEE, 
                       __ZN3ggl15DiffuseLandmark21BuildingPipelineSetup23setLightingConstantDataENSt3__110shared_ptrINS_17ConstantDataTypedINS_8Building8LightingEEEEE, 
                       __ZN3ggl15DiffuseLandmark21BuildingPipelineSetup8setStateERKNSt3__110shared_ptrINS0_21BuildingPipelineStateEEE, 
                       __ZN3ggl15DiffuseLandmark21BuildingPipelineSetupC1ERKNSt3__110shared_ptrINS0_21BuildingPipelineStateEEE, 
                       __ZN3ggl15DiffuseLandmark21BuildingPipelineSetupC1ERKNSt3__110shared_ptrINS0_21BuildingPipelineStateEEERKNS3_INS_17ConstantDataTypedINS_3Fog6SkyfogEEEEERKNS3_INS8_INS_4Tile4ViewEEEEERKNS3_INS8_INS_8Building5ScaleEEEEERKNS3_INS8_INSL_5StyleEEEEERKNS3_INS8_INSL_8GradientEEEEERKNS3_INS8_INSL_8LightingEEEEERKNS3_INS8_INSL_4FadeEEEEEPNS_9Texture2DE, 
                       __ZN3ggl15DiffuseLandmark21BuildingPipelineSetupC1Ev, __ZN3ggl15DiffuseLandmark21BuildingPipelineSetupC2ERKNSt3__110shared_ptrINS0_21BuildingPipelineStateEEE, 
                       __ZN3ggl15DiffuseLandmark21BuildingPipelineSetupC2ERKNSt3__110shared_ptrINS0_21BuildingPipelineStateEEERKNS3_INS_17ConstantDataTypedINS_3Fog6SkyfogEEEEERKNS3_INS8_INS_4Tile4ViewEEEEERKNS3_INS8_INS_8Building5ScaleEEEEERKNS3_INS8_INSL_5StyleEEEEERKNS3_INS8_INSL_8GradientEEEEERKNS3_INS8_INSL_8LightingEEEEERKNS3_INS8_INSL_4FadeEEEEEPNS_9Texture2DE, 
                       __ZN3ggl15DiffuseLandmark21BuildingPipelineSetupC2Ev, __ZN3ggl15DiffuseLandmark21BuildingPipelineState15typedReflectionEv, 
                       __ZN3ggl15DiffuseLandmark21BuildingPipelineStateC1ERKNS_20ColorBufferOperationENS_18RenderTargetFormatE, 
                       __ZN3ggl15DiffuseLandmark21BuildingPipelineStateC1ERKNSt3__110shared_ptrINS_21DiffuseLandmarkShaderEEERKNS_20ColorBufferOperationENS_18RenderTargetFormatE, 
                       __ZN3ggl15DiffuseLandmark21BuildingPipelineStateC2ERKNS_20ColorBufferOperationENS_18RenderTargetFormatE, 
                       __ZN3ggl15DiffuseLandmark21BuildingPipelineStateC2ERKNSt3__110shared_ptrINS_21DiffuseLandmarkShaderEEERKNS_20ColorBufferOperationENS_18RenderTargetFormatE, 
                       __ZN3ggl15FlyoverManeuver11DefaultMeshC1EPKc, __ZN3ggl15FlyoverManeuver11DefaultMeshC1EPKcNSt3__110shared_ptrINS_15VertexDataTypedINS0_7DefaultEEEEENS5_INS_9IndexDataEEE, 
                       __ZN3ggl15FlyoverManeuver11DefaultMeshC2EPKc, __ZN3ggl15FlyoverManeuver11DefaultMeshC2EPKcNSt3__110shared_ptrINS_15VertexDataTypedINS0_7DefaultEEEEENS5_INS_9IndexDataEEE, 
                       __ZN3ggl15FlyoverManeuver12Displacement10reflectionEv, __ZN3ggl15FlyoverManeuver20DefaultPipelineSetup11defaultMeshEv, 
                       __ZN3ggl15FlyoverManeuver20DefaultPipelineSetup14setDefaultMeshEPKNS0_11DefaultMeshE, 
                       __ZN3ggl15FlyoverManeuver20DefaultPipelineSetup15typedReflectionEv, 
                       __ZN3ggl15FlyoverManeuver20DefaultPipelineSetup16viewConstantDataEv, 
                       __ZN3ggl15FlyoverManeuver20DefaultPipelineSetup17styleConstantDataEv, 
                       __ZN3ggl15FlyoverManeuver20DefaultPipelineSetup19setViewConstantDataENSt3__110shared_ptrINS_17ConstantDataTypedINS_13FlyoverRibbon4ViewEEEEE, 
                       __ZN3ggl15FlyoverManeuver20DefaultPipelineSetup20setStyleConstantDataENSt3__110shared_ptrINS_17ConstantDataTypedINS0_5StyleEEEEE, 
                       __ZN3ggl15FlyoverManeuver20DefaultPipelineSetup24displacementConstantDataEv, 
                       __ZN3ggl15FlyoverManeuver20DefaultPipelineSetup27setDisplacementConstantDataENSt3__110shared_ptrINS_17ConstantDataTypedINS0_12DisplacementEEEEE, 
                       __ZN3ggl15FlyoverManeuver20DefaultPipelineSetup8setStateERKNSt3__110shared_ptrINS0_20DefaultPipelineStateEEE, 
                       __ZN3ggl15FlyoverManeuver20DefaultPipelineSetupC1ERKNSt3__110shared_ptrINS0_20DefaultPipelineStateEEE, 
                       __ZN3ggl15FlyoverManeuver20DefaultPipelineSetupC1ERKNSt3__110shared_ptrINS0_20DefaultPipelineStateEEERKNS3_INS_17ConstantDataTypedINS_13FlyoverRibbon4ViewEEEEERKNS3_INS8_INS0_12DisplacementEEEEERKNS3_INS8_INS0_5StyleEEEEEPNS_9Texture2DE, 
                       __ZN3ggl15FlyoverManeuver20DefaultPipelineSetupC1Ev, __ZN3ggl15FlyoverManeuver20DefaultPipelineSetupC2ERKNSt3__110shared_ptrINS0_20DefaultPipelineStateEEE, 
                       __ZN3ggl15FlyoverManeuver20DefaultPipelineSetupC2ERKNSt3__110shared_ptrINS0_20DefaultPipelineStateEEERKNS3_INS_17ConstantDataTypedINS_13FlyoverRibbon4ViewEEEEERKNS3_INS8_INS0_12DisplacementEEEEERKNS3_INS8_INS0_5StyleEEEEEPNS_9Texture2DE, 
                       __ZN3ggl15FlyoverManeuver20DefaultPipelineSetupC2Ev, __ZN3ggl15FlyoverManeuver20DefaultPipelineState15typedReflectionEv, 
                       __ZN3ggl15FlyoverManeuver20DefaultPipelineStateC1ERKNS_20ColorBufferOperationENS_18RenderTargetFormatE, 
                       __ZN3ggl15FlyoverManeuver20DefaultPipelineStateC1ERKNSt3__110shared_ptrINS_21FlyoverManeuverShaderEEERKNS_20ColorBufferOperationENS_18RenderTargetFormatE, 
                       __ZN3ggl15FlyoverManeuver20DefaultPipelineStateC2ERKNS_20ColorBufferOperationENS_18RenderTargetFormatE, 
                       __ZN3ggl15FlyoverManeuver20DefaultPipelineStateC2ERKNSt3__110shared_ptrINS_21FlyoverManeuverShaderEEERKNS_20ColorBufferOperationENS_18RenderTargetFormatE, 
                       __ZN3ggl15FlyoverManeuver5Style10reflectionEv, __ZN3ggl15FlyoverManeuver7Default10reflectionEv, 
                       __ZN3ggl15FlyoverNightDim17QuadPipelineSetup11setQuadMeshEPKNS0_8QuadMeshE, 
                       __ZN3ggl15FlyoverNightDim17QuadPipelineSetup15typedReflectionEv, 
                       __ZN3ggl15FlyoverNightDim17QuadPipelineSetup17colorConstantDataEv, 
                       __ZN3ggl15FlyoverNightDim17QuadPipelineSetup20setColorConstantDataENSt3__110shared_ptrINS_17ConstantDataTypedINS0_5ColorEEEEE, 
                       __ZN3ggl15FlyoverNightDim17QuadPipelineSetup8quadMeshEv, __ZN3ggl15FlyoverNightDim17QuadPipelineSetup8setStateERKNSt3__110shared_ptrINS0_17QuadPipelineStateEEE, 
                       __ZN3ggl15FlyoverNightDim17QuadPipelineSetupC1ERKNSt3__110shared_ptrINS0_17QuadPipelineStateEEE, 
                       __ZN3ggl15FlyoverNightDim17QuadPipelineSetupC1ERKNSt3__110shared_ptrINS0_17QuadPipelineStateEEERKNS3_INS_17ConstantDataTypedINS0_5ColorEEEEE, 
                       __ZN3ggl15FlyoverNightDim17QuadPipelineSetupC1Ev, __ZN3ggl15FlyoverNightDim17QuadPipelineSetupC2ERKNSt3__110shared_ptrINS0_17QuadPipelineStateEEE, 
                       __ZN3ggl15FlyoverNightDim17QuadPipelineSetupC2ERKNSt3__110shared_ptrINS0_17QuadPipelineStateEEERKNS3_INS_17ConstantDataTypedINS0_5ColorEEEEE, 
                       __ZN3ggl15FlyoverNightDim17QuadPipelineSetupC2Ev, __ZN3ggl15FlyoverNightDim17QuadPipelineState15typedReflectionEv, 
                       __ZN3ggl15FlyoverNightDim17QuadPipelineStateC1ERKNS_20ColorBufferOperationENS_18RenderTargetFormatE, 
                       __ZN3ggl15FlyoverNightDim17QuadPipelineStateC1ERKNSt3__110shared_ptrINS_21FlyoverNightDimShaderEEERKNS_20ColorBufferOperationENS_18RenderTargetFormatE, 
                       __ZN3ggl15FlyoverNightDim17QuadPipelineStateC2ERKNS_20ColorBufferOperationENS_18RenderTargetFormatE, 
                       __ZN3ggl15FlyoverNightDim17QuadPipelineStateC2ERKNSt3__110shared_ptrINS_21FlyoverNightDimShaderEEERKNS_20ColorBufferOperationENS_18RenderTargetFormatE, 
                       __ZN3ggl15FlyoverNightDim4Quad10reflectionEv, __ZN3ggl15FlyoverNightDim5Color10reflectionEv, 
                       __ZN3ggl15FlyoverNightDim8QuadMeshC1EPKc, __ZN3ggl15FlyoverNightDim8QuadMeshC1EPKcNSt3__110shared_ptrINS_15VertexDataTypedINS0_4QuadEEEEENS5_INS_9IndexDataEEE, 
                       __ZN3ggl15FlyoverNightDim8QuadMeshC2EPKc, __ZN3ggl15FlyoverNightDim8QuadMeshC2EPKcNSt3__110shared_ptrINS_15VertexDataTypedINS0_4QuadEEEEENS5_INS_9IndexDataEEE, 
                       __ZN3ggl15GlowAlphaShader15typedReflectionEv, __ZN3ggl15GlowAlphaShader24vertexFunctionDescriptorEv, 
                       __ZN3ggl15GlowAlphaShader26fragmentFunctionDescriptorEv, __ZN3ggl15GlowAlphaShaderC1Ev, 
                       __ZN3ggl15GlowAlphaShaderC2Ev, __ZN3ggl15ImageCopyShader15typedReflectionEv, 
                       __ZN3ggl15ImageCopyShader24vertexFunctionDescriptorEv, __ZN3ggl15ImageCopyShader26fragmentFunctionDescriptorEv, 
                       __ZN3ggl15ImageCopyShaderC1Ev, __ZN3ggl15ImageCopyShaderC2Ev, 
                       __ZN3ggl15PatternedRibbon10DefaultVbo10reflectionEv, __ZN3ggl15PatternedRibbon17BasePipelineSetup11setBaseMeshEPKNS0_8BaseMeshE, 
                       __ZN3ggl15PatternedRibbon17BasePipelineSetup15typedReflectionEv, 
                       __ZN3ggl15PatternedRibbon17BasePipelineSetup16viewConstantDataEv, 
                       __ZN3ggl15PatternedRibbon17BasePipelineSetup17styleConstantDataEv, 
                       __ZN3ggl15PatternedRibbon17BasePipelineSetup19setViewConstantDataENSt3__110shared_ptrINS_17ConstantDataTypedINS_4Tile4ViewEEEEE, 
                       __ZN3ggl15PatternedRibbon17BasePipelineSetup20setStyleConstantDataENSt3__110shared_ptrINS_17ConstantDataTypedINS0_5StyleEEEEE, 
                       __ZN3ggl15PatternedRibbon17BasePipelineSetup8baseMeshEv, __ZN3ggl15PatternedRibbon17BasePipelineSetup8setStateERKNSt3__110shared_ptrINS0_17BasePipelineStateEEE, 
                       __ZN3ggl15PatternedRibbon17BasePipelineSetupC1ERKNSt3__110shared_ptrINS0_17BasePipelineStateEEE, 
                       __ZN3ggl15PatternedRibbon17BasePipelineSetupC1ERKNSt3__110shared_ptrINS0_17BasePipelineStateEEERKNS3_INS_17ConstantDataTypedINS_4Tile4ViewEEEEERKNS3_INS8_INS0_5StyleEEEEEPNS_9Texture2DE, 
                       __ZN3ggl15PatternedRibbon17BasePipelineSetupC1Ev, __ZN3ggl15PatternedRibbon17BasePipelineSetupC2ERKNSt3__110shared_ptrINS0_17BasePipelineStateEEE, 
                       __ZN3ggl15PatternedRibbon17BasePipelineSetupC2ERKNSt3__110shared_ptrINS0_17BasePipelineStateEEERKNS3_INS_17ConstantDataTypedINS_4Tile4ViewEEEEERKNS3_INS8_INS0_5StyleEEEEEPNS_9Texture2DE, 
                       __ZN3ggl15PatternedRibbon17BasePipelineSetupC2Ev, __ZN3ggl15PatternedRibbon17BasePipelineState15typedReflectionEv, 
                       __ZN3ggl15PatternedRibbon17BasePipelineStateC1ERKNS_20ColorBufferOperationENS_18RenderTargetFormatE, 
                       __ZN3ggl15PatternedRibbon17BasePipelineStateC1ERKNSt3__110shared_ptrINS_21PatternedRibbonShaderEEERKNS_20ColorBufferOperationENS_18RenderTargetFormatE, 
                       __ZN3ggl15PatternedRibbon17BasePipelineStateC2ERKNS_20ColorBufferOperationENS_18RenderTargetFormatE, 
                       __ZN3ggl15PatternedRibbon17BasePipelineStateC2ERKNSt3__110shared_ptrINS_21PatternedRibbonShaderEEERKNS_20ColorBufferOperationENS_18RenderTargetFormatE, 
                       __ZN3ggl15PatternedRibbon5Style10reflectionEv, __ZN3ggl15PatternedRibbon8BaseMeshC1EPKc, 
                       __ZN3ggl15PatternedRibbon8BaseMeshC1EPKcNSt3__110shared_ptrINS_15VertexDataTypedINS0_10DefaultVboEEEEENS5_INS_9IndexDataEEE, 
                       __ZN3ggl15PatternedRibbon8BaseMeshC2EPKc, __ZN3ggl15PatternedRibbon8BaseMeshC2EPKcNSt3__110shared_ptrINS_15VertexDataTypedINS0_10DefaultVboEEEEENS5_INS_9IndexDataEEE, 
                       __ZN3ggl15PrefilteredLine10DefaultVbo10reflectionEv, __ZN3ggl15PrefilteredLine19PrefilteredLineMeshC1EPKc, 
                       __ZN3ggl15PrefilteredLine19PrefilteredLineMeshC1EPKcNSt3__110shared_ptrINS_15VertexDataTypedINS0_10DefaultVboEEEEENS5_INS_9IndexDataEEE, 
                       __ZN3ggl15PrefilteredLine19PrefilteredLineMeshC2EPKc, __ZN3ggl15PrefilteredLine19PrefilteredLineMeshC2EPKcNSt3__110shared_ptrINS_15VertexDataTypedINS0_10DefaultVboEEEEENS5_INS_9IndexDataEEE, 
                       __ZN3ggl15PrefilteredLine28PrefilteredLinePipelineSetup15typedReflectionEv, 
                       __ZN3ggl15PrefilteredLine28PrefilteredLinePipelineSetup16viewConstantDataEv, 
                       __ZN3ggl15PrefilteredLine28PrefilteredLinePipelineSetup17styleConstantDataEv, 
                       __ZN3ggl15PrefilteredLine28PrefilteredLinePipelineSetup18skyfogConstantDataEv, 
                       __ZN3ggl15PrefilteredLine28PrefilteredLinePipelineSetup19prefilteredLineMeshEv, 
                       __ZN3ggl15PrefilteredLine28PrefilteredLinePipelineSetup19setViewConstantDataENSt3__110shared_ptrINS_17ConstantDataTypedINS_4Tile4ViewEEEEE, 
                       __ZN3ggl15PrefilteredLine28PrefilteredLinePipelineSetup20setStyleConstantDataENSt3__110shared_ptrINS_17ConstantDataTypedINS0_5StyleEEEEE, 
                       __ZN3ggl15PrefilteredLine28PrefilteredLinePipelineSetup21setSkyfogConstantDataENSt3__110shared_ptrINS_17ConstantDataTypedINS_3Fog6SkyfogEEEEE, 
                       __ZN3ggl15PrefilteredLine28PrefilteredLinePipelineSetup22setPrefilteredLineMeshEPKNS0_19PrefilteredLineMeshE, 
                       __ZN3ggl15PrefilteredLine28PrefilteredLinePipelineSetup8setStateERKNSt3__110shared_ptrINS0_28PrefilteredLinePipelineStateEEE, 
                       __ZN3ggl15PrefilteredLine28PrefilteredLinePipelineSetupC1ERKNSt3__110shared_ptrINS0_28PrefilteredLinePipelineStateEEE, 
                       __ZN3ggl15PrefilteredLine28PrefilteredLinePipelineSetupC1ERKNSt3__110shared_ptrINS0_28PrefilteredLinePipelineStateEEERKNS3_INS_17ConstantDataTypedINS_4Tile4ViewEEEEERKNS3_INS8_INS0_5StyleEEEEERKNS3_INS8_INS_3Fog6SkyfogEEEEEPNS_9Texture2DE, 
                       __ZN3ggl15PrefilteredLine28PrefilteredLinePipelineSetupC1Ev, 
                       __ZN3ggl15PrefilteredLine28PrefilteredLinePipelineSetupC2ERKNSt3__110shared_ptrINS0_28PrefilteredLinePipelineStateEEE, 
                       __ZN3ggl15PrefilteredLine28PrefilteredLinePipelineSetupC2ERKNSt3__110shared_ptrINS0_28PrefilteredLinePipelineStateEEERKNS3_INS_17ConstantDataTypedINS_4Tile4ViewEEEEERKNS3_INS8_INS0_5StyleEEEEERKNS3_INS8_INS_3Fog6SkyfogEEEEEPNS_9Texture2DE, 
                       __ZN3ggl15PrefilteredLine28PrefilteredLinePipelineSetupC2Ev, 
                       __ZN3ggl15PrefilteredLine28PrefilteredLinePipelineState15typedReflectionEv, 
                       __ZN3ggl15PrefilteredLine28PrefilteredLinePipelineStateC1ERKNS_20ColorBufferOperationENS_18RenderTargetFormatE, 
                       __ZN3ggl15PrefilteredLine28PrefilteredLinePipelineStateC1ERKNSt3__110shared_ptrINS_21PrefilteredLineShaderEEERKNS_20ColorBufferOperationENS_18RenderTargetFormatE, 
                       __ZN3ggl15PrefilteredLine28PrefilteredLinePipelineStateC2ERKNS_20ColorBufferOperationENS_18RenderTargetFormatE, 
                       __ZN3ggl15PrefilteredLine28PrefilteredLinePipelineStateC2ERKNSt3__110shared_ptrINS_21PrefilteredLineShaderEEERKNS_20ColorBufferOperationENS_18RenderTargetFormatE, 
                       __ZN3ggl15PrefilteredLine5Style10reflectionEv, __ZN3ggl15RouteLineShader15typedReflectionEv, 
                       __ZN3ggl15RouteLineShader24vertexFunctionDescriptorEv, __ZN3ggl15RouteLineShader26fragmentFunctionDescriptorEv, 
                       __ZN3ggl15RouteLineShaderC1Ev, __ZN3ggl15RouteLineShaderC2Ev, 
                       __ZN3ggl15SolidLineShader15typedReflectionEv, __ZN3ggl15SolidLineShader24vertexFunctionDescriptorEv, 
                       __ZN3ggl15SolidLineShader26fragmentFunctionDescriptorEv, __ZN3ggl15SolidLineShaderC1Ev, 
                       __ZN3ggl15SolidLineShaderC2Ev, __ZN3ggl15StandardLibrary15typedReflectionEv, 
                       __ZN3ggl15StandardLibraryC1ENSt3__110shared_ptrINS_17ShaderLibraryDataEEE, 
                       __ZN3ggl15StandardLibraryC1Ev, __ZN3ggl15StandardLibraryC2ENSt3__110shared_ptrINS_17ShaderLibraryDataEEE, 
                       __ZN3ggl15StandardLibraryC2Ev, __ZN3ggl15StandardLibraryD0Ev, 
                       __ZN3ggl15StandardLibraryD1Ev, __ZN3ggl15StandardLibraryD2Ev, 
                       __ZN3ggl15TileBaseSurface19P3T2T2PipelineSetup10p3T2T2MeshEv, 
                       __ZN3ggl15TileBaseSurface19P3T2T2PipelineSetup13setP3T2T2MeshEPKNS_8TileBase10P3T2T2MeshE, 
                       __ZN3ggl15TileBaseSurface19P3T2T2PipelineSetup15typedReflectionEv, 
                       __ZN3ggl15TileBaseSurface19P3T2T2PipelineSetup18sharedConstantDataEv, 
                       __ZN3ggl15TileBaseSurface19P3T2T2PipelineSetup19elementConstantDataEv, 
                       __ZN3ggl15TileBaseSurface19P3T2T2PipelineSetup21setSharedConstantDataENSt3__110shared_ptrINS_17ConstantDataTypedINS0_6SharedEEEEE, 
                       __ZN3ggl15TileBaseSurface19P3T2T2PipelineSetup22setElementConstantDataENSt3__110shared_ptrINS_17ConstantDataTypedINS0_7ElementEEEEE, 
                       __ZN3ggl15TileBaseSurface19P3T2T2PipelineSetup8setStateERKNSt3__110shared_ptrINS0_19P3T2T2PipelineStateEEE, 
                       __ZN3ggl15TileBaseSurface19P3T2T2PipelineSetupC1ERKNSt3__110shared_ptrINS0_19P3T2T2PipelineStateEEE, 
                       __ZN3ggl15TileBaseSurface19P3T2T2PipelineSetupC1ERKNSt3__110shared_ptrINS0_19P3T2T2PipelineStateEEERKNS3_INS_17ConstantDataTypedINS0_7ElementEEEEERKNS3_INS8_INS0_6SharedEEEEE, 
                       __ZN3ggl15TileBaseSurface19P3T2T2PipelineSetupC1Ev, __ZN3ggl15TileBaseSurface19P3T2T2PipelineSetupC2ERKNSt3__110shared_ptrINS0_19P3T2T2PipelineStateEEE, 
                       __ZN3ggl15TileBaseSurface19P3T2T2PipelineSetupC2ERKNSt3__110shared_ptrINS0_19P3T2T2PipelineStateEEERKNS3_INS_17ConstantDataTypedINS0_7ElementEEEEERKNS3_INS8_INS0_6SharedEEEEE, 
                       __ZN3ggl15TileBaseSurface19P3T2T2PipelineSetupC2Ev, __ZN3ggl15TileBaseSurface19P3T2T2PipelineState15typedReflectionEv, 
                       __ZN3ggl15TileBaseSurface19P3T2T2PipelineStateC1ERKNS_20ColorBufferOperationENS_18RenderTargetFormatE, 
                       __ZN3ggl15TileBaseSurface19P3T2T2PipelineStateC1ERKNSt3__110shared_ptrINS_21TileBaseSurfaceShaderEEERKNS_20ColorBufferOperationENS_18RenderTargetFormatE, 
                       __ZN3ggl15TileBaseSurface19P3T2T2PipelineStateC2ERKNS_20ColorBufferOperationENS_18RenderTargetFormatE, 
                       __ZN3ggl15TileBaseSurface19P3T2T2PipelineStateC2ERKNSt3__110shared_ptrINS_21TileBaseSurfaceShaderEEERKNS_20ColorBufferOperationENS_18RenderTargetFormatE, 
                       __ZN3ggl15TileBaseSurface6Shared10reflectionEv, __ZN3ggl15TileBaseSurface7Element10reflectionEv, 
                       __ZN3ggl15VenueWallShader15typedReflectionEv, __ZN3ggl15VenueWallShader24vertexFunctionDescriptorEv, 
                       __ZN3ggl15VenueWallShader26fragmentFunctionDescriptorEv, __ZN3ggl15VenueWallShaderC1Ev, 
                       __ZN3ggl15VenueWallShaderC2Ev, __ZN3ggl15VenueWallShadow10WallShadow10reflectionEv, 
                       __ZN3ggl15VenueWallShadow17MeshPipelineSetup11setMeshMeshEPKNS_9VenueWall8MeshMeshE, 
                       __ZN3ggl15VenueWallShadow17MeshPipelineSetup15typedReflectionEv, 
                       __ZN3ggl15VenueWallShadow17MeshPipelineSetup16viewConstantDataEv, 
                       __ZN3ggl15VenueWallShadow17MeshPipelineSetup16wallConstantDataEv, 
                       __ZN3ggl15VenueWallShadow17MeshPipelineSetup19setViewConstantDataENSt3__110shared_ptrINS_17ConstantDataTypedINS_4Tile4ViewEEEEE, 
                       __ZN3ggl15VenueWallShadow17MeshPipelineSetup19setWallConstantDataENSt3__110shared_ptrINS_17ConstantDataTypedINS0_10WallShadowEEEEE, 
                       __ZN3ggl15VenueWallShadow17MeshPipelineSetup8meshMeshEv, __ZN3ggl15VenueWallShadow17MeshPipelineSetup8setStateERKNSt3__110shared_ptrINS0_17MeshPipelineStateEEE, 
                       __ZN3ggl15VenueWallShadow17MeshPipelineSetupC1ERKNSt3__110shared_ptrINS0_17MeshPipelineStateEEE, 
                       __ZN3ggl15VenueWallShadow17MeshPipelineSetupC1ERKNSt3__110shared_ptrINS0_17MeshPipelineStateEEERKNS3_INS_17ConstantDataTypedINS_4Tile4ViewEEEEERKNS3_INS8_INS0_10WallShadowEEEEE, 
                       __ZN3ggl15VenueWallShadow17MeshPipelineSetupC1Ev, __ZN3ggl15VenueWallShadow17MeshPipelineSetupC2ERKNSt3__110shared_ptrINS0_17MeshPipelineStateEEE, 
                       __ZN3ggl15VenueWallShadow17MeshPipelineSetupC2ERKNSt3__110shared_ptrINS0_17MeshPipelineStateEEERKNS3_INS_17ConstantDataTypedINS_4Tile4ViewEEEEERKNS3_INS8_INS0_10WallShadowEEEEE, 
                       __ZN3ggl15VenueWallShadow17MeshPipelineSetupC2Ev, __ZN3ggl15VenueWallShadow17MeshPipelineState15typedReflectionEv, 
                       __ZN3ggl15VenueWallShadow17MeshPipelineStateC1ERKNS_20ColorBufferOperationENS_18RenderTargetFormatE, 
                       __ZN3ggl15VenueWallShadow17MeshPipelineStateC1ERKNSt3__110shared_ptrINS_21VenueWallShadowShaderEEERKNS_20ColorBufferOperationENS_18RenderTargetFormatE, 
                       __ZN3ggl15VenueWallShadow17MeshPipelineStateC2ERKNS_20ColorBufferOperationENS_18RenderTargetFormatE, 
                       __ZN3ggl15VenueWallShadow17MeshPipelineStateC2ERKNSt3__110shared_ptrINS_21VenueWallShadowShaderEEERKNS_20ColorBufferOperationENS_18RenderTargetFormatE, 
                       __ZN3ggl16BuildingTopDepth27CompressedMeshPipelineSetup15typedReflectionEv, 
                       __ZN3ggl16BuildingTopDepth27CompressedMeshPipelineSetup16viewConstantDataEv, 
                       __ZN3ggl16BuildingTopDepth27CompressedMeshPipelineSetup17scaleConstantDataEv, 
                       __ZN3ggl16BuildingTopDepth27CompressedMeshPipelineSetup18compressedMeshMeshEv, 
                       __ZN3ggl16BuildingTopDepth27CompressedMeshPipelineSetup19setViewConstantDataENSt3__110shared_ptrINS_17ConstantDataTypedINS_4Tile4ViewEEEEE, 
                       __ZN3ggl16BuildingTopDepth27CompressedMeshPipelineSetup20setScaleConstantDataENSt3__110shared_ptrINS_17ConstantDataTypedINS_8Building5ScaleEEEEE, 
                       __ZN3ggl16BuildingTopDepth27CompressedMeshPipelineSetup21setCompressedMeshMeshEPKNS_11PolygonBase18CompressedMeshMeshE, 
                       __ZN3ggl16BuildingTopDepth27CompressedMeshPipelineSetup8setStateERKNSt3__110shared_ptrINS0_27CompressedMeshPipelineStateEEE, 
                       __ZN3ggl16BuildingTopDepth27CompressedMeshPipelineSetupC1ERKNSt3__110shared_ptrINS0_27CompressedMeshPipelineStateEEE, 
                       __ZN3ggl16BuildingTopDepth27CompressedMeshPipelineSetupC1ERKNSt3__110shared_ptrINS0_27CompressedMeshPipelineStateEEERKNS3_INS_17ConstantDataTypedINS_4Tile4ViewEEEEERKNS3_INS8_INS_8Building5ScaleEEEEE, 
                       __ZN3ggl16BuildingTopDepth27CompressedMeshPipelineSetupC1Ev, 
                       __ZN3ggl16BuildingTopDepth27CompressedMeshPipelineSetupC2ERKNSt3__110shared_ptrINS0_27CompressedMeshPipelineStateEEE, 
                       __ZN3ggl16BuildingTopDepth27CompressedMeshPipelineSetupC2ERKNSt3__110shared_ptrINS0_27CompressedMeshPipelineStateEEERKNS3_INS_17ConstantDataTypedINS_4Tile4ViewEEEEERKNS3_INS8_INS_8Building5ScaleEEEEE, 
                       __ZN3ggl16BuildingTopDepth27CompressedMeshPipelineSetupC2Ev, 
                       __ZN3ggl16BuildingTopDepth27CompressedMeshPipelineState15typedReflectionEv, 
                       __ZN3ggl16BuildingTopDepth27CompressedMeshPipelineStateC1ERKNS_20ColorBufferOperationENS_18RenderTargetFormatE, 
                       __ZN3ggl16BuildingTopDepth27CompressedMeshPipelineStateC1ERKNSt3__110shared_ptrINS_22BuildingTopDepthShaderEEERKNS_20ColorBufferOperationENS_18RenderTargetFormatE, 
                       __ZN3ggl16BuildingTopDepth27CompressedMeshPipelineStateC2ERKNS_20ColorBufferOperationENS_18RenderTargetFormatE, 
                       __ZN3ggl16BuildingTopDepth27CompressedMeshPipelineStateC2ERKNSt3__110shared_ptrINS_22BuildingTopDepthShaderEEERKNS_20ColorBufferOperationENS_18RenderTargetFormatE, 
                       __ZN3ggl16EndOfWorldShader15typedReflectionEv, __ZN3ggl16EndOfWorldShader24vertexFunctionDescriptorEv, 
                       __ZN3ggl16EndOfWorldShader26fragmentFunctionDescriptorEv, 
                       __ZN3ggl16EndOfWorldShaderC1Ev, __ZN3ggl16EndOfWorldShaderC2Ev, 
                       __ZN3ggl16OptimizedTraffic10DefaultVbo10reflectionEv, __ZN3ggl16OptimizedTraffic17BasePipelineSetup11setBaseMeshEPKNS0_8BaseMeshE, 
                       __ZN3ggl16OptimizedTraffic17BasePipelineSetup15typedReflectionEv, 
                       __ZN3ggl16OptimizedTraffic17BasePipelineSetup16viewConstantDataEv, 
                       __ZN3ggl16OptimizedTraffic17BasePipelineSetup17styleConstantDataEv, 
                       __ZN3ggl16OptimizedTraffic17BasePipelineSetup19setViewConstantDataENSt3__110shared_ptrINS_17ConstantDataTypedINS_4Tile4ViewEEEEE, 
                       __ZN3ggl16OptimizedTraffic17BasePipelineSetup20setStyleConstantDataENSt3__110shared_ptrINS_17ConstantDataTypedINS0_5StyleEEEEE, 
                       __ZN3ggl16OptimizedTraffic17BasePipelineSetup8baseMeshEv, 
                       __ZN3ggl16OptimizedTraffic17BasePipelineSetup8setStateERKNSt3__110shared_ptrINS0_17BasePipelineStateEEE, 
                       __ZN3ggl16OptimizedTraffic17BasePipelineSetupC1ERKNSt3__110shared_ptrINS0_17BasePipelineStateEEE, 
                       __ZN3ggl16OptimizedTraffic17BasePipelineSetupC1ERKNSt3__110shared_ptrINS0_17BasePipelineStateEEERKNS3_INS_17ConstantDataTypedINS_4Tile4ViewEEEEERKNS3_INS8_INS0_5StyleEEEEE, 
                       __ZN3ggl16OptimizedTraffic17BasePipelineSetupC1Ev, __ZN3ggl16OptimizedTraffic17BasePipelineSetupC2ERKNSt3__110shared_ptrINS0_17BasePipelineStateEEE, 
                       __ZN3ggl16OptimizedTraffic17BasePipelineSetupC2ERKNSt3__110shared_ptrINS0_17BasePipelineStateEEERKNS3_INS_17ConstantDataTypedINS_4Tile4ViewEEEEERKNS3_INS8_INS0_5StyleEEEEE, 
                       __ZN3ggl16OptimizedTraffic17BasePipelineSetupC2Ev, __ZN3ggl16OptimizedTraffic17BasePipelineState15typedReflectionEv, 
                       __ZN3ggl16OptimizedTraffic17BasePipelineStateC1ERKNS_20ColorBufferOperationENS_18RenderTargetFormatE, 
                       __ZN3ggl16OptimizedTraffic17BasePipelineStateC1ERKNSt3__110shared_ptrINS_22OptimizedTrafficShaderEEERKNS_20ColorBufferOperationENS_18RenderTargetFormatE, 
                       __ZN3ggl16OptimizedTraffic17BasePipelineStateC2ERKNS_20ColorBufferOperationENS_18RenderTargetFormatE, 
                       __ZN3ggl16OptimizedTraffic17BasePipelineStateC2ERKNSt3__110shared_ptrINS_22OptimizedTrafficShaderEEERKNS_20ColorBufferOperationENS_18RenderTargetFormatE, 
                       __ZN3ggl16OptimizedTraffic5Style10reflectionEv, __ZN3ggl16OptimizedTraffic8BaseMeshC1EPKc, 
                       __ZN3ggl16OptimizedTraffic8BaseMeshC1EPKcNSt3__110shared_ptrINS_15VertexDataTypedINS0_10DefaultVboEEEEENS5_INS_9IndexDataEEE, 
                       __ZN3ggl16OptimizedTraffic8BaseMeshC2EPKc, __ZN3ggl16OptimizedTraffic8BaseMeshC2EPKcNSt3__110shared_ptrINS_15VertexDataTypedINS0_10DefaultVboEEEEENS5_INS_9IndexDataEEE, 
                       __ZN3ggl16PolygonSolidFill17MeshPipelineSetup11setMeshMeshEPKNS_11PolygonBase8MeshMeshE, 
                       __ZN3ggl16PolygonSolidFill17MeshPipelineSetup15typedReflectionEv, 
                       __ZN3ggl16PolygonSolidFill17MeshPipelineSetup16viewConstantDataEv, 
                       __ZN3ggl16PolygonSolidFill17MeshPipelineSetup19setViewConstantDataENSt3__110shared_ptrINS_17ConstantDataTypedINS_4Tile4ViewEEEEE, 
                       __ZN3ggl16PolygonSolidFill17MeshPipelineSetup21solidFillConstantDataEv, 
                       __ZN3ggl16PolygonSolidFill17MeshPipelineSetup24setSolidFillConstantDataENSt3__110shared_ptrINS_17ConstantDataTypedINS0_9SolidFillEEEEE, 
                       __ZN3ggl16PolygonSolidFill17MeshPipelineSetup8meshMeshEv, 
                       __ZN3ggl16PolygonSolidFill17MeshPipelineSetup8setStateERKNSt3__110shared_ptrINS0_17MeshPipelineStateEEE, 
                       __ZN3ggl16PolygonSolidFill17MeshPipelineSetupC1ERKNSt3__110shared_ptrINS0_17MeshPipelineStateEEE, 
                       __ZN3ggl16PolygonSolidFill17MeshPipelineSetupC1ERKNSt3__110shared_ptrINS0_17MeshPipelineStateEEERKNS3_INS_17ConstantDataTypedINS_4Tile4ViewEEEEERKNS3_INS8_INS0_9SolidFillEEEEE, 
                       __ZN3ggl16PolygonSolidFill17MeshPipelineSetupC1Ev, __ZN3ggl16PolygonSolidFill17MeshPipelineSetupC2ERKNSt3__110shared_ptrINS0_17MeshPipelineStateEEE, 
                       __ZN3ggl16PolygonSolidFill17MeshPipelineSetupC2ERKNSt3__110shared_ptrINS0_17MeshPipelineStateEEERKNS3_INS_17ConstantDataTypedINS_4Tile4ViewEEEEERKNS3_INS8_INS0_9SolidFillEEEEE, 
                       __ZN3ggl16PolygonSolidFill17MeshPipelineSetupC2Ev, __ZN3ggl16PolygonSolidFill17MeshPipelineState15typedReflectionEv, 
                       __ZN3ggl16PolygonSolidFill17MeshPipelineStateC1ERKNS_20ColorBufferOperationENS_18RenderTargetFormatE, 
                       __ZN3ggl16PolygonSolidFill17MeshPipelineStateC1ERKNSt3__110shared_ptrINS_22PolygonSolidFillShaderEEERKNS_20ColorBufferOperationENS_18RenderTargetFormatE, 
                       __ZN3ggl16PolygonSolidFill17MeshPipelineStateC2ERKNS_20ColorBufferOperationENS_18RenderTargetFormatE, 
                       __ZN3ggl16PolygonSolidFill17MeshPipelineStateC2ERKNSt3__110shared_ptrINS_22PolygonSolidFillShaderEEERKNS_20ColorBufferOperationENS_18RenderTargetFormatE, 
                       __ZN3ggl16PolygonSolidFill27CompressedMeshPipelineSetup15typedReflectionEv, 
                       __ZN3ggl16PolygonSolidFill27CompressedMeshPipelineSetup16viewConstantDataEv, 
                       __ZN3ggl16PolygonSolidFill27CompressedMeshPipelineSetup18compressedMeshMeshEv, 
                       __ZN3ggl16PolygonSolidFill27CompressedMeshPipelineSetup19setViewConstantDataENSt3__110shared_ptrINS_17ConstantDataTypedINS_4Tile4ViewEEEEE, 
                       __ZN3ggl16PolygonSolidFill27CompressedMeshPipelineSetup21setCompressedMeshMeshEPKNS_11PolygonBase18CompressedMeshMeshE, 
                       __ZN3ggl16PolygonSolidFill27CompressedMeshPipelineSetup21solidFillConstantDataEv, 
                       __ZN3ggl16PolygonSolidFill27CompressedMeshPipelineSetup24setSolidFillConstantDataENSt3__110shared_ptrINS_17ConstantDataTypedINS0_9SolidFillEEEEE, 
                       __ZN3ggl16PolygonSolidFill27CompressedMeshPipelineSetup8setStateERKNSt3__110shared_ptrINS0_27CompressedMeshPipelineStateEEE, 
                       __ZN3ggl16PolygonSolidFill27CompressedMeshPipelineSetupC1ERKNSt3__110shared_ptrINS0_27CompressedMeshPipelineStateEEE, 
                       __ZN3ggl16PolygonSolidFill27CompressedMeshPipelineSetupC1ERKNSt3__110shared_ptrINS0_27CompressedMeshPipelineStateEEERKNS3_INS_17ConstantDataTypedINS_4Tile4ViewEEEEERKNS3_INS8_INS0_9SolidFillEEEEE, 
                       __ZN3ggl16PolygonSolidFill27CompressedMeshPipelineSetupC1Ev, 
                       __ZN3ggl16PolygonSolidFill27CompressedMeshPipelineSetupC2ERKNSt3__110shared_ptrINS0_27CompressedMeshPipelineStateEEE, 
                       __ZN3ggl16PolygonSolidFill27CompressedMeshPipelineSetupC2ERKNSt3__110shared_ptrINS0_27CompressedMeshPipelineStateEEERKNS3_INS_17ConstantDataTypedINS_4Tile4ViewEEEEERKNS3_INS8_INS0_9SolidFillEEEEE, 
                       __ZN3ggl16PolygonSolidFill27CompressedMeshPipelineSetupC2Ev, 
                       __ZN3ggl16PolygonSolidFill27CompressedMeshPipelineState15typedReflectionEv, 
                       __ZN3ggl16PolygonSolidFill27CompressedMeshPipelineStateC1ERKNS_20ColorBufferOperationENS_18RenderTargetFormatE, 
                       __ZN3ggl16PolygonSolidFill27CompressedMeshPipelineStateC1ERKNSt3__110shared_ptrINS_22PolygonSolidFillShaderEEERKNS_20ColorBufferOperationENS_18RenderTargetFormatE, 
                       __ZN3ggl16PolygonSolidFill27CompressedMeshPipelineStateC2ERKNS_20ColorBufferOperationENS_18RenderTargetFormatE, 
                       __ZN3ggl16PolygonSolidFill27CompressedMeshPipelineStateC2ERKNSt3__110shared_ptrINS_22PolygonSolidFillShaderEEERKNS_20ColorBufferOperationENS_18RenderTargetFormatE, 
                       __ZN3ggl16PolygonSolidFill9SolidFill10reflectionEv, __ZN3ggl16RouteLineTraffic17BasePipelineSetup11setBaseMeshEPKNS_9RouteLine8BaseMeshE, 
                       __ZN3ggl16RouteLineTraffic17BasePipelineSetup15typedReflectionEv, 
                       __ZN3ggl16RouteLineTraffic17BasePipelineSetup16viewConstantDataEv, 
                       __ZN3ggl16RouteLineTraffic17BasePipelineSetup17styleConstantDataEv, 
                       __ZN3ggl16RouteLineTraffic17BasePipelineSetup19setViewConstantDataENSt3__110shared_ptrINS_17ConstantDataTypedINS_4Tile4ViewEEEEE, 
                       __ZN3ggl16RouteLineTraffic17BasePipelineSetup20setStyleConstantDataENSt3__110shared_ptrINS_17ConstantDataTypedINS0_5StyleEEEEE, 
                       __ZN3ggl16RouteLineTraffic17BasePipelineSetup8baseMeshEv, 
                       __ZN3ggl16RouteLineTraffic17BasePipelineSetup8setStateERKNSt3__110shared_ptrINS0_17BasePipelineStateEEE, 
                       __ZN3ggl16RouteLineTraffic17BasePipelineSetupC1ERKNSt3__110shared_ptrINS0_17BasePipelineStateEEE, 
                       __ZN3ggl16RouteLineTraffic17BasePipelineSetupC1ERKNSt3__110shared_ptrINS0_17BasePipelineStateEEERKNS3_INS_17ConstantDataTypedINS_4Tile4ViewEEEEERKNS3_INS8_INS0_5StyleEEEEEPNS_9Texture2DE, 
                       __ZN3ggl16RouteLineTraffic17BasePipelineSetupC1Ev, __ZN3ggl16RouteLineTraffic17BasePipelineSetupC2ERKNSt3__110shared_ptrINS0_17BasePipelineStateEEE, 
                       __ZN3ggl16RouteLineTraffic17BasePipelineSetupC2ERKNSt3__110shared_ptrINS0_17BasePipelineStateEEERKNS3_INS_17ConstantDataTypedINS_4Tile4ViewEEEEERKNS3_INS8_INS0_5StyleEEEEEPNS_9Texture2DE, 
                       __ZN3ggl16RouteLineTraffic17BasePipelineSetupC2Ev, __ZN3ggl16RouteLineTraffic17BasePipelineState15typedReflectionEv, 
                       __ZN3ggl16RouteLineTraffic17BasePipelineStateC1ERKNS_20ColorBufferOperationENS_18RenderTargetFormatE, 
                       __ZN3ggl16RouteLineTraffic17BasePipelineStateC1ERKNSt3__110shared_ptrINS_22RouteLineTrafficShaderEEERKNS_20ColorBufferOperationENS_18RenderTargetFormatE, 
                       __ZN3ggl16RouteLineTraffic17BasePipelineStateC2ERKNS_20ColorBufferOperationENS_18RenderTargetFormatE, 
                       __ZN3ggl16RouteLineTraffic17BasePipelineStateC2ERKNSt3__110shared_ptrINS_22RouteLineTrafficShaderEEERKNS_20ColorBufferOperationENS_18RenderTargetFormatE, 
                       __ZN3ggl16RouteLineTraffic5Style10reflectionEv, __ZN3ggl16SimpleGridShader15typedReflectionEv, 
                       __ZN3ggl16SimpleGridShader24vertexFunctionDescriptorEv, __ZN3ggl16SimpleGridShader26fragmentFunctionDescriptorEv, 
                       __ZN3ggl16SimpleGridShaderC1Ev, __ZN3ggl16SimpleGridShaderC2Ev, 
                       __ZN3ggl16SpecularBuilding21BuildingPipelineSetup12buildingMeshEv, 
                       __ZN3ggl16SpecularBuilding21BuildingPipelineSetup15setBuildingMeshEPKNS_14BuildingFacade12BuildingMeshE, 
                       __ZN3ggl16SpecularBuilding21BuildingPipelineSetup15typedReflectionEv, 
                       __ZN3ggl16SpecularBuilding21BuildingPipelineSetup16fadeConstantDataEv, 
                       __ZN3ggl16SpecularBuilding21BuildingPipelineSetup16viewConstantDataEv, 
                       __ZN3ggl16SpecularBuilding21BuildingPipelineSetup17scaleConstantDataEv, 
                       __ZN3ggl16SpecularBuilding21BuildingPipelineSetup17styleConstantDataEv, 
                       __ZN3ggl16SpecularBuilding21BuildingPipelineSetup18skyfogConstantDataEv, 
                       __ZN3ggl16SpecularBuilding21BuildingPipelineSetup19setFadeConstantDataENSt3__110shared_ptrINS_17ConstantDataTypedINS_8Building4FadeEEEEE, 
                       __ZN3ggl16SpecularBuilding21BuildingPipelineSetup19setViewConstantDataENSt3__110shared_ptrINS_17ConstantDataTypedINS_4Tile4ViewEEEEE, 
                       __ZN3ggl16SpecularBuilding21BuildingPipelineSetup20gradientConstantDataEv, 
                       __ZN3ggl16SpecularBuilding21BuildingPipelineSetup20lightingConstantDataEv, 
                       __ZN3ggl16SpecularBuilding21BuildingPipelineSetup20setScaleConstantDataENSt3__110shared_ptrINS_17ConstantDataTypedINS_8Building5ScaleEEEEE, 
                       __ZN3ggl16SpecularBuilding21BuildingPipelineSetup20setStyleConstantDataENSt3__110shared_ptrINS_17ConstantDataTypedINS_8Building5StyleEEEEE, 
                       __ZN3ggl16SpecularBuilding21BuildingPipelineSetup21setSkyfogConstantDataENSt3__110shared_ptrINS_17ConstantDataTypedINS_3Fog6SkyfogEEEEE, 
                       __ZN3ggl16SpecularBuilding21BuildingPipelineSetup23setGradientConstantDataENSt3__110shared_ptrINS_17ConstantDataTypedINS_8Building8GradientEEEEE, 
                       __ZN3ggl16SpecularBuilding21BuildingPipelineSetup23setLightingConstantDataENSt3__110shared_ptrINS_17ConstantDataTypedINS_8Building8LightingEEEEE, 
                       __ZN3ggl16SpecularBuilding21BuildingPipelineSetup8setStateERKNSt3__110shared_ptrINS0_21BuildingPipelineStateEEE, 
                       __ZN3ggl16SpecularBuilding21BuildingPipelineSetupC1ERKNSt3__110shared_ptrINS0_21BuildingPipelineStateEEE, 
                       __ZN3ggl16SpecularBuilding21BuildingPipelineSetupC1ERKNSt3__110shared_ptrINS0_21BuildingPipelineStateEEERKNS3_INS_17ConstantDataTypedINS_3Fog6SkyfogEEEEERKNS3_INS8_INS_4Tile4ViewEEEEERKNS3_INS8_INS_8Building5ScaleEEEEERKNS3_INS8_INSL_5StyleEEEEERKNS3_INS8_INSL_8GradientEEEEERKNS3_INS8_INSL_8LightingEEEEERKNS3_INS8_INSL_4FadeEEEEEPNS_9Texture2DE, 
                       __ZN3ggl16SpecularBuilding21BuildingPipelineSetupC1Ev, __ZN3ggl16SpecularBuilding21BuildingPipelineSetupC2ERKNSt3__110shared_ptrINS0_21BuildingPipelineStateEEE, 
                       __ZN3ggl16SpecularBuilding21BuildingPipelineSetupC2ERKNSt3__110shared_ptrINS0_21BuildingPipelineStateEEERKNS3_INS_17ConstantDataTypedINS_3Fog6SkyfogEEEEERKNS3_INS8_INS_4Tile4ViewEEEEERKNS3_INS8_INS_8Building5ScaleEEEEERKNS3_INS8_INSL_5StyleEEEEERKNS3_INS8_INSL_8GradientEEEEERKNS3_INS8_INSL_8LightingEEEEERKNS3_INS8_INSL_4FadeEEEEEPNS_9Texture2DE, 
                       __ZN3ggl16SpecularBuilding21BuildingPipelineSetupC2Ev, __ZN3ggl16SpecularBuilding21BuildingPipelineState15typedReflectionEv, 
                       __ZN3ggl16SpecularBuilding21BuildingPipelineStateC1ERKNS_20ColorBufferOperationENS_18RenderTargetFormatE, 
                       __ZN3ggl16SpecularBuilding21BuildingPipelineStateC1ERKNSt3__110shared_ptrINS_22SpecularBuildingShaderEEERKNS_20ColorBufferOperationENS_18RenderTargetFormatE, 
                       __ZN3ggl16SpecularBuilding21BuildingPipelineStateC2ERKNS_20ColorBufferOperationENS_18RenderTargetFormatE, 
                       __ZN3ggl16SpecularBuilding21BuildingPipelineStateC2ERKNSt3__110shared_ptrINS_22SpecularBuildingShaderEEERKNS_20ColorBufferOperationENS_18RenderTargetFormatE, 
                       __ZN3ggl16SpecularLandmark21LandmarkPipelineSetup12landmarkMeshEv, 
                       __ZN3ggl16SpecularLandmark21LandmarkPipelineSetup15setLandmarkMeshEPKNS_8Landmark12LandmarkMeshE, 
                       __ZN3ggl16SpecularLandmark21LandmarkPipelineSetup15typedReflectionEv, 
                       __ZN3ggl16SpecularLandmark21LandmarkPipelineSetup16fadeConstantDataEv, 
                       __ZN3ggl16SpecularLandmark21LandmarkPipelineSetup16viewConstantDataEv, 
                       __ZN3ggl16SpecularLandmark21LandmarkPipelineSetup17scaleConstantDataEv, 
                       __ZN3ggl16SpecularLandmark21LandmarkPipelineSetup17styleConstantDataEv, 
                       __ZN3ggl16SpecularLandmark21LandmarkPipelineSetup18skyfogConstantDataEv, 
                       __ZN3ggl16SpecularLandmark21LandmarkPipelineSetup19setFadeConstantDataENSt3__110shared_ptrINS_17ConstantDataTypedINS_8Building4FadeEEEEE, 
                       __ZN3ggl16SpecularLandmark21LandmarkPipelineSetup19setViewConstantDataENSt3__110shared_ptrINS_17ConstantDataTypedINS_4Tile4ViewEEEEE, 
                       __ZN3ggl16SpecularLandmark21LandmarkPipelineSetup20gradientConstantDataEv, 
                       __ZN3ggl16SpecularLandmark21LandmarkPipelineSetup20lightingConstantDataEv, 
                       __ZN3ggl16SpecularLandmark21LandmarkPipelineSetup20setScaleConstantDataENSt3__110shared_ptrINS_17ConstantDataTypedINS_8Building5ScaleEEEEE, 
                       __ZN3ggl16SpecularLandmark21LandmarkPipelineSetup20setStyleConstantDataENSt3__110shared_ptrINS_17ConstantDataTypedINS_8Building5StyleEEEEE, 
                       __ZN3ggl16SpecularLandmark21LandmarkPipelineSetup21setSkyfogConstantDataENSt3__110shared_ptrINS_17ConstantDataTypedINS_3Fog6SkyfogEEEEE, 
                       __ZN3ggl16SpecularLandmark21LandmarkPipelineSetup23setGradientConstantDataENSt3__110shared_ptrINS_17ConstantDataTypedINS_8Building8GradientEEEEE, 
                       __ZN3ggl16SpecularLandmark21LandmarkPipelineSetup23setLightingConstantDataENSt3__110shared_ptrINS_17ConstantDataTypedINS_8Building8LightingEEEEE, 
                       __ZN3ggl16SpecularLandmark21LandmarkPipelineSetup8setStateERKNSt3__110shared_ptrINS0_21LandmarkPipelineStateEEE, 
                       __ZN3ggl16SpecularLandmark21LandmarkPipelineSetupC1ERKNSt3__110shared_ptrINS0_21LandmarkPipelineStateEEE, 
                       __ZN3ggl16SpecularLandmark21LandmarkPipelineSetupC1ERKNSt3__110shared_ptrINS0_21LandmarkPipelineStateEEERKNS3_INS_17ConstantDataTypedINS_3Fog6SkyfogEEEEERKNS3_INS8_INS_4Tile4ViewEEEEERKNS3_INS8_INS_8Building5ScaleEEEEERKNS3_INS8_INSL_5StyleEEEEERKNS3_INS8_INSL_8GradientEEEEERKNS3_INS8_INSL_8LightingEEEEERKNS3_INS8_INSL_4FadeEEEEEPNS_9Texture2DE, 
                       __ZN3ggl16SpecularLandmark21LandmarkPipelineSetupC1Ev, __ZN3ggl16SpecularLandmark21LandmarkPipelineSetupC2ERKNSt3__110shared_ptrINS0_21LandmarkPipelineStateEEE, 
                       __ZN3ggl16SpecularLandmark21LandmarkPipelineSetupC2ERKNSt3__110shared_ptrINS0_21LandmarkPipelineStateEEERKNS3_INS_17ConstantDataTypedINS_3Fog6SkyfogEEEEERKNS3_INS8_INS_4Tile4ViewEEEEERKNS3_INS8_INS_8Building5ScaleEEEEERKNS3_INS8_INSL_5StyleEEEEERKNS3_INS8_INSL_8GradientEEEEERKNS3_INS8_INSL_8LightingEEEEERKNS3_INS8_INSL_4FadeEEEEEPNS_9Texture2DE, 
                       __ZN3ggl16SpecularLandmark21LandmarkPipelineSetupC2Ev, __ZN3ggl16SpecularLandmark21LandmarkPipelineState15typedReflectionEv, 
                       __ZN3ggl16SpecularLandmark21LandmarkPipelineStateC1ERKNS_20ColorBufferOperationENS_18RenderTargetFormatE, 
                       __ZN3ggl16SpecularLandmark21LandmarkPipelineStateC1ERKNSt3__110shared_ptrINS_22SpecularLandmarkShaderEEERKNS_20ColorBufferOperationENS_18RenderTargetFormatE, 
                       __ZN3ggl16SpecularLandmark21LandmarkPipelineStateC2ERKNS_20ColorBufferOperationENS_18RenderTargetFormatE, 
                       __ZN3ggl16SpecularLandmark21LandmarkPipelineStateC2ERKNSt3__110shared_ptrINS_22SpecularLandmarkShaderEEERKNS_20ColorBufferOperationENS_18RenderTargetFormatE, 
                       __ZN3ggl16TextureAlphaMask17MeshPipelineSetup11setMeshMeshEPKNS_11TextureMesh8MeshMeshE, 
                       __ZN3ggl16TextureAlphaMask17MeshPipelineSetup15typedReflectionEv, 
                       __ZN3ggl16TextureAlphaMask17MeshPipelineSetup16viewConstantDataEv, 
                       __ZN3ggl16TextureAlphaMask17MeshPipelineSetup17styleConstantDataEv, 
                       __ZN3ggl16TextureAlphaMask17MeshPipelineSetup19setViewConstantDataENSt3__110shared_ptrINS_17ConstantDataTypedINS0_4ViewEEEEE, 
                       __ZN3ggl16TextureAlphaMask17MeshPipelineSetup20setStyleConstantDataENSt3__110shared_ptrINS_17ConstantDataTypedINS0_5StyleEEEEE, 
                       __ZN3ggl16TextureAlphaMask17MeshPipelineSetup8meshMeshEv, 
                       __ZN3ggl16TextureAlphaMask17MeshPipelineSetup8setStateERKNSt3__110shared_ptrINS0_17MeshPipelineStateEEE, 
                       __ZN3ggl16TextureAlphaMask17MeshPipelineSetupC1ERKNSt3__110shared_ptrINS0_17MeshPipelineStateEEE, 
                       __ZN3ggl16TextureAlphaMask17MeshPipelineSetupC1ERKNSt3__110shared_ptrINS0_17MeshPipelineStateEEERKNS3_INS_17ConstantDataTypedINS0_4ViewEEEEERKNS3_INS8_INS0_5StyleEEEEEPNS_9Texture2DE, 
                       __ZN3ggl16TextureAlphaMask17MeshPipelineSetupC1Ev, __ZN3ggl16TextureAlphaMask17MeshPipelineSetupC2ERKNSt3__110shared_ptrINS0_17MeshPipelineStateEEE, 
                       __ZN3ggl16TextureAlphaMask17MeshPipelineSetupC2ERKNSt3__110shared_ptrINS0_17MeshPipelineStateEEERKNS3_INS_17ConstantDataTypedINS0_4ViewEEEEERKNS3_INS8_INS0_5StyleEEEEEPNS_9Texture2DE, 
                       __ZN3ggl16TextureAlphaMask17MeshPipelineSetupC2Ev, __ZN3ggl16TextureAlphaMask17MeshPipelineState15typedReflectionEv, 
                       __ZN3ggl16TextureAlphaMask17MeshPipelineStateC1ERKNS_20ColorBufferOperationENS_18RenderTargetFormatE, 
                       __ZN3ggl16TextureAlphaMask17MeshPipelineStateC1ERKNSt3__110shared_ptrINS_22TextureAlphaMaskShaderEEERKNS_20ColorBufferOperationENS_18RenderTargetFormatE, 
                       __ZN3ggl16TextureAlphaMask17MeshPipelineStateC2ERKNS_20ColorBufferOperationENS_18RenderTargetFormatE, 
                       __ZN3ggl16TextureAlphaMask17MeshPipelineStateC2ERKNSt3__110shared_ptrINS_22TextureAlphaMaskShaderEEERKNS_20ColorBufferOperationENS_18RenderTargetFormatE, 
                       __ZN3ggl16TextureAlphaMask4View10reflectionEv, __ZN3ggl16TextureAlphaMask5Style10reflectionEv, 
                       __ZN3ggl16TileSkyboxShader15typedReflectionEv, __ZN3ggl16TileSkyboxShader24vertexFunctionDescriptorEv, 
                       __ZN3ggl16TileSkyboxShader26fragmentFunctionDescriptorEv, 
                       __ZN3ggl16TileSkyboxShaderC1Ev, __ZN3ggl16TileSkyboxShaderC2Ev, 
                       __ZN3ggl17AnimatableTexture10DefaultVbo10reflectionEv, __ZN3ggl17AnimatableTexture11Pos2DUVMeshC1EPKc, 
                       __ZN3ggl17AnimatableTexture11Pos2DUVMeshC1EPKcNSt3__110shared_ptrINS_15VertexDataTypedINS0_10DefaultVboEEEEENS5_INS_9IndexDataEEE, 
                       __ZN3ggl17AnimatableTexture11Pos2DUVMeshC2EPKc, __ZN3ggl17AnimatableTexture11Pos2DUVMeshC2EPKcNSt3__110shared_ptrINS_15VertexDataTypedINS0_10DefaultVboEEEEENS5_INS_9IndexDataEEE, 
                       __ZN3ggl17AnimatableTexture24Pos2DUVMeshPipelineSetup11pos2DUVMeshEv, 
                       __ZN3ggl17AnimatableTexture24Pos2DUVMeshPipelineSetup14setPos2DUVMeshEPKNS0_11Pos2DUVMeshE, 
                       __ZN3ggl17AnimatableTexture24Pos2DUVMeshPipelineSetup15typedReflectionEv, 
                       __ZN3ggl17AnimatableTexture24Pos2DUVMeshPipelineSetup16viewConstantDataEv, 
                       __ZN3ggl17AnimatableTexture24Pos2DUVMeshPipelineSetup19setViewConstantDataENSt3__110shared_ptrINS_17ConstantDataTypedINS0_9TransformEEEEE, 
                       __ZN3ggl17AnimatableTexture24Pos2DUVMeshPipelineSetup19variantConstantDataEv, 
                       __ZN3ggl17AnimatableTexture24Pos2DUVMeshPipelineSetup22setVariantConstantDataENSt3__110shared_ptrINS_17ConstantDataTypedINS0_7VariantEEEEE, 
                       __ZN3ggl17AnimatableTexture24Pos2DUVMeshPipelineSetup8setStateERKNSt3__110shared_ptrINS0_24Pos2DUVMeshPipelineStateEEE, 
                       __ZN3ggl17AnimatableTexture24Pos2DUVMeshPipelineSetupC1ERKNSt3__110shared_ptrINS0_24Pos2DUVMeshPipelineStateEEE, 
                       __ZN3ggl17AnimatableTexture24Pos2DUVMeshPipelineSetupC1ERKNSt3__110shared_ptrINS0_24Pos2DUVMeshPipelineStateEEERKNS3_INS_17ConstantDataTypedINS0_9TransformEEEEERKNS3_INS8_INS0_7VariantEEEEEPNS_9Texture2DESK_, 
                       __ZN3ggl17AnimatableTexture24Pos2DUVMeshPipelineSetupC1Ev, 
                       __ZN3ggl17AnimatableTexture24Pos2DUVMeshPipelineSetupC2ERKNSt3__110shared_ptrINS0_24Pos2DUVMeshPipelineStateEEE, 
                       __ZN3ggl17AnimatableTexture24Pos2DUVMeshPipelineSetupC2ERKNSt3__110shared_ptrINS0_24Pos2DUVMeshPipelineStateEEERKNS3_INS_17ConstantDataTypedINS0_9TransformEEEEERKNS3_INS8_INS0_7VariantEEEEEPNS_9Texture2DESK_, 
                       __ZN3ggl17AnimatableTexture24Pos2DUVMeshPipelineSetupC2Ev, 
                       __ZN3ggl17AnimatableTexture24Pos2DUVMeshPipelineState15typedReflectionEv, 
                       __ZN3ggl17AnimatableTexture24Pos2DUVMeshPipelineStateC1ERKNS_20ColorBufferOperationENS_18RenderTargetFormatE, 
                       __ZN3ggl17AnimatableTexture24Pos2DUVMeshPipelineStateC1ERKNSt3__110shared_ptrINS_23AnimatableTextureShaderEEERKNS_20ColorBufferOperationENS_18RenderTargetFormatE, 
                       __ZN3ggl17AnimatableTexture24Pos2DUVMeshPipelineStateC2ERKNS_20ColorBufferOperationENS_18RenderTargetFormatE, 
                       __ZN3ggl17AnimatableTexture24Pos2DUVMeshPipelineStateC2ERKNSt3__110shared_ptrINS_23AnimatableTextureShaderEEERKNS_20ColorBufferOperationENS_18RenderTargetFormatE, 
                       __ZN3ggl17AnimatableTexture7Variant10reflectionEv, __ZN3ggl17AnimatableTexture9Transform10reflectionEv, 
                       __ZN3ggl17ColoredTextShader15typedReflectionEv, __ZN3ggl17ColoredTextShader24vertexFunctionDescriptorEv, 
                       __ZN3ggl17ColoredTextShader26fragmentFunctionDescriptorEv, 
                       __ZN3ggl17ColoredTextShaderC1Ev, __ZN3ggl17ColoredTextShaderC2Ev, 
                       __ZN3ggl17DebugPointsShader15typedReflectionEv, __ZN3ggl17DebugPointsShader24vertexFunctionDescriptorEv, 
                       __ZN3ggl17DebugPointsShader26fragmentFunctionDescriptorEv, 
                       __ZN3ggl17DebugPointsShaderC1Ev, __ZN3ggl17DebugPointsShaderC2Ev, 
                       __ZN3ggl17EarthCoronaShader15typedReflectionEv, __ZN3ggl17EarthCoronaShader24vertexFunctionDescriptorEv, 
                       __ZN3ggl17EarthCoronaShader26fragmentFunctionDescriptorEv, 
                       __ZN3ggl17EarthCoronaShaderC1Ev, __ZN3ggl17EarthCoronaShaderC2Ev, 
                       __ZN3ggl17FlyoverFlatShader15typedReflectionEv, __ZN3ggl17FlyoverFlatShader24vertexFunctionDescriptorEv, 
                       __ZN3ggl17FlyoverFlatShader26fragmentFunctionDescriptorEv, 
                       __ZN3ggl17FlyoverFlatShaderC1Ev, __ZN3ggl17FlyoverFlatShaderC2Ev, 
                       __ZN3ggl17FlyoverMorphNight18MorphPipelineSetup12setMorphMeshEPKNS_12FlyoverMorph9MorphMeshE, 
                       __ZN3ggl17FlyoverMorphNight18MorphPipelineSetup15typedReflectionEv, 
                       __ZN3ggl17FlyoverMorphNight18MorphPipelineSetup16clipConstantDataEv, 
                       __ZN3ggl17FlyoverMorphNight18MorphPipelineSetup17morphConstantDataEv, 
                       __ZN3ggl17FlyoverMorphNight18MorphPipelineSetup18sharedConstantDataEv, 
                       __ZN3ggl17FlyoverMorphNight18MorphPipelineSetup19setClipConstantDataENSt3__110shared_ptrINS_17ConstantDataTypedINS_13FlyoverCommon4ClipEEEEE, 
                       __ZN3ggl17FlyoverMorphNight18MorphPipelineSetup20materialConstantDataEv, 
                       __ZN3ggl17FlyoverMorphNight18MorphPipelineSetup20setMorphConstantDataENSt3__110shared_ptrINS_17ConstantDataTypedINS_12FlyoverMorph5MorphEEEEE, 
                       __ZN3ggl17FlyoverMorphNight18MorphPipelineSetup21setSharedConstantDataENSt3__110shared_ptrINS_17ConstantDataTypedINS_13FlyoverCommon6SharedEEEEE, 
                       __ZN3ggl17FlyoverMorphNight18MorphPipelineSetup21texcoordsConstantDataEv, 
                       __ZN3ggl17FlyoverMorphNight18MorphPipelineSetup21transformConstantDataEv, 
                       __ZN3ggl17FlyoverMorphNight18MorphPipelineSetup23setMaterialConstantDataENSt3__110shared_ptrINS_17ConstantDataTypedINS_13FlyoverCommon8MaterialEEEEE, 
                       __ZN3ggl17FlyoverMorphNight18MorphPipelineSetup24setTexcoordsConstantDataENSt3__110shared_ptrINS_17ConstantDataTypedINS_13FlyoverCommon9TexcoordsEEEEE, 
                       __ZN3ggl17FlyoverMorphNight18MorphPipelineSetup24setTransformConstantDataENSt3__110shared_ptrINS_17ConstantDataTypedINS_13FlyoverCommon9TransformEEEEE, 
                       __ZN3ggl17FlyoverMorphNight18MorphPipelineSetup8setStateERKNSt3__110shared_ptrINS0_18MorphPipelineStateEEE, 
                       __ZN3ggl17FlyoverMorphNight18MorphPipelineSetup9morphMeshEv, 
                       __ZN3ggl17FlyoverMorphNight18MorphPipelineSetupC1ERKNSt3__110shared_ptrINS0_18MorphPipelineStateEEE, 
                       __ZN3ggl17FlyoverMorphNight18MorphPipelineSetupC1ERKNSt3__110shared_ptrINS0_18MorphPipelineStateEEERKNS3_INS_17ConstantDataTypedINS_13FlyoverCommon6SharedEEEEERKNS3_INS8_INS9_9TransformEEEEERKNS3_INS8_INS9_4ClipEEEEERKNS3_INS8_INS9_8MaterialEEEEERKNS3_INS8_INS9_9TexcoordsEEEEERKNS3_INS8_INS_12FlyoverMorph5MorphEEEEEPNS_9Texture2DES16_S16_S16_S16_, 
                       __ZN3ggl17FlyoverMorphNight18MorphPipelineSetupC1Ev, __ZN3ggl17FlyoverMorphNight18MorphPipelineSetupC2ERKNSt3__110shared_ptrINS0_18MorphPipelineStateEEE, 
                       __ZN3ggl17FlyoverMorphNight18MorphPipelineSetupC2ERKNSt3__110shared_ptrINS0_18MorphPipelineStateEEERKNS3_INS_17ConstantDataTypedINS_13FlyoverCommon6SharedEEEEERKNS3_INS8_INS9_9TransformEEEEERKNS3_INS8_INS9_4ClipEEEEERKNS3_INS8_INS9_8MaterialEEEEERKNS3_INS8_INS9_9TexcoordsEEEEERKNS3_INS8_INS_12FlyoverMorph5MorphEEEEEPNS_9Texture2DES16_S16_S16_S16_, 
                       __ZN3ggl17FlyoverMorphNight18MorphPipelineSetupC2Ev, __ZN3ggl17FlyoverMorphNight18MorphPipelineState15typedReflectionEv, 
                       __ZN3ggl17FlyoverMorphNight18MorphPipelineStateC1ERKNS_20ColorBufferOperationENS_18RenderTargetFormatE, 
                       __ZN3ggl17FlyoverMorphNight18MorphPipelineStateC1ERKNSt3__110shared_ptrINS_23FlyoverMorphNightShaderEEERKNS_20ColorBufferOperationENS_18RenderTargetFormatE, 
                       __ZN3ggl17FlyoverMorphNight18MorphPipelineStateC2ERKNS_20ColorBufferOperationENS_18RenderTargetFormatE, 
                       __ZN3ggl17FlyoverMorphNight18MorphPipelineStateC2ERKNSt3__110shared_ptrINS_23FlyoverMorphNightShaderEEERKNS_20ColorBufferOperationENS_18RenderTargetFormatE, 
                       __ZN3ggl17OuterShadowRibbon13PipelineSetup11setBaseMeshEPKNS_6Ribbon8BaseMeshE, 
                       __ZN3ggl17OuterShadowRibbon13PipelineSetup15typedReflectionEv, 
                       __ZN3ggl17OuterShadowRibbon13PipelineSetup16viewConstantDataEv, 
                       __ZN3ggl17OuterShadowRibbon13PipelineSetup17styleConstantDataEv, 
                       __ZN3ggl17OuterShadowRibbon13PipelineSetup19setViewConstantDataENSt3__110shared_ptrINS_17ConstantDataTypedINS_4Tile4ViewEEEEE, 
                       __ZN3ggl17OuterShadowRibbon13PipelineSetup20setStyleConstantDataENSt3__110shared_ptrINS_17ConstantDataTypedINS0_5StyleEEEEE, 
                       __ZN3ggl17OuterShadowRibbon13PipelineSetup8baseMeshEv, __ZN3ggl17OuterShadowRibbon13PipelineSetup8setStateERKNSt3__110shared_ptrINS0_13PipelineStateEEE, 
                       __ZN3ggl17OuterShadowRibbon13PipelineSetupC1ERKNSt3__110shared_ptrINS0_13PipelineStateEEE, 
                       __ZN3ggl17OuterShadowRibbon13PipelineSetupC1ERKNSt3__110shared_ptrINS0_13PipelineStateEEERKNS3_INS_17ConstantDataTypedINS_4Tile4ViewEEEEERKNS3_INS8_INS0_5StyleEEEEEPNS_9Texture2DE, 
                       __ZN3ggl17OuterShadowRibbon13PipelineSetupC1Ev, __ZN3ggl17OuterShadowRibbon13PipelineSetupC2ERKNSt3__110shared_ptrINS0_13PipelineStateEEE, 
                       __ZN3ggl17OuterShadowRibbon13PipelineSetupC2ERKNSt3__110shared_ptrINS0_13PipelineStateEEERKNS3_INS_17ConstantDataTypedINS_4Tile4ViewEEEEERKNS3_INS8_INS0_5StyleEEEEEPNS_9Texture2DE, 
                       __ZN3ggl17OuterShadowRibbon13PipelineSetupC2Ev, __ZN3ggl17OuterShadowRibbon13PipelineState15typedReflectionEv, 
                       __ZN3ggl17OuterShadowRibbon13PipelineStateC1ERKNS_20ColorBufferOperationENS_18RenderTargetFormatE, 
                       __ZN3ggl17OuterShadowRibbon13PipelineStateC1ERKNSt3__110shared_ptrINS_23OuterShadowRibbonShaderEEERKNS_20ColorBufferOperationENS_18RenderTargetFormatE, 
                       __ZN3ggl17OuterShadowRibbon13PipelineStateC2ERKNS_20ColorBufferOperationENS_18RenderTargetFormatE, 
                       __ZN3ggl17OuterShadowRibbon13PipelineStateC2ERKNSt3__110shared_ptrINS_23OuterShadowRibbonShaderEEERKNS_20ColorBufferOperationENS_18RenderTargetFormatE, 
                       __ZN3ggl17OuterShadowRibbon5Style10reflectionEv, __ZN3ggl17PolygonFillShader15typedReflectionEv, 
                       __ZN3ggl17PolygonFillShader24vertexFunctionDescriptorEv, __ZN3ggl17PolygonFillShader26fragmentFunctionDescriptorEv, 
                       __ZN3ggl17PolygonFillShaderC1Ev, __ZN3ggl17PolygonFillShaderC2Ev, 
                       __ZN3ggl17RenderTargetBlend10DefaultVbo10reflectionEv, __ZN3ggl17RenderTargetBlend17QuadPipelineSetup11setQuadMeshEPKNS0_8QuadMeshE, 
                       __ZN3ggl17RenderTargetBlend17QuadPipelineSetup15typedReflectionEv, 
                       __ZN3ggl17RenderTargetBlend17QuadPipelineSetup17blendConstantDataEv, 
                       __ZN3ggl17RenderTargetBlend17QuadPipelineSetup20setBlendConstantDataENSt3__110shared_ptrINS_17ConstantDataTypedINS0_5BlendEEEEE, 
                       __ZN3ggl17RenderTargetBlend17QuadPipelineSetup8quadMeshEv, 
                       __ZN3ggl17RenderTargetBlend17QuadPipelineSetup8setStateERKNSt3__110shared_ptrINS0_17QuadPipelineStateEEE, 
                       __ZN3ggl17RenderTargetBlend17QuadPipelineSetupC1ERKNSt3__110shared_ptrINS0_17QuadPipelineStateEEE, 
                       __ZN3ggl17RenderTargetBlend17QuadPipelineSetupC1ERKNSt3__110shared_ptrINS0_17QuadPipelineStateEEERKNS3_INS_17ConstantDataTypedINS0_5BlendEEEEEPNS_9Texture2DE, 
                       __ZN3ggl17RenderTargetBlend17QuadPipelineSetupC1Ev, __ZN3ggl17RenderTargetBlend17QuadPipelineSetupC2ERKNSt3__110shared_ptrINS0_17QuadPipelineStateEEE, 
                       __ZN3ggl17RenderTargetBlend17QuadPipelineSetupC2ERKNSt3__110shared_ptrINS0_17QuadPipelineStateEEERKNS3_INS_17ConstantDataTypedINS0_5BlendEEEEEPNS_9Texture2DE, 
                       __ZN3ggl17RenderTargetBlend17QuadPipelineSetupC2Ev, __ZN3ggl17RenderTargetBlend17QuadPipelineState15typedReflectionEv, 
                       __ZN3ggl17RenderTargetBlend17QuadPipelineStateC1ERKNS_20ColorBufferOperationENS_18RenderTargetFormatE, 
                       __ZN3ggl17RenderTargetBlend17QuadPipelineStateC1ERKNSt3__110shared_ptrINS_23RenderTargetBlendShaderEEERKNS_20ColorBufferOperationENS_18RenderTargetFormatE, 
                       __ZN3ggl17RenderTargetBlend17QuadPipelineStateC2ERKNS_20ColorBufferOperationENS_18RenderTargetFormatE, 
                       __ZN3ggl17RenderTargetBlend17QuadPipelineStateC2ERKNSt3__110shared_ptrINS_23RenderTargetBlendShaderEEERKNS_20ColorBufferOperationENS_18RenderTargetFormatE, 
                       __ZN3ggl17RenderTargetBlend5Blend10reflectionEv, __ZN3ggl17RenderTargetBlend8QuadMeshC1EPKc, 
                       __ZN3ggl17RenderTargetBlend8QuadMeshC1EPKcNSt3__110shared_ptrINS_15VertexDataTypedINS0_10DefaultVboEEEEENS5_INS_9IndexDataEEE, 
                       __ZN3ggl17RenderTargetBlend8QuadMeshC2EPKc, __ZN3ggl17RenderTargetBlend8QuadMeshC2EPKcNSt3__110shared_ptrINS_15VertexDataTypedINS0_10DefaultVboEEEEENS5_INS_9IndexDataEEE, 
                       __ZN3ggl17ShadedColorShader15typedReflectionEv, __ZN3ggl17ShadedColorShader24vertexFunctionDescriptorEv, 
                       __ZN3ggl17ShadedColorShader26fragmentFunctionDescriptorEv, 
                       __ZN3ggl17ShadedColorShaderC1Ev, __ZN3ggl17ShadedColorShaderC2Ev, 
                       __ZN3ggl17SolidRibbonShader15typedReflectionEv, __ZN3ggl17SolidRibbonShader24vertexFunctionDescriptorEv, 
                       __ZN3ggl17SolidRibbonShader26fragmentFunctionDescriptorEv, 
                       __ZN3ggl17SolidRibbonShaderC1Ev, __ZN3ggl17SolidRibbonShaderC2Ev, 
                       __ZN3ggl17TrafficGlowShader15typedReflectionEv, __ZN3ggl17TrafficGlowShader24vertexFunctionDescriptorEv, 
                       __ZN3ggl17TrafficGlowShader26fragmentFunctionDescriptorEv, 
                       __ZN3ggl17TrafficGlowShaderC1Ev, __ZN3ggl17TrafficGlowShaderC2Ev, 
                       __ZN3ggl17TransitLineRibbon10DefaultVbo10reflectionEv, __ZN3ggl17TransitLineRibbon12PatternStyle10reflectionEv, 
                       __ZN3ggl17TransitLineRibbon17BasePipelineSetup11setBaseMeshEPKNS0_8BaseMeshE, 
                       __ZN3ggl17TransitLineRibbon17BasePipelineSetup15typedReflectionEv, 
                       __ZN3ggl17TransitLineRibbon17BasePipelineSetup16viewConstantDataEv, 
                       __ZN3ggl17TransitLineRibbon17BasePipelineSetup17styleConstantDataEv, 
                       __ZN3ggl17TransitLineRibbon17BasePipelineSetup19setViewConstantDataENSt3__110shared_ptrINS_17ConstantDataTypedINS_4Tile4ViewEEEEE, 
                       __ZN3ggl17TransitLineRibbon17BasePipelineSetup20setStyleConstantDataENSt3__110shared_ptrINS_17ConstantDataTypedINS0_5StyleEEEEE, 
                       __ZN3ggl17TransitLineRibbon17BasePipelineSetup8baseMeshEv, 
                       __ZN3ggl17TransitLineRibbon17BasePipelineSetup8setStateERKNSt3__110shared_ptrINS0_17BasePipelineStateEEE, 
                       __ZN3ggl17TransitLineRibbon17BasePipelineSetupC1ERKNSt3__110shared_ptrINS0_17BasePipelineStateEEE, 
                       __ZN3ggl17TransitLineRibbon17BasePipelineSetupC1ERKNSt3__110shared_ptrINS0_17BasePipelineStateEEERKNS3_INS_17ConstantDataTypedINS_4Tile4ViewEEEEERKNS3_INS8_INS0_5StyleEEEEEPNS_9Texture2DESL_, 
                       __ZN3ggl17TransitLineRibbon17BasePipelineSetupC1Ev, __ZN3ggl17TransitLineRibbon17BasePipelineSetupC2ERKNSt3__110shared_ptrINS0_17BasePipelineStateEEE, 
                       __ZN3ggl17TransitLineRibbon17BasePipelineSetupC2ERKNSt3__110shared_ptrINS0_17BasePipelineStateEEERKNS3_INS_17ConstantDataTypedINS_4Tile4ViewEEEEERKNS3_INS8_INS0_5StyleEEEEEPNS_9Texture2DESL_, 
                       __ZN3ggl17TransitLineRibbon17BasePipelineSetupC2Ev, __ZN3ggl17TransitLineRibbon17BasePipelineState15typedReflectionEv, 
                       __ZN3ggl17TransitLineRibbon17BasePipelineStateC1ERKNS_20ColorBufferOperationENS_18RenderTargetFormatE, 
                       __ZN3ggl17TransitLineRibbon17BasePipelineStateC1ERKNSt3__110shared_ptrINS_23TransitLineRibbonShaderEEERKNS_20ColorBufferOperationENS_18RenderTargetFormatE, 
                       __ZN3ggl17TransitLineRibbon17BasePipelineStateC2ERKNS_20ColorBufferOperationENS_18RenderTargetFormatE, 
                       __ZN3ggl17TransitLineRibbon17BasePipelineStateC2ERKNSt3__110shared_ptrINS_23TransitLineRibbonShaderEEERKNS_20ColorBufferOperationENS_18RenderTargetFormatE, 
                       __ZN3ggl17TransitLineRibbon26PatternedBasePipelineSetup11setBaseMeshEPKNS0_8BaseMeshE, 
                       __ZN3ggl17TransitLineRibbon26PatternedBasePipelineSetup15typedReflectionEv, 
                       __ZN3ggl17TransitLineRibbon26PatternedBasePipelineSetup16viewConstantDataEv, 
                       __ZN3ggl17TransitLineRibbon26PatternedBasePipelineSetup17styleConstantDataEv, 
                       __ZN3ggl17TransitLineRibbon26PatternedBasePipelineSetup19setViewConstantDataENSt3__110shared_ptrINS_17ConstantDataTypedINS_4Tile4ViewEEEEE, 
                       __ZN3ggl17TransitLineRibbon26PatternedBasePipelineSetup20setStyleConstantDataENSt3__110shared_ptrINS_17ConstantDataTypedINS0_5StyleEEEEE, 
                       __ZN3ggl17TransitLineRibbon26PatternedBasePipelineSetup24patternStyleConstantDataEv, 
                       __ZN3ggl17TransitLineRibbon26PatternedBasePipelineSetup27setPatternStyleConstantDataENSt3__110shared_ptrINS_17ConstantDataTypedINS0_12PatternStyleEEEEE, 
                       __ZN3ggl17TransitLineRibbon26PatternedBasePipelineSetup8baseMeshEv, 
                       __ZN3ggl17TransitLineRibbon26PatternedBasePipelineSetup8setStateERKNSt3__110shared_ptrINS0_26PatternedBasePipelineStateEEE, 
                       __ZN3ggl17TransitLineRibbon26PatternedBasePipelineSetupC1ERKNSt3__110shared_ptrINS0_26PatternedBasePipelineStateEEE, 
                       __ZN3ggl17TransitLineRibbon26PatternedBasePipelineSetupC1ERKNSt3__110shared_ptrINS0_26PatternedBasePipelineStateEEERKNS3_INS_17ConstantDataTypedINS_4Tile4ViewEEEEERKNS3_INS8_INS0_5StyleEEEEERKNS3_INS8_INS0_12PatternStyleEEEEEPNS_9Texture2DESQ_SQ_, 
                       __ZN3ggl17TransitLineRibbon26PatternedBasePipelineSetupC1Ev, 
                       __ZN3ggl17TransitLineRibbon26PatternedBasePipelineSetupC2ERKNSt3__110shared_ptrINS0_26PatternedBasePipelineStateEEE, 
                       __ZN3ggl17TransitLineRibbon26PatternedBasePipelineSetupC2ERKNSt3__110shared_ptrINS0_26PatternedBasePipelineStateEEERKNS3_INS_17ConstantDataTypedINS_4Tile4ViewEEEEERKNS3_INS8_INS0_5StyleEEEEERKNS3_INS8_INS0_12PatternStyleEEEEEPNS_9Texture2DESQ_SQ_, 
                       __ZN3ggl17TransitLineRibbon26PatternedBasePipelineSetupC2Ev, 
                       __ZN3ggl17TransitLineRibbon26PatternedBasePipelineState15typedReflectionEv, 
                       __ZN3ggl17TransitLineRibbon26PatternedBasePipelineStateC1ERKNS_20ColorBufferOperationENS_18RenderTargetFormatE, 
                       __ZN3ggl17TransitLineRibbon26PatternedBasePipelineStateC1ERKNSt3__110shared_ptrINS_32PatternedTransitLineRibbonShaderEEERKNS_20ColorBufferOperationENS_18RenderTargetFormatE, 
                       __ZN3ggl17TransitLineRibbon26PatternedBasePipelineStateC2ERKNS_20ColorBufferOperationENS_18RenderTargetFormatE, 
                       __ZN3ggl17TransitLineRibbon26PatternedBasePipelineStateC2ERKNSt3__110shared_ptrINS_32PatternedTransitLineRibbonShaderEEERKNS_20ColorBufferOperationENS_18RenderTargetFormatE, 
                       __ZN3ggl17TransitLineRibbon5Style10reflectionEv, __ZN3ggl17TransitLineRibbon8BaseMeshC1EPKc, 
                       __ZN3ggl17TransitLineRibbon8BaseMeshC1EPKcNSt3__110shared_ptrINS_15VertexDataTypedINS0_10DefaultVboEEEEENS5_INS_9IndexDataEEE, 
                       __ZN3ggl17TransitLineRibbon8BaseMeshC2EPKc, __ZN3ggl17TransitLineRibbon8BaseMeshC2EPKcNSt3__110shared_ptrINS_15VertexDataTypedINS0_10DefaultVboEEEEENS5_INS_9IndexDataEEE, 
                       __ZN3ggl18BuildingFlatShader15typedReflectionEv, __ZN3ggl18BuildingFlatShader24vertexFunctionDescriptorEv, 
                       __ZN3ggl18BuildingFlatShader26fragmentFunctionDescriptorEv, 
                       __ZN3ggl18BuildingFlatShaderC1Ev, __ZN3ggl18BuildingFlatShaderC2Ev, 
                       __ZN3ggl18BuildingFlatStroke10DefaultVbo10reflectionEv, __ZN3ggl18BuildingFlatStroke22BuildingFlatStrokeMeshC1EPKc, 
                       __ZN3ggl18BuildingFlatStroke22BuildingFlatStrokeMeshC1EPKcNSt3__110shared_ptrINS_15VertexDataTypedINS0_10DefaultVboEEEEENS5_INS_9IndexDataEEE, 
                       __ZN3ggl18BuildingFlatStroke22BuildingFlatStrokeMeshC2EPKc, 
                       __ZN3ggl18BuildingFlatStroke22BuildingFlatStrokeMeshC2EPKcNSt3__110shared_ptrINS_15VertexDataTypedINS0_10DefaultVboEEEEENS5_INS_9IndexDataEEE, 
                       __ZN3ggl18BuildingFlatStroke31BuildingFlatStrokePipelineSetup15typedReflectionEv, 
                       __ZN3ggl18BuildingFlatStroke31BuildingFlatStrokePipelineSetup16viewConstantDataEv, 
                       __ZN3ggl18BuildingFlatStroke31BuildingFlatStrokePipelineSetup19setViewConstantDataENSt3__110shared_ptrINS_17ConstantDataTypedINS_4Tile4ViewEEEEE, 
                       __ZN3ggl18BuildingFlatStroke31BuildingFlatStrokePipelineSetup20buildingConstantDataEv, 
                       __ZN3ggl18BuildingFlatStroke31BuildingFlatStrokePipelineSetup22buildingFlatStrokeMeshEv, 
                       __ZN3ggl18BuildingFlatStroke31BuildingFlatStrokePipelineSetup23setBuildingConstantDataENSt3__110shared_ptrINS_17ConstantDataTypedINS0_8BuildingEEEEE, 
                       __ZN3ggl18BuildingFlatStroke31BuildingFlatStrokePipelineSetup25setBuildingFlatStrokeMeshEPKNS0_22BuildingFlatStrokeMeshE, 
                       __ZN3ggl18BuildingFlatStroke31BuildingFlatStrokePipelineSetup8setStateERKNSt3__110shared_ptrINS0_31BuildingFlatStrokePipelineStateEEE, 
                       __ZN3ggl18BuildingFlatStroke31BuildingFlatStrokePipelineSetupC1ERKNSt3__110shared_ptrINS0_31BuildingFlatStrokePipelineStateEEE, 
                       __ZN3ggl18BuildingFlatStroke31BuildingFlatStrokePipelineSetupC1ERKNSt3__110shared_ptrINS0_31BuildingFlatStrokePipelineStateEEERKNS3_INS_17ConstantDataTypedINS_4Tile4ViewEEEEERKNS3_INS8_INS0_8BuildingEEEEEPNS_9Texture2DE, 
                       __ZN3ggl18BuildingFlatStroke31BuildingFlatStrokePipelineSetupC1Ev, 
                       __ZN3ggl18BuildingFlatStroke31BuildingFlatStrokePipelineSetupC2ERKNSt3__110shared_ptrINS0_31BuildingFlatStrokePipelineStateEEE, 
                       __ZN3ggl18BuildingFlatStroke31BuildingFlatStrokePipelineSetupC2ERKNSt3__110shared_ptrINS0_31BuildingFlatStrokePipelineStateEEERKNS3_INS_17ConstantDataTypedINS_4Tile4ViewEEEEERKNS3_INS8_INS0_8BuildingEEEEEPNS_9Texture2DE, 
                       __ZN3ggl18BuildingFlatStroke31BuildingFlatStrokePipelineSetupC2Ev, 
                       __ZN3ggl18BuildingFlatStroke31BuildingFlatStrokePipelineState15typedReflectionEv, 
                       __ZN3ggl18BuildingFlatStroke31BuildingFlatStrokePipelineStateC1ERKNS_20ColorBufferOperationENS_18RenderTargetFormatE, 
                       __ZN3ggl18BuildingFlatStroke31BuildingFlatStrokePipelineStateC1ERKNSt3__110shared_ptrINS_24BuildingFlatStrokeShaderEEERKNS_20ColorBufferOperationENS_18RenderTargetFormatE, 
                       __ZN3ggl18BuildingFlatStroke31BuildingFlatStrokePipelineStateC2ERKNS_20ColorBufferOperationENS_18RenderTargetFormatE, 
                       __ZN3ggl18BuildingFlatStroke31BuildingFlatStrokePipelineStateC2ERKNSt3__110shared_ptrINS_24BuildingFlatStrokeShaderEEERKNS_20ColorBufferOperationENS_18RenderTargetFormatE, 
                       __ZN3ggl18BuildingFlatStroke8Building10reflectionEv, __ZN3ggl18BuildingPointyRoof10DefaultVbo10reflectionEv, 
                       __ZN3ggl18BuildingPointyRoof12BuildingMeshC1EPKc, __ZN3ggl18BuildingPointyRoof12BuildingMeshC1EPKcNSt3__110shared_ptrINS_15VertexDataTypedINS0_10DefaultVboEEEEENS5_INS_9IndexDataEEE, 
                       __ZN3ggl18BuildingPointyRoof12BuildingMeshC2EPKc, __ZN3ggl18BuildingPointyRoof12BuildingMeshC2EPKcNSt3__110shared_ptrINS_15VertexDataTypedINS0_10DefaultVboEEEEENS5_INS_9IndexDataEEE, 
                       __ZN3ggl18DiffuseBuildingTop27CompressedMeshPipelineSetup15typedReflectionEv, 
                       __ZN3ggl18DiffuseBuildingTop27CompressedMeshPipelineSetup16fadeConstantDataEv, 
                       __ZN3ggl18DiffuseBuildingTop27CompressedMeshPipelineSetup16viewConstantDataEv, 
                       __ZN3ggl18DiffuseBuildingTop27CompressedMeshPipelineSetup17scaleConstantDataEv, 
                       __ZN3ggl18DiffuseBuildingTop27CompressedMeshPipelineSetup17styleConstantDataEv, 
                       __ZN3ggl18DiffuseBuildingTop27CompressedMeshPipelineSetup18compressedMeshMeshEv, 
                       __ZN3ggl18DiffuseBuildingTop27CompressedMeshPipelineSetup18skyfogConstantDataEv, 
                       __ZN3ggl18DiffuseBuildingTop27CompressedMeshPipelineSetup19setFadeConstantDataENSt3__110shared_ptrINS_17ConstantDataTypedINS_8Building4FadeEEEEE, 
                       __ZN3ggl18DiffuseBuildingTop27CompressedMeshPipelineSetup19setViewConstantDataENSt3__110shared_ptrINS_17ConstantDataTypedINS_4Tile4ViewEEEEE, 
                       __ZN3ggl18DiffuseBuildingTop27CompressedMeshPipelineSetup20gradientConstantDataEv, 
                       __ZN3ggl18DiffuseBuildingTop27CompressedMeshPipelineSetup20lightingConstantDataEv, 
                       __ZN3ggl18DiffuseBuildingTop27CompressedMeshPipelineSetup20setScaleConstantDataENSt3__110shared_ptrINS_17ConstantDataTypedINS_8Building5ScaleEEEEE, 
                       __ZN3ggl18DiffuseBuildingTop27CompressedMeshPipelineSetup20setStyleConstantDataENSt3__110shared_ptrINS_17ConstantDataTypedINS_8Building5StyleEEEEE, 
                       __ZN3ggl18DiffuseBuildingTop27CompressedMeshPipelineSetup21setCompressedMeshMeshEPKNS_11PolygonBase18CompressedMeshMeshE, 
                       __ZN3ggl18DiffuseBuildingTop27CompressedMeshPipelineSetup21setSkyfogConstantDataENSt3__110shared_ptrINS_17ConstantDataTypedINS_3Fog6SkyfogEEEEE, 
                       __ZN3ggl18DiffuseBuildingTop27CompressedMeshPipelineSetup23setGradientConstantDataENSt3__110shared_ptrINS_17ConstantDataTypedINS_8Building8GradientEEEEE, 
                       __ZN3ggl18DiffuseBuildingTop27CompressedMeshPipelineSetup23setLightingConstantDataENSt3__110shared_ptrINS_17ConstantDataTypedINS_8Building8LightingEEEEE, 
                       __ZN3ggl18DiffuseBuildingTop27CompressedMeshPipelineSetup8setStateERKNSt3__110shared_ptrINS0_27CompressedMeshPipelineStateEEE, 
                       __ZN3ggl18DiffuseBuildingTop27CompressedMeshPipelineSetupC1ERKNSt3__110shared_ptrINS0_27CompressedMeshPipelineStateEEE, 
                       __ZN3ggl18DiffuseBuildingTop27CompressedMeshPipelineSetupC1ERKNSt3__110shared_ptrINS0_27CompressedMeshPipelineStateEEERKNS3_INS_17ConstantDataTypedINS_3Fog6SkyfogEEEEERKNS3_INS8_INS_4Tile4ViewEEEEERKNS3_INS8_INS_8Building5ScaleEEEEERKNS3_INS8_INSL_5StyleEEEEERKNS3_INS8_INSL_8GradientEEEEERKNS3_INS8_INSL_8LightingEEEEERKNS3_INS8_INSL_4FadeEEEEE, 
                       __ZN3ggl18DiffuseBuildingTop27CompressedMeshPipelineSetupC1Ev, 
                       __ZN3ggl18DiffuseBuildingTop27CompressedMeshPipelineSetupC2ERKNSt3__110shared_ptrINS0_27CompressedMeshPipelineStateEEE, 
                       __ZN3ggl18DiffuseBuildingTop27CompressedMeshPipelineSetupC2ERKNSt3__110shared_ptrINS0_27CompressedMeshPipelineStateEEERKNS3_INS_17ConstantDataTypedINS_3Fog6SkyfogEEEEERKNS3_INS8_INS_4Tile4ViewEEEEERKNS3_INS8_INS_8Building5ScaleEEEEERKNS3_INS8_INSL_5StyleEEEEERKNS3_INS8_INSL_8GradientEEEEERKNS3_INS8_INSL_8LightingEEEEERKNS3_INS8_INSL_4FadeEEEEE, 
                       __ZN3ggl18DiffuseBuildingTop27CompressedMeshPipelineSetupC2Ev, 
                       __ZN3ggl18DiffuseBuildingTop27CompressedMeshPipelineState15typedReflectionEv, 
                       __ZN3ggl18DiffuseBuildingTop27CompressedMeshPipelineStateC1ERKNS_20ColorBufferOperationENS_18RenderTargetFormatE, 
                       __ZN3ggl18DiffuseBuildingTop27CompressedMeshPipelineStateC1ERKNSt3__110shared_ptrINS_24DiffuseBuildingTopShaderEEERKNS_20ColorBufferOperationENS_18RenderTargetFormatE, 
                       __ZN3ggl18DiffuseBuildingTop27CompressedMeshPipelineStateC2ERKNS_20ColorBufferOperationENS_18RenderTargetFormatE, 
                       __ZN3ggl18DiffuseBuildingTop27CompressedMeshPipelineStateC2ERKNSt3__110shared_ptrINS_24DiffuseBuildingTopShaderEEERKNS_20ColorBufferOperationENS_18RenderTargetFormatE, 
                       __ZN3ggl18FlyoverMorphBorder15MorphBorderMeshC1EPKc, __ZN3ggl18FlyoverMorphBorder15MorphBorderMeshC1EPKcNSt3__110shared_ptrINS_15VertexDataTypedINS0_6VertexEEEEENS5_INS_9IndexDataEEE, 
                       __ZN3ggl18FlyoverMorphBorder15MorphBorderMeshC2EPKc, __ZN3ggl18FlyoverMorphBorder15MorphBorderMeshC2EPKcNSt3__110shared_ptrINS_15VertexDataTypedINS0_6VertexEEEEENS5_INS_9IndexDataEEE, 
                       __ZN3ggl18FlyoverMorphBorder24MorphBorderPipelineSetup15morphBorderMeshEv, 
                       __ZN3ggl18FlyoverMorphBorder24MorphBorderPipelineSetup15typedReflectionEv, 
                       __ZN3ggl18FlyoverMorphBorder24MorphBorderPipelineSetup16clipConstantDataEv, 
                       __ZN3ggl18FlyoverMorphBorder24MorphBorderPipelineSetup17morphConstantDataEv, 
                       __ZN3ggl18FlyoverMorphBorder24MorphBorderPipelineSetup18setMorphBorderMeshEPKNS0_15MorphBorderMeshE, 
                       __ZN3ggl18FlyoverMorphBorder24MorphBorderPipelineSetup18sharedConstantDataEv, 
                       __ZN3ggl18FlyoverMorphBorder24MorphBorderPipelineSetup19setClipConstantDataENSt3__110shared_ptrINS_17ConstantDataTypedINS_13FlyoverCommon4ClipEEEEE, 
                       __ZN3ggl18FlyoverMorphBorder24MorphBorderPipelineSetup20materialConstantDataEv, 
                       __ZN3ggl18FlyoverMorphBorder24MorphBorderPipelineSetup20setMorphConstantDataENSt3__110shared_ptrINS_17ConstantDataTypedINS_12FlyoverMorph5MorphEEEEE, 
                       __ZN3ggl18FlyoverMorphBorder24MorphBorderPipelineSetup21setSharedConstantDataENSt3__110shared_ptrINS_17ConstantDataTypedINS_13FlyoverCommon6SharedEEEEE, 
                       __ZN3ggl18FlyoverMorphBorder24MorphBorderPipelineSetup21texcoordsConstantDataEv, 
                       __ZN3ggl18FlyoverMorphBorder24MorphBorderPipelineSetup21transformConstantDataEv, 
                       __ZN3ggl18FlyoverMorphBorder24MorphBorderPipelineSetup23setMaterialConstantDataENSt3__110shared_ptrINS_17ConstantDataTypedINS_13FlyoverCommon8MaterialEEEEE, 
                       __ZN3ggl18FlyoverMorphBorder24MorphBorderPipelineSetup24setTexcoordsConstantDataENSt3__110shared_ptrINS_17ConstantDataTypedINS_13FlyoverCommon9TexcoordsEEEEE, 
                       __ZN3ggl18FlyoverMorphBorder24MorphBorderPipelineSetup24setTransformConstantDataENSt3__110shared_ptrINS_17ConstantDataTypedINS_13FlyoverCommon9TransformEEEEE, 
                       __ZN3ggl18FlyoverMorphBorder24MorphBorderPipelineSetup8setStateERKNSt3__110shared_ptrINS0_24MorphBorderPipelineStateEEE, 
                       __ZN3ggl18FlyoverMorphBorder24MorphBorderPipelineSetupC1ERKNSt3__110shared_ptrINS0_24MorphBorderPipelineStateEEE, 
                       __ZN3ggl18FlyoverMorphBorder24MorphBorderPipelineSetupC1ERKNSt3__110shared_ptrINS0_24MorphBorderPipelineStateEEERKNS3_INS_17ConstantDataTypedINS_13FlyoverCommon6SharedEEEEERKNS3_INS8_INS9_9TransformEEEEERKNS3_INS8_INS9_4ClipEEEEERKNS3_INS8_INS9_8MaterialEEEEERKNS3_INS8_INS9_9TexcoordsEEEEERKNS3_INS8_INS_12FlyoverMorph5MorphEEEEEPNS_9Texture2DES16_S16_S16_S16_, 
                       __ZN3ggl18FlyoverMorphBorder24MorphBorderPipelineSetupC1Ev, 
                       __ZN3ggl18FlyoverMorphBorder24MorphBorderPipelineSetupC2ERKNSt3__110shared_ptrINS0_24MorphBorderPipelineStateEEE, 
                       __ZN3ggl18FlyoverMorphBorder24MorphBorderPipelineSetupC2ERKNSt3__110shared_ptrINS0_24MorphBorderPipelineStateEEERKNS3_INS_17ConstantDataTypedINS_13FlyoverCommon6SharedEEEEERKNS3_INS8_INS9_9TransformEEEEERKNS3_INS8_INS9_4ClipEEEEERKNS3_INS8_INS9_8MaterialEEEEERKNS3_INS8_INS9_9TexcoordsEEEEERKNS3_INS8_INS_12FlyoverMorph5MorphEEEEEPNS_9Texture2DES16_S16_S16_S16_, 
                       __ZN3ggl18FlyoverMorphBorder24MorphBorderPipelineSetupC2Ev, 
                       __ZN3ggl18FlyoverMorphBorder24MorphBorderPipelineState15typedReflectionEv, 
                       __ZN3ggl18FlyoverMorphBorder24MorphBorderPipelineStateC1ERKNS_20ColorBufferOperationENS_18RenderTargetFormatE, 
                       __ZN3ggl18FlyoverMorphBorder24MorphBorderPipelineStateC1ERKNSt3__110shared_ptrINS_24FlyoverMorphBorderShaderEEERKNS_20ColorBufferOperationENS_18RenderTargetFormatE, 
                       __ZN3ggl18FlyoverMorphBorder24MorphBorderPipelineStateC2ERKNS_20ColorBufferOperationENS_18RenderTargetFormatE, 
                       __ZN3ggl18FlyoverMorphBorder24MorphBorderPipelineStateC2ERKNSt3__110shared_ptrINS_24FlyoverMorphBorderShaderEEERKNS_20ColorBufferOperationENS_18RenderTargetFormatE, 
                       __ZN3ggl18FlyoverMorphBorder6Vertex10reflectionEv, __ZN3ggl18FlyoverMorphShader15typedReflectionEv, 
                       __ZN3ggl18FlyoverMorphShader24vertexFunctionDescriptorEv, 
                       __ZN3ggl18FlyoverMorphShader26fragmentFunctionDescriptorEv, 
                       __ZN3ggl18FlyoverMorphShaderC1Ev, __ZN3ggl18FlyoverMorphShaderC2Ev, 
                       __ZN3ggl18FlyoverNightShader15typedReflectionEv, __ZN3ggl18FlyoverNightShader24vertexFunctionDescriptorEv, 
                       __ZN3ggl18FlyoverNightShader26fragmentFunctionDescriptorEv, 
                       __ZN3ggl18FlyoverNightShaderC1Ev, __ZN3ggl18FlyoverNightShaderC2Ev, 
                       __ZN3ggl18FlyoverRouteShader15typedReflectionEv, __ZN3ggl18FlyoverRouteShader24vertexFunctionDescriptorEv, 
                       __ZN3ggl18FlyoverRouteShader26fragmentFunctionDescriptorEv, 
                       __ZN3ggl18FlyoverRouteShaderC1Ev, __ZN3ggl18FlyoverRouteShaderC2Ev, 
                       __ZN3ggl18GlyphWithOuterHalo20DefaultPipelineSetup11defaultMeshEv, 
                       __ZN3ggl18GlyphWithOuterHalo20DefaultPipelineSetup14setDefaultMeshEPKNS_5Glyph11DefaultMeshE, 
                       __ZN3ggl18GlyphWithOuterHalo20DefaultPipelineSetup15typedReflectionEv, 
                       __ZN3ggl18GlyphWithOuterHalo20DefaultPipelineSetup16viewConstantDataEv, 
                       __ZN3ggl18GlyphWithOuterHalo20DefaultPipelineSetup19channelConstantDataEv, 
                       __ZN3ggl18GlyphWithOuterHalo20DefaultPipelineSetup19setViewConstantDataENSt3__110shared_ptrINS_17ConstantDataTypedINS_5Glyph4ViewEEEEE, 
                       __ZN3ggl18GlyphWithOuterHalo20DefaultPipelineSetup22setChannelConstantDataENSt3__110shared_ptrINS_17ConstantDataTypedINS_5Glyph7ChannelEEEEE, 
                       __ZN3ggl18GlyphWithOuterHalo20DefaultPipelineSetup8setStateERKNSt3__110shared_ptrINS0_20DefaultPipelineStateEEE, 
                       __ZN3ggl18GlyphWithOuterHalo20DefaultPipelineSetupC1ERKNSt3__110shared_ptrINS0_20DefaultPipelineStateEEE, 
                       __ZN3ggl18GlyphWithOuterHalo20DefaultPipelineSetupC1ERKNSt3__110shared_ptrINS0_20DefaultPipelineStateEEERKNS3_INS_17ConstantDataTypedINS_5Glyph4ViewEEEEERKNS3_INS8_INS9_7ChannelEEEEEPNS_9Texture2DE, 
                       __ZN3ggl18GlyphWithOuterHalo20DefaultPipelineSetupC1Ev, __ZN3ggl18GlyphWithOuterHalo20DefaultPipelineSetupC2ERKNSt3__110shared_ptrINS0_20DefaultPipelineStateEEE, 
                       __ZN3ggl18GlyphWithOuterHalo20DefaultPipelineSetupC2ERKNSt3__110shared_ptrINS0_20DefaultPipelineStateEEERKNS3_INS_17ConstantDataTypedINS_5Glyph4ViewEEEEERKNS3_INS8_INS9_7ChannelEEEEEPNS_9Texture2DE, 
                       __ZN3ggl18GlyphWithOuterHalo20DefaultPipelineSetupC2Ev, __ZN3ggl18GlyphWithOuterHalo20DefaultPipelineState15typedReflectionEv, 
                       __ZN3ggl18GlyphWithOuterHalo20DefaultPipelineStateC1ERKNS_20ColorBufferOperationENS_18RenderTargetFormatE, 
                       __ZN3ggl18GlyphWithOuterHalo20DefaultPipelineStateC1ERKNSt3__110shared_ptrINS_24GlyphWithOuterHaloShaderEEERKNS_20ColorBufferOperationENS_18RenderTargetFormatE, 
                       __ZN3ggl18GlyphWithOuterHalo20DefaultPipelineStateC2ERKNS_20ColorBufferOperationENS_18RenderTargetFormatE, 
                       __ZN3ggl18GlyphWithOuterHalo20DefaultPipelineStateC2ERKNSt3__110shared_ptrINS_24GlyphWithOuterHaloShaderEEERKNS_20ColorBufferOperationENS_18RenderTargetFormatE, 
                       __ZN3ggl18LandmarkFlatShader15typedReflectionEv, __ZN3ggl18LandmarkFlatShader24vertexFunctionDescriptorEv, 
                       __ZN3ggl18LandmarkFlatShader26fragmentFunctionDescriptorEv, 
                       __ZN3ggl18LandmarkFlatShaderC1Ev, __ZN3ggl18LandmarkFlatShaderC2Ev, 
                       __ZN3ggl18SolidTrafficShader15typedReflectionEv, __ZN3ggl18SolidTrafficShader24vertexFunctionDescriptorEv, 
                       __ZN3ggl18SolidTrafficShader26fragmentFunctionDescriptorEv, 
                       __ZN3ggl18SolidTrafficShaderC1Ev, __ZN3ggl18SolidTrafficShaderC2Ev, 
                       __ZN3ggl18StyleTextureRibbon10DefaultVbo10reflectionEv, __ZN3ggl18StyleTextureRibbon17BasePipelineSetup11setBaseMeshEPKNS0_8BaseMeshE, 
                       __ZN3ggl18StyleTextureRibbon17BasePipelineSetup15typedReflectionEv, 
                       __ZN3ggl18StyleTextureRibbon17BasePipelineSetup16viewConstantDataEv, 
                       __ZN3ggl18StyleTextureRibbon17BasePipelineSetup17styleConstantDataEv, 
                       __ZN3ggl18StyleTextureRibbon17BasePipelineSetup19setViewConstantDataENSt3__110shared_ptrINS_17ConstantDataTypedINS_4Tile4ViewEEEEE, 
                       __ZN3ggl18StyleTextureRibbon17BasePipelineSetup20setStyleConstantDataENSt3__110shared_ptrINS_17ConstantDataTypedINS0_5StyleEEEEE, 
                       __ZN3ggl18StyleTextureRibbon17BasePipelineSetup8baseMeshEv, 
                       __ZN3ggl18StyleTextureRibbon17BasePipelineSetup8setStateERKNSt3__110shared_ptrINS0_17BasePipelineStateEEE, 
                       __ZN3ggl18StyleTextureRibbon17BasePipelineSetupC1ERKNSt3__110shared_ptrINS0_17BasePipelineStateEEE, 
                       __ZN3ggl18StyleTextureRibbon17BasePipelineSetupC1ERKNSt3__110shared_ptrINS0_17BasePipelineStateEEERKNS3_INS_17ConstantDataTypedINS_4Tile4ViewEEEEERKNS3_INS8_INS0_5StyleEEEEEPNS_9Texture2DESL_, 
                       __ZN3ggl18StyleTextureRibbon17BasePipelineSetupC1Ev, __ZN3ggl18StyleTextureRibbon17BasePipelineSetupC2ERKNSt3__110shared_ptrINS0_17BasePipelineStateEEE, 
                       __ZN3ggl18StyleTextureRibbon17BasePipelineSetupC2ERKNSt3__110shared_ptrINS0_17BasePipelineStateEEERKNS3_INS_17ConstantDataTypedINS_4Tile4ViewEEEEERKNS3_INS8_INS0_5StyleEEEEEPNS_9Texture2DESL_, 
                       __ZN3ggl18StyleTextureRibbon17BasePipelineSetupC2Ev, __ZN3ggl18StyleTextureRibbon17BasePipelineState15typedReflectionEv, 
                       __ZN3ggl18StyleTextureRibbon17BasePipelineStateC1ERKNS_20ColorBufferOperationENS_18RenderTargetFormatE, 
                       __ZN3ggl18StyleTextureRibbon17BasePipelineStateC1ERKNSt3__110shared_ptrINS_24StyleTextureRibbonShaderEEERKNS_20ColorBufferOperationENS_18RenderTargetFormatE, 
                       __ZN3ggl18StyleTextureRibbon17BasePipelineStateC2ERKNS_20ColorBufferOperationENS_18RenderTargetFormatE, 
                       __ZN3ggl18StyleTextureRibbon17BasePipelineStateC2ERKNSt3__110shared_ptrINS_24StyleTextureRibbonShaderEEERKNS_20ColorBufferOperationENS_18RenderTargetFormatE, 
                       __ZN3ggl18StyleTextureRibbon5Style10reflectionEv, __ZN3ggl18StyleTextureRibbon8BaseMeshC1EPKc, 
                       __ZN3ggl18StyleTextureRibbon8BaseMeshC1EPKcNSt3__110shared_ptrINS_15VertexDataTypedINS0_10DefaultVboEEEEENS5_INS_9IndexDataEEE, 
                       __ZN3ggl18StyleTextureRibbon8BaseMeshC2EPKc, __ZN3ggl18StyleTextureRibbon8BaseMeshC2EPKcNSt3__110shared_ptrINS_15VertexDataTypedINS0_10DefaultVboEEEEENS5_INS_9IndexDataEEE, 
                       __ZN3ggl18VenueWallTopShader15typedReflectionEv, __ZN3ggl18VenueWallTopShader24vertexFunctionDescriptorEv, 
                       __ZN3ggl18VenueWallTopShader26fragmentFunctionDescriptorEv, 
                       __ZN3ggl18VenueWallTopShaderC1Ev, __ZN3ggl18VenueWallTopShaderC2Ev, 
                       __ZN3ggl19BuildingFacadeDepth21BuildingPipelineSetup12buildingMeshEv, 
                       __ZN3ggl19BuildingFacadeDepth21BuildingPipelineSetup15setBuildingMeshEPKNS_14BuildingFacade12BuildingMeshE, 
                       __ZN3ggl19BuildingFacadeDepth21BuildingPipelineSetup15typedReflectionEv, 
                       __ZN3ggl19BuildingFacadeDepth21BuildingPipelineSetup16viewConstantDataEv, 
                       __ZN3ggl19BuildingFacadeDepth21BuildingPipelineSetup17scaleConstantDataEv, 
                       __ZN3ggl19BuildingFacadeDepth21BuildingPipelineSetup19setViewConstantDataENSt3__110shared_ptrINS_17ConstantDataTypedINS_4Tile4ViewEEEEE, 
                       __ZN3ggl19BuildingFacadeDepth21BuildingPipelineSetup20setScaleConstantDataENSt3__110shared_ptrINS_17ConstantDataTypedINS_8Building5ScaleEEEEE, 
                       __ZN3ggl19BuildingFacadeDepth21BuildingPipelineSetup8setStateERKNSt3__110shared_ptrINS0_21BuildingPipelineStateEEE, 
                       __ZN3ggl19BuildingFacadeDepth21BuildingPipelineSetupC1ERKNSt3__110shared_ptrINS0_21BuildingPipelineStateEEE, 
                       __ZN3ggl19BuildingFacadeDepth21BuildingPipelineSetupC1ERKNSt3__110shared_ptrINS0_21BuildingPipelineStateEEERKNS3_INS_17ConstantDataTypedINS_4Tile4ViewEEEEERKNS3_INS8_INS_8Building5ScaleEEEEE, 
                       __ZN3ggl19BuildingFacadeDepth21BuildingPipelineSetupC1Ev, 
                       __ZN3ggl19BuildingFacadeDepth21BuildingPipelineSetupC2ERKNSt3__110shared_ptrINS0_21BuildingPipelineStateEEE, 
                       __ZN3ggl19BuildingFacadeDepth21BuildingPipelineSetupC2ERKNSt3__110shared_ptrINS0_21BuildingPipelineStateEEERKNS3_INS_17ConstantDataTypedINS_4Tile4ViewEEEEERKNS3_INS8_INS_8Building5ScaleEEEEE, 
                       __ZN3ggl19BuildingFacadeDepth21BuildingPipelineSetupC2Ev, 
                       __ZN3ggl19BuildingFacadeDepth21BuildingPipelineState15typedReflectionEv, 
                       __ZN3ggl19BuildingFacadeDepth21BuildingPipelineStateC1ERKNS_20ColorBufferOperationENS_18RenderTargetFormatE, 
                       __ZN3ggl19BuildingFacadeDepth21BuildingPipelineStateC1ERKNSt3__110shared_ptrINS_25BuildingFacadeDepthShaderEEERKNS_20ColorBufferOperationENS_18RenderTargetFormatE, 
                       __ZN3ggl19BuildingFacadeDepth21BuildingPipelineStateC2ERKNS_20ColorBufferOperationENS_18RenderTargetFormatE, 
                       __ZN3ggl19BuildingFacadeDepth21BuildingPipelineStateC2ERKNSt3__110shared_ptrINS_25BuildingFacadeDepthShaderEEERKNS_20ColorBufferOperationENS_18RenderTargetFormatE, 
                       __ZN3ggl19FlyoverBorderRibbon20DefaultPipelineSetup11defaultMeshEv, 
                       __ZN3ggl19FlyoverBorderRibbon20DefaultPipelineSetup14setDefaultMeshEPKNS_11FlyoverRoad11DefaultMeshE, 
                       __ZN3ggl19FlyoverBorderRibbon20DefaultPipelineSetup15typedReflectionEv, 
                       __ZN3ggl19FlyoverBorderRibbon20DefaultPipelineSetup16tileConstantDataEv, 
                       __ZN3ggl19FlyoverBorderRibbon20DefaultPipelineSetup16viewConstantDataEv, 
                       __ZN3ggl19FlyoverBorderRibbon20DefaultPipelineSetup17blendConstantDataEv, 
                       __ZN3ggl19FlyoverBorderRibbon20DefaultPipelineSetup17colorConstantDataEv, 
                       __ZN3ggl19FlyoverBorderRibbon20DefaultPipelineSetup18borderConstantDataEv, 
                       __ZN3ggl19FlyoverBorderRibbon20DefaultPipelineSetup19setTileConstantDataENSt3__110shared_ptrINS_17ConstantDataTypedINS0_4TileEEEEE, 
                       __ZN3ggl19FlyoverBorderRibbon20DefaultPipelineSetup19setViewConstantDataENSt3__110shared_ptrINS_17ConstantDataTypedINS_13FlyoverRibbon4ViewEEEEE, 
                       __ZN3ggl19FlyoverBorderRibbon20DefaultPipelineSetup20setBlendConstantDataENSt3__110shared_ptrINS_17ConstantDataTypedINS_11FlyoverRoad5BlendEEEEE, 
                       __ZN3ggl19FlyoverBorderRibbon20DefaultPipelineSetup20setColorConstantDataENSt3__110shared_ptrINS_17ConstantDataTypedINS0_5ColorEEEEE, 
                       __ZN3ggl19FlyoverBorderRibbon20DefaultPipelineSetup21setBorderConstantDataENSt3__110shared_ptrINS_17ConstantDataTypedINS0_6BorderEEEEE, 
                       __ZN3ggl19FlyoverBorderRibbon20DefaultPipelineSetup8setStateERKNSt3__110shared_ptrINS0_20DefaultPipelineStateEEE, 
                       __ZN3ggl19FlyoverBorderRibbon20DefaultPipelineSetupC1ERKNSt3__110shared_ptrINS0_20DefaultPipelineStateEEE, 
                       __ZN3ggl19FlyoverBorderRibbon20DefaultPipelineSetupC1ERKNSt3__110shared_ptrINS0_20DefaultPipelineStateEEERKNS3_INS_17ConstantDataTypedINS_13FlyoverRibbon4ViewEEEEERKNS3_INS8_INS_11FlyoverRoad5BlendEEEEERKNS3_INS8_INS0_4TileEEEEERKNS3_INS8_INS0_6BorderEEEEERKNS3_INS8_INS0_5ColorEEEEEPNS_9Texture2DES11_, 
                       __ZN3ggl19FlyoverBorderRibbon20DefaultPipelineSetupC1Ev, __ZN3ggl19FlyoverBorderRibbon20DefaultPipelineSetupC2ERKNSt3__110shared_ptrINS0_20DefaultPipelineStateEEE, 
                       __ZN3ggl19FlyoverBorderRibbon20DefaultPipelineSetupC2ERKNSt3__110shared_ptrINS0_20DefaultPipelineStateEEERKNS3_INS_17ConstantDataTypedINS_13FlyoverRibbon4ViewEEEEERKNS3_INS8_INS_11FlyoverRoad5BlendEEEEERKNS3_INS8_INS0_4TileEEEEERKNS3_INS8_INS0_6BorderEEEEERKNS3_INS8_INS0_5ColorEEEEEPNS_9Texture2DES11_, 
                       __ZN3ggl19FlyoverBorderRibbon20DefaultPipelineSetupC2Ev, __ZN3ggl19FlyoverBorderRibbon20DefaultPipelineState15typedReflectionEv, 
                       __ZN3ggl19FlyoverBorderRibbon20DefaultPipelineStateC1ERKNS_20ColorBufferOperationENS_18RenderTargetFormatE, 
                       __ZN3ggl19FlyoverBorderRibbon20DefaultPipelineStateC1ERKNSt3__110shared_ptrINS_25FlyoverBorderRibbonShaderEEERKNS_20ColorBufferOperationENS_18RenderTargetFormatE, 
                       __ZN3ggl19FlyoverBorderRibbon20DefaultPipelineStateC2ERKNS_20ColorBufferOperationENS_18RenderTargetFormatE, 
                       __ZN3ggl19FlyoverBorderRibbon20DefaultPipelineStateC2ERKNSt3__110shared_ptrINS_25FlyoverBorderRibbonShaderEEERKNS_20ColorBufferOperationENS_18RenderTargetFormatE, 
                       __ZN3ggl19FlyoverBorderRibbon4Tile10reflectionEv, __ZN3ggl19FlyoverBorderRibbon5Color10reflectionEv, 
                       __ZN3ggl19FlyoverBorderRibbon6Border10reflectionEv, __ZN3ggl19FlyoverBorderShader15typedReflectionEv, 
                       __ZN3ggl19FlyoverBorderShader24vertexFunctionDescriptorEv, 
                       __ZN3ggl19FlyoverBorderShader26fragmentFunctionDescriptorEv, 
                       __ZN3ggl19FlyoverBorderShaderC1Ev, __ZN3ggl19FlyoverBorderShaderC2Ev, 
                       __ZN3ggl19FlyoverMaskedShader15typedReflectionEv, __ZN3ggl19FlyoverMaskedShader24vertexFunctionDescriptorEv, 
                       __ZN3ggl19FlyoverMaskedShader26fragmentFunctionDescriptorEv, 
                       __ZN3ggl19FlyoverMaskedShaderC1Ev, __ZN3ggl19FlyoverMaskedShaderC2Ev, 
                       __ZN3ggl19GlyphWithNormalHalo20DefaultPipelineSetup11defaultMeshEv, 
                       __ZN3ggl19GlyphWithNormalHalo20DefaultPipelineSetup14setDefaultMeshEPKNS_5Glyph11DefaultMeshE, 
                       __ZN3ggl19GlyphWithNormalHalo20DefaultPipelineSetup15typedReflectionEv, 
                       __ZN3ggl19GlyphWithNormalHalo20DefaultPipelineSetup16viewConstantDataEv, 
                       __ZN3ggl19GlyphWithNormalHalo20DefaultPipelineSetup19channelConstantDataEv, 
                       __ZN3ggl19GlyphWithNormalHalo20DefaultPipelineSetup19setViewConstantDataENSt3__110shared_ptrINS_17ConstantDataTypedINS_5Glyph4ViewEEEEE, 
                       __ZN3ggl19GlyphWithNormalHalo20DefaultPipelineSetup22setChannelConstantDataENSt3__110shared_ptrINS_17ConstantDataTypedINS_5Glyph7ChannelEEEEE, 
                       __ZN3ggl19GlyphWithNormalHalo20DefaultPipelineSetup8setStateERKNSt3__110shared_ptrINS0_20DefaultPipelineStateEEE, 
                       __ZN3ggl19GlyphWithNormalHalo20DefaultPipelineSetupC1ERKNSt3__110shared_ptrINS0_20DefaultPipelineStateEEE, 
                       __ZN3ggl19GlyphWithNormalHalo20DefaultPipelineSetupC1ERKNSt3__110shared_ptrINS0_20DefaultPipelineStateEEERKNS3_INS_17ConstantDataTypedINS_5Glyph4ViewEEEEERKNS3_INS8_INS9_7ChannelEEEEEPNS_9Texture2DE, 
                       __ZN3ggl19GlyphWithNormalHalo20DefaultPipelineSetupC1Ev, __ZN3ggl19GlyphWithNormalHalo20DefaultPipelineSetupC2ERKNSt3__110shared_ptrINS0_20DefaultPipelineStateEEE, 
                       __ZN3ggl19GlyphWithNormalHalo20DefaultPipelineSetupC2ERKNSt3__110shared_ptrINS0_20DefaultPipelineStateEEERKNS3_INS_17ConstantDataTypedINS_5Glyph4ViewEEEEERKNS3_INS8_INS9_7ChannelEEEEEPNS_9Texture2DE, 
                       __ZN3ggl19GlyphWithNormalHalo20DefaultPipelineSetupC2Ev, __ZN3ggl19GlyphWithNormalHalo20DefaultPipelineState15typedReflectionEv, 
                       __ZN3ggl19GlyphWithNormalHalo20DefaultPipelineStateC1ERKNS_20ColorBufferOperationENS_18RenderTargetFormatE, 
                       __ZN3ggl19GlyphWithNormalHalo20DefaultPipelineStateC1ERKNSt3__110shared_ptrINS_25GlyphWithNormalHaloShaderEEERKNS_20ColorBufferOperationENS_18RenderTargetFormatE, 
                       __ZN3ggl19GlyphWithNormalHalo20DefaultPipelineStateC2ERKNS_20ColorBufferOperationENS_18RenderTargetFormatE, 
                       __ZN3ggl19GlyphWithNormalHalo20DefaultPipelineStateC2ERKNSt3__110shared_ptrINS_25GlyphWithNormalHaloShaderEEERKNS_20ColorBufferOperationENS_18RenderTargetFormatE, 
                       __ZN3ggl19LandmarkDepthShader15typedReflectionEv, __ZN3ggl19LandmarkDepthShader24vertexFunctionDescriptorEv, 
                       __ZN3ggl19LandmarkDepthShader26fragmentFunctionDescriptorEv, 
                       __ZN3ggl19LandmarkDepthShaderC1Ev, __ZN3ggl19LandmarkDepthShaderC2Ev, 
                       __ZN3ggl19ManeuverPointShader15typedReflectionEv, __ZN3ggl19ManeuverPointShader24vertexFunctionDescriptorEv, 
                       __ZN3ggl19ManeuverPointShader26fragmentFunctionDescriptorEv, 
                       __ZN3ggl19ManeuverPointShaderC1Ev, __ZN3ggl19ManeuverPointShaderC2Ev, 
                       __ZN3ggl19OcclusionLineShader15typedReflectionEv, __ZN3ggl19OcclusionLineShader24vertexFunctionDescriptorEv, 
                       __ZN3ggl19OcclusionLineShader26fragmentFunctionDescriptorEv, 
                       __ZN3ggl19OcclusionLineShaderC1Ev, __ZN3ggl19OcclusionLineShaderC2Ev, 
                       __ZN3ggl19PolygonCommonStroke10DefaultVbo10reflectionEv, __ZN3ggl19PolygonCommonStroke7Polygon10reflectionEv, 
                       __ZN3ggl19PolygonCommonStroke8MeshMeshC1EPKc, __ZN3ggl19PolygonCommonStroke8MeshMeshC1EPKcNSt3__110shared_ptrINS_15VertexDataTypedINS0_10DefaultVboEEEEENS5_INS_9IndexDataEEE, 
                       __ZN3ggl19PolygonCommonStroke8MeshMeshC2EPKc, __ZN3ggl19PolygonCommonStroke8MeshMeshC2EPKcNSt3__110shared_ptrINS_15VertexDataTypedINS0_10DefaultVboEEEEENS5_INS_9IndexDataEEE, 
                       __ZN3ggl19PolygonStrokeShader15typedReflectionEv, __ZN3ggl19PolygonStrokeShader24vertexFunctionDescriptorEv, 
                       __ZN3ggl19PolygonStrokeShader26fragmentFunctionDescriptorEv, 
                       __ZN3ggl19PolygonStrokeShaderC1Ev, __ZN3ggl19PolygonStrokeShaderC2Ev, 
                       __ZN3ggl19RouteLineAlphaReset10FadeParams10reflectionEv, __ZN3ggl19RouteLineAlphaReset17BasePipelineSetup11setBaseMeshEPKNS_9RouteLine8BaseMeshE, 
                       __ZN3ggl19RouteLineAlphaReset17BasePipelineSetup15typedReflectionEv, 
                       __ZN3ggl19RouteLineAlphaReset17BasePipelineSetup16viewConstantDataEv, 
                       __ZN3ggl19RouteLineAlphaReset17BasePipelineSetup17styleConstantDataEv, 
                       __ZN3ggl19RouteLineAlphaReset17BasePipelineSetup18paramsConstantDataEv, 
                       __ZN3ggl19RouteLineAlphaReset17BasePipelineSetup19setViewConstantDataENSt3__110shared_ptrINS_17ConstantDataTypedINS_4Tile4ViewEEEEE, 
                       __ZN3ggl19RouteLineAlphaReset17BasePipelineSetup20setStyleConstantDataENSt3__110shared_ptrINS_17ConstantDataTypedINS_6Ribbon5StyleEEEEE, 
                       __ZN3ggl19RouteLineAlphaReset17BasePipelineSetup21setParamsConstantDataENSt3__110shared_ptrINS_17ConstantDataTypedINS0_10FadeParamsEEEEE, 
                       __ZN3ggl19RouteLineAlphaReset17BasePipelineSetup8baseMeshEv, 
                       __ZN3ggl19RouteLineAlphaReset17BasePipelineSetup8setStateERKNSt3__110shared_ptrINS0_17BasePipelineStateEEE, 
                       __ZN3ggl19RouteLineAlphaReset17BasePipelineSetupC1ERKNSt3__110shared_ptrINS0_17BasePipelineStateEEE, 
                       __ZN3ggl19RouteLineAlphaReset17BasePipelineSetupC1ERKNSt3__110shared_ptrINS0_17BasePipelineStateEEERKNS3_INS_17ConstantDataTypedINS_4Tile4ViewEEEEERKNS3_INS8_INS_6Ribbon5StyleEEEEERKNS3_INS8_INS0_10FadeParamsEEEEE, 
                       __ZN3ggl19RouteLineAlphaReset17BasePipelineSetupC1Ev, __ZN3ggl19RouteLineAlphaReset17BasePipelineSetupC2ERKNSt3__110shared_ptrINS0_17BasePipelineStateEEE, 
                       __ZN3ggl19RouteLineAlphaReset17BasePipelineSetupC2ERKNSt3__110shared_ptrINS0_17BasePipelineStateEEERKNS3_INS_17ConstantDataTypedINS_4Tile4ViewEEEEERKNS3_INS8_INS_6Ribbon5StyleEEEEERKNS3_INS8_INS0_10FadeParamsEEEEE, 
                       __ZN3ggl19RouteLineAlphaReset17BasePipelineSetupC2Ev, __ZN3ggl19RouteLineAlphaReset17BasePipelineState15typedReflectionEv, 
                       __ZN3ggl19RouteLineAlphaReset17BasePipelineStateC1ERKNS_20ColorBufferOperationENS_18RenderTargetFormatE, 
                       __ZN3ggl19RouteLineAlphaReset17BasePipelineStateC1ERKNSt3__110shared_ptrINS_25RouteLineAlphaResetShaderEEERKNS_20ColorBufferOperationENS_18RenderTargetFormatE, 
                       __ZN3ggl19RouteLineAlphaReset17BasePipelineStateC2ERKNS_20ColorBufferOperationENS_18RenderTargetFormatE, 
                       __ZN3ggl19RouteLineAlphaReset17BasePipelineStateC2ERKNSt3__110shared_ptrINS_25RouteLineAlphaResetShaderEEERKNS_20ColorBufferOperationENS_18RenderTargetFormatE, 
                       __ZN3ggl19SpecularBuildingTop27CompressedMeshPipelineSetup15typedReflectionEv, 
                       __ZN3ggl19SpecularBuildingTop27CompressedMeshPipelineSetup16fadeConstantDataEv, 
                       __ZN3ggl19SpecularBuildingTop27CompressedMeshPipelineSetup16viewConstantDataEv, 
                       __ZN3ggl19SpecularBuildingTop27CompressedMeshPipelineSetup17scaleConstantDataEv, 
                       __ZN3ggl19SpecularBuildingTop27CompressedMeshPipelineSetup17styleConstantDataEv, 
                       __ZN3ggl19SpecularBuildingTop27CompressedMeshPipelineSetup18compressedMeshMeshEv, 
                       __ZN3ggl19SpecularBuildingTop27CompressedMeshPipelineSetup18skyfogConstantDataEv, 
                       __ZN3ggl19SpecularBuildingTop27CompressedMeshPipelineSetup19setFadeConstantDataENSt3__110shared_ptrINS_17ConstantDataTypedINS_8Building4FadeEEEEE, 
                       __ZN3ggl19SpecularBuildingTop27CompressedMeshPipelineSetup19setViewConstantDataENSt3__110shared_ptrINS_17ConstantDataTypedINS_4Tile4ViewEEEEE, 
                       __ZN3ggl19SpecularBuildingTop27CompressedMeshPipelineSetup20gradientConstantDataEv, 
                       __ZN3ggl19SpecularBuildingTop27CompressedMeshPipelineSetup20lightingConstantDataEv, 
                       __ZN3ggl19SpecularBuildingTop27CompressedMeshPipelineSetup20setScaleConstantDataENSt3__110shared_ptrINS_17ConstantDataTypedINS_8Building5ScaleEEEEE, 
                       __ZN3ggl19SpecularBuildingTop27CompressedMeshPipelineSetup20setStyleConstantDataENSt3__110shared_ptrINS_17ConstantDataTypedINS_8Building5StyleEEEEE, 
                       __ZN3ggl19SpecularBuildingTop27CompressedMeshPipelineSetup21setCompressedMeshMeshEPKNS_11PolygonBase18CompressedMeshMeshE, 
                       __ZN3ggl19SpecularBuildingTop27CompressedMeshPipelineSetup21setSkyfogConstantDataENSt3__110shared_ptrINS_17ConstantDataTypedINS_3Fog6SkyfogEEEEE, 
                       __ZN3ggl19SpecularBuildingTop27CompressedMeshPipelineSetup23setGradientConstantDataENSt3__110shared_ptrINS_17ConstantDataTypedINS_8Building8GradientEEEEE, 
                       __ZN3ggl19SpecularBuildingTop27CompressedMeshPipelineSetup23setLightingConstantDataENSt3__110shared_ptrINS_17ConstantDataTypedINS_8Building8LightingEEEEE, 
                       __ZN3ggl19SpecularBuildingTop27CompressedMeshPipelineSetup8setStateERKNSt3__110shared_ptrINS0_27CompressedMeshPipelineStateEEE, 
                       __ZN3ggl19SpecularBuildingTop27CompressedMeshPipelineSetupC1ERKNSt3__110shared_ptrINS0_27CompressedMeshPipelineStateEEE, 
                       __ZN3ggl19SpecularBuildingTop27CompressedMeshPipelineSetupC1ERKNSt3__110shared_ptrINS0_27CompressedMeshPipelineStateEEERKNS3_INS_17ConstantDataTypedINS_3Fog6SkyfogEEEEERKNS3_INS8_INS_4Tile4ViewEEEEERKNS3_INS8_INS_8Building5ScaleEEEEERKNS3_INS8_INSL_5StyleEEEEERKNS3_INS8_INSL_8GradientEEEEERKNS3_INS8_INSL_8LightingEEEEERKNS3_INS8_INSL_4FadeEEEEE, 
                       __ZN3ggl19SpecularBuildingTop27CompressedMeshPipelineSetupC1Ev, 
                       __ZN3ggl19SpecularBuildingTop27CompressedMeshPipelineSetupC2ERKNSt3__110shared_ptrINS0_27CompressedMeshPipelineStateEEE, 
                       __ZN3ggl19SpecularBuildingTop27CompressedMeshPipelineSetupC2ERKNSt3__110shared_ptrINS0_27CompressedMeshPipelineStateEEERKNS3_INS_17ConstantDataTypedINS_3Fog6SkyfogEEEEERKNS3_INS8_INS_4Tile4ViewEEEEERKNS3_INS8_INS_8Building5ScaleEEEEERKNS3_INS8_INSL_5StyleEEEEERKNS3_INS8_INSL_8GradientEEEEERKNS3_INS8_INSL_8LightingEEEEERKNS3_INS8_INSL_4FadeEEEEE, 
                       __ZN3ggl19SpecularBuildingTop27CompressedMeshPipelineSetupC2Ev, 
                       __ZN3ggl19SpecularBuildingTop27CompressedMeshPipelineState15typedReflectionEv, 
                       __ZN3ggl19SpecularBuildingTop27CompressedMeshPipelineStateC1ERKNS_20ColorBufferOperationENS_18RenderTargetFormatE, 
                       __ZN3ggl19SpecularBuildingTop27CompressedMeshPipelineStateC1ERKNSt3__110shared_ptrINS_25SpecularBuildingTopShaderEEERKNS_20ColorBufferOperationENS_18RenderTargetFormatE, 
                       __ZN3ggl19SpecularBuildingTop27CompressedMeshPipelineStateC2ERKNS_20ColorBufferOperationENS_18RenderTargetFormatE, 
                       __ZN3ggl19SpecularBuildingTop27CompressedMeshPipelineStateC2ERKNSt3__110shared_ptrINS_25SpecularBuildingTopShaderEEERKNS_20ColorBufferOperationENS_18RenderTargetFormatE, 
                       __ZN3ggl19StenciledAlphaClear18ClearPipelineSetup12setClearMeshEPKNS0_9ClearMeshE, 
                       __ZN3ggl19StenciledAlphaClear18ClearPipelineSetup15typedReflectionEv, 
                       __ZN3ggl19StenciledAlphaClear18ClearPipelineSetup8setStateERKNSt3__110shared_ptrINS0_18ClearPipelineStateEEE, 
                       __ZN3ggl19StenciledAlphaClear18ClearPipelineSetup9clearMeshEv, 
                       __ZN3ggl19StenciledAlphaClear18ClearPipelineSetupC1ERKNSt3__110shared_ptrINS0_18ClearPipelineStateEEE, 
                       __ZN3ggl19StenciledAlphaClear18ClearPipelineSetupC1Ev, __ZN3ggl19StenciledAlphaClear18ClearPipelineSetupC2ERKNSt3__110shared_ptrINS0_18ClearPipelineStateEEE, 
                       __ZN3ggl19StenciledAlphaClear18ClearPipelineSetupC2Ev, __ZN3ggl19StenciledAlphaClear18ClearPipelineState15typedReflectionEv, 
                       __ZN3ggl19StenciledAlphaClear18ClearPipelineStateC1ERKNS_20ColorBufferOperationENS_18RenderTargetFormatE, 
                       __ZN3ggl19StenciledAlphaClear18ClearPipelineStateC1ERKNSt3__110shared_ptrINS_25StenciledAlphaClearShaderEEERKNS_20ColorBufferOperationENS_18RenderTargetFormatE, 
                       __ZN3ggl19StenciledAlphaClear18ClearPipelineStateC2ERKNS_20ColorBufferOperationENS_18RenderTargetFormatE, 
                       __ZN3ggl19StenciledAlphaClear18ClearPipelineStateC2ERKNSt3__110shared_ptrINS_25StenciledAlphaClearShaderEEERKNS_20ColorBufferOperationENS_18RenderTargetFormatE, 
                       __ZN3ggl19StenciledAlphaClear5Clear10reflectionEv, __ZN3ggl19StenciledAlphaClear9ClearMeshC1EPKc, 
                       __ZN3ggl19StenciledAlphaClear9ClearMeshC1EPKcNSt3__110shared_ptrINS_15VertexDataTypedINS0_5ClearEEEEENS5_INS_9IndexDataEEE, 
                       __ZN3ggl19StenciledAlphaClear9ClearMeshC2EPKc, __ZN3ggl19StenciledAlphaClear9ClearMeshC2EPKcNSt3__110shared_ptrINS_15VertexDataTypedINS0_5ClearEEEEENS5_INS_9IndexDataEEE, 
                       __ZN3ggl19TexturedSolidRibbon13PipelineSetup11setBaseMeshEPKNS_6Ribbon8BaseMeshE, 
                       __ZN3ggl19TexturedSolidRibbon13PipelineSetup15typedReflectionEv, 
                       __ZN3ggl19TexturedSolidRibbon13PipelineSetup16viewConstantDataEv, 
                       __ZN3ggl19TexturedSolidRibbon13PipelineSetup17noiseConstantDataEv, 
                       __ZN3ggl19TexturedSolidRibbon13PipelineSetup17styleConstantDataEv, 
                       __ZN3ggl19TexturedSolidRibbon13PipelineSetup19setViewConstantDataENSt3__110shared_ptrINS_17ConstantDataTypedINS_4Tile4ViewEEEEE, 
                       __ZN3ggl19TexturedSolidRibbon13PipelineSetup20setNoiseConstantDataENSt3__110shared_ptrINS_17ConstantDataTypedINS_12OffsetRibbon5NoiseEEEEE, 
                       __ZN3ggl19TexturedSolidRibbon13PipelineSetup20setStyleConstantDataENSt3__110shared_ptrINS_17ConstantDataTypedINS_12OffsetRibbon5StyleEEEEE, 
                       __ZN3ggl19TexturedSolidRibbon13PipelineSetup8baseMeshEv, __ZN3ggl19TexturedSolidRibbon13PipelineSetup8setStateERKNSt3__110shared_ptrINS0_13PipelineStateEEE, 
                       __ZN3ggl19TexturedSolidRibbon13PipelineSetupC1ERKNSt3__110shared_ptrINS0_13PipelineStateEEE, 
                       __ZN3ggl19TexturedSolidRibbon13PipelineSetupC1ERKNSt3__110shared_ptrINS0_13PipelineStateEEERKNS3_INS_17ConstantDataTypedINS_4Tile4ViewEEEEERKNS3_INS8_INS_12OffsetRibbon5StyleEEEEERKNS3_INS8_INSF_5NoiseEEEEEPNS_9Texture2DESR_, 
                       __ZN3ggl19TexturedSolidRibbon13PipelineSetupC1Ev, __ZN3ggl19TexturedSolidRibbon13PipelineSetupC2ERKNSt3__110shared_ptrINS0_13PipelineStateEEE, 
                       __ZN3ggl19TexturedSolidRibbon13PipelineSetupC2ERKNSt3__110shared_ptrINS0_13PipelineStateEEERKNS3_INS_17ConstantDataTypedINS_4Tile4ViewEEEEERKNS3_INS8_INS_12OffsetRibbon5StyleEEEEERKNS3_INS8_INSF_5NoiseEEEEEPNS_9Texture2DESR_, 
                       __ZN3ggl19TexturedSolidRibbon13PipelineSetupC2Ev, __ZN3ggl19TexturedSolidRibbon13PipelineState15typedReflectionEv, 
                       __ZN3ggl19TexturedSolidRibbon13PipelineStateC1ERKNS_20ColorBufferOperationENS_18RenderTargetFormatE, 
                       __ZN3ggl19TexturedSolidRibbon13PipelineStateC1ERKNSt3__110shared_ptrINS_25TexturedSolidRibbonShaderEEERKNS_20ColorBufferOperationENS_18RenderTargetFormatE, 
                       __ZN3ggl19TexturedSolidRibbon13PipelineStateC2ERKNS_20ColorBufferOperationENS_18RenderTargetFormatE, 
                       __ZN3ggl19TexturedSolidRibbon13PipelineStateC2ERKNSt3__110shared_ptrINS_25TexturedSolidRibbonShaderEEERKNS_20ColorBufferOperationENS_18RenderTargetFormatE, 
                       __ZN3ggl19TrafficCasingShader15typedReflectionEv, __ZN3ggl19TrafficCasingShader24vertexFunctionDescriptorEv, 
                       __ZN3ggl19TrafficCasingShader26fragmentFunctionDescriptorEv, 
                       __ZN3ggl19TrafficCasingShaderC1Ev, __ZN3ggl19TrafficCasingShaderC2Ev, 
                       __ZN3ggl20BuildingShadowShader15typedReflectionEv, __ZN3ggl20BuildingShadowShader24vertexFunctionDescriptorEv, 
                       __ZN3ggl20BuildingShadowShader26fragmentFunctionDescriptorEv, 
                       __ZN3ggl20BuildingShadowShaderC1Ev, __ZN3ggl20BuildingShadowShaderC2Ev, 
                       __ZN3ggl20FlyoverOverlayShader15typedReflectionEv, __ZN3ggl20FlyoverOverlayShader24vertexFunctionDescriptorEv, 
                       __ZN3ggl20FlyoverOverlayShader26fragmentFunctionDescriptorEv, 
                       __ZN3ggl20FlyoverOverlayShaderC1Ev, __ZN3ggl20FlyoverOverlayShaderC2Ev, 
                       __ZN3ggl20FlyoverTrafficShader15typedReflectionEv, __ZN3ggl20FlyoverTrafficShader24vertexFunctionDescriptorEv, 
                       __ZN3ggl20FlyoverTrafficShader26fragmentFunctionDescriptorEv, 
                       __ZN3ggl20FlyoverTrafficShaderC1Ev, __ZN3ggl20FlyoverTrafficShaderC2Ev, 
                       __ZN3ggl20RouteLineArrowShader15typedReflectionEv, __ZN3ggl20RouteLineArrowShader24vertexFunctionDescriptorEv, 
                       __ZN3ggl20RouteLineArrowShader26fragmentFunctionDescriptorEv, 
                       __ZN3ggl20RouteLineArrowShaderC1Ev, __ZN3ggl20RouteLineArrowShaderC2Ev, 
                       __ZN3ggl20TransitNodeColorized17BasePipelineSetup11setBaseMeshEPKNS_11TransitNode8BaseMeshE, 
                       __ZN3ggl20TransitNodeColorized17BasePipelineSetup15typedReflectionEv, 
                       __ZN3ggl20TransitNodeColorized17BasePipelineSetup20settingsConstantDataEv, 
                       __ZN3ggl20TransitNodeColorized17BasePipelineSetup23setSettingsConstantDataENSt3__110shared_ptrINS_17ConstantDataTypedINS_11TransitNode8SettingsEEEEE, 
                       __ZN3ggl20TransitNodeColorized17BasePipelineSetup8baseMeshEv, 
                       __ZN3ggl20TransitNodeColorized17BasePipelineSetup8setStateERKNSt3__110shared_ptrINS0_17BasePipelineStateEEE, 
                       __ZN3ggl20TransitNodeColorized17BasePipelineSetupC1ERKNSt3__110shared_ptrINS0_17BasePipelineStateEEE, 
                       __ZN3ggl20TransitNodeColorized17BasePipelineSetupC1ERKNSt3__110shared_ptrINS0_17BasePipelineStateEEERKNS3_INS_17ConstantDataTypedINS_11TransitNode8SettingsEEEEEPNS_9Texture2DE, 
                       __ZN3ggl20TransitNodeColorized17BasePipelineSetupC1Ev, __ZN3ggl20TransitNodeColorized17BasePipelineSetupC2ERKNSt3__110shared_ptrINS0_17BasePipelineStateEEE, 
                       __ZN3ggl20TransitNodeColorized17BasePipelineSetupC2ERKNSt3__110shared_ptrINS0_17BasePipelineStateEEERKNS3_INS_17ConstantDataTypedINS_11TransitNode8SettingsEEEEEPNS_9Texture2DE, 
                       __ZN3ggl20TransitNodeColorized17BasePipelineSetupC2Ev, __ZN3ggl20TransitNodeColorized17BasePipelineState15typedReflectionEv, 
                       __ZN3ggl20TransitNodeColorized17BasePipelineStateC1ERKNS_20ColorBufferOperationENS_18RenderTargetFormatE, 
                       __ZN3ggl20TransitNodeColorized17BasePipelineStateC1ERKNSt3__110shared_ptrINS_26TransitNodeColorizedShaderEEERKNS_20ColorBufferOperationENS_18RenderTargetFormatE, 
                       __ZN3ggl20TransitNodeColorized17BasePipelineStateC2ERKNS_20ColorBufferOperationENS_18RenderTargetFormatE, 
                       __ZN3ggl20TransitNodeColorized17BasePipelineStateC2ERKNSt3__110shared_ptrINS_26TransitNodeColorizedShaderEEERKNS_20ColorBufferOperationENS_18RenderTargetFormatE, 
                       __ZN3ggl20TransitNodeRGBShader15typedReflectionEv, __ZN3ggl20TransitNodeRGBShader24vertexFunctionDescriptorEv, 
                       __ZN3ggl20TransitNodeRGBShader26fragmentFunctionDescriptorEv, 
                       __ZN3ggl20TransitNodeRGBShaderC1Ev, __ZN3ggl20TransitNodeRGBShaderC2Ev, 
                       __ZN3ggl21DiffuseBuildingShader15typedReflectionEv, __ZN3ggl21DiffuseBuildingShader24vertexFunctionDescriptorEv, 
                       __ZN3ggl21DiffuseBuildingShader26fragmentFunctionDescriptorEv, 
                       __ZN3ggl21DiffuseBuildingShaderC1Ev, __ZN3ggl21DiffuseBuildingShaderC2Ev, 
                       __ZN3ggl21DiffuseLandmarkShader15typedReflectionEv, __ZN3ggl21DiffuseLandmarkShader24vertexFunctionDescriptorEv, 
                       __ZN3ggl21DiffuseLandmarkShader26fragmentFunctionDescriptorEv, 
                       __ZN3ggl21DiffuseLandmarkShaderC1Ev, __ZN3ggl21DiffuseLandmarkShaderC2Ev, 
                       __ZN3ggl21FlyoverManeuverShader15typedReflectionEv, __ZN3ggl21FlyoverManeuverShader24vertexFunctionDescriptorEv, 
                       __ZN3ggl21FlyoverManeuverShader26fragmentFunctionDescriptorEv, 
                       __ZN3ggl21FlyoverManeuverShaderC1Ev, __ZN3ggl21FlyoverManeuverShaderC2Ev, 
                       __ZN3ggl21FlyoverNightDimShader15typedReflectionEv, __ZN3ggl21FlyoverNightDimShader24vertexFunctionDescriptorEv, 
                       __ZN3ggl21FlyoverNightDimShader26fragmentFunctionDescriptorEv, 
                       __ZN3ggl21FlyoverNightDimShaderC1Ev, __ZN3ggl21FlyoverNightDimShaderC2Ev, 
                       __ZN3ggl21FoggedDiffuseBuilding21BuildingPipelineSetup12buildingMeshEv, 
                       __ZN3ggl21FoggedDiffuseBuilding21BuildingPipelineSetup15setBuildingMeshEPKNS_14BuildingFacade12BuildingMeshE, 
                       __ZN3ggl21FoggedDiffuseBuilding21BuildingPipelineSetup15typedReflectionEv, 
                       __ZN3ggl21FoggedDiffuseBuilding21BuildingPipelineSetup16fadeConstantDataEv, 
                       __ZN3ggl21FoggedDiffuseBuilding21BuildingPipelineSetup16viewConstantDataEv, 
                       __ZN3ggl21FoggedDiffuseBuilding21BuildingPipelineSetup17scaleConstantDataEv, 
                       __ZN3ggl21FoggedDiffuseBuilding21BuildingPipelineSetup17styleConstantDataEv, 
                       __ZN3ggl21FoggedDiffuseBuilding21BuildingPipelineSetup18skyfogConstantDataEv, 
                       __ZN3ggl21FoggedDiffuseBuilding21BuildingPipelineSetup19setFadeConstantDataENSt3__110shared_ptrINS_17ConstantDataTypedINS_8Building4FadeEEEEE, 
                       __ZN3ggl21FoggedDiffuseBuilding21BuildingPipelineSetup19setViewConstantDataENSt3__110shared_ptrINS_17ConstantDataTypedINS_4Tile4ViewEEEEE, 
                       __ZN3ggl21FoggedDiffuseBuilding21BuildingPipelineSetup20gradientConstantDataEv, 
                       __ZN3ggl21FoggedDiffuseBuilding21BuildingPipelineSetup20lightingConstantDataEv, 
                       __ZN3ggl21FoggedDiffuseBuilding21BuildingPipelineSetup20setScaleConstantDataENSt3__110shared_ptrINS_17ConstantDataTypedINS_8Building5ScaleEEEEE, 
                       __ZN3ggl21FoggedDiffuseBuilding21BuildingPipelineSetup20setStyleConstantDataENSt3__110shared_ptrINS_17ConstantDataTypedINS_8Building5StyleEEEEE, 
                       __ZN3ggl21FoggedDiffuseBuilding21BuildingPipelineSetup21setSkyfogConstantDataENSt3__110shared_ptrINS_17ConstantDataTypedINS_3Fog6SkyfogEEEEE, 
                       __ZN3ggl21FoggedDiffuseBuilding21BuildingPipelineSetup23setGradientConstantDataENSt3__110shared_ptrINS_17ConstantDataTypedINS_8Building8GradientEEEEE, 
                       __ZN3ggl21FoggedDiffuseBuilding21BuildingPipelineSetup23setLightingConstantDataENSt3__110shared_ptrINS_17ConstantDataTypedINS_8Building8LightingEEEEE, 
                       __ZN3ggl21FoggedDiffuseBuilding21BuildingPipelineSetup8setStateERKNSt3__110shared_ptrINS0_21BuildingPipelineStateEEE, 
                       __ZN3ggl21FoggedDiffuseBuilding21BuildingPipelineSetupC1ERKNSt3__110shared_ptrINS0_21BuildingPipelineStateEEE, 
                       __ZN3ggl21FoggedDiffuseBuilding21BuildingPipelineSetupC1ERKNSt3__110shared_ptrINS0_21BuildingPipelineStateEEERKNS3_INS_17ConstantDataTypedINS_3Fog6SkyfogEEEEERKNS3_INS8_INS_4Tile4ViewEEEEERKNS3_INS8_INS_8Building5ScaleEEEEERKNS3_INS8_INSL_5StyleEEEEERKNS3_INS8_INSL_8GradientEEEEERKNS3_INS8_INSL_8LightingEEEEERKNS3_INS8_INSL_4FadeEEEEEPNS_9Texture2DE, 
                       __ZN3ggl21FoggedDiffuseBuilding21BuildingPipelineSetupC1Ev, 
                       __ZN3ggl21FoggedDiffuseBuilding21BuildingPipelineSetupC2ERKNSt3__110shared_ptrINS0_21BuildingPipelineStateEEE, 
                       __ZN3ggl21FoggedDiffuseBuilding21BuildingPipelineSetupC2ERKNSt3__110shared_ptrINS0_21BuildingPipelineStateEEERKNS3_INS_17ConstantDataTypedINS_3Fog6SkyfogEEEEERKNS3_INS8_INS_4Tile4ViewEEEEERKNS3_INS8_INS_8Building5ScaleEEEEERKNS3_INS8_INSL_5StyleEEEEERKNS3_INS8_INSL_8GradientEEEEERKNS3_INS8_INSL_8LightingEEEEERKNS3_INS8_INSL_4FadeEEEEEPNS_9Texture2DE, 
                       __ZN3ggl21FoggedDiffuseBuilding21BuildingPipelineSetupC2Ev, 
                       __ZN3ggl21FoggedDiffuseBuilding21BuildingPipelineState15typedReflectionEv, 
                       __ZN3ggl21FoggedDiffuseBuilding21BuildingPipelineStateC1ERKNS_20ColorBufferOperationENS_18RenderTargetFormatE, 
                       __ZN3ggl21FoggedDiffuseBuilding21BuildingPipelineStateC1ERKNSt3__110shared_ptrINS_27FoggedDiffuseBuildingShaderEEERKNS_20ColorBufferOperationENS_18RenderTargetFormatE, 
                       __ZN3ggl21FoggedDiffuseBuilding21BuildingPipelineStateC2ERKNS_20ColorBufferOperationENS_18RenderTargetFormatE, 
                       __ZN3ggl21FoggedDiffuseBuilding21BuildingPipelineStateC2ERKNSt3__110shared_ptrINS_27FoggedDiffuseBuildingShaderEEERKNS_20ColorBufferOperationENS_18RenderTargetFormatE, 
                       __ZN3ggl21FoggedDiffuseLandmark21LandmarkPipelineSetup12landmarkMeshEv, 
                       __ZN3ggl21FoggedDiffuseLandmark21LandmarkPipelineSetup15setLandmarkMeshEPKNS_8Landmark12LandmarkMeshE, 
                       __ZN3ggl21FoggedDiffuseLandmark21LandmarkPipelineSetup15typedReflectionEv, 
                       __ZN3ggl21FoggedDiffuseLandmark21LandmarkPipelineSetup16fadeConstantDataEv, 
                       __ZN3ggl21FoggedDiffuseLandmark21LandmarkPipelineSetup16viewConstantDataEv, 
                       __ZN3ggl21FoggedDiffuseLandmark21LandmarkPipelineSetup17scaleConstantDataEv, 
                       __ZN3ggl21FoggedDiffuseLandmark21LandmarkPipelineSetup17styleConstantDataEv, 
                       __ZN3ggl21FoggedDiffuseLandmark21LandmarkPipelineSetup18skyfogConstantDataEv, 
                       __ZN3ggl21FoggedDiffuseLandmark21LandmarkPipelineSetup19setFadeConstantDataENSt3__110shared_ptrINS_17ConstantDataTypedINS_8Building4FadeEEEEE, 
                       __ZN3ggl21FoggedDiffuseLandmark21LandmarkPipelineSetup19setViewConstantDataENSt3__110shared_ptrINS_17ConstantDataTypedINS_4Tile4ViewEEEEE, 
                       __ZN3ggl21FoggedDiffuseLandmark21LandmarkPipelineSetup20gradientConstantDataEv, 
                       __ZN3ggl21FoggedDiffuseLandmark21LandmarkPipelineSetup20lightingConstantDataEv, 
                       __ZN3ggl21FoggedDiffuseLandmark21LandmarkPipelineSetup20setScaleConstantDataENSt3__110shared_ptrINS_17ConstantDataTypedINS_8Building5ScaleEEEEE, 
                       __ZN3ggl21FoggedDiffuseLandmark21LandmarkPipelineSetup20setStyleConstantDataENSt3__110shared_ptrINS_17ConstantDataTypedINS_8Building5StyleEEEEE, 
                       __ZN3ggl21FoggedDiffuseLandmark21LandmarkPipelineSetup21setSkyfogConstantDataENSt3__110shared_ptrINS_17ConstantDataTypedINS_3Fog6SkyfogEEEEE, 
                       __ZN3ggl21FoggedDiffuseLandmark21LandmarkPipelineSetup23setGradientConstantDataENSt3__110shared_ptrINS_17ConstantDataTypedINS_8Building8GradientEEEEE, 
                       __ZN3ggl21FoggedDiffuseLandmark21LandmarkPipelineSetup23setLightingConstantDataENSt3__110shared_ptrINS_17ConstantDataTypedINS_8Building8LightingEEEEE, 
                       __ZN3ggl21FoggedDiffuseLandmark21LandmarkPipelineSetup8setStateERKNSt3__110shared_ptrINS0_21LandmarkPipelineStateEEE, 
                       __ZN3ggl21FoggedDiffuseLandmark21LandmarkPipelineSetupC1ERKNSt3__110shared_ptrINS0_21LandmarkPipelineStateEEE, 
                       __ZN3ggl21FoggedDiffuseLandmark21LandmarkPipelineSetupC1ERKNSt3__110shared_ptrINS0_21LandmarkPipelineStateEEERKNS3_INS_17ConstantDataTypedINS_3Fog6SkyfogEEEEERKNS3_INS8_INS_4Tile4ViewEEEEERKNS3_INS8_INS_8Building5ScaleEEEEERKNS3_INS8_INSL_5StyleEEEEERKNS3_INS8_INSL_8GradientEEEEERKNS3_INS8_INSL_8LightingEEEEERKNS3_INS8_INSL_4FadeEEEEEPNS_9Texture2DE, 
                       __ZN3ggl21FoggedDiffuseLandmark21LandmarkPipelineSetupC1Ev, 
                       __ZN3ggl21FoggedDiffuseLandmark21LandmarkPipelineSetupC2ERKNSt3__110shared_ptrINS0_21LandmarkPipelineStateEEE, 
                       __ZN3ggl21FoggedDiffuseLandmark21LandmarkPipelineSetupC2ERKNSt3__110shared_ptrINS0_21LandmarkPipelineStateEEERKNS3_INS_17ConstantDataTypedINS_3Fog6SkyfogEEEEERKNS3_INS8_INS_4Tile4ViewEEEEERKNS3_INS8_INS_8Building5ScaleEEEEERKNS3_INS8_INSL_5StyleEEEEERKNS3_INS8_INSL_8GradientEEEEERKNS3_INS8_INSL_8LightingEEEEERKNS3_INS8_INSL_4FadeEEEEEPNS_9Texture2DE, 
                       __ZN3ggl21FoggedDiffuseLandmark21LandmarkPipelineSetupC2Ev, 
                       __ZN3ggl21FoggedDiffuseLandmark21LandmarkPipelineState15typedReflectionEv, 
                       __ZN3ggl21FoggedDiffuseLandmark21LandmarkPipelineStateC1ERKNS_20ColorBufferOperationENS_18RenderTargetFormatE, 
                       __ZN3ggl21FoggedDiffuseLandmark21LandmarkPipelineStateC1ERKNSt3__110shared_ptrINS_27FoggedDiffuseLandmarkShaderEEERKNS_20ColorBufferOperationENS_18RenderTargetFormatE, 
                       __ZN3ggl21FoggedDiffuseLandmark21LandmarkPipelineStateC2ERKNS_20ColorBufferOperationENS_18RenderTargetFormatE, 
                       __ZN3ggl21FoggedDiffuseLandmark21LandmarkPipelineStateC2ERKNSt3__110shared_ptrINS_27FoggedDiffuseLandmarkShaderEEERKNS_20ColorBufferOperationENS_18RenderTargetFormatE, 
                       __ZN3ggl21PatternedRibbonShader15typedReflectionEv, __ZN3ggl21PatternedRibbonShader24vertexFunctionDescriptorEv, 
                       __ZN3ggl21PatternedRibbonShader26fragmentFunctionDescriptorEv, 
                       __ZN3ggl21PatternedRibbonShaderC1Ev, __ZN3ggl21PatternedRibbonShaderC2Ev, 
                       __ZN3ggl21PolygonAnimatableFill17MeshPipelineSetup11setMeshMeshEPKNS_11PolygonBase8MeshMeshE, 
                       __ZN3ggl21PolygonAnimatableFill17MeshPipelineSetup15typedReflectionEv, 
                       __ZN3ggl21PolygonAnimatableFill17MeshPipelineSetup16fillConstantDataEv, 
                       __ZN3ggl21PolygonAnimatableFill17MeshPipelineSetup16viewConstantDataEv, 
                       __ZN3ggl21PolygonAnimatableFill17MeshPipelineSetup19setFillConstantDataENSt3__110shared_ptrINS_17ConstantDataTypedINS0_4FillEEEEE, 
                       __ZN3ggl21PolygonAnimatableFill17MeshPipelineSetup19setViewConstantDataENSt3__110shared_ptrINS_17ConstantDataTypedINS_4Tile4ViewEEEEE, 
                       __ZN3ggl21PolygonAnimatableFill17MeshPipelineSetup19variantConstantDataEv, 
                       __ZN3ggl21PolygonAnimatableFill17MeshPipelineSetup22setVariantConstantDataENSt3__110shared_ptrINS_17ConstantDataTypedINS_17AnimatableTexture7VariantEEEEE, 
                       __ZN3ggl21PolygonAnimatableFill17MeshPipelineSetup8meshMeshEv, 
                       __ZN3ggl21PolygonAnimatableFill17MeshPipelineSetup8setStateERKNSt3__110shared_ptrINS0_17MeshPipelineStateEEE, 
                       __ZN3ggl21PolygonAnimatableFill17MeshPipelineSetupC1ERKNSt3__110shared_ptrINS0_17MeshPipelineStateEEE, 
                       __ZN3ggl21PolygonAnimatableFill17MeshPipelineSetupC1ERKNSt3__110shared_ptrINS0_17MeshPipelineStateEEERKNS3_INS_17ConstantDataTypedINS_4Tile4ViewEEEEERKNS3_INS8_INS0_4FillEEEEERKNS3_INS8_INS_17AnimatableTexture7VariantEEEEEPNS_9Texture2DESR_, 
                       __ZN3ggl21PolygonAnimatableFill17MeshPipelineSetupC1Ev, __ZN3ggl21PolygonAnimatableFill17MeshPipelineSetupC2ERKNSt3__110shared_ptrINS0_17MeshPipelineStateEEE, 
                       __ZN3ggl21PolygonAnimatableFill17MeshPipelineSetupC2ERKNSt3__110shared_ptrINS0_17MeshPipelineStateEEERKNS3_INS_17ConstantDataTypedINS_4Tile4ViewEEEEERKNS3_INS8_INS0_4FillEEEEERKNS3_INS8_INS_17AnimatableTexture7VariantEEEEEPNS_9Texture2DESR_, 
                       __ZN3ggl21PolygonAnimatableFill17MeshPipelineSetupC2Ev, __ZN3ggl21PolygonAnimatableFill17MeshPipelineState15typedReflectionEv, 
                       __ZN3ggl21PolygonAnimatableFill17MeshPipelineStateC1ERKNS_20ColorBufferOperationENS_18RenderTargetFormatE, 
                       __ZN3ggl21PolygonAnimatableFill17MeshPipelineStateC1ERKNSt3__110shared_ptrINS_27PolygonAnimatableFillShaderEEERKNS_20ColorBufferOperationENS_18RenderTargetFormatE, 
                       __ZN3ggl21PolygonAnimatableFill17MeshPipelineStateC2ERKNS_20ColorBufferOperationENS_18RenderTargetFormatE, 
                       __ZN3ggl21PolygonAnimatableFill17MeshPipelineStateC2ERKNSt3__110shared_ptrINS_27PolygonAnimatableFillShaderEEERKNS_20ColorBufferOperationENS_18RenderTargetFormatE, 
                       __ZN3ggl21PolygonAnimatableFill27CompressedMeshPipelineSetup15typedReflectionEv, 
                       __ZN3ggl21PolygonAnimatableFill27CompressedMeshPipelineSetup16fillConstantDataEv, 
                       __ZN3ggl21PolygonAnimatableFill27CompressedMeshPipelineSetup16viewConstantDataEv, 
                       __ZN3ggl21PolygonAnimatableFill27CompressedMeshPipelineSetup18compressedMeshMeshEv, 
                       __ZN3ggl21PolygonAnimatableFill27CompressedMeshPipelineSetup19setFillConstantDataENSt3__110shared_ptrINS_17ConstantDataTypedINS0_4FillEEEEE, 
                       __ZN3ggl21PolygonAnimatableFill27CompressedMeshPipelineSetup19setViewConstantDataENSt3__110shared_ptrINS_17ConstantDataTypedINS_4Tile4ViewEEEEE, 
                       __ZN3ggl21PolygonAnimatableFill27CompressedMeshPipelineSetup19variantConstantDataEv, 
                       __ZN3ggl21PolygonAnimatableFill27CompressedMeshPipelineSetup21setCompressedMeshMeshEPKNS_11PolygonBase18CompressedMeshMeshE, 
                       __ZN3ggl21PolygonAnimatableFill27CompressedMeshPipelineSetup22setVariantConstantDataENSt3__110shared_ptrINS_17ConstantDataTypedINS_17AnimatableTexture7VariantEEEEE, 
                       __ZN3ggl21PolygonAnimatableFill27CompressedMeshPipelineSetup8setStateERKNSt3__110shared_ptrINS0_27CompressedMeshPipelineStateEEE, 
                       __ZN3ggl21PolygonAnimatableFill27CompressedMeshPipelineSetupC1ERKNSt3__110shared_ptrINS0_27CompressedMeshPipelineStateEEE, 
                       __ZN3ggl21PolygonAnimatableFill27CompressedMeshPipelineSetupC1ERKNSt3__110shared_ptrINS0_27CompressedMeshPipelineStateEEERKNS3_INS_17ConstantDataTypedINS_4Tile4ViewEEEEERKNS3_INS8_INS0_4FillEEEEERKNS3_INS8_INS_17AnimatableTexture7VariantEEEEEPNS_9Texture2DESR_, 
                       __ZN3ggl21PolygonAnimatableFill27CompressedMeshPipelineSetupC1Ev, 
                       __ZN3ggl21PolygonAnimatableFill27CompressedMeshPipelineSetupC2ERKNSt3__110shared_ptrINS0_27CompressedMeshPipelineStateEEE, 
                       __ZN3ggl21PolygonAnimatableFill27CompressedMeshPipelineSetupC2ERKNSt3__110shared_ptrINS0_27CompressedMeshPipelineStateEEERKNS3_INS_17ConstantDataTypedINS_4Tile4ViewEEEEERKNS3_INS8_INS0_4FillEEEEERKNS3_INS8_INS_17AnimatableTexture7VariantEEEEEPNS_9Texture2DESR_, 
                       __ZN3ggl21PolygonAnimatableFill27CompressedMeshPipelineSetupC2Ev, 
                       __ZN3ggl21PolygonAnimatableFill27CompressedMeshPipelineState15typedReflectionEv, 
                       __ZN3ggl21PolygonAnimatableFill27CompressedMeshPipelineStateC1ERKNS_20ColorBufferOperationENS_18RenderTargetFormatE, 
                       __ZN3ggl21PolygonAnimatableFill27CompressedMeshPipelineStateC1ERKNSt3__110shared_ptrINS_27PolygonAnimatableFillShaderEEERKNS_20ColorBufferOperationENS_18RenderTargetFormatE, 
                       __ZN3ggl21PolygonAnimatableFill27CompressedMeshPipelineStateC2ERKNS_20ColorBufferOperationENS_18RenderTargetFormatE, 
                       __ZN3ggl21PolygonAnimatableFill27CompressedMeshPipelineStateC2ERKNSt3__110shared_ptrINS_27PolygonAnimatableFillShaderEEERKNS_20ColorBufferOperationENS_18RenderTargetFormatE, 
                       __ZN3ggl21PolygonAnimatableFill4Fill10reflectionEv, __ZN3ggl21PolygonShadowedStroke10DefaultVbo10reflectionEv, 
                       __ZN3ggl21PolygonShadowedStroke10ShadowPath10reflectionEv, 
                       __ZN3ggl21PolygonShadowedStroke14ShadowPathMeshC1EPKc, __ZN3ggl21PolygonShadowedStroke14ShadowPathMeshC1EPKcNSt3__110shared_ptrINS_15VertexDataTypedINS0_10DefaultVboEEEEENS5_INS_9IndexDataEEE, 
                       __ZN3ggl21PolygonShadowedStroke14ShadowPathMeshC2EPKc, __ZN3ggl21PolygonShadowedStroke14ShadowPathMeshC2EPKcNSt3__110shared_ptrINS_15VertexDataTypedINS0_10DefaultVboEEEEENS5_INS_9IndexDataEEE, 
                       __ZN3ggl21PolygonShadowedStroke23ShadowPathPipelineSetup14shadowPathMeshEv, 
                       __ZN3ggl21PolygonShadowedStroke23ShadowPathPipelineSetup15typedReflectionEv, 
                       __ZN3ggl21PolygonShadowedStroke23ShadowPathPipelineSetup16viewConstantDataEv, 
                       __ZN3ggl21PolygonShadowedStroke23ShadowPathPipelineSetup17setShadowPathMeshEPKNS0_14ShadowPathMeshE, 
                       __ZN3ggl21PolygonShadowedStroke23ShadowPathPipelineSetup19setViewConstantDataENSt3__110shared_ptrINS_17ConstantDataTypedINS_4Tile4ViewEEEEE, 
                       __ZN3ggl21PolygonShadowedStroke23ShadowPathPipelineSetup22shadowPathConstantDataEv, 
                       __ZN3ggl21PolygonShadowedStroke23ShadowPathPipelineSetup25setShadowPathConstantDataENSt3__110shared_ptrINS_17ConstantDataTypedINS0_10ShadowPathEEEEE, 
                       __ZN3ggl21PolygonShadowedStroke23ShadowPathPipelineSetup8setStateERKNSt3__110shared_ptrINS0_23ShadowPathPipelineStateEEE, 
                       __ZN3ggl21PolygonShadowedStroke23ShadowPathPipelineSetupC1ERKNSt3__110shared_ptrINS0_23ShadowPathPipelineStateEEE, 
                       __ZN3ggl21PolygonShadowedStroke23ShadowPathPipelineSetupC1ERKNSt3__110shared_ptrINS0_23ShadowPathPipelineStateEEERKNS3_INS_17ConstantDataTypedINS_4Tile4ViewEEEEERKNS3_INS8_INS0_10ShadowPathEEEEE, 
                       __ZN3ggl21PolygonShadowedStroke23ShadowPathPipelineSetupC1Ev, 
                       __ZN3ggl21PolygonShadowedStroke23ShadowPathPipelineSetupC2ERKNSt3__110shared_ptrINS0_23ShadowPathPipelineStateEEE, 
                       __ZN3ggl21PolygonShadowedStroke23ShadowPathPipelineSetupC2ERKNSt3__110shared_ptrINS0_23ShadowPathPipelineStateEEERKNS3_INS_17ConstantDataTypedINS_4Tile4ViewEEEEERKNS3_INS8_INS0_10ShadowPathEEEEE, 
                       __ZN3ggl21PolygonShadowedStroke23ShadowPathPipelineSetupC2Ev, 
                       __ZN3ggl21PolygonShadowedStroke23ShadowPathPipelineState15typedReflectionEv, 
                       __ZN3ggl21PolygonShadowedStroke23ShadowPathPipelineStateC1ERKNS_20ColorBufferOperationENS_18RenderTargetFormatE, 
                       __ZN3ggl21PolygonShadowedStroke23ShadowPathPipelineStateC1ERKNSt3__110shared_ptrINS_27PolygonShadowedStrokeShaderEEERKNS_20ColorBufferOperationENS_18RenderTargetFormatE, 
                       __ZN3ggl21PolygonShadowedStroke23ShadowPathPipelineStateC2ERKNS_20ColorBufferOperationENS_18RenderTargetFormatE, 
                       __ZN3ggl21PolygonShadowedStroke23ShadowPathPipelineStateC2ERKNSt3__110shared_ptrINS_27PolygonShadowedStrokeShaderEEERKNS_20ColorBufferOperationENS_18RenderTargetFormatE, 
                       __ZN3ggl21PrefilteredLineShader15typedReflectionEv, __ZN3ggl21PrefilteredLineShader24vertexFunctionDescriptorEv, 
                       __ZN3ggl21PrefilteredLineShader26fragmentFunctionDescriptorEv, 
                       __ZN3ggl21PrefilteredLineShaderC1Ev, __ZN3ggl21PrefilteredLineShaderC2Ev, 
                       __ZN3ggl21TextureWithBrightness17MeshPipelineSetup11setMeshMeshEPKNS_11TextureMesh8MeshMeshE, 
                       __ZN3ggl21TextureWithBrightness17MeshPipelineSetup15typedReflectionEv, 
                       __ZN3ggl21TextureWithBrightness17MeshPipelineSetup16viewConstantDataEv, 
                       __ZN3ggl21TextureWithBrightness17MeshPipelineSetup17styleConstantDataEv, 
                       __ZN3ggl21TextureWithBrightness17MeshPipelineSetup19setViewConstantDataENSt3__110shared_ptrINS_17ConstantDataTypedINS0_4ViewEEEEE, 
                       __ZN3ggl21TextureWithBrightness17MeshPipelineSetup20setStyleConstantDataENSt3__110shared_ptrINS_17ConstantDataTypedINS0_5StyleEEEEE, 
                       __ZN3ggl21TextureWithBrightness17MeshPipelineSetup8meshMeshEv, 
                       __ZN3ggl21TextureWithBrightness17MeshPipelineSetup8setStateERKNSt3__110shared_ptrINS0_17MeshPipelineStateEEE, 
                       __ZN3ggl21TextureWithBrightness17MeshPipelineSetupC1ERKNSt3__110shared_ptrINS0_17MeshPipelineStateEEE, 
                       __ZN3ggl21TextureWithBrightness17MeshPipelineSetupC1ERKNSt3__110shared_ptrINS0_17MeshPipelineStateEEERKNS3_INS_17ConstantDataTypedINS0_4ViewEEEEERKNS3_INS8_INS0_5StyleEEEEEPNS_9Texture2DE, 
                       __ZN3ggl21TextureWithBrightness17MeshPipelineSetupC1Ev, __ZN3ggl21TextureWithBrightness17MeshPipelineSetupC2ERKNSt3__110shared_ptrINS0_17MeshPipelineStateEEE, 
                       __ZN3ggl21TextureWithBrightness17MeshPipelineSetupC2ERKNSt3__110shared_ptrINS0_17MeshPipelineStateEEERKNS3_INS_17ConstantDataTypedINS0_4ViewEEEEERKNS3_INS8_INS0_5StyleEEEEEPNS_9Texture2DE, 
                       __ZN3ggl21TextureWithBrightness17MeshPipelineSetupC2Ev, __ZN3ggl21TextureWithBrightness17MeshPipelineState15typedReflectionEv, 
                       __ZN3ggl21TextureWithBrightness17MeshPipelineStateC1ERKNS_20ColorBufferOperationENS_18RenderTargetFormatE, 
                       __ZN3ggl21TextureWithBrightness17MeshPipelineStateC1ERKNSt3__110shared_ptrINS_27TextureWithBrightnessShaderEEERKNS_20ColorBufferOperationENS_18RenderTargetFormatE, 
                       __ZN3ggl21TextureWithBrightness17MeshPipelineStateC2ERKNS_20ColorBufferOperationENS_18RenderTargetFormatE, 
                       __ZN3ggl21TextureWithBrightness17MeshPipelineStateC2ERKNSt3__110shared_ptrINS_27TextureWithBrightnessShaderEEERKNS_20ColorBufferOperationENS_18RenderTargetFormatE, 
                       __ZN3ggl21TextureWithBrightness4View10reflectionEv, __ZN3ggl21TextureWithBrightness5Style10reflectionEv, 
                       __ZN3ggl21TileBaseSurfaceShader15typedReflectionEv, __ZN3ggl21TileBaseSurfaceShader24vertexFunctionDescriptorEv, 
                       __ZN3ggl21TileBaseSurfaceShader26fragmentFunctionDescriptorEv, 
                       __ZN3ggl21TileBaseSurfaceShaderC1Ev, __ZN3ggl21TileBaseSurfaceShaderC2Ev, 
                       __ZN3ggl21VenueWallEndCapShader15typedReflectionEv, __ZN3ggl21VenueWallEndCapShader24vertexFunctionDescriptorEv, 
                       __ZN3ggl21VenueWallEndCapShader26fragmentFunctionDescriptorEv, 
                       __ZN3ggl21VenueWallEndCapShaderC1Ev, __ZN3ggl21VenueWallEndCapShaderC2Ev, 
                       __ZN3ggl21VenueWallShadowShader15typedReflectionEv, __ZN3ggl21VenueWallShadowShader24vertexFunctionDescriptorEv, 
                       __ZN3ggl21VenueWallShadowShader26fragmentFunctionDescriptorEv, 
                       __ZN3ggl21VenueWallShadowShaderC1Ev, __ZN3ggl21VenueWallShadowShaderC2Ev, 
                       __ZN3ggl22BuildingTopDepthShader15typedReflectionEv, __ZN3ggl22BuildingTopDepthShader24vertexFunctionDescriptorEv, 
                       __ZN3ggl22BuildingTopDepthShader26fragmentFunctionDescriptorEv, 
                       __ZN3ggl22BuildingTopDepthShaderC1Ev, __ZN3ggl22BuildingTopDepthShaderC2Ev, 
                       __ZN3ggl22FoggedSpecularBuilding21BuildingPipelineSetup12buildingMeshEv, 
                       __ZN3ggl22FoggedSpecularBuilding21BuildingPipelineSetup15setBuildingMeshEPKNS_14BuildingFacade12BuildingMeshE, 
                       __ZN3ggl22FoggedSpecularBuilding21BuildingPipelineSetup15typedReflectionEv, 
                       __ZN3ggl22FoggedSpecularBuilding21BuildingPipelineSetup16fadeConstantDataEv, 
                       __ZN3ggl22FoggedSpecularBuilding21BuildingPipelineSetup16viewConstantDataEv, 
                       __ZN3ggl22FoggedSpecularBuilding21BuildingPipelineSetup17scaleConstantDataEv, 
                       __ZN3ggl22FoggedSpecularBuilding21BuildingPipelineSetup17styleConstantDataEv, 
                       __ZN3ggl22FoggedSpecularBuilding21BuildingPipelineSetup18skyfogConstantDataEv, 
                       __ZN3ggl22FoggedSpecularBuilding21BuildingPipelineSetup19setFadeConstantDataENSt3__110shared_ptrINS_17ConstantDataTypedINS_8Building4FadeEEEEE, 
                       __ZN3ggl22FoggedSpecularBuilding21BuildingPipelineSetup19setViewConstantDataENSt3__110shared_ptrINS_17ConstantDataTypedINS_4Tile4ViewEEEEE, 
                       __ZN3ggl22FoggedSpecularBuilding21BuildingPipelineSetup20gradientConstantDataEv, 
                       __ZN3ggl22FoggedSpecularBuilding21BuildingPipelineSetup20lightingConstantDataEv, 
                       __ZN3ggl22FoggedSpecularBuilding21BuildingPipelineSetup20setScaleConstantDataENSt3__110shared_ptrINS_17ConstantDataTypedINS_8Building5ScaleEEEEE, 
                       __ZN3ggl22FoggedSpecularBuilding21BuildingPipelineSetup20setStyleConstantDataENSt3__110shared_ptrINS_17ConstantDataTypedINS_8Building5StyleEEEEE, 
                       __ZN3ggl22FoggedSpecularBuilding21BuildingPipelineSetup21setSkyfogConstantDataENSt3__110shared_ptrINS_17ConstantDataTypedINS_3Fog6SkyfogEEEEE, 
                       __ZN3ggl22FoggedSpecularBuilding21BuildingPipelineSetup23setGradientConstantDataENSt3__110shared_ptrINS_17ConstantDataTypedINS_8Building8GradientEEEEE, 
                       __ZN3ggl22FoggedSpecularBuilding21BuildingPipelineSetup23setLightingConstantDataENSt3__110shared_ptrINS_17ConstantDataTypedINS_8Building8LightingEEEEE, 
                       __ZN3ggl22FoggedSpecularBuilding21BuildingPipelineSetup8setStateERKNSt3__110shared_ptrINS0_21BuildingPipelineStateEEE, 
                       __ZN3ggl22FoggedSpecularBuilding21BuildingPipelineSetupC1ERKNSt3__110shared_ptrINS0_21BuildingPipelineStateEEE, 
                       __ZN3ggl22FoggedSpecularBuilding21BuildingPipelineSetupC1ERKNSt3__110shared_ptrINS0_21BuildingPipelineStateEEERKNS3_INS_17ConstantDataTypedINS_3Fog6SkyfogEEEEERKNS3_INS8_INS_4Tile4ViewEEEEERKNS3_INS8_INS_8Building5ScaleEEEEERKNS3_INS8_INSL_5StyleEEEEERKNS3_INS8_INSL_8GradientEEEEERKNS3_INS8_INSL_8LightingEEEEERKNS3_INS8_INSL_4FadeEEEEEPNS_9Texture2DE, 
                       __ZN3ggl22FoggedSpecularBuilding21BuildingPipelineSetupC1Ev, 
                       __ZN3ggl22FoggedSpecularBuilding21BuildingPipelineSetupC2ERKNSt3__110shared_ptrINS0_21BuildingPipelineStateEEE, 
                       __ZN3ggl22FoggedSpecularBuilding21BuildingPipelineSetupC2ERKNSt3__110shared_ptrINS0_21BuildingPipelineStateEEERKNS3_INS_17ConstantDataTypedINS_3Fog6SkyfogEEEEERKNS3_INS8_INS_4Tile4ViewEEEEERKNS3_INS8_INS_8Building5ScaleEEEEERKNS3_INS8_INSL_5StyleEEEEERKNS3_INS8_INSL_8GradientEEEEERKNS3_INS8_INSL_8LightingEEEEERKNS3_INS8_INSL_4FadeEEEEEPNS_9Texture2DE, 
                       __ZN3ggl22FoggedSpecularBuilding21BuildingPipelineSetupC2Ev, 
                       __ZN3ggl22FoggedSpecularBuilding21BuildingPipelineState15typedReflectionEv, 
                       __ZN3ggl22FoggedSpecularBuilding21BuildingPipelineStateC1ERKNS_20ColorBufferOperationENS_18RenderTargetFormatE, 
                       __ZN3ggl22FoggedSpecularBuilding21BuildingPipelineStateC1ERKNSt3__110shared_ptrINS_28FoggedSpecularBuildingShaderEEERKNS_20ColorBufferOperationENS_18RenderTargetFormatE, 
                       __ZN3ggl22FoggedSpecularBuilding21BuildingPipelineStateC2ERKNS_20ColorBufferOperationENS_18RenderTargetFormatE, 
                       __ZN3ggl22FoggedSpecularBuilding21BuildingPipelineStateC2ERKNSt3__110shared_ptrINS_28FoggedSpecularBuildingShaderEEERKNS_20ColorBufferOperationENS_18RenderTargetFormatE, 
                       __ZN3ggl22FoggedSpecularLandmark21LandmarkPipelineSetup12landmarkMeshEv, 
                       __ZN3ggl22FoggedSpecularLandmark21LandmarkPipelineSetup15setLandmarkMeshEPKNS_8Landmark12LandmarkMeshE, 
                       __ZN3ggl22FoggedSpecularLandmark21LandmarkPipelineSetup15typedReflectionEv, 
                       __ZN3ggl22FoggedSpecularLandmark21LandmarkPipelineSetup16fadeConstantDataEv, 
                       __ZN3ggl22FoggedSpecularLandmark21LandmarkPipelineSetup16viewConstantDataEv, 
                       __ZN3ggl22FoggedSpecularLandmark21LandmarkPipelineSetup17scaleConstantDataEv, 
                       __ZN3ggl22FoggedSpecularLandmark21LandmarkPipelineSetup17styleConstantDataEv, 
                       __ZN3ggl22FoggedSpecularLandmark21LandmarkPipelineSetup18skyfogConstantDataEv, 
                       __ZN3ggl22FoggedSpecularLandmark21LandmarkPipelineSetup19setFadeConstantDataENSt3__110shared_ptrINS_17ConstantDataTypedINS_8Building4FadeEEEEE, 
                       __ZN3ggl22FoggedSpecularLandmark21LandmarkPipelineSetup19setViewConstantDataENSt3__110shared_ptrINS_17ConstantDataTypedINS_4Tile4ViewEEEEE, 
                       __ZN3ggl22FoggedSpecularLandmark21LandmarkPipelineSetup20gradientConstantDataEv, 
                       __ZN3ggl22FoggedSpecularLandmark21LandmarkPipelineSetup20lightingConstantDataEv, 
                       __ZN3ggl22FoggedSpecularLandmark21LandmarkPipelineSetup20setScaleConstantDataENSt3__110shared_ptrINS_17ConstantDataTypedINS_8Building5ScaleEEEEE, 
                       __ZN3ggl22FoggedSpecularLandmark21LandmarkPipelineSetup20setStyleConstantDataENSt3__110shared_ptrINS_17ConstantDataTypedINS_8Building5StyleEEEEE, 
                       __ZN3ggl22FoggedSpecularLandmark21LandmarkPipelineSetup21setSkyfogConstantDataENSt3__110shared_ptrINS_17ConstantDataTypedINS_3Fog6SkyfogEEEEE, 
                       __ZN3ggl22FoggedSpecularLandmark21LandmarkPipelineSetup23setGradientConstantDataENSt3__110shared_ptrINS_17ConstantDataTypedINS_8Building8GradientEEEEE, 
                       __ZN3ggl22FoggedSpecularLandmark21LandmarkPipelineSetup23setLightingConstantDataENSt3__110shared_ptrINS_17ConstantDataTypedINS_8Building8LightingEEEEE, 
                       __ZN3ggl22FoggedSpecularLandmark21LandmarkPipelineSetup8setStateERKNSt3__110shared_ptrINS0_21LandmarkPipelineStateEEE, 
                       __ZN3ggl22FoggedSpecularLandmark21LandmarkPipelineSetupC1ERKNSt3__110shared_ptrINS0_21LandmarkPipelineStateEEE, 
                       __ZN3ggl22FoggedSpecularLandmark21LandmarkPipelineSetupC1ERKNSt3__110shared_ptrINS0_21LandmarkPipelineStateEEERKNS3_INS_17ConstantDataTypedINS_3Fog6SkyfogEEEEERKNS3_INS8_INS_4Tile4ViewEEEEERKNS3_INS8_INS_8Building5ScaleEEEEERKNS3_INS8_INSL_5StyleEEEEERKNS3_INS8_INSL_8GradientEEEEERKNS3_INS8_INSL_8LightingEEEEERKNS3_INS8_INSL_4FadeEEEEEPNS_9Texture2DE, 
                       __ZN3ggl22FoggedSpecularLandmark21LandmarkPipelineSetupC1Ev, 
                       __ZN3ggl22FoggedSpecularLandmark21LandmarkPipelineSetupC2ERKNSt3__110shared_ptrINS0_21LandmarkPipelineStateEEE, 
                       __ZN3ggl22FoggedSpecularLandmark21LandmarkPipelineSetupC2ERKNSt3__110shared_ptrINS0_21LandmarkPipelineStateEEERKNS3_INS_17ConstantDataTypedINS_3Fog6SkyfogEEEEERKNS3_INS8_INS_4Tile4ViewEEEEERKNS3_INS8_INS_8Building5ScaleEEEEERKNS3_INS8_INSL_5StyleEEEEERKNS3_INS8_INSL_8GradientEEEEERKNS3_INS8_INSL_8LightingEEEEERKNS3_INS8_INSL_4FadeEEEEEPNS_9Texture2DE, 
                       __ZN3ggl22FoggedSpecularLandmark21LandmarkPipelineSetupC2Ev, 
                       __ZN3ggl22FoggedSpecularLandmark21LandmarkPipelineState15typedReflectionEv, 
                       __ZN3ggl22FoggedSpecularLandmark21LandmarkPipelineStateC1ERKNS_20ColorBufferOperationENS_18RenderTargetFormatE, 
                       __ZN3ggl22FoggedSpecularLandmark21LandmarkPipelineStateC1ERKNSt3__110shared_ptrINS_28FoggedSpecularLandmarkShaderEEERKNS_20ColorBufferOperationENS_18RenderTargetFormatE, 
                       __ZN3ggl22FoggedSpecularLandmark21LandmarkPipelineStateC2ERKNS_20ColorBufferOperationENS_18RenderTargetFormatE, 
                       __ZN3ggl22FoggedSpecularLandmark21LandmarkPipelineStateC2ERKNSt3__110shared_ptrINS_28FoggedSpecularLandmarkShaderEEERKNS_20ColorBufferOperationENS_18RenderTargetFormatE, 
                       __ZN3ggl22OptimizedTrafficShader15typedReflectionEv, __ZN3ggl22OptimizedTrafficShader24vertexFunctionDescriptorEv, 
                       __ZN3ggl22OptimizedTrafficShader26fragmentFunctionDescriptorEv, 
                       __ZN3ggl22OptimizedTrafficShaderC1Ev, __ZN3ggl22OptimizedTrafficShaderC2Ev, 
                       __ZN3ggl22PolygonSolidFillShader15typedReflectionEv, __ZN3ggl22PolygonSolidFillShader24vertexFunctionDescriptorEv, 
                       __ZN3ggl22PolygonSolidFillShader26fragmentFunctionDescriptorEv, 
                       __ZN3ggl22PolygonSolidFillShaderC1Ev, __ZN3ggl22PolygonSolidFillShaderC2Ev, 
                       __ZN3ggl22RouteLineTrafficShader15typedReflectionEv, __ZN3ggl22RouteLineTrafficShader24vertexFunctionDescriptorEv, 
                       __ZN3ggl22RouteLineTrafficShader26fragmentFunctionDescriptorEv, 
                       __ZN3ggl22RouteLineTrafficShaderC1Ev, __ZN3ggl22RouteLineTrafficShaderC2Ev, 
                       __ZN3ggl22SpecularBuildingShader15typedReflectionEv, __ZN3ggl22SpecularBuildingShader24vertexFunctionDescriptorEv, 
                       __ZN3ggl22SpecularBuildingShader26fragmentFunctionDescriptorEv, 
                       __ZN3ggl22SpecularBuildingShaderC1Ev, __ZN3ggl22SpecularBuildingShaderC2Ev, 
                       __ZN3ggl22SpecularLandmarkShader15typedReflectionEv, __ZN3ggl22SpecularLandmarkShader24vertexFunctionDescriptorEv, 
                       __ZN3ggl22SpecularLandmarkShader26fragmentFunctionDescriptorEv, 
                       __ZN3ggl22SpecularLandmarkShaderC1Ev, __ZN3ggl22SpecularLandmarkShaderC2Ev, 
                       __ZN3ggl22TextureAlphaMaskShader15typedReflectionEv, __ZN3ggl22TextureAlphaMaskShader24vertexFunctionDescriptorEv, 
                       __ZN3ggl22TextureAlphaMaskShader26fragmentFunctionDescriptorEv, 
                       __ZN3ggl22TextureAlphaMaskShaderC1Ev, __ZN3ggl22TextureAlphaMaskShaderC2Ev, 
                       __ZN3ggl22VenueOpenToBelowShadow17MeshPipelineSetup11setMeshMeshEPKNS_19PolygonCommonStroke8MeshMeshE, 
                       __ZN3ggl22VenueOpenToBelowShadow17MeshPipelineSetup15typedReflectionEv, 
                       __ZN3ggl22VenueOpenToBelowShadow17MeshPipelineSetup16viewConstantDataEv, 
                       __ZN3ggl22VenueOpenToBelowShadow17MeshPipelineSetup17styleConstantDataEv, 
                       __ZN3ggl22VenueOpenToBelowShadow17MeshPipelineSetup19setViewConstantDataENSt3__110shared_ptrINS_17ConstantDataTypedINS_4Tile4ViewEEEEE, 
                       __ZN3ggl22VenueOpenToBelowShadow17MeshPipelineSetup20setStyleConstantDataENSt3__110shared_ptrINS_17ConstantDataTypedINS0_5StyleEEEEE, 
                       __ZN3ggl22VenueOpenToBelowShadow17MeshPipelineSetup8meshMeshEv, 
                       __ZN3ggl22VenueOpenToBelowShadow17MeshPipelineSetup8setStateERKNSt3__110shared_ptrINS0_17MeshPipelineStateEEE, 
                       __ZN3ggl22VenueOpenToBelowShadow17MeshPipelineSetupC1ERKNSt3__110shared_ptrINS0_17MeshPipelineStateEEE, 
                       __ZN3ggl22VenueOpenToBelowShadow17MeshPipelineSetupC1ERKNSt3__110shared_ptrINS0_17MeshPipelineStateEEERKNS3_INS_17ConstantDataTypedINS_4Tile4ViewEEEEERKNS3_INS8_INS0_5StyleEEEEE, 
                       __ZN3ggl22VenueOpenToBelowShadow17MeshPipelineSetupC1Ev, __ZN3ggl22VenueOpenToBelowShadow17MeshPipelineSetupC2ERKNSt3__110shared_ptrINS0_17MeshPipelineStateEEE, 
                       __ZN3ggl22VenueOpenToBelowShadow17MeshPipelineSetupC2ERKNSt3__110shared_ptrINS0_17MeshPipelineStateEEERKNS3_INS_17ConstantDataTypedINS_4Tile4ViewEEEEERKNS3_INS8_INS0_5StyleEEEEE, 
                       __ZN3ggl22VenueOpenToBelowShadow17MeshPipelineSetupC2Ev, __ZN3ggl22VenueOpenToBelowShadow17MeshPipelineState15typedReflectionEv, 
                       __ZN3ggl22VenueOpenToBelowShadow17MeshPipelineStateC1ERKNS_20ColorBufferOperationENS_18RenderTargetFormatE, 
                       __ZN3ggl22VenueOpenToBelowShadow17MeshPipelineStateC1ERKNSt3__110shared_ptrINS_28VenueOpenToBelowShadowShaderEEERKNS_20ColorBufferOperationENS_18RenderTargetFormatE, 
                       __ZN3ggl22VenueOpenToBelowShadow17MeshPipelineStateC2ERKNS_20ColorBufferOperationENS_18RenderTargetFormatE, 
                       __ZN3ggl22VenueOpenToBelowShadow17MeshPipelineStateC2ERKNSt3__110shared_ptrINS_28VenueOpenToBelowShadowShaderEEERKNS_20ColorBufferOperationENS_18RenderTargetFormatE, 
                       __ZN3ggl22VenueOpenToBelowShadow5Style10reflectionEv, __ZN3ggl23AnimatableTextureShader15typedReflectionEv, 
                       __ZN3ggl23AnimatableTextureShader24vertexFunctionDescriptorEv, 
                       __ZN3ggl23AnimatableTextureShader26fragmentFunctionDescriptorEv, 
                       __ZN3ggl23AnimatableTextureShaderC1Ev, __ZN3ggl23AnimatableTextureShaderC2Ev, 
                       __ZN3ggl23BuildingPointyRoofDepth21BuildingPipelineSetup12buildingMeshEv, 
                       __ZN3ggl23BuildingPointyRoofDepth21BuildingPipelineSetup15setBuildingMeshEPKNS_18BuildingPointyRoof12BuildingMeshE, 
                       __ZN3ggl23BuildingPointyRoofDepth21BuildingPipelineSetup15typedReflectionEv, 
                       __ZN3ggl23BuildingPointyRoofDepth21BuildingPipelineSetup16viewConstantDataEv, 
                       __ZN3ggl23BuildingPointyRoofDepth21BuildingPipelineSetup17scaleConstantDataEv, 
                       __ZN3ggl23BuildingPointyRoofDepth21BuildingPipelineSetup19setViewConstantDataENSt3__110shared_ptrINS_17ConstantDataTypedINS_4Tile4ViewEEEEE, 
                       __ZN3ggl23BuildingPointyRoofDepth21BuildingPipelineSetup20setScaleConstantDataENSt3__110shared_ptrINS_17ConstantDataTypedINS_8Building5ScaleEEEEE, 
                       __ZN3ggl23BuildingPointyRoofDepth21BuildingPipelineSetup8setStateERKNSt3__110shared_ptrINS0_21BuildingPipelineStateEEE, 
                       __ZN3ggl23BuildingPointyRoofDepth21BuildingPipelineSetupC1ERKNSt3__110shared_ptrINS0_21BuildingPipelineStateEEE, 
                       __ZN3ggl23BuildingPointyRoofDepth21BuildingPipelineSetupC1ERKNSt3__110shared_ptrINS0_21BuildingPipelineStateEEERKNS3_INS_17ConstantDataTypedINS_4Tile4ViewEEEEERKNS3_INS8_INS_8Building5ScaleEEEEE, 
                       __ZN3ggl23BuildingPointyRoofDepth21BuildingPipelineSetupC1Ev, 
                       __ZN3ggl23BuildingPointyRoofDepth21BuildingPipelineSetupC2ERKNSt3__110shared_ptrINS0_21BuildingPipelineStateEEE, 
                       __ZN3ggl23BuildingPointyRoofDepth21BuildingPipelineSetupC2ERKNSt3__110shared_ptrINS0_21BuildingPipelineStateEEERKNS3_INS_17ConstantDataTypedINS_4Tile4ViewEEEEERKNS3_INS8_INS_8Building5ScaleEEEEE, 
                       __ZN3ggl23BuildingPointyRoofDepth21BuildingPipelineSetupC2Ev, 
                       __ZN3ggl23BuildingPointyRoofDepth21BuildingPipelineState15typedReflectionEv, 
                       __ZN3ggl23BuildingPointyRoofDepth21BuildingPipelineStateC1ERKNS_20ColorBufferOperationENS_18RenderTargetFormatE, 
                       __ZN3ggl23BuildingPointyRoofDepth21BuildingPipelineStateC1ERKNSt3__110shared_ptrINS_29BuildingPointyRoofDepthShaderEEERKNS_20ColorBufferOperationENS_18RenderTargetFormatE, 
                       __ZN3ggl23BuildingPointyRoofDepth21BuildingPipelineStateC2ERKNS_20ColorBufferOperationENS_18RenderTargetFormatE, 
                       __ZN3ggl23BuildingPointyRoofDepth21BuildingPipelineStateC2ERKNSt3__110shared_ptrINS_29BuildingPointyRoofDepthShaderEEERKNS_20ColorBufferOperationENS_18RenderTargetFormatE, 
                       __ZN3ggl23ColorGlyphWithOuterHalo20DefaultPipelineSetup11defaultMeshEv, 
                       __ZN3ggl23ColorGlyphWithOuterHalo20DefaultPipelineSetup14setDefaultMeshEPKNS_5Glyph11DefaultMeshE, 
                       __ZN3ggl23ColorGlyphWithOuterHalo20DefaultPipelineSetup15typedReflectionEv, 
                       __ZN3ggl23ColorGlyphWithOuterHalo20DefaultPipelineSetup16viewConstantDataEv, 
                       __ZN3ggl23ColorGlyphWithOuterHalo20DefaultPipelineSetup19channelConstantDataEv, 
                       __ZN3ggl23ColorGlyphWithOuterHalo20DefaultPipelineSetup19setViewConstantDataENSt3__110shared_ptrINS_17ConstantDataTypedINS_5Glyph4ViewEEEEE, 
                       __ZN3ggl23ColorGlyphWithOuterHalo20DefaultPipelineSetup22setChannelConstantDataENSt3__110shared_ptrINS_17ConstantDataTypedINS_5Glyph7ChannelEEEEE, 
                       __ZN3ggl23ColorGlyphWithOuterHalo20DefaultPipelineSetup8setStateERKNSt3__110shared_ptrINS0_20DefaultPipelineStateEEE, 
                       __ZN3ggl23ColorGlyphWithOuterHalo20DefaultPipelineSetupC1ERKNSt3__110shared_ptrINS0_20DefaultPipelineStateEEE, 
                       __ZN3ggl23ColorGlyphWithOuterHalo20DefaultPipelineSetupC1ERKNSt3__110shared_ptrINS0_20DefaultPipelineStateEEERKNS3_INS_17ConstantDataTypedINS_5Glyph4ViewEEEEERKNS3_INS8_INS9_7ChannelEEEEEPNS_9Texture2DE, 
                       __ZN3ggl23ColorGlyphWithOuterHalo20DefaultPipelineSetupC1Ev, 
                       __ZN3ggl23ColorGlyphWithOuterHalo20DefaultPipelineSetupC2ERKNSt3__110shared_ptrINS0_20DefaultPipelineStateEEE, 
                       __ZN3ggl23ColorGlyphWithOuterHalo20DefaultPipelineSetupC2ERKNSt3__110shared_ptrINS0_20DefaultPipelineStateEEERKNS3_INS_17ConstantDataTypedINS_5Glyph4ViewEEEEERKNS3_INS8_INS9_7ChannelEEEEEPNS_9Texture2DE, 
                       __ZN3ggl23ColorGlyphWithOuterHalo20DefaultPipelineSetupC2Ev, 
                       __ZN3ggl23ColorGlyphWithOuterHalo20DefaultPipelineState15typedReflectionEv, 
                       __ZN3ggl23ColorGlyphWithOuterHalo20DefaultPipelineStateC1ERKNS_20ColorBufferOperationENS_18RenderTargetFormatE, 
                       __ZN3ggl23ColorGlyphWithOuterHalo20DefaultPipelineStateC1ERKNSt3__110shared_ptrINS_29ColorGlyphWithOuterHaloShaderEEERKNS_20ColorBufferOperationENS_18RenderTargetFormatE, 
                       __ZN3ggl23ColorGlyphWithOuterHalo20DefaultPipelineStateC2ERKNS_20ColorBufferOperationENS_18RenderTargetFormatE, 
                       __ZN3ggl23ColorGlyphWithOuterHalo20DefaultPipelineStateC2ERKNSt3__110shared_ptrINS_29ColorGlyphWithOuterHaloShaderEEERKNS_20ColorBufferOperationENS_18RenderTargetFormatE, 
                       __ZN3ggl23FlyoverMorphNightShader15typedReflectionEv, __ZN3ggl23FlyoverMorphNightShader24vertexFunctionDescriptorEv, 
                       __ZN3ggl23FlyoverMorphNightShader26fragmentFunctionDescriptorEv, 
                       __ZN3ggl23FlyoverMorphNightShaderC1Ev, __ZN3ggl23FlyoverMorphNightShaderC2Ev, 
                       __ZN3ggl23FlyoverRoadFillTextured20DefaultPipelineSetup11defaultMeshEv, 
                       __ZN3ggl23FlyoverRoadFillTextured20DefaultPipelineSetup14setDefaultMeshEPKNS_11FlyoverRoad11DefaultMeshE, 
                       __ZN3ggl23FlyoverRoadFillTextured20DefaultPipelineSetup15typedReflectionEv, 
                       __ZN3ggl23FlyoverRoadFillTextured20DefaultPipelineSetup16viewConstantDataEv, 
                       __ZN3ggl23FlyoverRoadFillTextured20DefaultPipelineSetup17blendConstantDataEv, 
                       __ZN3ggl23FlyoverRoadFillTextured20DefaultPipelineSetup17colorConstantDataEv, 
                       __ZN3ggl23FlyoverRoadFillTextured20DefaultPipelineSetup19setViewConstantDataENSt3__110shared_ptrINS_17ConstantDataTypedINS_13FlyoverRibbon4ViewEEEEE, 
                       __ZN3ggl23FlyoverRoadFillTextured20DefaultPipelineSetup20setBlendConstantDataENSt3__110shared_ptrINS_17ConstantDataTypedINS_11FlyoverRoad5BlendEEEEE, 
                       __ZN3ggl23FlyoverRoadFillTextured20DefaultPipelineSetup20setColorConstantDataENSt3__110shared_ptrINS_17ConstantDataTypedINS_11FlyoverRoad5ColorEEEEE, 
                       __ZN3ggl23FlyoverRoadFillTextured20DefaultPipelineSetup21transformConstantDataEv, 
                       __ZN3ggl23FlyoverRoadFillTextured20DefaultPipelineSetup24setTransformConstantDataENSt3__110shared_ptrINS_17ConstantDataTypedINS_11FlyoverRoad9TransformEEEEE, 
                       __ZN3ggl23FlyoverRoadFillTextured20DefaultPipelineSetup8setStateERKNSt3__110shared_ptrINS0_20DefaultPipelineStateEEE, 
                       __ZN3ggl23FlyoverRoadFillTextured20DefaultPipelineSetupC1ERKNSt3__110shared_ptrINS0_20DefaultPipelineStateEEE, 
                       __ZN3ggl23FlyoverRoadFillTextured20DefaultPipelineSetupC1ERKNSt3__110shared_ptrINS0_20DefaultPipelineStateEEERKNS3_INS_17ConstantDataTypedINS_13FlyoverRibbon4ViewEEEEERKNS3_INS8_INS_11FlyoverRoad5BlendEEEEERKNS3_INS8_INSF_9TransformEEEEERKNS3_INS8_INSF_5ColorEEEEEPNS_9Texture2DE, 
                       __ZN3ggl23FlyoverRoadFillTextured20DefaultPipelineSetupC1Ev, 
                       __ZN3ggl23FlyoverRoadFillTextured20DefaultPipelineSetupC2ERKNSt3__110shared_ptrINS0_20DefaultPipelineStateEEE, 
                       __ZN3ggl23FlyoverRoadFillTextured20DefaultPipelineSetupC2ERKNSt3__110shared_ptrINS0_20DefaultPipelineStateEEERKNS3_INS_17ConstantDataTypedINS_13FlyoverRibbon4ViewEEEEERKNS3_INS8_INS_11FlyoverRoad5BlendEEEEERKNS3_INS8_INSF_9TransformEEEEERKNS3_INS8_INSF_5ColorEEEEEPNS_9Texture2DE, 
                       __ZN3ggl23FlyoverRoadFillTextured20DefaultPipelineSetupC2Ev, 
                       __ZN3ggl23FlyoverRoadFillTextured20DefaultPipelineState15typedReflectionEv, 
                       __ZN3ggl23FlyoverRoadFillTextured20DefaultPipelineStateC1ERKNS_20ColorBufferOperationENS_18RenderTargetFormatE, 
                       __ZN3ggl23FlyoverRoadFillTextured20DefaultPipelineStateC1ERKNSt3__110shared_ptrINS_29FlyoverRoadFillTexturedShaderEEERKNS_20ColorBufferOperationENS_18RenderTargetFormatE, 
                       __ZN3ggl23FlyoverRoadFillTextured20DefaultPipelineStateC2ERKNS_20ColorBufferOperationENS_18RenderTargetFormatE, 
                       __ZN3ggl23FlyoverRoadFillTextured20DefaultPipelineStateC2ERKNSt3__110shared_ptrINS_29FlyoverRoadFillTexturedShaderEEERKNS_20ColorBufferOperationENS_18RenderTargetFormatE, 
                       __ZN3ggl23OuterShadowRibbonShader15typedReflectionEv, __ZN3ggl23OuterShadowRibbonShader24vertexFunctionDescriptorEv, 
                       __ZN3ggl23OuterShadowRibbonShader26fragmentFunctionDescriptorEv, 
                       __ZN3ggl23OuterShadowRibbonShaderC1Ev, __ZN3ggl23OuterShadowRibbonShaderC2Ev, 
                       __ZN3ggl23PolygonAnimatableStroke17AnimatablePolygon10reflectionEv, 
                       __ZN3ggl23PolygonAnimatableStroke17MeshPipelineSetup11setMeshMeshEPKNS_19PolygonCommonStroke8MeshMeshE, 
                       __ZN3ggl23PolygonAnimatableStroke17MeshPipelineSetup15typedReflectionEv, 
                       __ZN3ggl23PolygonAnimatableStroke17MeshPipelineSetup16viewConstantDataEv, 
                       __ZN3ggl23PolygonAnimatableStroke17MeshPipelineSetup19polygonConstantDataEv, 
                       __ZN3ggl23PolygonAnimatableStroke17MeshPipelineSetup19setViewConstantDataENSt3__110shared_ptrINS_17ConstantDataTypedINS_4Tile4ViewEEEEE, 
                       __ZN3ggl23PolygonAnimatableStroke17MeshPipelineSetup19variantConstantDataEv, 
                       __ZN3ggl23PolygonAnimatableStroke17MeshPipelineSetup22setPolygonConstantDataENSt3__110shared_ptrINS_17ConstantDataTypedINS_19PolygonCommonStroke7PolygonEEEEE, 
                       __ZN3ggl23PolygonAnimatableStroke17MeshPipelineSetup22setVariantConstantDataENSt3__110shared_ptrINS_17ConstantDataTypedINS_17AnimatableTexture7VariantEEEEE, 
                       __ZN3ggl23PolygonAnimatableStroke17MeshPipelineSetup29animatablePolygonConstantDataEv, 
                       __ZN3ggl23PolygonAnimatableStroke17MeshPipelineSetup32setAnimatablePolygonConstantDataENSt3__110shared_ptrINS_17ConstantDataTypedINS0_17AnimatablePolygonEEEEE, 
                       __ZN3ggl23PolygonAnimatableStroke17MeshPipelineSetup8meshMeshEv, 
                       __ZN3ggl23PolygonAnimatableStroke17MeshPipelineSetup8setStateERKNSt3__110shared_ptrINS0_17MeshPipelineStateEEE, 
                       __ZN3ggl23PolygonAnimatableStroke17MeshPipelineSetupC1ERKNSt3__110shared_ptrINS0_17MeshPipelineStateEEE, 
                       __ZN3ggl23PolygonAnimatableStroke17MeshPipelineSetupC1ERKNSt3__110shared_ptrINS0_17MeshPipelineStateEEERKNS3_INS_17ConstantDataTypedINS_4Tile4ViewEEEEERKNS3_INS8_INS_19PolygonCommonStroke7PolygonEEEEERKNS3_INS8_INS_17AnimatableTexture7VariantEEEEERKNS3_INS8_INS0_17AnimatablePolygonEEEEEPNS_9Texture2DESX_SX_, 
                       __ZN3ggl23PolygonAnimatableStroke17MeshPipelineSetupC1Ev, 
                       __ZN3ggl23PolygonAnimatableStroke17MeshPipelineSetupC2ERKNSt3__110shared_ptrINS0_17MeshPipelineStateEEE, 
                       __ZN3ggl23PolygonAnimatableStroke17MeshPipelineSetupC2ERKNSt3__110shared_ptrINS0_17MeshPipelineStateEEERKNS3_INS_17ConstantDataTypedINS_4Tile4ViewEEEEERKNS3_INS8_INS_19PolygonCommonStroke7PolygonEEEEERKNS3_INS8_INS_17AnimatableTexture7VariantEEEEERKNS3_INS8_INS0_17AnimatablePolygonEEEEEPNS_9Texture2DESX_SX_, 
                       __ZN3ggl23PolygonAnimatableStroke17MeshPipelineSetupC2Ev, 
                       __ZN3ggl23PolygonAnimatableStroke17MeshPipelineState15typedReflectionEv, 
                       __ZN3ggl23PolygonAnimatableStroke17MeshPipelineStateC1ERKNS_20ColorBufferOperationENS_18RenderTargetFormatE, 
                       __ZN3ggl23PolygonAnimatableStroke17MeshPipelineStateC1ERKNSt3__110shared_ptrINS_29PolygonAnimatableStrokeShaderEEERKNS_20ColorBufferOperationENS_18RenderTargetFormatE, 
                       __ZN3ggl23PolygonAnimatableStroke17MeshPipelineStateC2ERKNS_20ColorBufferOperationENS_18RenderTargetFormatE, 
                       __ZN3ggl23PolygonAnimatableStroke17MeshPipelineStateC2ERKNSt3__110shared_ptrINS_29PolygonAnimatableStrokeShaderEEERKNS_20ColorBufferOperationENS_18RenderTargetFormatE, 
                       __ZN3ggl23RenderTargetBlendShader15typedReflectionEv, __ZN3ggl23RenderTargetBlendShader24vertexFunctionDescriptorEv, 
                       __ZN3ggl23RenderTargetBlendShader26fragmentFunctionDescriptorEv, 
                       __ZN3ggl23RenderTargetBlendShaderC1Ev, __ZN3ggl23RenderTargetBlendShaderC2Ev, 
                       __ZN3ggl23TextureWithReverseAlpha12ReverseAlpha10reflectionEv, 
                       __ZN3ggl23TextureWithReverseAlpha20Pos2DUVPipelineSetup11pos2DUVMeshEv, 
                       __ZN3ggl23TextureWithReverseAlpha20Pos2DUVPipelineSetup14setPos2DUVMeshEPKNS_8Textured11Pos2DUVMeshE, 
                       __ZN3ggl23TextureWithReverseAlpha20Pos2DUVPipelineSetup15typedReflectionEv, 
                       __ZN3ggl23TextureWithReverseAlpha20Pos2DUVPipelineSetup16viewConstantDataEv, 
                       __ZN3ggl23TextureWithReverseAlpha20Pos2DUVPipelineSetup19setViewConstantDataENSt3__110shared_ptrINS_17ConstantDataTypedINS_4Tile4ViewEEEEE, 
                       __ZN3ggl23TextureWithReverseAlpha20Pos2DUVPipelineSetup24reverseAlphaConstantDataEv, 
                       __ZN3ggl23TextureWithReverseAlpha20Pos2DUVPipelineSetup27setReverseAlphaConstantDataENSt3__110shared_ptrINS_17ConstantDataTypedINS0_12ReverseAlphaEEEEE, 
                       __ZN3ggl23TextureWithReverseAlpha20Pos2DUVPipelineSetup8setStateERKNSt3__110shared_ptrINS0_20Pos2DUVPipelineStateEEE, 
                       __ZN3ggl23TextureWithReverseAlpha20Pos2DUVPipelineSetupC1ERKNSt3__110shared_ptrINS0_20Pos2DUVPipelineStateEEE, 
                       __ZN3ggl23TextureWithReverseAlpha20Pos2DUVPipelineSetupC1ERKNSt3__110shared_ptrINS0_20Pos2DUVPipelineStateEEERKNS3_INS_17ConstantDataTypedINS_4Tile4ViewEEEEERKNS3_INS8_INS0_12ReverseAlphaEEEEEPNS_9Texture2DE, 
                       __ZN3ggl23TextureWithReverseAlpha20Pos2DUVPipelineSetupC1Ev, 
                       __ZN3ggl23TextureWithReverseAlpha20Pos2DUVPipelineSetupC2ERKNSt3__110shared_ptrINS0_20Pos2DUVPipelineStateEEE, 
                       __ZN3ggl23TextureWithReverseAlpha20Pos2DUVPipelineSetupC2ERKNSt3__110shared_ptrINS0_20Pos2DUVPipelineStateEEERKNS3_INS_17ConstantDataTypedINS_4Tile4ViewEEEEERKNS3_INS8_INS0_12ReverseAlphaEEEEEPNS_9Texture2DE, 
                       __ZN3ggl23TextureWithReverseAlpha20Pos2DUVPipelineSetupC2Ev, 
                       __ZN3ggl23TextureWithReverseAlpha20Pos2DUVPipelineState15typedReflectionEv, 
                       __ZN3ggl23TextureWithReverseAlpha20Pos2DUVPipelineStateC1ERKNS_20ColorBufferOperationENS_18RenderTargetFormatE, 
                       __ZN3ggl23TextureWithReverseAlpha20Pos2DUVPipelineStateC1ERKNSt3__110shared_ptrINS_29TextureWithReverseAlphaShaderEEERKNS_20ColorBufferOperationENS_18RenderTargetFormatE, 
                       __ZN3ggl23TextureWithReverseAlpha20Pos2DUVPipelineStateC2ERKNS_20ColorBufferOperationENS_18RenderTargetFormatE, 
                       __ZN3ggl23TextureWithReverseAlpha20Pos2DUVPipelineStateC2ERKNSt3__110shared_ptrINS_29TextureWithReverseAlphaShaderEEERKNS_20ColorBufferOperationENS_18RenderTargetFormatE, 
                       __ZN3ggl23TransitLineRibbonShader15typedReflectionEv, __ZN3ggl23TransitLineRibbonShader24vertexFunctionDescriptorEv, 
                       __ZN3ggl23TransitLineRibbonShader26fragmentFunctionDescriptorEv, 
                       __ZN3ggl23TransitLineRibbonShaderC1Ev, __ZN3ggl23TransitLineRibbonShaderC2Ev, 
                       __ZN3ggl24BuildingFlatStrokeShader15typedReflectionEv, __ZN3ggl24BuildingFlatStrokeShader24vertexFunctionDescriptorEv, 
                       __ZN3ggl24BuildingFlatStrokeShader26fragmentFunctionDescriptorEv, 
                       __ZN3ggl24BuildingFlatStrokeShaderC1Ev, __ZN3ggl24BuildingFlatStrokeShaderC2Ev, 
                       __ZN3ggl24ColorGlyphWithNormalHalo20DefaultPipelineSetup11defaultMeshEv, 
                       __ZN3ggl24ColorGlyphWithNormalHalo20DefaultPipelineSetup14setDefaultMeshEPKNS_5Glyph11DefaultMeshE, 
                       __ZN3ggl24ColorGlyphWithNormalHalo20DefaultPipelineSetup15typedReflectionEv, 
                       __ZN3ggl24ColorGlyphWithNormalHalo20DefaultPipelineSetup16viewConstantDataEv, 
                       __ZN3ggl24ColorGlyphWithNormalHalo20DefaultPipelineSetup19channelConstantDataEv, 
                       __ZN3ggl24ColorGlyphWithNormalHalo20DefaultPipelineSetup19setViewConstantDataENSt3__110shared_ptrINS_17ConstantDataTypedINS_5Glyph4ViewEEEEE, 
                       __ZN3ggl24ColorGlyphWithNormalHalo20DefaultPipelineSetup22setChannelConstantDataENSt3__110shared_ptrINS_17ConstantDataTypedINS_5Glyph7ChannelEEEEE, 
                       __ZN3ggl24ColorGlyphWithNormalHalo20DefaultPipelineSetup8setStateERKNSt3__110shared_ptrINS0_20DefaultPipelineStateEEE, 
                       __ZN3ggl24ColorGlyphWithNormalHalo20DefaultPipelineSetupC1ERKNSt3__110shared_ptrINS0_20DefaultPipelineStateEEE, 
                       __ZN3ggl24ColorGlyphWithNormalHalo20DefaultPipelineSetupC1ERKNSt3__110shared_ptrINS0_20DefaultPipelineStateEEERKNS3_INS_17ConstantDataTypedINS_5Glyph4ViewEEEEERKNS3_INS8_INS9_7ChannelEEEEEPNS_9Texture2DE, 
                       __ZN3ggl24ColorGlyphWithNormalHalo20DefaultPipelineSetupC1Ev, 
                       __ZN3ggl24ColorGlyphWithNormalHalo20DefaultPipelineSetupC2ERKNSt3__110shared_ptrINS0_20DefaultPipelineStateEEE, 
                       __ZN3ggl24ColorGlyphWithNormalHalo20DefaultPipelineSetupC2ERKNSt3__110shared_ptrINS0_20DefaultPipelineStateEEERKNS3_INS_17ConstantDataTypedINS_5Glyph4ViewEEEEERKNS3_INS8_INS9_7ChannelEEEEEPNS_9Texture2DE, 
                       __ZN3ggl24ColorGlyphWithNormalHalo20DefaultPipelineSetupC2Ev, 
                       __ZN3ggl24ColorGlyphWithNormalHalo20DefaultPipelineState15typedReflectionEv, 
                       __ZN3ggl24ColorGlyphWithNormalHalo20DefaultPipelineStateC1ERKNS_20ColorBufferOperationENS_18RenderTargetFormatE, 
                       __ZN3ggl24ColorGlyphWithNormalHalo20DefaultPipelineStateC1ERKNSt3__110shared_ptrINS_30ColorGlyphWithNormalHaloShaderEEERKNS_20ColorBufferOperationENS_18RenderTargetFormatE, 
                       __ZN3ggl24ColorGlyphWithNormalHalo20DefaultPipelineStateC2ERKNS_20ColorBufferOperationENS_18RenderTargetFormatE, 
                       __ZN3ggl24ColorGlyphWithNormalHalo20DefaultPipelineStateC2ERKNSt3__110shared_ptrINS_30ColorGlyphWithNormalHaloShaderEEERKNS_20ColorBufferOperationENS_18RenderTargetFormatE, 
                       __ZN3ggl24DiffuseBuildingTopShader15typedReflectionEv, __ZN3ggl24DiffuseBuildingTopShader24vertexFunctionDescriptorEv, 
                       __ZN3ggl24DiffuseBuildingTopShader26fragmentFunctionDescriptorEv, 
                       __ZN3ggl24DiffuseBuildingTopShaderC1Ev, __ZN3ggl24DiffuseBuildingTopShaderC2Ev, 
                       __ZN3ggl24FlyoverMorphBorderShader15typedReflectionEv, __ZN3ggl24FlyoverMorphBorderShader24vertexFunctionDescriptorEv, 
                       __ZN3ggl24FlyoverMorphBorderShader26fragmentFunctionDescriptorEv, 
                       __ZN3ggl24FlyoverMorphBorderShaderC1Ev, __ZN3ggl24FlyoverMorphBorderShaderC2Ev, 
                       __ZN3ggl24FoggedDiffuseBuildingTop27CompressedMeshPipelineSetup15typedReflectionEv, 
                       __ZN3ggl24FoggedDiffuseBuildingTop27CompressedMeshPipelineSetup16fadeConstantDataEv, 
                       __ZN3ggl24FoggedDiffuseBuildingTop27CompressedMeshPipelineSetup16viewConstantDataEv, 
                       __ZN3ggl24FoggedDiffuseBuildingTop27CompressedMeshPipelineSetup17scaleConstantDataEv, 
                       __ZN3ggl24FoggedDiffuseBuildingTop27CompressedMeshPipelineSetup17styleConstantDataEv, 
                       __ZN3ggl24FoggedDiffuseBuildingTop27CompressedMeshPipelineSetup18compressedMeshMeshEv, 
                       __ZN3ggl24FoggedDiffuseBuildingTop27CompressedMeshPipelineSetup18skyfogConstantDataEv, 
                       __ZN3ggl24FoggedDiffuseBuildingTop27CompressedMeshPipelineSetup19setFadeConstantDataENSt3__110shared_ptrINS_17ConstantDataTypedINS_8Building4FadeEEEEE, 
                       __ZN3ggl24FoggedDiffuseBuildingTop27CompressedMeshPipelineSetup19setViewConstantDataENSt3__110shared_ptrINS_17ConstantDataTypedINS_4Tile4ViewEEEEE, 
                       __ZN3ggl24FoggedDiffuseBuildingTop27CompressedMeshPipelineSetup20gradientConstantDataEv, 
                       __ZN3ggl24FoggedDiffuseBuildingTop27CompressedMeshPipelineSetup20lightingConstantDataEv, 
                       __ZN3ggl24FoggedDiffuseBuildingTop27CompressedMeshPipelineSetup20setScaleConstantDataENSt3__110shared_ptrINS_17ConstantDataTypedINS_8Building5ScaleEEEEE, 
                       __ZN3ggl24FoggedDiffuseBuildingTop27CompressedMeshPipelineSetup20setStyleConstantDataENSt3__110shared_ptrINS_17ConstantDataTypedINS_8Building5StyleEEEEE, 
                       __ZN3ggl24FoggedDiffuseBuildingTop27CompressedMeshPipelineSetup21setCompressedMeshMeshEPKNS_11PolygonBase18CompressedMeshMeshE, 
                       __ZN3ggl24FoggedDiffuseBuildingTop27CompressedMeshPipelineSetup21setSkyfogConstantDataENSt3__110shared_ptrINS_17ConstantDataTypedINS_3Fog6SkyfogEEEEE, 
                       __ZN3ggl24FoggedDiffuseBuildingTop27CompressedMeshPipelineSetup23setGradientConstantDataENSt3__110shared_ptrINS_17ConstantDataTypedINS_8Building8GradientEEEEE, 
                       __ZN3ggl24FoggedDiffuseBuildingTop27CompressedMeshPipelineSetup23setLightingConstantDataENSt3__110shared_ptrINS_17ConstantDataTypedINS_8Building8LightingEEEEE, 
                       __ZN3ggl24FoggedDiffuseBuildingTop27CompressedMeshPipelineSetup8setStateERKNSt3__110shared_ptrINS0_27CompressedMeshPipelineStateEEE, 
                       __ZN3ggl24FoggedDiffuseBuildingTop27CompressedMeshPipelineSetupC1ERKNSt3__110shared_ptrINS0_27CompressedMeshPipelineStateEEE, 
                       __ZN3ggl24FoggedDiffuseBuildingTop27CompressedMeshPipelineSetupC1ERKNSt3__110shared_ptrINS0_27CompressedMeshPipelineStateEEERKNS3_INS_17ConstantDataTypedINS_3Fog6SkyfogEEEEERKNS3_INS8_INS_4Tile4ViewEEEEERKNS3_INS8_INS_8Building5ScaleEEEEERKNS3_INS8_INSL_5StyleEEEEERKNS3_INS8_INSL_8GradientEEEEERKNS3_INS8_INSL_8LightingEEEEERKNS3_INS8_INSL_4FadeEEEEE, 
                       __ZN3ggl24FoggedDiffuseBuildingTop27CompressedMeshPipelineSetupC1Ev, 
                       __ZN3ggl24FoggedDiffuseBuildingTop27CompressedMeshPipelineSetupC2ERKNSt3__110shared_ptrINS0_27CompressedMeshPipelineStateEEE, 
                       __ZN3ggl24FoggedDiffuseBuildingTop27CompressedMeshPipelineSetupC2ERKNSt3__110shared_ptrINS0_27CompressedMeshPipelineStateEEERKNS3_INS_17ConstantDataTypedINS_3Fog6SkyfogEEEEERKNS3_INS8_INS_4Tile4ViewEEEEERKNS3_INS8_INS_8Building5ScaleEEEEERKNS3_INS8_INSL_5StyleEEEEERKNS3_INS8_INSL_8GradientEEEEERKNS3_INS8_INSL_8LightingEEEEERKNS3_INS8_INSL_4FadeEEEEE, 
                       __ZN3ggl24FoggedDiffuseBuildingTop27CompressedMeshPipelineSetupC2Ev, 
                       __ZN3ggl24FoggedDiffuseBuildingTop27CompressedMeshPipelineState15typedReflectionEv, 
                       __ZN3ggl24FoggedDiffuseBuildingTop27CompressedMeshPipelineStateC1ERKNS_20ColorBufferOperationENS_18RenderTargetFormatE, 
                       __ZN3ggl24FoggedDiffuseBuildingTop27CompressedMeshPipelineStateC1ERKNSt3__110shared_ptrINS_30FoggedDiffuseBuildingTopShaderEEERKNS_20ColorBufferOperationENS_18RenderTargetFormatE, 
                       __ZN3ggl24FoggedDiffuseBuildingTop27CompressedMeshPipelineStateC2ERKNS_20ColorBufferOperationENS_18RenderTargetFormatE, 
                       __ZN3ggl24FoggedDiffuseBuildingTop27CompressedMeshPipelineStateC2ERKNSt3__110shared_ptrINS_30FoggedDiffuseBuildingTopShaderEEERKNS_20ColorBufferOperationENS_18RenderTargetFormatE, 
                       __ZN3ggl24GlyphWithOuterHaloShader15typedReflectionEv, __ZN3ggl24GlyphWithOuterHaloShader24vertexFunctionDescriptorEv, 
                       __ZN3ggl24GlyphWithOuterHaloShader26fragmentFunctionDescriptorEv, 
                       __ZN3ggl24GlyphWithOuterHaloShaderC1Ev, __ZN3ggl24GlyphWithOuterHaloShaderC2Ev, 
                       __ZN3ggl24PatternedRouteLineShader15typedReflectionEv, __ZN3ggl24PatternedRouteLineShader24vertexFunctionDescriptorEv, 
                       __ZN3ggl24PatternedRouteLineShader26fragmentFunctionDescriptorEv, 
                       __ZN3ggl24PatternedRouteLineShaderC1Ev, __ZN3ggl24PatternedRouteLineShaderC2Ev, 
                       __ZN3ggl24StyleTextureRibbonShader15typedReflectionEv, __ZN3ggl24StyleTextureRibbonShader24vertexFunctionDescriptorEv, 
                       __ZN3ggl24StyleTextureRibbonShader26fragmentFunctionDescriptorEv, 
                       __ZN3ggl24StyleTextureRibbonShaderC1Ev, __ZN3ggl24StyleTextureRibbonShaderC2Ev, 
                       __ZN3ggl25BuildingFacadeDepthShader15typedReflectionEv, __ZN3ggl25BuildingFacadeDepthShader24vertexFunctionDescriptorEv, 
                       __ZN3ggl25BuildingFacadeDepthShader26fragmentFunctionDescriptorEv, 
                       __ZN3ggl25BuildingFacadeDepthShaderC1Ev, __ZN3ggl25BuildingFacadeDepthShaderC2Ev, 
                       __ZN3ggl25DiffuseBuildingPointyRoof21BuildingPipelineSetup12buildingMeshEv, 
                       __ZN3ggl25DiffuseBuildingPointyRoof21BuildingPipelineSetup15setBuildingMeshEPKNS_18BuildingPointyRoof12BuildingMeshE, 
                       __ZN3ggl25DiffuseBuildingPointyRoof21BuildingPipelineSetup15typedReflectionEv, 
                       __ZN3ggl25DiffuseBuildingPointyRoof21BuildingPipelineSetup16fadeConstantDataEv, 
                       __ZN3ggl25DiffuseBuildingPointyRoof21BuildingPipelineSetup16viewConstantDataEv, 
                       __ZN3ggl25DiffuseBuildingPointyRoof21BuildingPipelineSetup17scaleConstantDataEv, 
                       __ZN3ggl25DiffuseBuildingPointyRoof21BuildingPipelineSetup17styleConstantDataEv, 
                       __ZN3ggl25DiffuseBuildingPointyRoof21BuildingPipelineSetup18skyfogConstantDataEv, 
                       __ZN3ggl25DiffuseBuildingPointyRoof21BuildingPipelineSetup19setFadeConstantDataENSt3__110shared_ptrINS_17ConstantDataTypedINS_8Building4FadeEEEEE, 
                       __ZN3ggl25DiffuseBuildingPointyRoof21BuildingPipelineSetup19setViewConstantDataENSt3__110shared_ptrINS_17ConstantDataTypedINS_4Tile4ViewEEEEE, 
                       __ZN3ggl25DiffuseBuildingPointyRoof21BuildingPipelineSetup20gradientConstantDataEv, 
                       __ZN3ggl25DiffuseBuildingPointyRoof21BuildingPipelineSetup20lightingConstantDataEv, 
                       __ZN3ggl25DiffuseBuildingPointyRoof21BuildingPipelineSetup20setScaleConstantDataENSt3__110shared_ptrINS_17ConstantDataTypedINS_8Building5ScaleEEEEE, 
                       __ZN3ggl25DiffuseBuildingPointyRoof21BuildingPipelineSetup20setStyleConstantDataENSt3__110shared_ptrINS_17ConstantDataTypedINS_8Building5StyleEEEEE, 
                       __ZN3ggl25DiffuseBuildingPointyRoof21BuildingPipelineSetup21setSkyfogConstantDataENSt3__110shared_ptrINS_17ConstantDataTypedINS_3Fog6SkyfogEEEEE, 
                       __ZN3ggl25DiffuseBuildingPointyRoof21BuildingPipelineSetup23setGradientConstantDataENSt3__110shared_ptrINS_17ConstantDataTypedINS_8Building8GradientEEEEE, 
                       __ZN3ggl25DiffuseBuildingPointyRoof21BuildingPipelineSetup23setLightingConstantDataENSt3__110shared_ptrINS_17ConstantDataTypedINS_8Building8LightingEEEEE, 
                       __ZN3ggl25DiffuseBuildingPointyRoof21BuildingPipelineSetup8setStateERKNSt3__110shared_ptrINS0_21BuildingPipelineStateEEE, 
                       __ZN3ggl25DiffuseBuildingPointyRoof21BuildingPipelineSetupC1ERKNSt3__110shared_ptrINS0_21BuildingPipelineStateEEE, 
                       __ZN3ggl25DiffuseBuildingPointyRoof21BuildingPipelineSetupC1ERKNSt3__110shared_ptrINS0_21BuildingPipelineStateEEERKNS3_INS_17ConstantDataTypedINS_3Fog6SkyfogEEEEERKNS3_INS8_INS_4Tile4ViewEEEEERKNS3_INS8_INS_8Building5ScaleEEEEERKNS3_INS8_INSL_5StyleEEEEERKNS3_INS8_INSL_8GradientEEEEERKNS3_INS8_INSL_8LightingEEEEERKNS3_INS8_INSL_4FadeEEEEE, 
                       __ZN3ggl25DiffuseBuildingPointyRoof21BuildingPipelineSetupC1Ev, 
                       __ZN3ggl25DiffuseBuildingPointyRoof21BuildingPipelineSetupC2ERKNSt3__110shared_ptrINS0_21BuildingPipelineStateEEE, 
                       __ZN3ggl25DiffuseBuildingPointyRoof21BuildingPipelineSetupC2ERKNSt3__110shared_ptrINS0_21BuildingPipelineStateEEERKNS3_INS_17ConstantDataTypedINS_3Fog6SkyfogEEEEERKNS3_INS8_INS_4Tile4ViewEEEEERKNS3_INS8_INS_8Building5ScaleEEEEERKNS3_INS8_INSL_5StyleEEEEERKNS3_INS8_INSL_8GradientEEEEERKNS3_INS8_INSL_8LightingEEEEERKNS3_INS8_INSL_4FadeEEEEE, 
                       __ZN3ggl25DiffuseBuildingPointyRoof21BuildingPipelineSetupC2Ev, 
                       __ZN3ggl25DiffuseBuildingPointyRoof21BuildingPipelineState15typedReflectionEv, 
                       __ZN3ggl25DiffuseBuildingPointyRoof21BuildingPipelineStateC1ERKNS_20ColorBufferOperationENS_18RenderTargetFormatE, 
                       __ZN3ggl25DiffuseBuildingPointyRoof21BuildingPipelineStateC1ERKNSt3__110shared_ptrINS_31DiffuseBuildingPointyRoofShaderEEERKNS_20ColorBufferOperationENS_18RenderTargetFormatE, 
                       __ZN3ggl25DiffuseBuildingPointyRoof21BuildingPipelineStateC2ERKNS_20ColorBufferOperationENS_18RenderTargetFormatE, 
                       __ZN3ggl25DiffuseBuildingPointyRoof21BuildingPipelineStateC2ERKNSt3__110shared_ptrINS_31DiffuseBuildingPointyRoofShaderEEERKNS_20ColorBufferOperationENS_18RenderTargetFormatE, 
                       __ZN3ggl25FlyoverBorderRibbonShader15typedReflectionEv, __ZN3ggl25FlyoverBorderRibbonShader24vertexFunctionDescriptorEv, 
                       __ZN3ggl25FlyoverBorderRibbonShader26fragmentFunctionDescriptorEv, 
                       __ZN3ggl25FlyoverBorderRibbonShaderC1Ev, __ZN3ggl25FlyoverBorderRibbonShaderC2Ev, 
                       __ZN3ggl25FlyoverRoadFillProcedural20DefaultPipelineSetup11defaultMeshEv, 
                       __ZN3ggl25FlyoverRoadFillProcedural20DefaultPipelineSetup14setDefaultMeshEPKNS_11FlyoverRoad11DefaultMeshE, 
                       __ZN3ggl25FlyoverRoadFillProcedural20DefaultPipelineSetup15typedReflectionEv, 
                       __ZN3ggl25FlyoverRoadFillProcedural20DefaultPipelineSetup16viewConstantDataEv, 
                       __ZN3ggl25FlyoverRoadFillProcedural20DefaultPipelineSetup17blendConstantDataEv, 
                       __ZN3ggl25FlyoverRoadFillProcedural20DefaultPipelineSetup17colorConstantDataEv, 
                       __ZN3ggl25FlyoverRoadFillProcedural20DefaultPipelineSetup19setViewConstantDataENSt3__110shared_ptrINS_17ConstantDataTypedINS_13FlyoverRibbon4ViewEEEEE, 
                       __ZN3ggl25FlyoverRoadFillProcedural20DefaultPipelineSetup20setBlendConstantDataENSt3__110shared_ptrINS_17ConstantDataTypedINS_11FlyoverRoad5BlendEEEEE, 
                       __ZN3ggl25FlyoverRoadFillProcedural20DefaultPipelineSetup20setColorConstantDataENSt3__110shared_ptrINS_17ConstantDataTypedINS_11FlyoverRoad5ColorEEEEE, 
                       __ZN3ggl25FlyoverRoadFillProcedural20DefaultPipelineSetup21transformConstantDataEv, 
                       __ZN3ggl25FlyoverRoadFillProcedural20DefaultPipelineSetup24setTransformConstantDataENSt3__110shared_ptrINS_17ConstantDataTypedINS_11FlyoverRoad9TransformEEEEE, 
                       __ZN3ggl25FlyoverRoadFillProcedural20DefaultPipelineSetup8setStateERKNSt3__110shared_ptrINS0_20DefaultPipelineStateEEE, 
                       __ZN3ggl25FlyoverRoadFillProcedural20DefaultPipelineSetupC1ERKNSt3__110shared_ptrINS0_20DefaultPipelineStateEEE, 
                       __ZN3ggl25FlyoverRoadFillProcedural20DefaultPipelineSetupC1ERKNSt3__110shared_ptrINS0_20DefaultPipelineStateEEERKNS3_INS_17ConstantDataTypedINS_13FlyoverRibbon4ViewEEEEERKNS3_INS8_INS_11FlyoverRoad5BlendEEEEERKNS3_INS8_INSF_9TransformEEEEERKNS3_INS8_INSF_5ColorEEEEE, 
                       __ZN3ggl25FlyoverRoadFillProcedural20DefaultPipelineSetupC1Ev, 
                       __ZN3ggl25FlyoverRoadFillProcedural20DefaultPipelineSetupC2ERKNSt3__110shared_ptrINS0_20DefaultPipelineStateEEE, 
                       __ZN3ggl25FlyoverRoadFillProcedural20DefaultPipelineSetupC2ERKNSt3__110shared_ptrINS0_20DefaultPipelineStateEEERKNS3_INS_17ConstantDataTypedINS_13FlyoverRibbon4ViewEEEEERKNS3_INS8_INS_11FlyoverRoad5BlendEEEEERKNS3_INS8_INSF_9TransformEEEEERKNS3_INS8_INSF_5ColorEEEEE, 
                       __ZN3ggl25FlyoverRoadFillProcedural20DefaultPipelineSetupC2Ev, 
                       __ZN3ggl25FlyoverRoadFillProcedural20DefaultPipelineState15typedReflectionEv, 
                       __ZN3ggl25FlyoverRoadFillProcedural20DefaultPipelineStateC1ERKNS_20ColorBufferOperationENS_18RenderTargetFormatE, 
                       __ZN3ggl25FlyoverRoadFillProcedural20DefaultPipelineStateC1ERKNSt3__110shared_ptrINS_31FlyoverRoadFillProceduralShaderEEERKNS_20ColorBufferOperationENS_18RenderTargetFormatE, 
                       __ZN3ggl25FlyoverRoadFillProcedural20DefaultPipelineStateC2ERKNS_20ColorBufferOperationENS_18RenderTargetFormatE, 
                       __ZN3ggl25FlyoverRoadFillProcedural20DefaultPipelineStateC2ERKNSt3__110shared_ptrINS_31FlyoverRoadFillProceduralShaderEEERKNS_20ColorBufferOperationENS_18RenderTargetFormatE, 
                       __ZN3ggl25FlyoverRoadStrokeTextured20DefaultPipelineSetup11defaultMeshEv, 
                       __ZN3ggl25FlyoverRoadStrokeTextured20DefaultPipelineSetup14setDefaultMeshEPKNS_11FlyoverRoad11DefaultMeshE, 
                       __ZN3ggl25FlyoverRoadStrokeTextured20DefaultPipelineSetup15typedReflectionEv, 
                       __ZN3ggl25FlyoverRoadStrokeTextured20DefaultPipelineSetup16viewConstantDataEv, 
                       __ZN3ggl25FlyoverRoadStrokeTextured20DefaultPipelineSetup17blendConstantDataEv, 
                       __ZN3ggl25FlyoverRoadStrokeTextured20DefaultPipelineSetup17colorConstantDataEv, 
                       __ZN3ggl25FlyoverRoadStrokeTextured20DefaultPipelineSetup19setViewConstantDataENSt3__110shared_ptrINS_17ConstantDataTypedINS_13FlyoverRibbon4ViewEEEEE, 
                       __ZN3ggl25FlyoverRoadStrokeTextured20DefaultPipelineSetup20setBlendConstantDataENSt3__110shared_ptrINS_17ConstantDataTypedINS_11FlyoverRoad5BlendEEEEE, 
                       __ZN3ggl25FlyoverRoadStrokeTextured20DefaultPipelineSetup20setColorConstantDataENSt3__110shared_ptrINS_17ConstantDataTypedINS_11FlyoverRoad5ColorEEEEE, 
                       __ZN3ggl25FlyoverRoadStrokeTextured20DefaultPipelineSetup21transformConstantDataEv, 
                       __ZN3ggl25FlyoverRoadStrokeTextured20DefaultPipelineSetup23ribbonExtraConstantDataEv, 
                       __ZN3ggl25FlyoverRoadStrokeTextured20DefaultPipelineSetup24setTransformConstantDataENSt3__110shared_ptrINS_17ConstantDataTypedINS_11FlyoverRoad9TransformEEEEE, 
                       __ZN3ggl25FlyoverRoadStrokeTextured20DefaultPipelineSetup26setRibbonExtraConstantDataENSt3__110shared_ptrINS_17ConstantDataTypedINS_11FlyoverRoad11RibbonExtraEEEEE, 
                       __ZN3ggl25FlyoverRoadStrokeTextured20DefaultPipelineSetup8setStateERKNSt3__110shared_ptrINS0_20DefaultPipelineStateEEE, 
                       __ZN3ggl25FlyoverRoadStrokeTextured20DefaultPipelineSetupC1ERKNSt3__110shared_ptrINS0_20DefaultPipelineStateEEE, 
                       __ZN3ggl25FlyoverRoadStrokeTextured20DefaultPipelineSetupC1ERKNSt3__110shared_ptrINS0_20DefaultPipelineStateEEERKNS3_INS_17ConstantDataTypedINS_13FlyoverRibbon4ViewEEEEERKNS3_INS8_INS_11FlyoverRoad5BlendEEEEERKNS3_INS8_INSF_9TransformEEEEERKNS3_INS8_INSF_5ColorEEEEERKNS3_INS8_INSF_11RibbonExtraEEEEEPNS_9Texture2DE, 
                       __ZN3ggl25FlyoverRoadStrokeTextured20DefaultPipelineSetupC1Ev, 
                       __ZN3ggl25FlyoverRoadStrokeTextured20DefaultPipelineSetupC2ERKNSt3__110shared_ptrINS0_20DefaultPipelineStateEEE, 
                       __ZN3ggl25FlyoverRoadStrokeTextured20DefaultPipelineSetupC2ERKNSt3__110shared_ptrINS0_20DefaultPipelineStateEEERKNS3_INS_17ConstantDataTypedINS_13FlyoverRibbon4ViewEEEEERKNS3_INS8_INS_11FlyoverRoad5BlendEEEEERKNS3_INS8_INSF_9TransformEEEEERKNS3_INS8_INSF_5ColorEEEEERKNS3_INS8_INSF_11RibbonExtraEEEEEPNS_9Texture2DE, 
                       __ZN3ggl25FlyoverRoadStrokeTextured20DefaultPipelineSetupC2Ev, 
                       __ZN3ggl25FlyoverRoadStrokeTextured20DefaultPipelineState15typedReflectionEv, 
                       __ZN3ggl25FlyoverRoadStrokeTextured20DefaultPipelineStateC1ERKNS_20ColorBufferOperationENS_18RenderTargetFormatE, 
                       __ZN3ggl25FlyoverRoadStrokeTextured20DefaultPipelineStateC1ERKNSt3__110shared_ptrINS_31FlyoverRoadStrokeTexturedShaderEEERKNS_20ColorBufferOperationENS_18RenderTargetFormatE, 
                       __ZN3ggl25FlyoverRoadStrokeTextured20DefaultPipelineStateC2ERKNS_20ColorBufferOperationENS_18RenderTargetFormatE, 
                       __ZN3ggl25FlyoverRoadStrokeTextured20DefaultPipelineStateC2ERKNSt3__110shared_ptrINS_31FlyoverRoadStrokeTexturedShaderEEERKNS_20ColorBufferOperationENS_18RenderTargetFormatE, 
                       __ZN3ggl25FoggedSpecularBuildingTop27CompressedMeshPipelineSetup15typedReflectionEv, 
                       __ZN3ggl25FoggedSpecularBuildingTop27CompressedMeshPipelineSetup16fadeConstantDataEv, 
                       __ZN3ggl25FoggedSpecularBuildingTop27CompressedMeshPipelineSetup16viewConstantDataEv, 
                       __ZN3ggl25FoggedSpecularBuildingTop27CompressedMeshPipelineSetup17scaleConstantDataEv, 
                       __ZN3ggl25FoggedSpecularBuildingTop27CompressedMeshPipelineSetup17styleConstantDataEv, 
                       __ZN3ggl25FoggedSpecularBuildingTop27CompressedMeshPipelineSetup18compressedMeshMeshEv, 
                       __ZN3ggl25FoggedSpecularBuildingTop27CompressedMeshPipelineSetup18skyfogConstantDataEv, 
                       __ZN3ggl25FoggedSpecularBuildingTop27CompressedMeshPipelineSetup19setFadeConstantDataENSt3__110shared_ptrINS_17ConstantDataTypedINS_8Building4FadeEEEEE, 
                       __ZN3ggl25FoggedSpecularBuildingTop27CompressedMeshPipelineSetup19setViewConstantDataENSt3__110shared_ptrINS_17ConstantDataTypedINS_4Tile4ViewEEEEE, 
                       __ZN3ggl25FoggedSpecularBuildingTop27CompressedMeshPipelineSetup20gradientConstantDataEv, 
                       __ZN3ggl25FoggedSpecularBuildingTop27CompressedMeshPipelineSetup20lightingConstantDataEv, 
                       __ZN3ggl25FoggedSpecularBuildingTop27CompressedMeshPipelineSetup20setScaleConstantDataENSt3__110shared_ptrINS_17ConstantDataTypedINS_8Building5ScaleEEEEE, 
                       __ZN3ggl25FoggedSpecularBuildingTop27CompressedMeshPipelineSetup20setStyleConstantDataENSt3__110shared_ptrINS_17ConstantDataTypedINS_8Building5StyleEEEEE, 
                       __ZN3ggl25FoggedSpecularBuildingTop27CompressedMeshPipelineSetup21setCompressedMeshMeshEPKNS_11PolygonBase18CompressedMeshMeshE, 
                       __ZN3ggl25FoggedSpecularBuildingTop27CompressedMeshPipelineSetup21setSkyfogConstantDataENSt3__110shared_ptrINS_17ConstantDataTypedINS_3Fog6SkyfogEEEEE, 
                       __ZN3ggl25FoggedSpecularBuildingTop27CompressedMeshPipelineSetup23setGradientConstantDataENSt3__110shared_ptrINS_17ConstantDataTypedINS_8Building8GradientEEEEE, 
                       __ZN3ggl25FoggedSpecularBuildingTop27CompressedMeshPipelineSetup23setLightingConstantDataENSt3__110shared_ptrINS_17ConstantDataTypedINS_8Building8LightingEEEEE, 
                       __ZN3ggl25FoggedSpecularBuildingTop27CompressedMeshPipelineSetup8setStateERKNSt3__110shared_ptrINS0_27CompressedMeshPipelineStateEEE, 
                       __ZN3ggl25FoggedSpecularBuildingTop27CompressedMeshPipelineSetupC1ERKNSt3__110shared_ptrINS0_27CompressedMeshPipelineStateEEE, 
                       __ZN3ggl25FoggedSpecularBuildingTop27CompressedMeshPipelineSetupC1ERKNSt3__110shared_ptrINS0_27CompressedMeshPipelineStateEEERKNS3_INS_17ConstantDataTypedINS_3Fog6SkyfogEEEEERKNS3_INS8_INS_4Tile4ViewEEEEERKNS3_INS8_INS_8Building5ScaleEEEEERKNS3_INS8_INSL_5StyleEEEEERKNS3_INS8_INSL_8GradientEEEEERKNS3_INS8_INSL_8LightingEEEEERKNS3_INS8_INSL_4FadeEEEEE, 
                       __ZN3ggl25FoggedSpecularBuildingTop27CompressedMeshPipelineSetupC1Ev, 
                       __ZN3ggl25FoggedSpecularBuildingTop27CompressedMeshPipelineSetupC2ERKNSt3__110shared_ptrINS0_27CompressedMeshPipelineStateEEE, 
                       __ZN3ggl25FoggedSpecularBuildingTop27CompressedMeshPipelineSetupC2ERKNSt3__110shared_ptrINS0_27CompressedMeshPipelineStateEEERKNS3_INS_17ConstantDataTypedINS_3Fog6SkyfogEEEEERKNS3_INS8_INS_4Tile4ViewEEEEERKNS3_INS8_INS_8Building5ScaleEEEEERKNS3_INS8_INSL_5StyleEEEEERKNS3_INS8_INSL_8GradientEEEEERKNS3_INS8_INSL_8LightingEEEEERKNS3_INS8_INSL_4FadeEEEEE, 
                       __ZN3ggl25FoggedSpecularBuildingTop27CompressedMeshPipelineSetupC2Ev, 
                       __ZN3ggl25FoggedSpecularBuildingTop27CompressedMeshPipelineState15typedReflectionEv, 
                       __ZN3ggl25FoggedSpecularBuildingTop27CompressedMeshPipelineStateC1ERKNS_20ColorBufferOperationENS_18RenderTargetFormatE, 
                       __ZN3ggl25FoggedSpecularBuildingTop27CompressedMeshPipelineStateC1ERKNSt3__110shared_ptrINS_31FoggedSpecularBuildingTopShaderEEERKNS_20ColorBufferOperationENS_18RenderTargetFormatE, 
                       __ZN3ggl25FoggedSpecularBuildingTop27CompressedMeshPipelineStateC2ERKNS_20ColorBufferOperationENS_18RenderTargetFormatE, 
                       __ZN3ggl25FoggedSpecularBuildingTop27CompressedMeshPipelineStateC2ERKNSt3__110shared_ptrINS_31FoggedSpecularBuildingTopShaderEEERKNS_20ColorBufferOperationENS_18RenderTargetFormatE, 
                       __ZN3ggl25GlyphWithNormalHaloShader15typedReflectionEv, __ZN3ggl25GlyphWithNormalHaloShader24vertexFunctionDescriptorEv, 
                       __ZN3ggl25GlyphWithNormalHaloShader26fragmentFunctionDescriptorEv, 
                       __ZN3ggl25GlyphWithNormalHaloShaderC1Ev, __ZN3ggl25GlyphWithNormalHaloShaderC2Ev, 
                       __ZN3ggl25RouteLineAlphaResetShader15typedReflectionEv, __ZN3ggl25RouteLineAlphaResetShader24vertexFunctionDescriptorEv, 
                       __ZN3ggl25RouteLineAlphaResetShader26fragmentFunctionDescriptorEv, 
                       __ZN3ggl25RouteLineAlphaResetShaderC1Ev, __ZN3ggl25RouteLineAlphaResetShaderC2Ev, 
                       __ZN3ggl25SpecularBuildingTopShader15typedReflectionEv, __ZN3ggl25SpecularBuildingTopShader24vertexFunctionDescriptorEv, 
                       __ZN3ggl25SpecularBuildingTopShader26fragmentFunctionDescriptorEv, 
                       __ZN3ggl25SpecularBuildingTopShaderC1Ev, __ZN3ggl25SpecularBuildingTopShaderC2Ev, 
                       __ZN3ggl25StenciledAlphaClearShader15typedReflectionEv, __ZN3ggl25StenciledAlphaClearShader24vertexFunctionDescriptorEv, 
                       __ZN3ggl25StenciledAlphaClearShader26fragmentFunctionDescriptorEv, 
                       __ZN3ggl25StenciledAlphaClearShaderC1Ev, __ZN3ggl25StenciledAlphaClearShaderC2Ev, 
                       __ZN3ggl25TexturedInnerShadowRibbon11ShadowStyle10reflectionEv, 
                       __ZN3ggl25TexturedInnerShadowRibbon13PipelineSetup11setBaseMeshEPKNS_6Ribbon8BaseMeshE, 
                       __ZN3ggl25TexturedInnerShadowRibbon13PipelineSetup15typedReflectionEv, 
                       __ZN3ggl25TexturedInnerShadowRibbon13PipelineSetup16viewConstantDataEv, 
                       __ZN3ggl25TexturedInnerShadowRibbon13PipelineSetup17noiseConstantDataEv, 
                       __ZN3ggl25TexturedInnerShadowRibbon13PipelineSetup17styleConstantDataEv, 
                       __ZN3ggl25TexturedInnerShadowRibbon13PipelineSetup19setViewConstantDataENSt3__110shared_ptrINS_17ConstantDataTypedINS_4Tile4ViewEEEEE, 
                       __ZN3ggl25TexturedInnerShadowRibbon13PipelineSetup20setNoiseConstantDataENSt3__110shared_ptrINS_17ConstantDataTypedINS_12OffsetRibbon5NoiseEEEEE, 
                       __ZN3ggl25TexturedInnerShadowRibbon13PipelineSetup20setStyleConstantDataENSt3__110shared_ptrINS_17ConstantDataTypedINS_12OffsetRibbon5StyleEEEEE, 
                       __ZN3ggl25TexturedInnerShadowRibbon13PipelineSetup23shadowStyleConstantDataEv, 
                       __ZN3ggl25TexturedInnerShadowRibbon13PipelineSetup26setShadowStyleConstantDataENSt3__110shared_ptrINS_17ConstantDataTypedINS0_11ShadowStyleEEEEE, 
                       __ZN3ggl25TexturedInnerShadowRibbon13PipelineSetup8baseMeshEv, 
                       __ZN3ggl25TexturedInnerShadowRibbon13PipelineSetup8setStateERKNSt3__110shared_ptrINS0_13PipelineStateEEE, 
                       __ZN3ggl25TexturedInnerShadowRibbon13PipelineSetupC1ERKNSt3__110shared_ptrINS0_13PipelineStateEEE, 
                       __ZN3ggl25TexturedInnerShadowRibbon13PipelineSetupC1ERKNSt3__110shared_ptrINS0_13PipelineStateEEERKNS3_INS_17ConstantDataTypedINS_4Tile4ViewEEEEERKNS3_INS8_INS_12OffsetRibbon5StyleEEEEERKNS3_INS8_INSF_5NoiseEEEEERKNS3_INS8_INS0_11ShadowStyleEEEEEPNS_9Texture2DESW_SW_, 
                       __ZN3ggl25TexturedInnerShadowRibbon13PipelineSetupC1Ev, __ZN3ggl25TexturedInnerShadowRibbon13PipelineSetupC2ERKNSt3__110shared_ptrINS0_13PipelineStateEEE, 
                       __ZN3ggl25TexturedInnerShadowRibbon13PipelineSetupC2ERKNSt3__110shared_ptrINS0_13PipelineStateEEERKNS3_INS_17ConstantDataTypedINS_4Tile4ViewEEEEERKNS3_INS8_INS_12OffsetRibbon5StyleEEEEERKNS3_INS8_INSF_5NoiseEEEEERKNS3_INS8_INS0_11ShadowStyleEEEEEPNS_9Texture2DESW_SW_, 
                       __ZN3ggl25TexturedInnerShadowRibbon13PipelineSetupC2Ev, __ZN3ggl25TexturedInnerShadowRibbon13PipelineState15typedReflectionEv, 
                       __ZN3ggl25TexturedInnerShadowRibbon13PipelineStateC1ERKNS_20ColorBufferOperationENS_18RenderTargetFormatE, 
                       __ZN3ggl25TexturedInnerShadowRibbon13PipelineStateC1ERKNSt3__110shared_ptrINS_31TexturedInnerShadowRibbonShaderEEERKNS_20ColorBufferOperationENS_18RenderTargetFormatE, 
                       __ZN3ggl25TexturedInnerShadowRibbon13PipelineStateC2ERKNS_20ColorBufferOperationENS_18RenderTargetFormatE, 
                       __ZN3ggl25TexturedInnerShadowRibbon13PipelineStateC2ERKNSt3__110shared_ptrINS_31TexturedInnerShadowRibbonShaderEEERKNS_20ColorBufferOperationENS_18RenderTargetFormatE, 
                       __ZN3ggl25TexturedSolidRibbonShader15typedReflectionEv, __ZN3ggl25TexturedSolidRibbonShader24vertexFunctionDescriptorEv, 
                       __ZN3ggl25TexturedSolidRibbonShader26fragmentFunctionDescriptorEv, 
                       __ZN3ggl25TexturedSolidRibbonShaderC1Ev, __ZN3ggl25TexturedSolidRibbonShaderC2Ev, 
                       __ZN3ggl26SpecularBuildingPointyRoof21BuildingPipelineSetup12buildingMeshEv, 
                       __ZN3ggl26SpecularBuildingPointyRoof21BuildingPipelineSetup15setBuildingMeshEPKNS_18BuildingPointyRoof12BuildingMeshE, 
                       __ZN3ggl26SpecularBuildingPointyRoof21BuildingPipelineSetup15typedReflectionEv, 
                       __ZN3ggl26SpecularBuildingPointyRoof21BuildingPipelineSetup16fadeConstantDataEv, 
                       __ZN3ggl26SpecularBuildingPointyRoof21BuildingPipelineSetup16viewConstantDataEv, 
                       __ZN3ggl26SpecularBuildingPointyRoof21BuildingPipelineSetup17scaleConstantDataEv, 
                       __ZN3ggl26SpecularBuildingPointyRoof21BuildingPipelineSetup17styleConstantDataEv, 
                       __ZN3ggl26SpecularBuildingPointyRoof21BuildingPipelineSetup18skyfogConstantDataEv, 
                       __ZN3ggl26SpecularBuildingPointyRoof21BuildingPipelineSetup19setFadeConstantDataENSt3__110shared_ptrINS_17ConstantDataTypedINS_8Building4FadeEEEEE, 
                       __ZN3ggl26SpecularBuildingPointyRoof21BuildingPipelineSetup19setViewConstantDataENSt3__110shared_ptrINS_17ConstantDataTypedINS_4Tile4ViewEEEEE, 
                       __ZN3ggl26SpecularBuildingPointyRoof21BuildingPipelineSetup20gradientConstantDataEv, 
                       __ZN3ggl26SpecularBuildingPointyRoof21BuildingPipelineSetup20lightingConstantDataEv, 
                       __ZN3ggl26SpecularBuildingPointyRoof21BuildingPipelineSetup20setScaleConstantDataENSt3__110shared_ptrINS_17ConstantDataTypedINS_8Building5ScaleEEEEE, 
                       __ZN3ggl26SpecularBuildingPointyRoof21BuildingPipelineSetup20setStyleConstantDataENSt3__110shared_ptrINS_17ConstantDataTypedINS_8Building5StyleEEEEE, 
                       __ZN3ggl26SpecularBuildingPointyRoof21BuildingPipelineSetup21setSkyfogConstantDataENSt3__110shared_ptrINS_17ConstantDataTypedINS_3Fog6SkyfogEEEEE, 
                       __ZN3ggl26SpecularBuildingPointyRoof21BuildingPipelineSetup23setGradientConstantDataENSt3__110shared_ptrINS_17ConstantDataTypedINS_8Building8GradientEEEEE, 
                       __ZN3ggl26SpecularBuildingPointyRoof21BuildingPipelineSetup23setLightingConstantDataENSt3__110shared_ptrINS_17ConstantDataTypedINS_8Building8LightingEEEEE, 
                       __ZN3ggl26SpecularBuildingPointyRoof21BuildingPipelineSetup8setStateERKNSt3__110shared_ptrINS0_21BuildingPipelineStateEEE, 
                       __ZN3ggl26SpecularBuildingPointyRoof21BuildingPipelineSetupC1ERKNSt3__110shared_ptrINS0_21BuildingPipelineStateEEE, 
                       __ZN3ggl26SpecularBuildingPointyRoof21BuildingPipelineSetupC1ERKNSt3__110shared_ptrINS0_21BuildingPipelineStateEEERKNS3_INS_17ConstantDataTypedINS_3Fog6SkyfogEEEEERKNS3_INS8_INS_4Tile4ViewEEEEERKNS3_INS8_INS_8Building5ScaleEEEEERKNS3_INS8_INSL_5StyleEEEEERKNS3_INS8_INSL_8GradientEEEEERKNS3_INS8_INSL_8LightingEEEEERKNS3_INS8_INSL_4FadeEEEEE, 
                       __ZN3ggl26SpecularBuildingPointyRoof21BuildingPipelineSetupC1Ev, 
                       __ZN3ggl26SpecularBuildingPointyRoof21BuildingPipelineSetupC2ERKNSt3__110shared_ptrINS0_21BuildingPipelineStateEEE, 
                       __ZN3ggl26SpecularBuildingPointyRoof21BuildingPipelineSetupC2ERKNSt3__110shared_ptrINS0_21BuildingPipelineStateEEERKNS3_INS_17ConstantDataTypedINS_3Fog6SkyfogEEEEERKNS3_INS8_INS_4Tile4ViewEEEEERKNS3_INS8_INS_8Building5ScaleEEEEERKNS3_INS8_INSL_5StyleEEEEERKNS3_INS8_INSL_8GradientEEEEERKNS3_INS8_INSL_8LightingEEEEERKNS3_INS8_INSL_4FadeEEEEE, 
                       __ZN3ggl26SpecularBuildingPointyRoof21BuildingPipelineSetupC2Ev, 
                       __ZN3ggl26SpecularBuildingPointyRoof21BuildingPipelineState15typedReflectionEv, 
                       __ZN3ggl26SpecularBuildingPointyRoof21BuildingPipelineStateC1ERKNS_20ColorBufferOperationENS_18RenderTargetFormatE, 
                       __ZN3ggl26SpecularBuildingPointyRoof21BuildingPipelineStateC1ERKNSt3__110shared_ptrINS_32SpecularBuildingPointyRoofShaderEEERKNS_20ColorBufferOperationENS_18RenderTargetFormatE, 
                       __ZN3ggl26SpecularBuildingPointyRoof21BuildingPipelineStateC2ERKNS_20ColorBufferOperationENS_18RenderTargetFormatE, 
                       __ZN3ggl26SpecularBuildingPointyRoof21BuildingPipelineStateC2ERKNSt3__110shared_ptrINS_32SpecularBuildingPointyRoofShaderEEERKNS_20ColorBufferOperationENS_18RenderTargetFormatE, 
                       __ZN3ggl26TransitNodeColorizedShader15typedReflectionEv, __ZN3ggl26TransitNodeColorizedShader24vertexFunctionDescriptorEv, 
                       __ZN3ggl26TransitNodeColorizedShader26fragmentFunctionDescriptorEv, 
                       __ZN3ggl26TransitNodeColorizedShaderC1Ev, __ZN3ggl26TransitNodeColorizedShaderC2Ev, 
                       __ZN3ggl27AnimatedTexturedGroundCover24GroundCoverPipelineSetup15groundCoverMeshEv, 
                       __ZN3ggl27AnimatedTexturedGroundCover24GroundCoverPipelineSetup15typedReflectionEv, 
                       __ZN3ggl27AnimatedTexturedGroundCover24GroundCoverPipelineSetup16viewConstantDataEv, 
                       __ZN3ggl27AnimatedTexturedGroundCover24GroundCoverPipelineSetup18setGroundCoverMeshEPKNS_11GroundCover15GroundCoverMeshE, 
                       __ZN3ggl27AnimatedTexturedGroundCover24GroundCoverPipelineSetup19setViewConstantDataENSt3__110shared_ptrINS_17ConstantDataTypedINS_4Tile4ViewEEEEE, 
                       __ZN3ggl27AnimatedTexturedGroundCover24GroundCoverPipelineSetup21variationConstantDataEv, 
                       __ZN3ggl27AnimatedTexturedGroundCover24GroundCoverPipelineSetup24setVariationConstantDataENSt3__110shared_ptrINS_17ConstantDataTypedINS0_9VariationEEEEE, 
                       __ZN3ggl27AnimatedTexturedGroundCover24GroundCoverPipelineSetup8setStateERKNSt3__110shared_ptrINS0_24GroundCoverPipelineStateEEE, 
                       __ZN3ggl27AnimatedTexturedGroundCover24GroundCoverPipelineSetupC1ERKNSt3__110shared_ptrINS0_24GroundCoverPipelineStateEEE, 
                       __ZN3ggl27AnimatedTexturedGroundCover24GroundCoverPipelineSetupC1ERKNSt3__110shared_ptrINS0_24GroundCoverPipelineStateEEERKNS3_INS_17ConstantDataTypedINS_4Tile4ViewEEEEERKNS3_INS8_INS0_9VariationEEEEEPNS_9Texture2DESL_, 
                       __ZN3ggl27AnimatedTexturedGroundCover24GroundCoverPipelineSetupC1Ev, 
                       __ZN3ggl27AnimatedTexturedGroundCover24GroundCoverPipelineSetupC2ERKNSt3__110shared_ptrINS0_24GroundCoverPipelineStateEEE, 
                       __ZN3ggl27AnimatedTexturedGroundCover24GroundCoverPipelineSetupC2ERKNSt3__110shared_ptrINS0_24GroundCoverPipelineStateEEERKNS3_INS_17ConstantDataTypedINS_4Tile4ViewEEEEERKNS3_INS8_INS0_9VariationEEEEEPNS_9Texture2DESL_, 
                       __ZN3ggl27AnimatedTexturedGroundCover24GroundCoverPipelineSetupC2Ev, 
                       __ZN3ggl27AnimatedTexturedGroundCover24GroundCoverPipelineState15typedReflectionEv, 
                       __ZN3ggl27AnimatedTexturedGroundCover24GroundCoverPipelineStateC1ERKNS_20ColorBufferOperationENS_18RenderTargetFormatE, 
                       __ZN3ggl27AnimatedTexturedGroundCover24GroundCoverPipelineStateC1ERKNSt3__110shared_ptrINS_33AnimatedTexturedGroundCoverShaderEEERKNS_20ColorBufferOperationENS_18RenderTargetFormatE, 
                       __ZN3ggl27AnimatedTexturedGroundCover24GroundCoverPipelineStateC2ERKNS_20ColorBufferOperationENS_18RenderTargetFormatE, 
                       __ZN3ggl27AnimatedTexturedGroundCover24GroundCoverPipelineStateC2ERKNSt3__110shared_ptrINS_33AnimatedTexturedGroundCoverShaderEEERKNS_20ColorBufferOperationENS_18RenderTargetFormatE, 
                       __ZN3ggl27AnimatedTexturedGroundCover9Variation10reflectionEv, 
                       __ZN3ggl27FlyoverRoadStrokeProcedural20DefaultPipelineSetup11defaultMeshEv, 
                       __ZN3ggl27FlyoverRoadStrokeProcedural20DefaultPipelineSetup14setDefaultMeshEPKNS_11FlyoverRoad11DefaultMeshE, 
                       __ZN3ggl27FlyoverRoadStrokeProcedural20DefaultPipelineSetup15typedReflectionEv, 
                       __ZN3ggl27FlyoverRoadStrokeProcedural20DefaultPipelineSetup16viewConstantDataEv, 
                       __ZN3ggl27FlyoverRoadStrokeProcedural20DefaultPipelineSetup17blendConstantDataEv, 
                       __ZN3ggl27FlyoverRoadStrokeProcedural20DefaultPipelineSetup17colorConstantDataEv, 
                       __ZN3ggl27FlyoverRoadStrokeProcedural20DefaultPipelineSetup19setViewConstantDataENSt3__110shared_ptrINS_17ConstantDataTypedINS_13FlyoverRibbon4ViewEEEEE, 
                       __ZN3ggl27FlyoverRoadStrokeProcedural20DefaultPipelineSetup20setBlendConstantDataENSt3__110shared_ptrINS_17ConstantDataTypedINS_11FlyoverRoad5BlendEEEEE, 
                       __ZN3ggl27FlyoverRoadStrokeProcedural20DefaultPipelineSetup20setColorConstantDataENSt3__110shared_ptrINS_17ConstantDataTypedINS_11FlyoverRoad5ColorEEEEE, 
                       __ZN3ggl27FlyoverRoadStrokeProcedural20DefaultPipelineSetup21transformConstantDataEv, 
                       __ZN3ggl27FlyoverRoadStrokeProcedural20DefaultPipelineSetup23ribbonExtraConstantDataEv, 
                       __ZN3ggl27FlyoverRoadStrokeProcedural20DefaultPipelineSetup24setTransformConstantDataENSt3__110shared_ptrINS_17ConstantDataTypedINS_11FlyoverRoad9TransformEEEEE, 
                       __ZN3ggl27FlyoverRoadStrokeProcedural20DefaultPipelineSetup26setRibbonExtraConstantDataENSt3__110shared_ptrINS_17ConstantDataTypedINS_11FlyoverRoad11RibbonExtraEEEEE, 
                       __ZN3ggl27FlyoverRoadStrokeProcedural20DefaultPipelineSetup8setStateERKNSt3__110shared_ptrINS0_20DefaultPipelineStateEEE, 
                       __ZN3ggl27FlyoverRoadStrokeProcedural20DefaultPipelineSetupC1ERKNSt3__110shared_ptrINS0_20DefaultPipelineStateEEE, 
                       __ZN3ggl27FlyoverRoadStrokeProcedural20DefaultPipelineSetupC1ERKNSt3__110shared_ptrINS0_20DefaultPipelineStateEEERKNS3_INS_17ConstantDataTypedINS_13FlyoverRibbon4ViewEEEEERKNS3_INS8_INS_11FlyoverRoad5BlendEEEEERKNS3_INS8_INSF_9TransformEEEEERKNS3_INS8_INSF_5ColorEEEEERKNS3_INS8_INSF_11RibbonExtraEEEEE, 
                       __ZN3ggl27FlyoverRoadStrokeProcedural20DefaultPipelineSetupC1Ev, 
                       __ZN3ggl27FlyoverRoadStrokeProcedural20DefaultPipelineSetupC2ERKNSt3__110shared_ptrINS0_20DefaultPipelineStateEEE, 
                       __ZN3ggl27FlyoverRoadStrokeProcedural20DefaultPipelineSetupC2ERKNSt3__110shared_ptrINS0_20DefaultPipelineStateEEERKNS3_INS_17ConstantDataTypedINS_13FlyoverRibbon4ViewEEEEERKNS3_INS8_INS_11FlyoverRoad5BlendEEEEERKNS3_INS8_INSF_9TransformEEEEERKNS3_INS8_INSF_5ColorEEEEERKNS3_INS8_INSF_11RibbonExtraEEEEE, 
                       __ZN3ggl27FlyoverRoadStrokeProcedural20DefaultPipelineSetupC2Ev, 
                       __ZN3ggl27FlyoverRoadStrokeProcedural20DefaultPipelineState15typedReflectionEv, 
                       __ZN3ggl27FlyoverRoadStrokeProcedural20DefaultPipelineStateC1ERKNS_20ColorBufferOperationENS_18RenderTargetFormatE, 
                       __ZN3ggl27FlyoverRoadStrokeProcedural20DefaultPipelineStateC1ERKNSt3__110shared_ptrINS_33FlyoverRoadStrokeProceduralShaderEEERKNS_20ColorBufferOperationENS_18RenderTargetFormatE, 
                       __ZN3ggl27FlyoverRoadStrokeProcedural20DefaultPipelineStateC2ERKNS_20ColorBufferOperationENS_18RenderTargetFormatE, 
                       __ZN3ggl27FlyoverRoadStrokeProcedural20DefaultPipelineStateC2ERKNSt3__110shared_ptrINS_33FlyoverRoadStrokeProceduralShaderEEERKNS_20ColorBufferOperationENS_18RenderTargetFormatE, 
                       __ZN3ggl27FoggedDiffuseBuildingShader15typedReflectionEv, 
                       __ZN3ggl27FoggedDiffuseBuildingShader24vertexFunctionDescriptorEv, 
                       __ZN3ggl27FoggedDiffuseBuildingShader26fragmentFunctionDescriptorEv, 
                       __ZN3ggl27FoggedDiffuseBuildingShaderC1Ev, __ZN3ggl27FoggedDiffuseBuildingShaderC2Ev, 
                       __ZN3ggl27FoggedDiffuseLandmarkShader15typedReflectionEv, 
                       __ZN3ggl27FoggedDiffuseLandmarkShader24vertexFunctionDescriptorEv, 
                       __ZN3ggl27FoggedDiffuseLandmarkShader26fragmentFunctionDescriptorEv, 
                       __ZN3ggl27FoggedDiffuseLandmarkShaderC1Ev, __ZN3ggl27FoggedDiffuseLandmarkShaderC2Ev, 
                       __ZN3ggl27PolygonAnimatableFillShader15typedReflectionEv, 
                       __ZN3ggl27PolygonAnimatableFillShader24vertexFunctionDescriptorEv, 
                       __ZN3ggl27PolygonAnimatableFillShader26fragmentFunctionDescriptorEv, 
                       __ZN3ggl27PolygonAnimatableFillShaderC1Ev, __ZN3ggl27PolygonAnimatableFillShaderC2Ev, 
                       __ZN3ggl27PolygonShadowedStrokeShader15typedReflectionEv, 
                       __ZN3ggl27PolygonShadowedStrokeShader24vertexFunctionDescriptorEv, 
                       __ZN3ggl27PolygonShadowedStrokeShader26fragmentFunctionDescriptorEv, 
                       __ZN3ggl27PolygonShadowedStrokeShaderC1Ev, __ZN3ggl27PolygonShadowedStrokeShaderC2Ev, 
                       __ZN3ggl27TextureWithBrightnessShader15typedReflectionEv, 
                       __ZN3ggl27TextureWithBrightnessShader24vertexFunctionDescriptorEv, 
                       __ZN3ggl27TextureWithBrightnessShader26fragmentFunctionDescriptorEv, 
                       __ZN3ggl27TextureWithBrightnessShaderC1Ev, __ZN3ggl27TextureWithBrightnessShaderC2Ev, 
                       __ZN3ggl27VenueOpenToBelowShadowAlpha17MeshPipelineSetup11setMeshMeshEPKNS_19PolygonCommonStroke8MeshMeshE, 
                       __ZN3ggl27VenueOpenToBelowShadowAlpha17MeshPipelineSetup15typedReflectionEv, 
                       __ZN3ggl27VenueOpenToBelowShadowAlpha17MeshPipelineSetup16viewConstantDataEv, 
                       __ZN3ggl27VenueOpenToBelowShadowAlpha17MeshPipelineSetup17styleConstantDataEv, 
                       __ZN3ggl27VenueOpenToBelowShadowAlpha17MeshPipelineSetup19setViewConstantDataENSt3__110shared_ptrINS_17ConstantDataTypedINS_4Tile4ViewEEEEE, 
                       __ZN3ggl27VenueOpenToBelowShadowAlpha17MeshPipelineSetup20setStyleConstantDataENSt3__110shared_ptrINS_17ConstantDataTypedINS_22VenueOpenToBelowShadow5StyleEEEEE, 
                       __ZN3ggl27VenueOpenToBelowShadowAlpha17MeshPipelineSetup8meshMeshEv, 
                       __ZN3ggl27VenueOpenToBelowShadowAlpha17MeshPipelineSetup8setStateERKNSt3__110shared_ptrINS0_17MeshPipelineStateEEE, 
                       __ZN3ggl27VenueOpenToBelowShadowAlpha17MeshPipelineSetupC1ERKNSt3__110shared_ptrINS0_17MeshPipelineStateEEE, 
                       __ZN3ggl27VenueOpenToBelowShadowAlpha17MeshPipelineSetupC1ERKNSt3__110shared_ptrINS0_17MeshPipelineStateEEERKNS3_INS_17ConstantDataTypedINS_4Tile4ViewEEEEERKNS3_INS8_INS_22VenueOpenToBelowShadow5StyleEEEEE, 
                       __ZN3ggl27VenueOpenToBelowShadowAlpha17MeshPipelineSetupC1Ev, 
                       __ZN3ggl27VenueOpenToBelowShadowAlpha17MeshPipelineSetupC2ERKNSt3__110shared_ptrINS0_17MeshPipelineStateEEE, 
                       __ZN3ggl27VenueOpenToBelowShadowAlpha17MeshPipelineSetupC2ERKNSt3__110shared_ptrINS0_17MeshPipelineStateEEERKNS3_INS_17ConstantDataTypedINS_4Tile4ViewEEEEERKNS3_INS8_INS_22VenueOpenToBelowShadow5StyleEEEEE, 
                       __ZN3ggl27VenueOpenToBelowShadowAlpha17MeshPipelineSetupC2Ev, 
                       __ZN3ggl27VenueOpenToBelowShadowAlpha17MeshPipelineState15typedReflectionEv, 
                       __ZN3ggl27VenueOpenToBelowShadowAlpha17MeshPipelineStateC1ERKNS_20ColorBufferOperationENS_18RenderTargetFormatE, 
                       __ZN3ggl27VenueOpenToBelowShadowAlpha17MeshPipelineStateC1ERKNSt3__110shared_ptrINS_33VenueOpenToBelowShadowAlphaShaderEEERKNS_20ColorBufferOperationENS_18RenderTargetFormatE, 
                       __ZN3ggl27VenueOpenToBelowShadowAlpha17MeshPipelineStateC2ERKNS_20ColorBufferOperationENS_18RenderTargetFormatE, 
                       __ZN3ggl27VenueOpenToBelowShadowAlpha17MeshPipelineStateC2ERKNSt3__110shared_ptrINS_33VenueOpenToBelowShadowAlphaShaderEEERKNS_20ColorBufferOperationENS_18RenderTargetFormatE, 
                       __ZN3ggl27VerticalVenue3DStrokeShader15typedReflectionEv, 
                       __ZN3ggl27VerticalVenue3DStrokeShader24vertexFunctionDescriptorEv, 
                       __ZN3ggl27VerticalVenue3DStrokeShader26fragmentFunctionDescriptorEv, 
                       __ZN3ggl27VerticalVenue3DStrokeShaderC1Ev, __ZN3ggl27VerticalVenue3DStrokeShaderC2Ev, 
                       __ZN3ggl28FoggedSpecularBuildingShader15typedReflectionEv, 
                       __ZN3ggl28FoggedSpecularBuildingShader24vertexFunctionDescriptorEv, 
                       __ZN3ggl28FoggedSpecularBuildingShader26fragmentFunctionDescriptorEv, 
                       __ZN3ggl28FoggedSpecularBuildingShaderC1Ev, __ZN3ggl28FoggedSpecularBuildingShaderC2Ev, 
                       __ZN3ggl28FoggedSpecularLandmarkShader15typedReflectionEv, 
                       __ZN3ggl28FoggedSpecularLandmarkShader24vertexFunctionDescriptorEv, 
                       __ZN3ggl28FoggedSpecularLandmarkShader26fragmentFunctionDescriptorEv, 
                       __ZN3ggl28FoggedSpecularLandmarkShaderC1Ev, __ZN3ggl28FoggedSpecularLandmarkShaderC2Ev, 
                       __ZN3ggl28VenueOpenToBelowShadowShader15typedReflectionEv, 
                       __ZN3ggl28VenueOpenToBelowShadowShader24vertexFunctionDescriptorEv, 
                       __ZN3ggl28VenueOpenToBelowShadowShader26fragmentFunctionDescriptorEv, 
                       __ZN3ggl28VenueOpenToBelowShadowShaderC1Ev, __ZN3ggl28VenueOpenToBelowShadowShaderC2Ev, 
                       __ZN3ggl29BuildingPointyRoofDepthShader15typedReflectionEv, 
                       __ZN3ggl29BuildingPointyRoofDepthShader24vertexFunctionDescriptorEv, 
                       __ZN3ggl29BuildingPointyRoofDepthShader26fragmentFunctionDescriptorEv, 
                       __ZN3ggl29BuildingPointyRoofDepthShaderC1Ev, __ZN3ggl29BuildingPointyRoofDepthShaderC2Ev, 
                       __ZN3ggl29ColorGlyphWithOuterHaloShader15typedReflectionEv, 
                       __ZN3ggl29ColorGlyphWithOuterHaloShader24vertexFunctionDescriptorEv, 
                       __ZN3ggl29ColorGlyphWithOuterHaloShader26fragmentFunctionDescriptorEv, 
                       __ZN3ggl29ColorGlyphWithOuterHaloShaderC1Ev, __ZN3ggl29ColorGlyphWithOuterHaloShaderC2Ev, 
                       __ZN3ggl29FlyoverRoadFillTexturedShader15typedReflectionEv, 
                       __ZN3ggl29FlyoverRoadFillTexturedShader24vertexFunctionDescriptorEv, 
                       __ZN3ggl29FlyoverRoadFillTexturedShader26fragmentFunctionDescriptorEv, 
                       __ZN3ggl29FlyoverRoadFillTexturedShaderC1Ev, __ZN3ggl29FlyoverRoadFillTexturedShaderC2Ev, 
                       __ZN3ggl29HorizontalVenue3DStrokeShader15typedReflectionEv, 
                       __ZN3ggl29HorizontalVenue3DStrokeShader24vertexFunctionDescriptorEv, 
                       __ZN3ggl29HorizontalVenue3DStrokeShader26fragmentFunctionDescriptorEv, 
                       __ZN3ggl29HorizontalVenue3DStrokeShaderC1Ev, __ZN3ggl29HorizontalVenue3DStrokeShaderC2Ev, 
                       __ZN3ggl29PolygonAnimatableStrokeShader15typedReflectionEv, 
                       __ZN3ggl29PolygonAnimatableStrokeShader24vertexFunctionDescriptorEv, 
                       __ZN3ggl29PolygonAnimatableStrokeShader26fragmentFunctionDescriptorEv, 
                       __ZN3ggl29PolygonAnimatableStrokeShaderC1Ev, __ZN3ggl29PolygonAnimatableStrokeShaderC2Ev, 
                       __ZN3ggl29TextureWithReverseAlphaShader15typedReflectionEv, 
                       __ZN3ggl29TextureWithReverseAlphaShader24vertexFunctionDescriptorEv, 
                       __ZN3ggl29TextureWithReverseAlphaShader26fragmentFunctionDescriptorEv, 
                       __ZN3ggl29TextureWithReverseAlphaShaderC1Ev, __ZN3ggl29TextureWithReverseAlphaShaderC2Ev, 
                       __ZN3ggl30ColorGlyphWithNormalHaloShader15typedReflectionEv, 
                       __ZN3ggl30ColorGlyphWithNormalHaloShader24vertexFunctionDescriptorEv, 
                       __ZN3ggl30ColorGlyphWithNormalHaloShader26fragmentFunctionDescriptorEv, 
                       __ZN3ggl30ColorGlyphWithNormalHaloShaderC1Ev, __ZN3ggl30ColorGlyphWithNormalHaloShaderC2Ev, 
                       __ZN3ggl30FoggedDiffuseBuildingTopShader15typedReflectionEv, 
                       __ZN3ggl30FoggedDiffuseBuildingTopShader24vertexFunctionDescriptorEv, 
                       __ZN3ggl30FoggedDiffuseBuildingTopShader26fragmentFunctionDescriptorEv, 
                       __ZN3ggl30FoggedDiffuseBuildingTopShaderC1Ev, __ZN3ggl30FoggedDiffuseBuildingTopShaderC2Ev, 
                       __ZN3ggl31DiffuseBuildingPointyRoofShader15typedReflectionEv, 
                       __ZN3ggl31DiffuseBuildingPointyRoofShader24vertexFunctionDescriptorEv, 
                       __ZN3ggl31DiffuseBuildingPointyRoofShader26fragmentFunctionDescriptorEv, 
                       __ZN3ggl31DiffuseBuildingPointyRoofShaderC1Ev, __ZN3ggl31DiffuseBuildingPointyRoofShaderC2Ev, 
                       __ZN3ggl31FlyoverRoadFillProceduralShader15typedReflectionEv, 
                       __ZN3ggl31FlyoverRoadFillProceduralShader24vertexFunctionDescriptorEv, 
                       __ZN3ggl31FlyoverRoadFillProceduralShader26fragmentFunctionDescriptorEv, 
                       __ZN3ggl31FlyoverRoadFillProceduralShaderC1Ev, __ZN3ggl31FlyoverRoadFillProceduralShaderC2Ev, 
                       __ZN3ggl31FlyoverRoadStrokeTexturedShader15typedReflectionEv, 
                       __ZN3ggl31FlyoverRoadStrokeTexturedShader24vertexFunctionDescriptorEv, 
                       __ZN3ggl31FlyoverRoadStrokeTexturedShader26fragmentFunctionDescriptorEv, 
                       __ZN3ggl31FlyoverRoadStrokeTexturedShaderC1Ev, __ZN3ggl31FlyoverRoadStrokeTexturedShaderC2Ev, 
                       __ZN3ggl31FoggedSpecularBuildingTopShader15typedReflectionEv, 
                       __ZN3ggl31FoggedSpecularBuildingTopShader24vertexFunctionDescriptorEv, 
                       __ZN3ggl31FoggedSpecularBuildingTopShader26fragmentFunctionDescriptorEv, 
                       __ZN3ggl31FoggedSpecularBuildingTopShaderC1Ev, __ZN3ggl31FoggedSpecularBuildingTopShaderC2Ev, 
                       __ZN3ggl31TexturedInnerShadowRibbonShader15typedReflectionEv, 
                       __ZN3ggl31TexturedInnerShadowRibbonShader24vertexFunctionDescriptorEv, 
                       __ZN3ggl31TexturedInnerShadowRibbonShader26fragmentFunctionDescriptorEv, 
                       __ZN3ggl31TexturedInnerShadowRibbonShaderC1Ev, __ZN3ggl31TexturedInnerShadowRibbonShaderC2Ev, 
                       __ZN3ggl32PatternedTransitLineRibbonShader15typedReflectionEv, 
                       __ZN3ggl32PatternedTransitLineRibbonShader24vertexFunctionDescriptorEv, 
                       __ZN3ggl32PatternedTransitLineRibbonShader26fragmentFunctionDescriptorEv, 
                       __ZN3ggl32PatternedTransitLineRibbonShaderC1Ev, __ZN3ggl32PatternedTransitLineRibbonShaderC2Ev, 
                       __ZN3ggl32SpecularBuildingPointyRoofShader15typedReflectionEv, 
                       __ZN3ggl32SpecularBuildingPointyRoofShader24vertexFunctionDescriptorEv, 
                       __ZN3ggl32SpecularBuildingPointyRoofShader26fragmentFunctionDescriptorEv, 
                       __ZN3ggl32SpecularBuildingPointyRoofShaderC1Ev, __ZN3ggl32SpecularBuildingPointyRoofShaderC2Ev, 
                       __ZN3ggl33AnimatedTexturedGroundCoverShader15typedReflectionEv, 
                       __ZN3ggl33AnimatedTexturedGroundCoverShader24vertexFunctionDescriptorEv, 
                       __ZN3ggl33AnimatedTexturedGroundCoverShader26fragmentFunctionDescriptorEv, 
                       __ZN3ggl33AnimatedTexturedGroundCoverShaderC1Ev, __ZN3ggl33AnimatedTexturedGroundCoverShaderC2Ev, 
                       __ZN3ggl33FlyoverRoadStrokeProceduralShader15typedReflectionEv, 
                       __ZN3ggl33FlyoverRoadStrokeProceduralShader24vertexFunctionDescriptorEv, 
                       __ZN3ggl33FlyoverRoadStrokeProceduralShader26fragmentFunctionDescriptorEv, 
                       __ZN3ggl33FlyoverRoadStrokeProceduralShaderC1Ev, __ZN3ggl33FlyoverRoadStrokeProceduralShaderC2Ev, 
                       __ZN3ggl33VenueOpenToBelowShadowAlphaShader15typedReflectionEv, 
                       __ZN3ggl33VenueOpenToBelowShadowAlphaShader24vertexFunctionDescriptorEv, 
                       __ZN3ggl33VenueOpenToBelowShadowAlphaShader26fragmentFunctionDescriptorEv, 
                       __ZN3ggl33VenueOpenToBelowShadowAlphaShaderC1Ev, __ZN3ggl33VenueOpenToBelowShadowAlphaShaderC2Ev, 
                       __ZN3ggl3Fog16FogPipelineSetup11setMeshMeshEPKNS_11PolygonBase8MeshMeshE, 
                       __ZN3ggl3Fog16FogPipelineSetup15typedReflectionEv, __ZN3ggl3Fog16FogPipelineSetup16viewConstantDataEv, 
                       __ZN3ggl3Fog16FogPipelineSetup18skyfogConstantDataEv, __ZN3ggl3Fog16FogPipelineSetup19setViewConstantDataENSt3__110shared_ptrINS_17ConstantDataTypedINS_4Tile4ViewEEEEE, 
                       __ZN3ggl3Fog16FogPipelineSetup21setSkyfogConstantDataENSt3__110shared_ptrINS_17ConstantDataTypedINS0_6SkyfogEEEEE, 
                       __ZN3ggl3Fog16FogPipelineSetup8meshMeshEv, __ZN3ggl3Fog16FogPipelineSetup8setStateERKNSt3__110shared_ptrINS0_16FogPipelineStateEEE, 
                       __ZN3ggl3Fog16FogPipelineSetupC1ERKNSt3__110shared_ptrINS0_16FogPipelineStateEEE, 
                       __ZN3ggl3Fog16FogPipelineSetupC1ERKNSt3__110shared_ptrINS0_16FogPipelineStateEEERKNS3_INS_17ConstantDataTypedINS0_6SkyfogEEEEERKNS3_INS8_INS_4Tile4ViewEEEEE, 
                       __ZN3ggl3Fog16FogPipelineSetupC1Ev, __ZN3ggl3Fog16FogPipelineSetupC2ERKNSt3__110shared_ptrINS0_16FogPipelineStateEEE, 
                       __ZN3ggl3Fog16FogPipelineSetupC2ERKNSt3__110shared_ptrINS0_16FogPipelineStateEEERKNS3_INS_17ConstantDataTypedINS0_6SkyfogEEEEERKNS3_INS8_INS_4Tile4ViewEEEEE, 
                       __ZN3ggl3Fog16FogPipelineSetupC2Ev, __ZN3ggl3Fog16FogPipelineState15typedReflectionEv, 
                       __ZN3ggl3Fog16FogPipelineStateC1ERKNS_20ColorBufferOperationENS_18RenderTargetFormatE, 
                       __ZN3ggl3Fog16FogPipelineStateC1ERKNSt3__110shared_ptrINS_9FogShaderEEERKNS_20ColorBufferOperationENS_18RenderTargetFormatE, 
                       __ZN3ggl3Fog16FogPipelineStateC2ERKNS_20ColorBufferOperationENS_18RenderTargetFormatE, 
                       __ZN3ggl3Fog16FogPipelineStateC2ERKNSt3__110shared_ptrINS_9FogShaderEEERKNS_20ColorBufferOperationENS_18RenderTargetFormatE, 
                       __ZN3ggl3Fog6Skyfog10reflectionEv, __ZN3ggl3Sky10DefaultVbo10reflectionEv, 
                       __ZN3ggl3Sky16SkyPipelineSetup10setSkyMeshEPKNS0_7SkyMeshE, 
                       __ZN3ggl3Sky16SkyPipelineSetup15typedReflectionEv, __ZN3ggl3Sky16SkyPipelineSetup17styleConstantDataEv, 
                       __ZN3ggl3Sky16SkyPipelineSetup20setStyleConstantDataENSt3__110shared_ptrINS_17ConstantDataTypedINS0_5StyleEEEEE, 
                       __ZN3ggl3Sky16SkyPipelineSetup7skyMeshEv, __ZN3ggl3Sky16SkyPipelineSetup8setStateERKNSt3__110shared_ptrINS0_16SkyPipelineStateEEE, 
                       __ZN3ggl3Sky16SkyPipelineSetupC1ERKNSt3__110shared_ptrINS0_16SkyPipelineStateEEE, 
                       __ZN3ggl3Sky16SkyPipelineSetupC1ERKNSt3__110shared_ptrINS0_16SkyPipelineStateEEERKNS3_INS_17ConstantDataTypedINS0_5StyleEEEEE, 
                       __ZN3ggl3Sky16SkyPipelineSetupC1Ev, __ZN3ggl3Sky16SkyPipelineSetupC2ERKNSt3__110shared_ptrINS0_16SkyPipelineStateEEE, 
                       __ZN3ggl3Sky16SkyPipelineSetupC2ERKNSt3__110shared_ptrINS0_16SkyPipelineStateEEERKNS3_INS_17ConstantDataTypedINS0_5StyleEEEEE, 
                       __ZN3ggl3Sky16SkyPipelineSetupC2Ev, __ZN3ggl3Sky16SkyPipelineState15typedReflectionEv, 
                       __ZN3ggl3Sky16SkyPipelineStateC1ERKNS_20ColorBufferOperationENS_18RenderTargetFormatE, 
                       __ZN3ggl3Sky16SkyPipelineStateC1ERKNSt3__110shared_ptrINS_9SkyShaderEEERKNS_20ColorBufferOperationENS_18RenderTargetFormatE, 
                       __ZN3ggl3Sky16SkyPipelineStateC2ERKNS_20ColorBufferOperationENS_18RenderTargetFormatE, 
                       __ZN3ggl3Sky16SkyPipelineStateC2ERKNSt3__110shared_ptrINS_9SkyShaderEEERKNS_20ColorBufferOperationENS_18RenderTargetFormatE, 
                       __ZN3ggl3Sky5Style10reflectionEv, __ZN3ggl3Sky7SkyMeshC1EPKc, 
                       __ZN3ggl3Sky7SkyMeshC1EPKcNSt3__110shared_ptrINS_15VertexDataTypedINS0_10DefaultVboEEEEENS5_INS_9IndexDataEEE, 
                       __ZN3ggl3Sky7SkyMeshC2EPKc, __ZN3ggl3Sky7SkyMeshC2EPKcNSt3__110shared_ptrINS_15VertexDataTypedINS0_10DefaultVboEEEEENS5_INS_9IndexDataEEE, 
                       __ZN3ggl4Clut20Pos2DUVPipelineSetup11pos2DUVMeshEv, __ZN3ggl4Clut20Pos2DUVPipelineSetup14setPos2DUVMeshEPKNS_8Textured11Pos2DUVMeshE, 
                       __ZN3ggl4Clut20Pos2DUVPipelineSetup15typedReflectionEv, __ZN3ggl4Clut20Pos2DUVPipelineSetup16viewConstantDataEv, 
                       __ZN3ggl4Clut20Pos2DUVPipelineSetup19setViewConstantDataENSt3__110shared_ptrINS_17ConstantDataTypedINS_4Tile4ViewEEEEE, 
                       __ZN3ggl4Clut20Pos2DUVPipelineSetup21variationConstantDataEv, 
                       __ZN3ggl4Clut20Pos2DUVPipelineSetup24setVariationConstantDataENSt3__110shared_ptrINS_17ConstantDataTypedINS0_9VariationEEEEE, 
                       __ZN3ggl4Clut20Pos2DUVPipelineSetup8setStateERKNSt3__110shared_ptrINS0_20Pos2DUVPipelineStateEEE, 
                       __ZN3ggl4Clut20Pos2DUVPipelineSetupC1ERKNSt3__110shared_ptrINS0_20Pos2DUVPipelineStateEEE, 
                       __ZN3ggl4Clut20Pos2DUVPipelineSetupC1ERKNSt3__110shared_ptrINS0_20Pos2DUVPipelineStateEEERKNS3_INS_17ConstantDataTypedINS_4Tile4ViewEEEEERKNS3_INS8_INS0_9VariationEEEEEPNS_9Texture2DESL_, 
                       __ZN3ggl4Clut20Pos2DUVPipelineSetupC1Ev, __ZN3ggl4Clut20Pos2DUVPipelineSetupC2ERKNSt3__110shared_ptrINS0_20Pos2DUVPipelineStateEEE, 
                       __ZN3ggl4Clut20Pos2DUVPipelineSetupC2ERKNSt3__110shared_ptrINS0_20Pos2DUVPipelineStateEEERKNS3_INS_17ConstantDataTypedINS_4Tile4ViewEEEEERKNS3_INS8_INS0_9VariationEEEEEPNS_9Texture2DESL_, 
                       __ZN3ggl4Clut20Pos2DUVPipelineSetupC2Ev, __ZN3ggl4Clut20Pos2DUVPipelineState15typedReflectionEv, 
                       __ZN3ggl4Clut20Pos2DUVPipelineStateC1ERKNS_20ColorBufferOperationENS_18RenderTargetFormatE, 
                       __ZN3ggl4Clut20Pos2DUVPipelineStateC1ERKNSt3__110shared_ptrINS_10ClutShaderEEERKNS_20ColorBufferOperationENS_18RenderTargetFormatE, 
                       __ZN3ggl4Clut20Pos2DUVPipelineStateC2ERKNS_20ColorBufferOperationENS_18RenderTargetFormatE, 
                       __ZN3ggl4Clut20Pos2DUVPipelineStateC2ERKNSt3__110shared_ptrINS_10ClutShaderEEERKNS_20ColorBufferOperationENS_18RenderTargetFormatE, 
                       __ZN3ggl4Clut9Variation10reflectionEv, __ZN3ggl4Glow10DefaultVbo10reflectionEv, 
                       __ZN3ggl4Glow17MeshPipelineSetup11setMeshMeshEPKNS0_8MeshMeshE, 
                       __ZN3ggl4Glow17MeshPipelineSetup15typedReflectionEv, __ZN3ggl4Glow17MeshPipelineSetup16viewConstantDataEv, 
                       __ZN3ggl4Glow17MeshPipelineSetup17styleConstantDataEv, __ZN3ggl4Glow17MeshPipelineSetup19setViewConstantDataENSt3__110shared_ptrINS_17ConstantDataTypedINS_4Tile4ViewEEEEE, 
                       __ZN3ggl4Glow17MeshPipelineSetup20setStyleConstantDataENSt3__110shared_ptrINS_17ConstantDataTypedINS0_5StyleEEEEE, 
                       __ZN3ggl4Glow17MeshPipelineSetup8meshMeshEv, __ZN3ggl4Glow17MeshPipelineSetup8setStateERKNSt3__110shared_ptrINS0_17MeshPipelineStateEEE, 
                       __ZN3ggl4Glow17MeshPipelineSetupC1ERKNSt3__110shared_ptrINS0_17MeshPipelineStateEEE, 
                       __ZN3ggl4Glow17MeshPipelineSetupC1ERKNSt3__110shared_ptrINS0_17MeshPipelineStateEEERKNS3_INS_17ConstantDataTypedINS_4Tile4ViewEEEEERKNS3_INS8_INS0_5StyleEEEEE, 
                       __ZN3ggl4Glow17MeshPipelineSetupC1Ev, __ZN3ggl4Glow17MeshPipelineSetupC2ERKNSt3__110shared_ptrINS0_17MeshPipelineStateEEE, 
                       __ZN3ggl4Glow17MeshPipelineSetupC2ERKNSt3__110shared_ptrINS0_17MeshPipelineStateEEERKNS3_INS_17ConstantDataTypedINS_4Tile4ViewEEEEERKNS3_INS8_INS0_5StyleEEEEE, 
                       __ZN3ggl4Glow17MeshPipelineSetupC2Ev, __ZN3ggl4Glow17MeshPipelineState15typedReflectionEv, 
                       __ZN3ggl4Glow17MeshPipelineStateC1ERKNS_20ColorBufferOperationENS_18RenderTargetFormatE, 
                       __ZN3ggl4Glow17MeshPipelineStateC1ERKNSt3__110shared_ptrINS_10GlowShaderEEERKNS_20ColorBufferOperationENS_18RenderTargetFormatE, 
                       __ZN3ggl4Glow17MeshPipelineStateC2ERKNS_20ColorBufferOperationENS_18RenderTargetFormatE, 
                       __ZN3ggl4Glow17MeshPipelineStateC2ERKNSt3__110shared_ptrINS_10GlowShaderEEERKNS_20ColorBufferOperationENS_18RenderTargetFormatE, 
                       __ZN3ggl4Glow5Style10reflectionEv, __ZN3ggl4Glow8MeshMeshC1EPKc, 
                       __ZN3ggl4Glow8MeshMeshC1EPKcNSt3__110shared_ptrINS_15VertexDataTypedINS0_10DefaultVboEEEEENS5_INS_9IndexDataEEE, 
                       __ZN3ggl4Glow8MeshMeshC2EPKc, __ZN3ggl4Glow8MeshMeshC2EPKcNSt3__110shared_ptrINS_15VertexDataTypedINS0_10DefaultVboEEEEENS5_INS_9IndexDataEEE, 
                       __ZN3ggl4Grid17GridPipelineSetup11setGridMeshEPKNS_8GridBase8GridMeshE, 
                       __ZN3ggl4Grid17GridPipelineSetup15typedReflectionEv, __ZN3ggl4Grid17GridPipelineSetup16viewConstantDataEv, 
                       __ZN3ggl4Grid17GridPipelineSetup17styleConstantDataEv, __ZN3ggl4Grid17GridPipelineSetup19setViewConstantDataENSt3__110shared_ptrINS_17ConstantDataTypedINS_4Tile4ViewEEEEE, 
                       __ZN3ggl4Grid17GridPipelineSetup20gridViewConstantDataEv, 
                       __ZN3ggl4Grid17GridPipelineSetup20setStyleConstantDataENSt3__110shared_ptrINS_17ConstantDataTypedINS0_5StyleEEEEE, 
                       __ZN3ggl4Grid17GridPipelineSetup23setGridViewConstantDataENSt3__110shared_ptrINS_17ConstantDataTypedINS_8GridBase8GridViewEEEEE, 
                       __ZN3ggl4Grid17GridPipelineSetup8gridMeshEv, __ZN3ggl4Grid17GridPipelineSetup8setStateERKNSt3__110shared_ptrINS0_17GridPipelineStateEEE, 
                       __ZN3ggl4Grid17GridPipelineSetupC1ERKNSt3__110shared_ptrINS0_17GridPipelineStateEEE, 
                       __ZN3ggl4Grid17GridPipelineSetupC1ERKNSt3__110shared_ptrINS0_17GridPipelineStateEEERKNS3_INS_17ConstantDataTypedINS_4Tile4ViewEEEEERKNS3_INS8_INS_8GridBase8GridViewEEEEERKNS3_INS8_INS0_5StyleEEEEE, 
                       __ZN3ggl4Grid17GridPipelineSetupC1Ev, __ZN3ggl4Grid17GridPipelineSetupC2ERKNSt3__110shared_ptrINS0_17GridPipelineStateEEE, 
                       __ZN3ggl4Grid17GridPipelineSetupC2ERKNSt3__110shared_ptrINS0_17GridPipelineStateEEERKNS3_INS_17ConstantDataTypedINS_4Tile4ViewEEEEERKNS3_INS8_INS_8GridBase8GridViewEEEEERKNS3_INS8_INS0_5StyleEEEEE, 
                       __ZN3ggl4Grid17GridPipelineSetupC2Ev, __ZN3ggl4Grid17GridPipelineState15typedReflectionEv, 
                       __ZN3ggl4Grid17GridPipelineStateC1ERKNS_20ColorBufferOperationENS_18RenderTargetFormatE, 
                       __ZN3ggl4Grid17GridPipelineStateC1ERKNSt3__110shared_ptrINS_10GridShaderEEERKNS_20ColorBufferOperationENS_18RenderTargetFormatE, 
                       __ZN3ggl4Grid17GridPipelineStateC2ERKNS_20ColorBufferOperationENS_18RenderTargetFormatE, 
                       __ZN3ggl4Grid17GridPipelineStateC2ERKNSt3__110shared_ptrINS_10GridShaderEEERKNS_20ColorBufferOperationENS_18RenderTargetFormatE, 
                       __ZN3ggl4Grid5Style10reflectionEv, __ZN3ggl4Icon10DefaultVbo10reflectionEv, 
                       __ZN3ggl4Icon17IconPipelineSetup11setIconMeshEPKNS0_8IconMeshE, 
                       __ZN3ggl4Icon17IconPipelineSetup15typedReflectionEv, __ZN3ggl4Icon17IconPipelineSetup16viewConstantDataEv, 
                       __ZN3ggl4Icon17IconPipelineSetup19setViewConstantDataENSt3__110shared_ptrINS_17ConstantDataTypedINS0_4ViewEEEEE, 
                       __ZN3ggl4Icon17IconPipelineSetup8iconMeshEv, __ZN3ggl4Icon17IconPipelineSetup8setStateERKNSt3__110shared_ptrINS0_17IconPipelineStateEEE, 
                       __ZN3ggl4Icon17IconPipelineSetupC1ERKNSt3__110shared_ptrINS0_17IconPipelineStateEEE, 
                       __ZN3ggl4Icon17IconPipelineSetupC1ERKNSt3__110shared_ptrINS0_17IconPipelineStateEEERKNS3_INS_17ConstantDataTypedINS0_4ViewEEEEEPNS_9Texture2DE, 
                       __ZN3ggl4Icon17IconPipelineSetupC1Ev, __ZN3ggl4Icon17IconPipelineSetupC2ERKNSt3__110shared_ptrINS0_17IconPipelineStateEEE, 
                       __ZN3ggl4Icon17IconPipelineSetupC2ERKNSt3__110shared_ptrINS0_17IconPipelineStateEEERKNS3_INS_17ConstantDataTypedINS0_4ViewEEEEEPNS_9Texture2DE, 
                       __ZN3ggl4Icon17IconPipelineSetupC2Ev, __ZN3ggl4Icon17IconPipelineState15typedReflectionEv, 
                       __ZN3ggl4Icon17IconPipelineStateC1ERKNS_20ColorBufferOperationENS_18RenderTargetFormatE, 
                       __ZN3ggl4Icon17IconPipelineStateC1ERKNSt3__110shared_ptrINS_10IconShaderEEERKNS_20ColorBufferOperationENS_18RenderTargetFormatE, 
                       __ZN3ggl4Icon17IconPipelineStateC2ERKNS_20ColorBufferOperationENS_18RenderTargetFormatE, 
                       __ZN3ggl4Icon17IconPipelineStateC2ERKNSt3__110shared_ptrINS_10IconShaderEEERKNS_20ColorBufferOperationENS_18RenderTargetFormatE, 
                       __ZN3ggl4Icon4View10reflectionEv, __ZN3ggl4Icon8IconMeshC1EPKc, 
                       __ZN3ggl4Icon8IconMeshC1EPKcNSt3__110shared_ptrINS_15VertexDataTypedINS0_10DefaultVboEEEEENS5_INS_9IndexDataEEE, 
                       __ZN3ggl4Icon8IconMeshC2EPKc, __ZN3ggl4Icon8IconMeshC2EPKcNSt3__110shared_ptrINS_15VertexDataTypedINS0_10DefaultVboEEEEENS5_INS_9IndexDataEEE, 
                       __ZN3ggl4Line17BasePipelineSetup11setBaseMeshEPKNS_6Ribbon8BaseMeshE, 
                       __ZN3ggl4Line17BasePipelineSetup15typedReflectionEv, __ZN3ggl4Line17BasePipelineSetup16viewConstantDataEv, 
                       __ZN3ggl4Line17BasePipelineSetup17styleConstantDataEv, __ZN3ggl4Line17BasePipelineSetup19setViewConstantDataENSt3__110shared_ptrINS_17ConstantDataTypedINS_4Tile4ViewEEEEE, 
                       __ZN3ggl4Line17BasePipelineSetup20setStyleConstantDataENSt3__110shared_ptrINS_17ConstantDataTypedINS0_5StyleEEEEE, 
                       __ZN3ggl4Line17BasePipelineSetup8baseMeshEv, __ZN3ggl4Line17BasePipelineSetup8setStateERKNSt3__110shared_ptrINS0_17BasePipelineStateEEE, 
                       __ZN3ggl4Line17BasePipelineSetupC1ERKNSt3__110shared_ptrINS0_17BasePipelineStateEEE, 
                       __ZN3ggl4Line17BasePipelineSetupC1ERKNSt3__110shared_ptrINS0_17BasePipelineStateEEERKNS3_INS_17ConstantDataTypedINS_4Tile4ViewEEEEERKNS3_INS8_INS0_5StyleEEEEE, 
                       __ZN3ggl4Line17BasePipelineSetupC1Ev, __ZN3ggl4Line17BasePipelineSetupC2ERKNSt3__110shared_ptrINS0_17BasePipelineStateEEE, 
                       __ZN3ggl4Line17BasePipelineSetupC2ERKNSt3__110shared_ptrINS0_17BasePipelineStateEEERKNS3_INS_17ConstantDataTypedINS_4Tile4ViewEEEEERKNS3_INS8_INS0_5StyleEEEEE, 
                       __ZN3ggl4Line17BasePipelineSetupC2Ev, __ZN3ggl4Line17BasePipelineState15typedReflectionEv, 
                       __ZN3ggl4Line17BasePipelineStateC1ERKNS_20ColorBufferOperationENS_18RenderTargetFormatE, 
                       __ZN3ggl4Line17BasePipelineStateC1ERKNSt3__110shared_ptrINS_10LineShaderEEERKNS_20ColorBufferOperationENS_18RenderTargetFormatE, 
                       __ZN3ggl4Line17BasePipelineStateC2ERKNS_20ColorBufferOperationENS_18RenderTargetFormatE, 
                       __ZN3ggl4Line17BasePipelineStateC2ERKNSt3__110shared_ptrINS_10LineShaderEEERKNS_20ColorBufferOperationENS_18RenderTargetFormatE, 
                       __ZN3ggl4Line5Style10reflectionEv, __ZN3ggl4Tile4View10reflectionEv, 
                       __ZN3ggl5Clear14ClearConstants10reflectionEv, __ZN3ggl5Clear18ClearPipelineSetup12setClearMeshEPKNS0_9ClearMeshE, 
                       __ZN3ggl5Clear18ClearPipelineSetup15typedReflectionEv, __ZN3ggl5Clear18ClearPipelineSetup26clearConstantsConstantDataEv, 
                       __ZN3ggl5Clear18ClearPipelineSetup29setClearConstantsConstantDataENSt3__110shared_ptrINS_17ConstantDataTypedINS0_14ClearConstantsEEEEE, 
                       __ZN3ggl5Clear18ClearPipelineSetup8setStateERKNSt3__110shared_ptrINS0_18ClearPipelineStateEEE, 
                       __ZN3ggl5Clear18ClearPipelineSetup9clearMeshEv, __ZN3ggl5Clear18ClearPipelineSetupC1ERKNSt3__110shared_ptrINS0_18ClearPipelineStateEEE, 
                       __ZN3ggl5Clear18ClearPipelineSetupC1ERKNSt3__110shared_ptrINS0_18ClearPipelineStateEEERKNS3_INS_17ConstantDataTypedINS0_14ClearConstantsEEEEE, 
                       __ZN3ggl5Clear18ClearPipelineSetupC1Ev, __ZN3ggl5Clear18ClearPipelineSetupC2ERKNSt3__110shared_ptrINS0_18ClearPipelineStateEEE, 
                       __ZN3ggl5Clear18ClearPipelineSetupC2ERKNSt3__110shared_ptrINS0_18ClearPipelineStateEEERKNS3_INS_17ConstantDataTypedINS0_14ClearConstantsEEEEE, 
                       __ZN3ggl5Clear18ClearPipelineSetupC2Ev, __ZN3ggl5Clear18ClearPipelineState15typedReflectionEv, 
                       __ZN3ggl5Clear18ClearPipelineStateC1ERKNS_20ColorBufferOperationENS_18RenderTargetFormatE, 
                       __ZN3ggl5Clear18ClearPipelineStateC1ERKNSt3__110shared_ptrINS_11ClearShaderEEERKNS_20ColorBufferOperationENS_18RenderTargetFormatE, 
                       __ZN3ggl5Clear18ClearPipelineStateC2ERKNS_20ColorBufferOperationENS_18RenderTargetFormatE, 
                       __ZN3ggl5Clear18ClearPipelineStateC2ERKNSt3__110shared_ptrINS_11ClearShaderEEERKNS_20ColorBufferOperationENS_18RenderTargetFormatE, 
                       __ZN3ggl5Clear9ClearData10reflectionEv, __ZN3ggl5Clear9ClearMeshC1EPKc, 
                       __ZN3ggl5Clear9ClearMeshC1EPKcNSt3__110shared_ptrINS_15VertexDataTypedINS0_9ClearDataEEEEENS5_INS_9IndexDataEEE, 
                       __ZN3ggl5Clear9ClearMeshC2EPKc, __ZN3ggl5Clear9ClearMeshC2EPKcNSt3__110shared_ptrINS_15VertexDataTypedINS0_9ClearDataEEEEENS5_INS_9IndexDataEEE, 
                       __ZN3ggl5Debug10DefaultVbo10reflectionEv, __ZN3ggl5Debug17BasePipelineSetup11setBaseMeshEPKNS0_8BaseMeshE, 
                       __ZN3ggl5Debug17BasePipelineSetup15typedReflectionEv, __ZN3ggl5Debug17BasePipelineSetup16viewConstantDataEv, 
                       __ZN3ggl5Debug17BasePipelineSetup17styleConstantDataEv, __ZN3ggl5Debug17BasePipelineSetup19setViewConstantDataENSt3__110shared_ptrINS_17ConstantDataTypedINS0_4ViewEEEEE, 
                       __ZN3ggl5Debug17BasePipelineSetup20setStyleConstantDataENSt3__110shared_ptrINS_17ConstantDataTypedINS0_5StyleEEEEE, 
                       __ZN3ggl5Debug17BasePipelineSetup8baseMeshEv, __ZN3ggl5Debug17BasePipelineSetup8setStateERKNSt3__110shared_ptrINS0_17BasePipelineStateEEE, 
                       __ZN3ggl5Debug17BasePipelineSetupC1ERKNSt3__110shared_ptrINS0_17BasePipelineStateEEE, 
                       __ZN3ggl5Debug17BasePipelineSetupC1ERKNSt3__110shared_ptrINS0_17BasePipelineStateEEERKNS3_INS_17ConstantDataTypedINS0_5StyleEEEEERKNS3_INS8_INS0_4ViewEEEEE, 
                       __ZN3ggl5Debug17BasePipelineSetupC1Ev, __ZN3ggl5Debug17BasePipelineSetupC2ERKNSt3__110shared_ptrINS0_17BasePipelineStateEEE, 
                       __ZN3ggl5Debug17BasePipelineSetupC2ERKNSt3__110shared_ptrINS0_17BasePipelineStateEEERKNS3_INS_17ConstantDataTypedINS0_5StyleEEEEERKNS3_INS8_INS0_4ViewEEEEE, 
                       __ZN3ggl5Debug17BasePipelineSetupC2Ev, __ZN3ggl5Debug17BasePipelineState15typedReflectionEv, 
                       __ZN3ggl5Debug17BasePipelineStateC1ERKNS_20ColorBufferOperationENS_18RenderTargetFormatE, 
                       __ZN3ggl5Debug17BasePipelineStateC1ERKNSt3__110shared_ptrINS_11DebugShaderEEERKNS_20ColorBufferOperationENS_18RenderTargetFormatE, 
                       __ZN3ggl5Debug17BasePipelineStateC2ERKNS_20ColorBufferOperationENS_18RenderTargetFormatE, 
                       __ZN3ggl5Debug17BasePipelineStateC2ERKNSt3__110shared_ptrINS_11DebugShaderEEERKNS_20ColorBufferOperationENS_18RenderTargetFormatE, 
                       __ZN3ggl5Debug4View10reflectionEv, __ZN3ggl5Debug5Style10reflectionEv, 
                       __ZN3ggl5Debug8BaseMeshC1EPKc, __ZN3ggl5Debug8BaseMeshC1EPKcNSt3__110shared_ptrINS_15VertexDataTypedINS0_10DefaultVboEEEEENS5_INS_9IndexDataEEE, 
                       __ZN3ggl5Debug8BaseMeshC2EPKc, __ZN3ggl5Debug8BaseMeshC2EPKcNSt3__110shared_ptrINS_15VertexDataTypedINS0_10DefaultVboEEEEENS5_INS_9IndexDataEEE, 
                       __ZN3ggl5Glyph10DefaultVbo10reflectionEv, __ZN3ggl5Glyph11DefaultMeshC1EPKc, 
                       __ZN3ggl5Glyph11DefaultMeshC1EPKcNSt3__110shared_ptrINS_15VertexDataTypedINS0_10DefaultVboEEEEENS5_INS_9IndexDataEEE, 
                       __ZN3ggl5Glyph11DefaultMeshC2EPKc, __ZN3ggl5Glyph11DefaultMeshC2EPKcNSt3__110shared_ptrINS_15VertexDataTypedINS0_10DefaultVboEEEEENS5_INS_9IndexDataEEE, 
                       __ZN3ggl5Glyph4View10reflectionEv, __ZN3ggl5Glyph7Channel10reflectionEv, 
                       __ZN3ggl5Stars10StarVertex10reflectionEv, __ZN3ggl5Stars18StarsPipelineSetup12setStarsMeshEPKNS0_9StarsMeshE, 
                       __ZN3ggl5Stars18StarsPipelineSetup15typedReflectionEv, __ZN3ggl5Stars18StarsPipelineSetup16viewConstantDataEv, 
                       __ZN3ggl5Stars18StarsPipelineSetup19setViewConstantDataENSt3__110shared_ptrINS_17ConstantDataTypedINS0_4ViewEEEEE, 
                       __ZN3ggl5Stars18StarsPipelineSetup8setStateERKNSt3__110shared_ptrINS0_18StarsPipelineStateEEE, 
                       __ZN3ggl5Stars18StarsPipelineSetup9starsMeshEv, __ZN3ggl5Stars18StarsPipelineSetupC1ERKNSt3__110shared_ptrINS0_18StarsPipelineStateEEE, 
                       __ZN3ggl5Stars18StarsPipelineSetupC1ERKNSt3__110shared_ptrINS0_18StarsPipelineStateEEERKNS3_INS_17ConstantDataTypedINS0_4ViewEEEEE, 
                       __ZN3ggl5Stars18StarsPipelineSetupC1Ev, __ZN3ggl5Stars18StarsPipelineSetupC2ERKNSt3__110shared_ptrINS0_18StarsPipelineStateEEE, 
                       __ZN3ggl5Stars18StarsPipelineSetupC2ERKNSt3__110shared_ptrINS0_18StarsPipelineStateEEERKNS3_INS_17ConstantDataTypedINS0_4ViewEEEEE, 
                       __ZN3ggl5Stars18StarsPipelineSetupC2Ev, __ZN3ggl5Stars18StarsPipelineState15typedReflectionEv, 
                       __ZN3ggl5Stars18StarsPipelineStateC1ERKNS_20ColorBufferOperationENS_18RenderTargetFormatE, 
                       __ZN3ggl5Stars18StarsPipelineStateC1ERKNSt3__110shared_ptrINS_11StarsShaderEEERKNS_20ColorBufferOperationENS_18RenderTargetFormatE, 
                       __ZN3ggl5Stars18StarsPipelineStateC2ERKNS_20ColorBufferOperationENS_18RenderTargetFormatE, 
                       __ZN3ggl5Stars18StarsPipelineStateC2ERKNSt3__110shared_ptrINS_11StarsShaderEEERKNS_20ColorBufferOperationENS_18RenderTargetFormatE, 
                       __ZN3ggl5Stars4View10reflectionEv, __ZN3ggl5Stars9StarsMeshC1EPKc, 
                       __ZN3ggl5Stars9StarsMeshC1EPKcNSt3__110shared_ptrINS_15VertexDataTypedINS0_10StarVertexEEEEENS5_INS_9IndexDataEEE, 
                       __ZN3ggl5Stars9StarsMeshC2EPKc, __ZN3ggl5Stars9StarsMeshC2EPKcNSt3__110shared_ptrINS_15VertexDataTypedINS0_10StarVertexEEEEENS5_INS_9IndexDataEEE, 
                       __ZN3ggl6Ribbon10DefaultVbo10reflectionEv, __ZN3ggl6Ribbon5Style10reflectionEv, 
                       __ZN3ggl6Ribbon8BaseMeshC1EPKc, __ZN3ggl6Ribbon8BaseMeshC1EPKcNSt3__110shared_ptrINS_15VertexDataTypedINS0_10DefaultVboEEEEENS5_INS_9IndexDataEEE, 
                       __ZN3ggl6Ribbon8BaseMeshC2EPKc, __ZN3ggl6Ribbon8BaseMeshC2EPKcNSt3__110shared_ptrINS_15VertexDataTypedINS0_10DefaultVboEEEEENS5_INS_9IndexDataEEE, 
                       __ZN3ggl7Flyover20FlyoverPipelineSetup11setP3T2MeshEPKNS_8TileBase8P3T2MeshE, 
                       __ZN3ggl7Flyover20FlyoverPipelineSetup15typedReflectionEv, 
                       __ZN3ggl7Flyover20FlyoverPipelineSetup16clipConstantDataEv, 
                       __ZN3ggl7Flyover20FlyoverPipelineSetup18sharedConstantDataEv, 
                       __ZN3ggl7Flyover20FlyoverPipelineSetup19setClipConstantDataENSt3__110shared_ptrINS_17ConstantDataTypedINS_13FlyoverCommon4ClipEEEEE, 
                       __ZN3ggl7Flyover20FlyoverPipelineSetup20materialConstantDataEv, 
                       __ZN3ggl7Flyover20FlyoverPipelineSetup21setSharedConstantDataENSt3__110shared_ptrINS_17ConstantDataTypedINS_13FlyoverCommon6SharedEEEEE, 
                       __ZN3ggl7Flyover20FlyoverPipelineSetup21texcoordsConstantDataEv, 
                       __ZN3ggl7Flyover20FlyoverPipelineSetup21transformConstantDataEv, 
                       __ZN3ggl7Flyover20FlyoverPipelineSetup23setMaterialConstantDataENSt3__110shared_ptrINS_17ConstantDataTypedINS_13FlyoverCommon8MaterialEEEEE, 
                       __ZN3ggl7Flyover20FlyoverPipelineSetup24setTexcoordsConstantDataENSt3__110shared_ptrINS_17ConstantDataTypedINS_13FlyoverCommon9TexcoordsEEEEE, 
                       __ZN3ggl7Flyover20FlyoverPipelineSetup24setTransformConstantDataENSt3__110shared_ptrINS_17ConstantDataTypedINS_13FlyoverCommon9TransformEEEEE, 
                       __ZN3ggl7Flyover20FlyoverPipelineSetup8p3T2MeshEv, __ZN3ggl7Flyover20FlyoverPipelineSetup8setStateERKNSt3__110shared_ptrINS0_20FlyoverPipelineStateEEE, 
                       __ZN3ggl7Flyover20FlyoverPipelineSetupC1ERKNSt3__110shared_ptrINS0_20FlyoverPipelineStateEEE, 
                       __ZN3ggl7Flyover20FlyoverPipelineSetupC1ERKNSt3__110shared_ptrINS0_20FlyoverPipelineStateEEERKNS3_INS_17ConstantDataTypedINS_13FlyoverCommon6SharedEEEEERKNS3_INS8_INS9_9TransformEEEEERKNS3_INS8_INS9_4ClipEEEEERKNS3_INS8_INS9_8MaterialEEEEERKNS3_INS8_INS9_9TexcoordsEEEEEPNS_9Texture2DES10_, 
                       __ZN3ggl7Flyover20FlyoverPipelineSetupC1Ev, __ZN3ggl7Flyover20FlyoverPipelineSetupC2ERKNSt3__110shared_ptrINS0_20FlyoverPipelineStateEEE, 
                       __ZN3ggl7Flyover20FlyoverPipelineSetupC2ERKNSt3__110shared_ptrINS0_20FlyoverPipelineStateEEERKNS3_INS_17ConstantDataTypedINS_13FlyoverCommon6SharedEEEEERKNS3_INS8_INS9_9TransformEEEEERKNS3_INS8_INS9_4ClipEEEEERKNS3_INS8_INS9_8MaterialEEEEERKNS3_INS8_INS9_9TexcoordsEEEEEPNS_9Texture2DES10_, 
                       __ZN3ggl7Flyover20FlyoverPipelineSetupC2Ev, __ZN3ggl7Flyover20FlyoverPipelineState15typedReflectionEv, 
                       __ZN3ggl7Flyover20FlyoverPipelineStateC1ERKNS_20ColorBufferOperationENS_18RenderTargetFormatE, 
                       __ZN3ggl7Flyover20FlyoverPipelineStateC1ERKNSt3__110shared_ptrINS_13FlyoverShaderEEERKNS_20ColorBufferOperationENS_18RenderTargetFormatE, 
                       __ZN3ggl7Flyover20FlyoverPipelineStateC2ERKNS_20ColorBufferOperationENS_18RenderTargetFormatE, 
                       __ZN3ggl7Flyover20FlyoverPipelineStateC2ERKNSt3__110shared_ptrINS_13FlyoverShaderEEERKNS_20ColorBufferOperationENS_18RenderTargetFormatE, 
                       __ZN3ggl8Building4Fade10reflectionEv, __ZN3ggl8Building5Scale10reflectionEv, 
                       __ZN3ggl8Building5Style10reflectionEv, __ZN3ggl8Building8Gradient10reflectionEv, 
                       __ZN3ggl8Building8Lighting10reflectionEv, __ZN3ggl8GridBase10DefaultVbo10reflectionEv, 
                       __ZN3ggl8GridBase8GridMeshC1EPKc, __ZN3ggl8GridBase8GridMeshC1EPKcNSt3__110shared_ptrINS_15VertexDataTypedINS0_10DefaultVboEEEEENS5_INS_9IndexDataEEE, 
                       __ZN3ggl8GridBase8GridMeshC2EPKc, __ZN3ggl8GridBase8GridMeshC2EPKcNSt3__110shared_ptrINS_15VertexDataTypedINS0_10DefaultVboEEEEENS5_INS_9IndexDataEEE, 
                       __ZN3ggl8GridBase8GridView10reflectionEv, __ZN3ggl8Landmark10DefaultVbo10reflectionEv, 
                       __ZN3ggl8Landmark12LandmarkMeshC1EPKc, __ZN3ggl8Landmark12LandmarkMeshC1EPKcNSt3__110shared_ptrINS_15VertexDataTypedINS0_10DefaultVboEEEEENS5_INS_9IndexDataEEE, 
                       __ZN3ggl8Landmark12LandmarkMeshC2EPKc, __ZN3ggl8Landmark12LandmarkMeshC2EPKcNSt3__110shared_ptrINS_15VertexDataTypedINS0_10DefaultVboEEEEENS5_INS_9IndexDataEEE, 
                       __ZN3ggl8Textured10DefaultVbo10reflectionEv, __ZN3ggl8Textured11Pos2DUVMeshC1EPKc, 
                       __ZN3ggl8Textured11Pos2DUVMeshC1EPKcNSt3__110shared_ptrINS_15VertexDataTypedINS0_10DefaultVboEEEEENS5_INS_9IndexDataEEE, 
                       __ZN3ggl8Textured11Pos2DUVMeshC2EPKc, __ZN3ggl8Textured11Pos2DUVMeshC2EPKcNSt3__110shared_ptrINS_15VertexDataTypedINS0_10DefaultVboEEEEENS5_INS_9IndexDataEEE, 
                       __ZN3ggl8Textured20Pos2DUVPipelineSetup11pos2DUVMeshEv, __ZN3ggl8Textured20Pos2DUVPipelineSetup14setPos2DUVMeshEPKNS0_11Pos2DUVMeshE, 
                       __ZN3ggl8Textured20Pos2DUVPipelineSetup15typedReflectionEv, 
                       __ZN3ggl8Textured20Pos2DUVPipelineSetup16viewConstantDataEv, 
                       __ZN3ggl8Textured20Pos2DUVPipelineSetup19setViewConstantDataENSt3__110shared_ptrINS_17ConstantDataTypedINS_4Tile4ViewEEEEE, 
                       __ZN3ggl8Textured20Pos2DUVPipelineSetup8setStateERKNSt3__110shared_ptrINS0_20Pos2DUVPipelineStateEEE, 
                       __ZN3ggl8Textured20Pos2DUVPipelineSetupC1ERKNSt3__110shared_ptrINS0_20Pos2DUVPipelineStateEEE, 
                       __ZN3ggl8Textured20Pos2DUVPipelineSetupC1ERKNSt3__110shared_ptrINS0_20Pos2DUVPipelineStateEEERKNS3_INS_17ConstantDataTypedINS_4Tile4ViewEEEEEPNS_9Texture2DE, 
                       __ZN3ggl8Textured20Pos2DUVPipelineSetupC1Ev, __ZN3ggl8Textured20Pos2DUVPipelineSetupC2ERKNSt3__110shared_ptrINS0_20Pos2DUVPipelineStateEEE, 
                       __ZN3ggl8Textured20Pos2DUVPipelineSetupC2ERKNSt3__110shared_ptrINS0_20Pos2DUVPipelineStateEEERKNS3_INS_17ConstantDataTypedINS_4Tile4ViewEEEEEPNS_9Texture2DE, 
                       __ZN3ggl8Textured20Pos2DUVPipelineSetupC2Ev, __ZN3ggl8Textured20Pos2DUVPipelineState15typedReflectionEv, 
                       __ZN3ggl8Textured20Pos2DUVPipelineStateC1ERKNS_20ColorBufferOperationENS_18RenderTargetFormatE, 
                       __ZN3ggl8Textured20Pos2DUVPipelineStateC1ERKNSt3__110shared_ptrINS_14TexturedShaderEEERKNS_20ColorBufferOperationENS_18RenderTargetFormatE, 
                       __ZN3ggl8Textured20Pos2DUVPipelineStateC2ERKNS_20ColorBufferOperationENS_18RenderTargetFormatE, 
                       __ZN3ggl8Textured20Pos2DUVPipelineStateC2ERKNSt3__110shared_ptrINS_14TexturedShaderEEERKNS_20ColorBufferOperationENS_18RenderTargetFormatE, 
                       __ZN3ggl8TileBase10P3T2T2MeshC1EPKc, __ZN3ggl8TileBase10P3T2T2MeshC1EPKcNSt3__110shared_ptrINS_15VertexDataTypedINS0_9P3T2T2VboEEEEENS5_INS_9IndexDataEEE, 
                       __ZN3ggl8TileBase10P3T2T2MeshC2EPKc, __ZN3ggl8TileBase10P3T2T2MeshC2EPKcNSt3__110shared_ptrINS_15VertexDataTypedINS0_9P3T2T2VboEEEEENS5_INS_9IndexDataEEE, 
                       __ZN3ggl8TileBase7P3T2Vbo10reflectionEv, __ZN3ggl8TileBase8P3T2MeshC1EPKc, 
                       __ZN3ggl8TileBase8P3T2MeshC1EPKcNSt3__110shared_ptrINS_15VertexDataTypedINS0_7P3T2VboEEEEENS5_INS_9IndexDataEEE, 
                       __ZN3ggl8TileBase8P3T2MeshC2EPKc, __ZN3ggl8TileBase8P3T2MeshC2EPKcNSt3__110shared_ptrINS_15VertexDataTypedINS0_7P3T2VboEEEEENS5_INS_9IndexDataEEE, 
                       __ZN3ggl8TileBase9P3T2T2Vbo10reflectionEv, __ZN3ggl9FogShader15typedReflectionEv, 
                       __ZN3ggl9FogShader24vertexFunctionDescriptorEv, __ZN3ggl9FogShader26fragmentFunctionDescriptorEv, 
                       __ZN3ggl9FogShaderC1Ev, __ZN3ggl9FogShaderC2Ev, __ZN3ggl9GlowAlpha10DefaultVbo10reflectionEv, 
                       __ZN3ggl9GlowAlpha17MeshPipelineSetup11setMeshMeshEPKNS0_8MeshMeshE, 
                       __ZN3ggl9GlowAlpha17MeshPipelineSetup15typedReflectionEv, 
                       __ZN3ggl9GlowAlpha17MeshPipelineSetup16glowConstantDataEv, 
                       __ZN3ggl9GlowAlpha17MeshPipelineSetup16viewConstantDataEv, 
                       __ZN3ggl9GlowAlpha17MeshPipelineSetup19setGlowConstantDataENSt3__110shared_ptrINS_17ConstantDataTypedINS0_4GlowEEEEE, 
                       __ZN3ggl9GlowAlpha17MeshPipelineSetup19setViewConstantDataENSt3__110shared_ptrINS_17ConstantDataTypedINS_4Tile4ViewEEEEE, 
                       __ZN3ggl9GlowAlpha17MeshPipelineSetup8meshMeshEv, __ZN3ggl9GlowAlpha17MeshPipelineSetup8setStateERKNSt3__110shared_ptrINS0_17MeshPipelineStateEEE, 
                       __ZN3ggl9GlowAlpha17MeshPipelineSetupC1ERKNSt3__110shared_ptrINS0_17MeshPipelineStateEEE, 
                       __ZN3ggl9GlowAlpha17MeshPipelineSetupC1ERKNSt3__110shared_ptrINS0_17MeshPipelineStateEEERKNS3_INS_17ConstantDataTypedINS_4Tile4ViewEEEEERKNS3_INS8_INS0_4GlowEEEEE, 
                       __ZN3ggl9GlowAlpha17MeshPipelineSetupC1Ev, __ZN3ggl9GlowAlpha17MeshPipelineSetupC2ERKNSt3__110shared_ptrINS0_17MeshPipelineStateEEE, 
                       __ZN3ggl9GlowAlpha17MeshPipelineSetupC2ERKNSt3__110shared_ptrINS0_17MeshPipelineStateEEERKNS3_INS_17ConstantDataTypedINS_4Tile4ViewEEEEERKNS3_INS8_INS0_4GlowEEEEE, 
                       __ZN3ggl9GlowAlpha17MeshPipelineSetupC2Ev, __ZN3ggl9GlowAlpha17MeshPipelineState15typedReflectionEv, 
                       __ZN3ggl9GlowAlpha17MeshPipelineStateC1ERKNS_20ColorBufferOperationENS_18RenderTargetFormatE, 
                       __ZN3ggl9GlowAlpha17MeshPipelineStateC1ERKNSt3__110shared_ptrINS_15GlowAlphaShaderEEERKNS_20ColorBufferOperationENS_18RenderTargetFormatE, 
                       __ZN3ggl9GlowAlpha17MeshPipelineStateC2ERKNS_20ColorBufferOperationENS_18RenderTargetFormatE, 
                       __ZN3ggl9GlowAlpha17MeshPipelineStateC2ERKNSt3__110shared_ptrINS_15GlowAlphaShaderEEERKNS_20ColorBufferOperationENS_18RenderTargetFormatE, 
                       __ZN3ggl9GlowAlpha4Glow10reflectionEv, __ZN3ggl9GlowAlpha8MeshMeshC1EPKc, 
                       __ZN3ggl9GlowAlpha8MeshMeshC1EPKcNSt3__110shared_ptrINS_15VertexDataTypedINS0_10DefaultVboEEEEENS5_INS_9IndexDataEEE, 
                       __ZN3ggl9GlowAlpha8MeshMeshC2EPKc, __ZN3ggl9GlowAlpha8MeshMeshC2EPKcNSt3__110shared_ptrINS_15VertexDataTypedINS0_10DefaultVboEEEEENS5_INS_9IndexDataEEE, 
                       __ZN3ggl9ImageCopy10ImageAlpha10reflectionEv, __ZN3ggl9ImageCopy20Pos2DUVPipelineSetup11pos2DUVMeshEv, 
                       __ZN3ggl9ImageCopy20Pos2DUVPipelineSetup14setPos2DUVMeshEPKNS_8Textured11Pos2DUVMeshE, 
                       __ZN3ggl9ImageCopy20Pos2DUVPipelineSetup15typedReflectionEv, 
                       __ZN3ggl9ImageCopy20Pos2DUVPipelineSetup17alphaConstantDataEv, 
                       __ZN3ggl9ImageCopy20Pos2DUVPipelineSetup20setAlphaConstantDataENSt3__110shared_ptrINS_17ConstantDataTypedINS0_10ImageAlphaEEEEE, 
                       __ZN3ggl9ImageCopy20Pos2DUVPipelineSetup8setStateERKNSt3__110shared_ptrINS0_20Pos2DUVPipelineStateEEE, 
                       __ZN3ggl9ImageCopy20Pos2DUVPipelineSetupC1ERKNSt3__110shared_ptrINS0_20Pos2DUVPipelineStateEEE, 
                       __ZN3ggl9ImageCopy20Pos2DUVPipelineSetupC1ERKNSt3__110shared_ptrINS0_20Pos2DUVPipelineStateEEERKNS3_INS_17ConstantDataTypedINS0_10ImageAlphaEEEEEPNS_9Texture2DE, 
                       __ZN3ggl9ImageCopy20Pos2DUVPipelineSetupC1Ev, __ZN3ggl9ImageCopy20Pos2DUVPipelineSetupC2ERKNSt3__110shared_ptrINS0_20Pos2DUVPipelineStateEEE, 
                       __ZN3ggl9ImageCopy20Pos2DUVPipelineSetupC2ERKNSt3__110shared_ptrINS0_20Pos2DUVPipelineStateEEERKNS3_INS_17ConstantDataTypedINS0_10ImageAlphaEEEEEPNS_9Texture2DE, 
                       __ZN3ggl9ImageCopy20Pos2DUVPipelineSetupC2Ev, __ZN3ggl9ImageCopy20Pos2DUVPipelineState15typedReflectionEv, 
                       __ZN3ggl9ImageCopy20Pos2DUVPipelineStateC1ERKNS_20ColorBufferOperationENS_18RenderTargetFormatE, 
                       __ZN3ggl9ImageCopy20Pos2DUVPipelineStateC1ERKNSt3__110shared_ptrINS_15ImageCopyShaderEEERKNS_20ColorBufferOperationENS_18RenderTargetFormatE, 
                       __ZN3ggl9ImageCopy20Pos2DUVPipelineStateC2ERKNS_20ColorBufferOperationENS_18RenderTargetFormatE, 
                       __ZN3ggl9ImageCopy20Pos2DUVPipelineStateC2ERKNSt3__110shared_ptrINS_15ImageCopyShaderEEERKNS_20ColorBufferOperationENS_18RenderTargetFormatE, 
                       __ZN3ggl9RouteLine10DefaultVbo10reflectionEv, __ZN3ggl9RouteLine17BasePipelineSetup11setBaseMeshEPKNS0_8BaseMeshE, 
                       __ZN3ggl9RouteLine17BasePipelineSetup15typedReflectionEv, 
                       __ZN3ggl9RouteLine17BasePipelineSetup16viewConstantDataEv, 
                       __ZN3ggl9RouteLine17BasePipelineSetup17styleConstantDataEv, 
                       __ZN3ggl9RouteLine17BasePipelineSetup19setViewConstantDataENSt3__110shared_ptrINS_17ConstantDataTypedINS_4Tile4ViewEEEEE, 
                       __ZN3ggl9RouteLine17BasePipelineSetup20setStyleConstantDataENSt3__110shared_ptrINS_17ConstantDataTypedINS0_5StyleEEEEE, 
                       __ZN3ggl9RouteLine17BasePipelineSetup8baseMeshEv, __ZN3ggl9RouteLine17BasePipelineSetup8setStateERKNSt3__110shared_ptrINS0_17BasePipelineStateEEE, 
                       __ZN3ggl9RouteLine17BasePipelineSetupC1ERKNSt3__110shared_ptrINS0_17BasePipelineStateEEE, 
                       __ZN3ggl9RouteLine17BasePipelineSetupC1ERKNSt3__110shared_ptrINS0_17BasePipelineStateEEERKNS3_INS_17ConstantDataTypedINS_4Tile4ViewEEEEERKNS3_INS8_INS0_5StyleEEEEEPNS_9Texture2DE, 
                       __ZN3ggl9RouteLine17BasePipelineSetupC1Ev, __ZN3ggl9RouteLine17BasePipelineSetupC2ERKNSt3__110shared_ptrINS0_17BasePipelineStateEEE, 
                       __ZN3ggl9RouteLine17BasePipelineSetupC2ERKNSt3__110shared_ptrINS0_17BasePipelineStateEEERKNS3_INS_17ConstantDataTypedINS_4Tile4ViewEEEEERKNS3_INS8_INS0_5StyleEEEEEPNS_9Texture2DE, 
                       __ZN3ggl9RouteLine17BasePipelineSetupC2Ev, __ZN3ggl9RouteLine17BasePipelineState15typedReflectionEv, 
                       __ZN3ggl9RouteLine17BasePipelineStateC1ERKNS_20ColorBufferOperationENS_18RenderTargetFormatE, 
                       __ZN3ggl9RouteLine17BasePipelineStateC1ERKNSt3__110shared_ptrINS_15RouteLineShaderEEERKNS_20ColorBufferOperationENS_18RenderTargetFormatE, 
                       __ZN3ggl9RouteLine17BasePipelineStateC2ERKNS_20ColorBufferOperationENS_18RenderTargetFormatE, 
                       __ZN3ggl9RouteLine17BasePipelineStateC2ERKNSt3__110shared_ptrINS_15RouteLineShaderEEERKNS_20ColorBufferOperationENS_18RenderTargetFormatE, 
                       __ZN3ggl9RouteLine26PatternedBasePipelineSetup11setBaseMeshEPKNS0_8BaseMeshE, 
                       __ZN3ggl9RouteLine26PatternedBasePipelineSetup15typedReflectionEv, 
                       __ZN3ggl9RouteLine26PatternedBasePipelineSetup16viewConstantDataEv, 
                       __ZN3ggl9RouteLine26PatternedBasePipelineSetup19setViewConstantDataENSt3__110shared_ptrINS_17ConstantDataTypedINS_4Tile4ViewEEEEE, 
                       __ZN3ggl9RouteLine26PatternedBasePipelineSetup22routeStyleConstantDataEv, 
                       __ZN3ggl9RouteLine26PatternedBasePipelineSetup24patternStyleConstantDataEv, 
                       __ZN3ggl9RouteLine26PatternedBasePipelineSetup25setRouteStyleConstantDataENSt3__110shared_ptrINS_17ConstantDataTypedINS0_5StyleEEEEE, 
                       __ZN3ggl9RouteLine26PatternedBasePipelineSetup27setPatternStyleConstantDataENSt3__110shared_ptrINS_17ConstantDataTypedINS_15PatternedRibbon5StyleEEEEE, 
                       __ZN3ggl9RouteLine26PatternedBasePipelineSetup8baseMeshEv, 
                       __ZN3ggl9RouteLine26PatternedBasePipelineSetup8setStateERKNSt3__110shared_ptrINS0_26PatternedBasePipelineStateEEE, 
                       __ZN3ggl9RouteLine26PatternedBasePipelineSetupC1ERKNSt3__110shared_ptrINS0_26PatternedBasePipelineStateEEE, 
                       __ZN3ggl9RouteLine26PatternedBasePipelineSetupC1ERKNSt3__110shared_ptrINS0_26PatternedBasePipelineStateEEERKNS3_INS_17ConstantDataTypedINS_4Tile4ViewEEEEERKNS3_INS8_INS_15PatternedRibbon5StyleEEEEERKNS3_INS8_INS0_5StyleEEEEEPNS_9Texture2DE, 
                       __ZN3ggl9RouteLine26PatternedBasePipelineSetupC1Ev, __ZN3ggl9RouteLine26PatternedBasePipelineSetupC2ERKNSt3__110shared_ptrINS0_26PatternedBasePipelineStateEEE, 
                       __ZN3ggl9RouteLine26PatternedBasePipelineSetupC2ERKNSt3__110shared_ptrINS0_26PatternedBasePipelineStateEEERKNS3_INS_17ConstantDataTypedINS_4Tile4ViewEEEEERKNS3_INS8_INS_15PatternedRibbon5StyleEEEEERKNS3_INS8_INS0_5StyleEEEEEPNS_9Texture2DE, 
                       __ZN3ggl9RouteLine26PatternedBasePipelineSetupC2Ev, __ZN3ggl9RouteLine26PatternedBasePipelineState15typedReflectionEv, 
                       __ZN3ggl9RouteLine26PatternedBasePipelineStateC1ERKNS_20ColorBufferOperationENS_18RenderTargetFormatE, 
                       __ZN3ggl9RouteLine26PatternedBasePipelineStateC1ERKNSt3__110shared_ptrINS_24PatternedRouteLineShaderEEERKNS_20ColorBufferOperationENS_18RenderTargetFormatE, 
                       __ZN3ggl9RouteLine26PatternedBasePipelineStateC2ERKNS_20ColorBufferOperationENS_18RenderTargetFormatE, 
                       __ZN3ggl9RouteLine26PatternedBasePipelineStateC2ERKNSt3__110shared_ptrINS_24PatternedRouteLineShaderEEERKNS_20ColorBufferOperationENS_18RenderTargetFormatE, 
                       __ZN3ggl9RouteLine5Style10reflectionEv, __ZN3ggl9RouteLine8BaseMeshC1EPKc, 
                       __ZN3ggl9RouteLine8BaseMeshC1EPKcNSt3__110shared_ptrINS_15VertexDataTypedINS0_10DefaultVboEEEEENS5_INS_9IndexDataEEE, 
                       __ZN3ggl9RouteLine8BaseMeshC2EPKc, __ZN3ggl9RouteLine8BaseMeshC2EPKcNSt3__110shared_ptrINS_15VertexDataTypedINS0_10DefaultVboEEEEENS5_INS_9IndexDataEEE, 
                       __ZN3ggl9SkyShader15typedReflectionEv, __ZN3ggl9SkyShader24vertexFunctionDescriptorEv, 
                       __ZN3ggl9SkyShader26fragmentFunctionDescriptorEv, __ZN3ggl9SkyShaderC1Ev, 
                       __ZN3ggl9SkyShaderC2Ev, __ZN3ggl9SolidLine10DefaultVbo10reflectionEv, 
                       __ZN3ggl9SolidLine17BasePipelineSetup11setBaseMeshEPKNS0_8BaseMeshE, 
                       __ZN3ggl9SolidLine17BasePipelineSetup15typedReflectionEv, 
                       __ZN3ggl9SolidLine17BasePipelineSetup16viewConstantDataEv, 
                       __ZN3ggl9SolidLine17BasePipelineSetup17styleConstantDataEv, 
                       __ZN3ggl9SolidLine17BasePipelineSetup19setViewConstantDataENSt3__110shared_ptrINS_17ConstantDataTypedINS0_4ViewEEEEE, 
                       __ZN3ggl9SolidLine17BasePipelineSetup20setStyleConstantDataENSt3__110shared_ptrINS_17ConstantDataTypedINS0_5StyleEEEEE, 
                       __ZN3ggl9SolidLine17BasePipelineSetup8baseMeshEv, __ZN3ggl9SolidLine17BasePipelineSetup8setStateERKNSt3__110shared_ptrINS0_17BasePipelineStateEEE, 
                       __ZN3ggl9SolidLine17BasePipelineSetupC1ERKNSt3__110shared_ptrINS0_17BasePipelineStateEEE, 
                       __ZN3ggl9SolidLine17BasePipelineSetupC1ERKNSt3__110shared_ptrINS0_17BasePipelineStateEEERKNS3_INS_17ConstantDataTypedINS0_5StyleEEEEERKNS3_INS8_INS0_4ViewEEEEE, 
                       __ZN3ggl9SolidLine17BasePipelineSetupC1Ev, __ZN3ggl9SolidLine17BasePipelineSetupC2ERKNSt3__110shared_ptrINS0_17BasePipelineStateEEE, 
                       __ZN3ggl9SolidLine17BasePipelineSetupC2ERKNSt3__110shared_ptrINS0_17BasePipelineStateEEERKNS3_INS_17ConstantDataTypedINS0_5StyleEEEEERKNS3_INS8_INS0_4ViewEEEEE, 
                       __ZN3ggl9SolidLine17BasePipelineSetupC2Ev, __ZN3ggl9SolidLine17BasePipelineState15typedReflectionEv, 
                       __ZN3ggl9SolidLine17BasePipelineStateC1ERKNS_20ColorBufferOperationENS_18RenderTargetFormatE, 
                       __ZN3ggl9SolidLine17BasePipelineStateC1ERKNSt3__110shared_ptrINS_15SolidLineShaderEEERKNS_20ColorBufferOperationENS_18RenderTargetFormatE, 
                       __ZN3ggl9SolidLine17BasePipelineStateC2ERKNS_20ColorBufferOperationENS_18RenderTargetFormatE, 
                       __ZN3ggl9SolidLine17BasePipelineStateC2ERKNSt3__110shared_ptrINS_15SolidLineShaderEEERKNS_20ColorBufferOperationENS_18RenderTargetFormatE, 
                       __ZN3ggl9SolidLine4View10reflectionEv, __ZN3ggl9SolidLine5Style10reflectionEv, 
                       __ZN3ggl9SolidLine8BaseMeshC1EPKc, __ZN3ggl9SolidLine8BaseMeshC1EPKcNSt3__110shared_ptrINS_15VertexDataTypedINS0_10DefaultVboEEEEENS5_INS_9IndexDataEEE, 
                       __ZN3ggl9SolidLine8BaseMeshC2EPKc, __ZN3ggl9SolidLine8BaseMeshC2EPKcNSt3__110shared_ptrINS_15VertexDataTypedINS0_10DefaultVboEEEEENS5_INS_9IndexDataEEE, 
                       __ZN3ggl9VenueWall10DefaultVbo10reflectionEv, __ZN3ggl9VenueWall10EndCapMeshC1EPKc, 
                       __ZN3ggl9VenueWall10EndCapMeshC1EPKcNSt3__110shared_ptrINS_15VertexDataTypedINS0_9EndCapVboEEEEENS5_INS_9IndexDataEEE, 
                       __ZN3ggl9VenueWall10EndCapMeshC2EPKc, __ZN3ggl9VenueWall10EndCapMeshC2EPKcNSt3__110shared_ptrINS_15VertexDataTypedINS0_9EndCapVboEEEEENS5_INS_9IndexDataEEE, 
                       __ZN3ggl9VenueWall10WallEndCap10reflectionEv, __ZN3ggl9VenueWall17MeshPipelineSetup11setMeshMeshEPKNS0_8MeshMeshE, 
                       __ZN3ggl9VenueWall17MeshPipelineSetup15typedReflectionEv, 
                       __ZN3ggl9VenueWall17MeshPipelineSetup16viewConstantDataEv, 
                       __ZN3ggl9VenueWall17MeshPipelineSetup16wallConstantDataEv, 
                       __ZN3ggl9VenueWall17MeshPipelineSetup19setViewConstantDataENSt3__110shared_ptrINS_17ConstantDataTypedINS_4Tile4ViewEEEEE, 
                       __ZN3ggl9VenueWall17MeshPipelineSetup19setWallConstantDataENSt3__110shared_ptrINS_17ConstantDataTypedINS0_4WallEEEEE, 
                       __ZN3ggl9VenueWall17MeshPipelineSetup20gradientConstantDataEv, 
                       __ZN3ggl9VenueWall17MeshPipelineSetup20lightingConstantDataEv, 
                       __ZN3ggl9VenueWall17MeshPipelineSetup23setGradientConstantDataENSt3__110shared_ptrINS_17ConstantDataTypedINS_8Building8GradientEEEEE, 
                       __ZN3ggl9VenueWall17MeshPipelineSetup23setLightingConstantDataENSt3__110shared_ptrINS_17ConstantDataTypedINS_8Building8LightingEEEEE, 
                       __ZN3ggl9VenueWall17MeshPipelineSetup8meshMeshEv, __ZN3ggl9VenueWall17MeshPipelineSetup8setStateERKNSt3__110shared_ptrINS0_17MeshPipelineStateEEE, 
                       __ZN3ggl9VenueWall17MeshPipelineSetupC1ERKNSt3__110shared_ptrINS0_17MeshPipelineStateEEE, 
                       __ZN3ggl9VenueWall17MeshPipelineSetupC1ERKNSt3__110shared_ptrINS0_17MeshPipelineStateEEERKNS3_INS_17ConstantDataTypedINS_4Tile4ViewEEEEERKNS3_INS8_INS_8Building8LightingEEEEERKNS3_INS8_INSF_8GradientEEEEERKNS3_INS8_INS0_4WallEEEEEPNS_9Texture2DE, 
                       __ZN3ggl9VenueWall17MeshPipelineSetupC1Ev, __ZN3ggl9VenueWall17MeshPipelineSetupC2ERKNSt3__110shared_ptrINS0_17MeshPipelineStateEEE, 
                       __ZN3ggl9VenueWall17MeshPipelineSetupC2ERKNSt3__110shared_ptrINS0_17MeshPipelineStateEEERKNS3_INS_17ConstantDataTypedINS_4Tile4ViewEEEEERKNS3_INS8_INS_8Building8LightingEEEEERKNS3_INS8_INSF_8GradientEEEEERKNS3_INS8_INS0_4WallEEEEEPNS_9Texture2DE, 
                       __ZN3ggl9VenueWall17MeshPipelineSetupC2Ev, __ZN3ggl9VenueWall17MeshPipelineState15typedReflectionEv, 
                       __ZN3ggl9VenueWall17MeshPipelineStateC1ERKNS_20ColorBufferOperationENS_18RenderTargetFormatE, 
                       __ZN3ggl9VenueWall17MeshPipelineStateC1ERKNSt3__110shared_ptrINS_15VenueWallShaderEEERKNS_20ColorBufferOperationENS_18RenderTargetFormatE, 
                       __ZN3ggl9VenueWall17MeshPipelineStateC2ERKNS_20ColorBufferOperationENS_18RenderTargetFormatE, 
                       __ZN3ggl9VenueWall17MeshPipelineStateC2ERKNSt3__110shared_ptrINS_15VenueWallShaderEEERKNS_20ColorBufferOperationENS_18RenderTargetFormatE, 
                       __ZN3ggl9VenueWall24WallTopMeshPipelineSetup11setMeshMeshEPKNS0_8MeshMeshE, 
                       __ZN3ggl9VenueWall24WallTopMeshPipelineSetup15typedReflectionEv, 
                       __ZN3ggl9VenueWall24WallTopMeshPipelineSetup16viewConstantDataEv, 
                       __ZN3ggl9VenueWall24WallTopMeshPipelineSetup16wallConstantDataEv, 
                       __ZN3ggl9VenueWall24WallTopMeshPipelineSetup19setViewConstantDataENSt3__110shared_ptrINS_17ConstantDataTypedINS_4Tile4ViewEEEEE, 
                       __ZN3ggl9VenueWall24WallTopMeshPipelineSetup19setWallConstantDataENSt3__110shared_ptrINS_17ConstantDataTypedINS0_7WallTopEEEEE, 
                       __ZN3ggl9VenueWall24WallTopMeshPipelineSetup20lightingConstantDataEv, 
                       __ZN3ggl9VenueWall24WallTopMeshPipelineSetup23setLightingConstantDataENSt3__110shared_ptrINS_17ConstantDataTypedINS_8Building8LightingEEEEE, 
                       __ZN3ggl9VenueWall24WallTopMeshPipelineSetup8meshMeshEv, __ZN3ggl9VenueWall24WallTopMeshPipelineSetup8setStateERKNSt3__110shared_ptrINS0_24WallTopMeshPipelineStateEEE, 
                       __ZN3ggl9VenueWall24WallTopMeshPipelineSetupC1ERKNSt3__110shared_ptrINS0_24WallTopMeshPipelineStateEEE, 
                       __ZN3ggl9VenueWall24WallTopMeshPipelineSetupC1ERKNSt3__110shared_ptrINS0_24WallTopMeshPipelineStateEEERKNS3_INS_17ConstantDataTypedINS_4Tile4ViewEEEEERKNS3_INS8_INS_8Building8LightingEEEEERKNS3_INS8_INS0_7WallTopEEEEEPNS_9Texture2DE, 
                       __ZN3ggl9VenueWall24WallTopMeshPipelineSetupC1Ev, __ZN3ggl9VenueWall24WallTopMeshPipelineSetupC2ERKNSt3__110shared_ptrINS0_24WallTopMeshPipelineStateEEE, 
                       __ZN3ggl9VenueWall24WallTopMeshPipelineSetupC2ERKNSt3__110shared_ptrINS0_24WallTopMeshPipelineStateEEERKNS3_INS_17ConstantDataTypedINS_4Tile4ViewEEEEERKNS3_INS8_INS_8Building8LightingEEEEERKNS3_INS8_INS0_7WallTopEEEEEPNS_9Texture2DE, 
                       __ZN3ggl9VenueWall24WallTopMeshPipelineSetupC2Ev, __ZN3ggl9VenueWall24WallTopMeshPipelineState15typedReflectionEv, 
                       __ZN3ggl9VenueWall24WallTopMeshPipelineStateC1ERKNS_20ColorBufferOperationENS_18RenderTargetFormatE, 
                       __ZN3ggl9VenueWall24WallTopMeshPipelineStateC1ERKNSt3__110shared_ptrINS_18VenueWallTopShaderEEERKNS_20ColorBufferOperationENS_18RenderTargetFormatE, 
                       __ZN3ggl9VenueWall24WallTopMeshPipelineStateC2ERKNS_20ColorBufferOperationENS_18RenderTargetFormatE, 
                       __ZN3ggl9VenueWall24WallTopMeshPipelineStateC2ERKNSt3__110shared_ptrINS_18VenueWallTopShaderEEERKNS_20ColorBufferOperationENS_18RenderTargetFormatE, 
                       __ZN3ggl9VenueWall27WallEndCapMeshPipelineSetup10endCapMeshEv, 
                       __ZN3ggl9VenueWall27WallEndCapMeshPipelineSetup13setEndCapMeshEPKNS0_10EndCapMeshE, 
                       __ZN3ggl9VenueWall27WallEndCapMeshPipelineSetup15typedReflectionEv, 
                       __ZN3ggl9VenueWall27WallEndCapMeshPipelineSetup16viewConstantDataEv, 
                       __ZN3ggl9VenueWall27WallEndCapMeshPipelineSetup16wallConstantDataEv, 
                       __ZN3ggl9VenueWall27WallEndCapMeshPipelineSetup19setViewConstantDataENSt3__110shared_ptrINS_17ConstantDataTypedINS_4Tile4ViewEEEEE, 
                       __ZN3ggl9VenueWall27WallEndCapMeshPipelineSetup19setWallConstantDataENSt3__110shared_ptrINS_17ConstantDataTypedINS0_10WallEndCapEEEEE, 
                       __ZN3ggl9VenueWall27WallEndCapMeshPipelineSetup20gradientConstantDataEv, 
                       __ZN3ggl9VenueWall27WallEndCapMeshPipelineSetup20lightingConstantDataEv, 
                       __ZN3ggl9VenueWall27WallEndCapMeshPipelineSetup23setGradientConstantDataENSt3__110shared_ptrINS_17ConstantDataTypedINS_8Building8GradientEEEEE, 
                       __ZN3ggl9VenueWall27WallEndCapMeshPipelineSetup23setLightingConstantDataENSt3__110shared_ptrINS_17ConstantDataTypedINS_8Building8LightingEEEEE, 
                       __ZN3ggl9VenueWall27WallEndCapMeshPipelineSetup8setStateERKNSt3__110shared_ptrINS0_27WallEndCapMeshPipelineStateEEE, 
                       __ZN3ggl9VenueWall27WallEndCapMeshPipelineSetupC1ERKNSt3__110shared_ptrINS0_27WallEndCapMeshPipelineStateEEE, 
                       __ZN3ggl9VenueWall27WallEndCapMeshPipelineSetupC1ERKNSt3__110shared_ptrINS0_27WallEndCapMeshPipelineStateEEERKNS3_INS_17ConstantDataTypedINS_4Tile4ViewEEEEERKNS3_INS8_INS_8Building8LightingEEEEERKNS3_INS8_INSF_8GradientEEEEERKNS3_INS8_INS0_10WallEndCapEEEEEPNS_9Texture2DE, 
                       __ZN3ggl9VenueWall27WallEndCapMeshPipelineSetupC1Ev, __ZN3ggl9VenueWall27WallEndCapMeshPipelineSetupC2ERKNSt3__110shared_ptrINS0_27WallEndCapMeshPipelineStateEEE, 
                       __ZN3ggl9VenueWall27WallEndCapMeshPipelineSetupC2ERKNSt3__110shared_ptrINS0_27WallEndCapMeshPipelineStateEEERKNS3_INS_17ConstantDataTypedINS_4Tile4ViewEEEEERKNS3_INS8_INS_8Building8LightingEEEEERKNS3_INS8_INSF_8GradientEEEEERKNS3_INS8_INS0_10WallEndCapEEEEEPNS_9Texture2DE, 
                       __ZN3ggl9VenueWall27WallEndCapMeshPipelineSetupC2Ev, __ZN3ggl9VenueWall27WallEndCapMeshPipelineState15typedReflectionEv, 
                       __ZN3ggl9VenueWall27WallEndCapMeshPipelineStateC1ERKNS_20ColorBufferOperationENS_18RenderTargetFormatE, 
                       __ZN3ggl9VenueWall27WallEndCapMeshPipelineStateC1ERKNSt3__110shared_ptrINS_21VenueWallEndCapShaderEEERKNS_20ColorBufferOperationENS_18RenderTargetFormatE, 
                       __ZN3ggl9VenueWall27WallEndCapMeshPipelineStateC2ERKNS_20ColorBufferOperationENS_18RenderTargetFormatE, 
                       __ZN3ggl9VenueWall27WallEndCapMeshPipelineStateC2ERKNSt3__110shared_ptrINS_21VenueWallEndCapShaderEEERKNS_20ColorBufferOperationENS_18RenderTargetFormatE, 
                       __ZN3ggl9VenueWall4Wall10reflectionEv, __ZN3ggl9VenueWall7WallTop10reflectionEv, 
                       __ZN3ggl9VenueWall8MeshMeshC1EPKc, __ZN3ggl9VenueWall8MeshMeshC1EPKcNSt3__110shared_ptrINS_15VertexDataTypedINS0_10DefaultVboEEEEENS5_INS_9IndexDataEEE, 
                       __ZN3ggl9VenueWall8MeshMeshC2EPKc, __ZN3ggl9VenueWall8MeshMeshC2EPKcNSt3__110shared_ptrINS_15VertexDataTypedINS0_10DefaultVboEEEEENS5_INS_9IndexDataEEE, 
                       __ZN3ggl9VenueWall9EndCapVbo10reflectionEv, __ZN7MITPathC1ENSt3__112basic_stringIcNS0_11char_traitsIcEENS0_9allocatorIcEEEE, 
                       __ZN7MITPathC2ENSt3__112basic_stringIcNS0_11char_traitsIcEENS0_9allocatorIcEEEE, 
                       __ZN9MITObject7setNameERKNSt3__112basic_stringIcNS0_11char_traitsIcEENS0_9allocatorIcEEEE, 
                       __ZN9MITObject7setPathERK7MITPath, __ZN9MITObjectC1ENSt3__112basic_stringIcNS0_11char_traitsIcEENS0_9allocatorIcEEEE, 
                       __ZN9MITObjectC1EOS_, __ZN9MITObjectC1ERKS_, __ZN9MITObjectC1Ev, 
                       __ZN9MITObjectC2ENSt3__112basic_stringIcNS0_11char_traitsIcEENS0_9allocatorIcEEEE, 
                       __ZN9MITObjectC2EOS_, __ZN9MITObjectC2ERKS_, __ZN9MITObjectC2Ev, 
                       __ZN9MITObjectD1Ev, __ZN9MITObjectD2Ev, __ZN9MITObjectaSEOS_, 
                       __ZN9MITObjectaSERKS_, __ZNK2md13DebugTreeNode13serializeNodeEv, 
                       __ZNK2md13DebugTreeNode17findChildWithNameERKNSt3__112basic_stringIcNS1_11char_traitsIcEENS1_9allocatorIcEEEE, 
                       __ZNK2md13DebugTreeNode20findPropertyWithNameERKNSt3__112basic_stringIcNS1_11char_traitsIcEENS1_9allocatorIcEEEE, 
                       __ZNK2md13DebugTreeNode7logNodeEP15NSMutableString, __ZNK2md13DebugTreeNode9printNodeEv, 
                       __ZNK2md14DebugTreeValue10printValueEv, __ZNK2md14DebugTreeValue12doubleNumberEv, 
                       __ZNK2md14DebugTreeValue14serializeValueEv, __ZNK2md14DebugTreeValue14unsignedNumberEv, 
                       __ZNK2md14DebugTreeValue6numberEv, __ZNK2md14DebugTreeValue6stringEv, 
                       __ZNK2md14DebugTreeValue7booleanEv, __ZNK2md14DebugTreeValue8logValueEP15NSMutableString, 
                       __ZNK2md17DebugTreeProperty11logPropertyEP15NSMutableString, 
                       __ZNK2md17DebugTreeProperty12valueAtIndexEm, __ZNK2md17DebugTreeProperty13printPropertyEv, 
                       __ZNK2md17DebugTreeProperty17serializePropertyEv, __ZNK2md9DebugTree13serializeTreeEv, 
                       __ZNK2md9DebugTree16findNodeWithNameERKNSt3__112basic_stringIcNS1_11char_traitsIcEENS1_9allocatorIcEEEE, 
                       __ZNK2md9DebugTree7logTreeEv, __ZNK2md9DebugTree9printTreeEv, 
                       __ZNK3ggl10EndOfWorld17BasePipelineSetup18sharedConstantDataEv, 
                       __ZNK3ggl10EndOfWorld17BasePipelineSetup19elementConstantDataEv, 
                       __ZNK3ggl10EndOfWorld17BasePipelineSetup21sharedConstantDataPtrEv, 
                       __ZNK3ggl10EndOfWorld17BasePipelineSetup22elementConstantDataPtrEv, 
                       __ZNK3ggl10SimpleGrid17GridPipelineSetup16viewConstantDataEv, 
                       __ZNK3ggl10SimpleGrid17GridPipelineSetup17styleConstantDataEv, 
                       __ZNK3ggl10SimpleGrid17GridPipelineSetup19viewConstantDataPtrEv, 
                       __ZNK3ggl10SimpleGrid17GridPipelineSetup20gridViewConstantDataEv, 
                       __ZNK3ggl10SimpleGrid17GridPipelineSetup20styleConstantDataPtrEv, 
                       __ZNK3ggl10SimpleGrid17GridPipelineSetup23gridViewConstantDataPtrEv, 
                       __ZNK3ggl10TileSkybox17BasePipelineSetup16viewConstantDataEv, 
                       __ZNK3ggl10TileSkybox17BasePipelineSetup19elementConstantDataEv, 
                       __ZNK3ggl10TileSkybox17BasePipelineSetup19viewConstantDataPtrEv, 
                       __ZNK3ggl10TileSkybox17BasePipelineSetup22elementConstantDataPtrEv, 
                       __ZNK3ggl11ColoredText15MyPipelineSetup16viewConstantDataEv, 
                       __ZNK3ggl11ColoredText15MyPipelineSetup19viewConstantDataPtrEv, 
                       __ZNK3ggl11DebugPoints17BasePipelineSetup16viewConstantDataEv, 
                       __ZNK3ggl11DebugPoints17BasePipelineSetup19viewConstantDataPtrEv, 
                       __ZNK3ggl11EarthCorona17BasePipelineSetup16baseConstantDataEv, 
                       __ZNK3ggl11EarthCorona17BasePipelineSetup19baseConstantDataPtrEv, 
                       __ZNK3ggl11FlyoverFlat17FlatPipelineSetup16clipConstantDataEv, 
                       __ZNK3ggl11FlyoverFlat17FlatPipelineSetup18sharedConstantDataEv, 
                       __ZNK3ggl11FlyoverFlat17FlatPipelineSetup19clipConstantDataPtrEv, 
                       __ZNK3ggl11FlyoverFlat17FlatPipelineSetup20materialConstantDataEv, 
                       __ZNK3ggl11FlyoverFlat17FlatPipelineSetup21sharedConstantDataPtrEv, 
                       __ZNK3ggl11FlyoverFlat17FlatPipelineSetup21texcoordsConstantDataEv, 
                       __ZNK3ggl11FlyoverFlat17FlatPipelineSetup21transformConstantDataEv, 
                       __ZNK3ggl11FlyoverFlat17FlatPipelineSetup22flatFactorConstantDataEv, 
                       __ZNK3ggl11FlyoverFlat17FlatPipelineSetup23materialConstantDataPtrEv, 
                       __ZNK3ggl11FlyoverFlat17FlatPipelineSetup24texcoordsConstantDataPtrEv, 
                       __ZNK3ggl11FlyoverFlat17FlatPipelineSetup24transformConstantDataPtrEv, 
                       __ZNK3ggl11FlyoverFlat17FlatPipelineSetup25flatFactorConstantDataPtrEv, 
                       __ZNK3ggl11PolygonFill17MeshPipelineSetup16fillConstantDataEv, 
                       __ZNK3ggl11PolygonFill17MeshPipelineSetup16viewConstantDataEv, 
                       __ZNK3ggl11PolygonFill17MeshPipelineSetup19fillConstantDataPtrEv, 
                       __ZNK3ggl11PolygonFill17MeshPipelineSetup19viewConstantDataPtrEv, 
                       __ZNK3ggl11PolygonFill27CompressedMeshPipelineSetup16fillConstantDataEv, 
                       __ZNK3ggl11PolygonFill27CompressedMeshPipelineSetup16viewConstantDataEv, 
                       __ZNK3ggl11PolygonFill27CompressedMeshPipelineSetup19fillConstantDataPtrEv, 
                       __ZNK3ggl11PolygonFill27CompressedMeshPipelineSetup19viewConstantDataPtrEv, 
                       __ZNK3ggl11ShadedColor16P3NPipelineSetup17propsConstantDataEv, 
                       __ZNK3ggl11ShadedColor16P3NPipelineSetup18sharedConstantDataEv, 
                       __ZNK3ggl11ShadedColor16P3NPipelineSetup20propsConstantDataPtrEv, 
                       __ZNK3ggl11ShadedColor16P3NPipelineSetup21sharedConstantDataPtrEv, 
                       __ZNK3ggl11SolidRibbon13PipelineSetup16viewConstantDataEv, 
                       __ZNK3ggl11SolidRibbon13PipelineSetup17styleConstantDataEv, 
                       __ZNK3ggl11SolidRibbon13PipelineSetup19viewConstantDataPtrEv, 
                       __ZNK3ggl11SolidRibbon13PipelineSetup20styleConstantDataPtrEv, 
                       __ZNK3ggl11TrafficGlow17BasePipelineSetup16viewConstantDataEv, 
                       __ZNK3ggl11TrafficGlow17BasePipelineSetup17styleConstantDataEv, 
                       __ZNK3ggl11TrafficGlow17BasePipelineSetup19viewConstantDataPtrEv, 
                       __ZNK3ggl11TrafficGlow17BasePipelineSetup20styleConstantDataPtrEv, 
                       __ZNK3ggl12BuildingFlat27CompressedMeshPipelineSetup16viewConstantDataEv, 
                       __ZNK3ggl12BuildingFlat27CompressedMeshPipelineSetup19viewConstantDataPtrEv, 
                       __ZNK3ggl12BuildingFlat27CompressedMeshPipelineSetup20buildingConstantDataEv, 
                       __ZNK3ggl12BuildingFlat27CompressedMeshPipelineSetup23buildingConstantDataPtrEv, 
                       __ZNK3ggl12FlyoverMorph18MorphPipelineSetup16clipConstantDataEv, 
                       __ZNK3ggl12FlyoverMorph18MorphPipelineSetup17morphConstantDataEv, 
                       __ZNK3ggl12FlyoverMorph18MorphPipelineSetup18sharedConstantDataEv, 
                       __ZNK3ggl12FlyoverMorph18MorphPipelineSetup19clipConstantDataPtrEv, 
                       __ZNK3ggl12FlyoverMorph18MorphPipelineSetup20materialConstantDataEv, 
                       __ZNK3ggl12FlyoverMorph18MorphPipelineSetup20morphConstantDataPtrEv, 
                       __ZNK3ggl12FlyoverMorph18MorphPipelineSetup21sharedConstantDataPtrEv, 
                       __ZNK3ggl12FlyoverMorph18MorphPipelineSetup21texcoordsConstantDataEv, 
                       __ZNK3ggl12FlyoverMorph18MorphPipelineSetup21transformConstantDataEv, 
                       __ZNK3ggl12FlyoverMorph18MorphPipelineSetup23materialConstantDataPtrEv, 
                       __ZNK3ggl12FlyoverMorph18MorphPipelineSetup24texcoordsConstantDataPtrEv, 
                       __ZNK3ggl12FlyoverMorph18MorphPipelineSetup24transformConstantDataPtrEv, 
                       __ZNK3ggl12FlyoverNight20FlyoverPipelineSetup16clipConstantDataEv, 
                       __ZNK3ggl12FlyoverNight20FlyoverPipelineSetup18sharedConstantDataEv, 
                       __ZNK3ggl12FlyoverNight20FlyoverPipelineSetup19clipConstantDataPtrEv, 
                       __ZNK3ggl12FlyoverNight20FlyoverPipelineSetup20materialConstantDataEv, 
                       __ZNK3ggl12FlyoverNight20FlyoverPipelineSetup21sharedConstantDataPtrEv, 
                       __ZNK3ggl12FlyoverNight20FlyoverPipelineSetup21texcoordsConstantDataEv, 
                       __ZNK3ggl12FlyoverNight20FlyoverPipelineSetup21transformConstantDataEv, 
                       __ZNK3ggl12FlyoverNight20FlyoverPipelineSetup23materialConstantDataPtrEv, 
                       __ZNK3ggl12FlyoverNight20FlyoverPipelineSetup24texcoordsConstantDataPtrEv, 
                       __ZNK3ggl12FlyoverNight20FlyoverPipelineSetup24transformConstantDataPtrEv, 
                       __ZNK3ggl12FlyoverRoute20DefaultPipelineSetup16viewConstantDataEv, 
                       __ZNK3ggl12FlyoverRoute20DefaultPipelineSetup17styleConstantDataEv, 
                       __ZNK3ggl12FlyoverRoute20DefaultPipelineSetup19viewConstantDataPtrEv, 
                       __ZNK3ggl12FlyoverRoute20DefaultPipelineSetup20styleConstantDataPtrEv, 
                       __ZNK3ggl12FlyoverRoute20DefaultPipelineSetup24displacementConstantDataEv, 
                       __ZNK3ggl12FlyoverRoute20DefaultPipelineSetup27displacementConstantDataPtrEv, 
                       __ZNK3ggl12LandmarkFlat21LandmarkPipelineSetup16viewConstantDataEv, 
                       __ZNK3ggl12LandmarkFlat21LandmarkPipelineSetup17scaleConstantDataEv, 
                       __ZNK3ggl12LandmarkFlat21LandmarkPipelineSetup17styleConstantDataEv, 
                       __ZNK3ggl12LandmarkFlat21LandmarkPipelineSetup18skyfogConstantDataEv, 
                       __ZNK3ggl12LandmarkFlat21LandmarkPipelineSetup19viewConstantDataPtrEv, 
                       __ZNK3ggl12LandmarkFlat21LandmarkPipelineSetup20scaleConstantDataPtrEv, 
                       __ZNK3ggl12LandmarkFlat21LandmarkPipelineSetup20styleConstantDataPtrEv, 
                       __ZNK3ggl12LandmarkFlat21LandmarkPipelineSetup21skyfogConstantDataPtrEv, 
                       __ZNK3ggl12SolidTraffic17BasePipelineSetup16viewConstantDataEv, 
                       __ZNK3ggl12SolidTraffic17BasePipelineSetup17styleConstantDataEv, 
                       __ZNK3ggl12SolidTraffic17BasePipelineSetup19viewConstantDataPtrEv, 
                       __ZNK3ggl12SolidTraffic17BasePipelineSetup20styleConstantDataPtrEv, 
                       __ZNK3ggl13CommonLibrary11clearShaderEv, __ZNK3ggl13CommonLibrary17coloredTextShaderEv, 
                       __ZNK3ggl13CommonLibrary17shadedColorShaderEv, __ZNK3ggl13FlyoverBorder26FlyoverBorderPipelineSetup16clipConstantDataEv, 
                       __ZNK3ggl13FlyoverBorder26FlyoverBorderPipelineSetup18sharedConstantDataEv, 
                       __ZNK3ggl13FlyoverBorder26FlyoverBorderPipelineSetup19clipConstantDataPtrEv, 
                       __ZNK3ggl13FlyoverBorder26FlyoverBorderPipelineSetup20materialConstantDataEv, 
                       __ZNK3ggl13FlyoverBorder26FlyoverBorderPipelineSetup21sharedConstantDataPtrEv, 
                       __ZNK3ggl13FlyoverBorder26FlyoverBorderPipelineSetup21texcoordsConstantDataEv, 
                       __ZNK3ggl13FlyoverBorder26FlyoverBorderPipelineSetup21transformConstantDataEv, 
                       __ZNK3ggl13FlyoverBorder26FlyoverBorderPipelineSetup23materialConstantDataPtrEv, 
                       __ZNK3ggl13FlyoverBorder26FlyoverBorderPipelineSetup24texcoordsConstantDataPtrEv, 
                       __ZNK3ggl13FlyoverBorder26FlyoverBorderPipelineSetup24transformConstantDataPtrEv, 
                       __ZNK3ggl13FlyoverMasked20FlyoverPipelineSetup16clipConstantDataEv, 
                       __ZNK3ggl13FlyoverMasked20FlyoverPipelineSetup18sharedConstantDataEv, 
                       __ZNK3ggl13FlyoverMasked20FlyoverPipelineSetup19clipConstantDataPtrEv, 
                       __ZNK3ggl13FlyoverMasked20FlyoverPipelineSetup20materialConstantDataEv, 
                       __ZNK3ggl13FlyoverMasked20FlyoverPipelineSetup21sharedConstantDataPtrEv, 
                       __ZNK3ggl13FlyoverMasked20FlyoverPipelineSetup21texcoordsConstantDataEv, 
                       __ZNK3ggl13FlyoverMasked20FlyoverPipelineSetup21transformConstantDataEv, 
                       __ZNK3ggl13FlyoverMasked20FlyoverPipelineSetup23materialConstantDataPtrEv, 
                       __ZNK3ggl13FlyoverMasked20FlyoverPipelineSetup24texcoordsConstantDataPtrEv, 
                       __ZNK3ggl13FlyoverMasked20FlyoverPipelineSetup24transformConstantDataPtrEv, 
                       __ZNK3ggl13LandmarkDepth21BuildingPipelineSetup16viewConstantDataEv, 
                       __ZNK3ggl13LandmarkDepth21BuildingPipelineSetup17scaleConstantDataEv, 
                       __ZNK3ggl13LandmarkDepth21BuildingPipelineSetup19viewConstantDataPtrEv, 
                       __ZNK3ggl13LandmarkDepth21BuildingPipelineSetup20scaleConstantDataPtrEv, 
                       __ZNK3ggl13ManeuverPoint17BasePipelineSetup16viewConstantDataEv, 
                       __ZNK3ggl13ManeuverPoint17BasePipelineSetup17styleConstantDataEv, 
                       __ZNK3ggl13ManeuverPoint17BasePipelineSetup19viewConstantDataPtrEv, 
                       __ZNK3ggl13ManeuverPoint17BasePipelineSetup20styleConstantDataPtrEv, 
                       __ZNK3ggl13OcclusionLine26OcclusionLinePipelineSetup16viewConstantDataEv, 
                       __ZNK3ggl13OcclusionLine26OcclusionLinePipelineSetup19viewConstantDataPtrEv, 
                       __ZNK3ggl13PolygonStroke17MeshPipelineSetup16viewConstantDataEv, 
                       __ZNK3ggl13PolygonStroke17MeshPipelineSetup19polygonConstantDataEv, 
                       __ZNK3ggl13PolygonStroke17MeshPipelineSetup19viewConstantDataPtrEv, 
                       __ZNK3ggl13PolygonStroke17MeshPipelineSetup22polygonConstantDataPtrEv, 
                       __ZNK3ggl13TrafficCasing17BasePipelineSetup16viewConstantDataEv, 
                       __ZNK3ggl13TrafficCasing17BasePipelineSetup17styleConstantDataEv, 
                       __ZNK3ggl13TrafficCasing17BasePipelineSetup19viewConstantDataPtrEv, 
                       __ZNK3ggl13TrafficCasing17BasePipelineSetup20styleConstantDataPtrEv, 
                       __ZNK3ggl13Venue3DStroke34VerticalVenue3DStrokePipelineSetup16viewConstantDataEv, 
                       __ZNK3ggl13Venue3DStroke34VerticalVenue3DStrokePipelineSetup17styleConstantDataEv, 
                       __ZNK3ggl13Venue3DStroke34VerticalVenue3DStrokePipelineSetup19viewConstantDataPtrEv, 
                       __ZNK3ggl13Venue3DStroke34VerticalVenue3DStrokePipelineSetup20styleConstantDataPtrEv, 
                       __ZNK3ggl13Venue3DStroke36HorizontalVenue3DStrokePipelineSetup16viewConstantDataEv, 
                       __ZNK3ggl13Venue3DStroke36HorizontalVenue3DStrokePipelineSetup17styleConstantDataEv, 
                       __ZNK3ggl13Venue3DStroke36HorizontalVenue3DStrokePipelineSetup19viewConstantDataPtrEv, 
                       __ZNK3ggl13Venue3DStroke36HorizontalVenue3DStrokePipelineSetup20styleConstantDataPtrEv, 
                       __ZNK3ggl14BuildingShadow17MeshPipelineSetup16viewConstantDataEv, 
                       __ZNK3ggl14BuildingShadow17MeshPipelineSetup18shadowConstantDataEv, 
                       __ZNK3ggl14BuildingShadow17MeshPipelineSetup19viewConstantDataPtrEv, 
                       __ZNK3ggl14BuildingShadow17MeshPipelineSetup21shadowConstantDataPtrEv, 
                       __ZNK3ggl14FlyoverLibrary11starsShaderEv, __ZNK3ggl14FlyoverLibrary13flyoverShaderEv, 
                       __ZNK3ggl14FlyoverLibrary15imageCopyShaderEv, __ZNK3ggl14FlyoverLibrary15solidLineShaderEv, 
                       __ZNK3ggl14FlyoverLibrary16endOfWorldShaderEv, __ZNK3ggl14FlyoverLibrary16tileSkyboxShaderEv, 
                       __ZNK3ggl14FlyoverLibrary17earthCoronaShaderEv, __ZNK3ggl14FlyoverLibrary17flyoverFlatShaderEv, 
                       __ZNK3ggl14FlyoverLibrary18flyoverMorphShaderEv, __ZNK3ggl14FlyoverLibrary18flyoverNightShaderEv, 
                       __ZNK3ggl14FlyoverLibrary18flyoverRouteShaderEv, __ZNK3ggl14FlyoverLibrary19flyoverBorderShaderEv, 
                       __ZNK3ggl14FlyoverLibrary19flyoverMaskedShaderEv, __ZNK3ggl14FlyoverLibrary20flyoverOverlayShaderEv, 
                       __ZNK3ggl14FlyoverLibrary20flyoverTrafficShaderEv, __ZNK3ggl14FlyoverLibrary21flyoverManeuverShaderEv, 
                       __ZNK3ggl14FlyoverLibrary21flyoverNightDimShaderEv, __ZNK3ggl14FlyoverLibrary21tileBaseSurfaceShaderEv, 
                       __ZNK3ggl14FlyoverLibrary23flyoverMorphNightShaderEv, __ZNK3ggl14FlyoverLibrary24flyoverMorphBorderShaderEv, 
                       __ZNK3ggl14FlyoverLibrary25flyoverBorderRibbonShaderEv, __ZNK3ggl14FlyoverLibrary25stenciledAlphaClearShaderEv, 
                       __ZNK3ggl14FlyoverLibrary29flyoverRoadFillTexturedShaderEv, 
                       __ZNK3ggl14FlyoverLibrary31flyoverRoadFillProceduralShaderEv, 
                       __ZNK3ggl14FlyoverLibrary31flyoverRoadStrokeTexturedShaderEv, 
                       __ZNK3ggl14FlyoverLibrary33flyoverRoadStrokeProceduralShaderEv, 
                       __ZNK3ggl14FlyoverOverlay17P3T2PipelineSetup18sharedConstantDataEv, 
                       __ZNK3ggl14FlyoverOverlay17P3T2PipelineSetup21sharedConstantDataPtrEv, 
                       __ZNK3ggl14FlyoverOverlay17P3T2PipelineSetup21transformConstantDataEv, 
                       __ZNK3ggl14FlyoverOverlay17P3T2PipelineSetup24transformConstantDataPtrEv, 
                       __ZNK3ggl14FlyoverTraffic20DefaultPipelineSetup16viewConstantDataEv, 
                       __ZNK3ggl14FlyoverTraffic20DefaultPipelineSetup17styleConstantDataEv, 
                       __ZNK3ggl14FlyoverTraffic20DefaultPipelineSetup18sharedConstantDataEv, 
                       __ZNK3ggl14FlyoverTraffic20DefaultPipelineSetup19patternConstantDataEv, 
                       __ZNK3ggl14FlyoverTraffic20DefaultPipelineSetup19viewConstantDataPtrEv, 
                       __ZNK3ggl14FlyoverTraffic20DefaultPipelineSetup20styleConstantDataPtrEv, 
                       __ZNK3ggl14FlyoverTraffic20DefaultPipelineSetup21sharedConstantDataPtrEv, 
                       __ZNK3ggl14FlyoverTraffic20DefaultPipelineSetup22patternConstantDataPtrEv, 
                       __ZNK3ggl14FlyoverTraffic20DefaultPipelineSetup24displacementConstantDataEv, 
                       __ZNK3ggl14FlyoverTraffic20DefaultPipelineSetup27displacementConstantDataPtrEv, 
                       __ZNK3ggl14RouteLineArrow17BasePipelineSetup16viewConstantDataEv, 
                       __ZNK3ggl14RouteLineArrow17BasePipelineSetup17styleConstantDataEv, 
                       __ZNK3ggl14RouteLineArrow17BasePipelineSetup19viewConstantDataPtrEv, 
                       __ZNK3ggl14RouteLineArrow17BasePipelineSetup20styleConstantDataPtrEv, 
                       __ZNK3ggl14TransitNodeRGB17BasePipelineSetup20settingsConstantDataEv, 
                       __ZNK3ggl14TransitNodeRGB17BasePipelineSetup23settingsConstantDataPtrEv, 
                       __ZNK3ggl15DiffuseBuilding21BuildingPipelineSetup16fadeConstantDataEv, 
                       __ZNK3ggl15DiffuseBuilding21BuildingPipelineSetup16viewConstantDataEv, 
                       __ZNK3ggl15DiffuseBuilding21BuildingPipelineSetup17scaleConstantDataEv, 
                       __ZNK3ggl15DiffuseBuilding21BuildingPipelineSetup17styleConstantDataEv, 
                       __ZNK3ggl15DiffuseBuilding21BuildingPipelineSetup18skyfogConstantDataEv, 
                       __ZNK3ggl15DiffuseBuilding21BuildingPipelineSetup19fadeConstantDataPtrEv, 
                       __ZNK3ggl15DiffuseBuilding21BuildingPipelineSetup19viewConstantDataPtrEv, 
                       __ZNK3ggl15DiffuseBuilding21BuildingPipelineSetup20gradientConstantDataEv, 
                       __ZNK3ggl15DiffuseBuilding21BuildingPipelineSetup20lightingConstantDataEv, 
                       __ZNK3ggl15DiffuseBuilding21BuildingPipelineSetup20scaleConstantDataPtrEv, 
                       __ZNK3ggl15DiffuseBuilding21BuildingPipelineSetup20styleConstantDataPtrEv, 
                       __ZNK3ggl15DiffuseBuilding21BuildingPipelineSetup21skyfogConstantDataPtrEv, 
                       __ZNK3ggl15DiffuseBuilding21BuildingPipelineSetup23gradientConstantDataPtrEv, 
                       __ZNK3ggl15DiffuseBuilding21BuildingPipelineSetup23lightingConstantDataPtrEv, 
                       __ZNK3ggl15DiffuseLandmark21BuildingPipelineSetup16fadeConstantDataEv, 
                       __ZNK3ggl15DiffuseLandmark21BuildingPipelineSetup16viewConstantDataEv, 
                       __ZNK3ggl15DiffuseLandmark21BuildingPipelineSetup17scaleConstantDataEv, 
                       __ZNK3ggl15DiffuseLandmark21BuildingPipelineSetup17styleConstantDataEv, 
                       __ZNK3ggl15DiffuseLandmark21BuildingPipelineSetup18skyfogConstantDataEv, 
                       __ZNK3ggl15DiffuseLandmark21BuildingPipelineSetup19fadeConstantDataPtrEv, 
                       __ZNK3ggl15DiffuseLandmark21BuildingPipelineSetup19viewConstantDataPtrEv, 
                       __ZNK3ggl15DiffuseLandmark21BuildingPipelineSetup20gradientConstantDataEv, 
                       __ZNK3ggl15DiffuseLandmark21BuildingPipelineSetup20lightingConstantDataEv, 
                       __ZNK3ggl15DiffuseLandmark21BuildingPipelineSetup20scaleConstantDataPtrEv, 
                       __ZNK3ggl15DiffuseLandmark21BuildingPipelineSetup20styleConstantDataPtrEv, 
                       __ZNK3ggl15DiffuseLandmark21BuildingPipelineSetup21skyfogConstantDataPtrEv, 
                       __ZNK3ggl15DiffuseLandmark21BuildingPipelineSetup23gradientConstantDataPtrEv, 
                       __ZNK3ggl15DiffuseLandmark21BuildingPipelineSetup23lightingConstantDataPtrEv, 
                       __ZNK3ggl15FlyoverManeuver20DefaultPipelineSetup16viewConstantDataEv, 
                       __ZNK3ggl15FlyoverManeuver20DefaultPipelineSetup17styleConstantDataEv, 
                       __ZNK3ggl15FlyoverManeuver20DefaultPipelineSetup19viewConstantDataPtrEv, 
                       __ZNK3ggl15FlyoverManeuver20DefaultPipelineSetup20styleConstantDataPtrEv, 
                       __ZNK3ggl15FlyoverManeuver20DefaultPipelineSetup24displacementConstantDataEv, 
                       __ZNK3ggl15FlyoverManeuver20DefaultPipelineSetup27displacementConstantDataPtrEv, 
                       __ZNK3ggl15FlyoverNightDim17QuadPipelineSetup17colorConstantDataEv, 
                       __ZNK3ggl15FlyoverNightDim17QuadPipelineSetup20colorConstantDataPtrEv, 
                       __ZNK3ggl15PatternedRibbon17BasePipelineSetup16viewConstantDataEv, 
                       __ZNK3ggl15PatternedRibbon17BasePipelineSetup17styleConstantDataEv, 
                       __ZNK3ggl15PatternedRibbon17BasePipelineSetup19viewConstantDataPtrEv, 
                       __ZNK3ggl15PatternedRibbon17BasePipelineSetup20styleConstantDataPtrEv, 
                       __ZNK3ggl15PrefilteredLine28PrefilteredLinePipelineSetup16viewConstantDataEv, 
                       __ZNK3ggl15PrefilteredLine28PrefilteredLinePipelineSetup17styleConstantDataEv, 
                       __ZNK3ggl15PrefilteredLine28PrefilteredLinePipelineSetup18skyfogConstantDataEv, 
                       __ZNK3ggl15PrefilteredLine28PrefilteredLinePipelineSetup19viewConstantDataPtrEv, 
                       __ZNK3ggl15PrefilteredLine28PrefilteredLinePipelineSetup20styleConstantDataPtrEv, 
                       __ZNK3ggl15PrefilteredLine28PrefilteredLinePipelineSetup21skyfogConstantDataPtrEv, 
                       __ZNK3ggl15StandardLibrary10clutShaderEv, __ZNK3ggl15StandardLibrary10glowShaderEv, 
                       __ZNK3ggl15StandardLibrary10gridShaderEv, __ZNK3ggl15StandardLibrary10iconShaderEv, 
                       __ZNK3ggl15StandardLibrary10lineShaderEv, __ZNK3ggl15StandardLibrary11debugShaderEv, 
                       __ZNK3ggl15StandardLibrary14texturedShaderEv, __ZNK3ggl15StandardLibrary15glowAlphaShaderEv, 
                       __ZNK3ggl15StandardLibrary15imageCopyShaderEv, __ZNK3ggl15StandardLibrary15routeLineShaderEv, 
                       __ZNK3ggl15StandardLibrary15venueWallShaderEv, __ZNK3ggl15StandardLibrary16simpleGridShaderEv, 
                       __ZNK3ggl15StandardLibrary17debugPointsShaderEv, __ZNK3ggl15StandardLibrary17polygonFillShaderEv, 
                       __ZNK3ggl15StandardLibrary17solidRibbonShaderEv, __ZNK3ggl15StandardLibrary17trafficGlowShaderEv, 
                       __ZNK3ggl15StandardLibrary18buildingFlatShaderEv, __ZNK3ggl15StandardLibrary18landmarkFlatShaderEv, 
                       __ZNK3ggl15StandardLibrary18solidTrafficShaderEv, __ZNK3ggl15StandardLibrary18venueWallTopShaderEv, 
                       __ZNK3ggl15StandardLibrary19landmarkDepthShaderEv, __ZNK3ggl15StandardLibrary19maneuverPointShaderEv, 
                       __ZNK3ggl15StandardLibrary19occlusionLineShaderEv, __ZNK3ggl15StandardLibrary19polygonStrokeShaderEv, 
                       __ZNK3ggl15StandardLibrary19trafficCasingShaderEv, __ZNK3ggl15StandardLibrary20buildingShadowShaderEv, 
                       __ZNK3ggl15StandardLibrary20routeLineArrowShaderEv, __ZNK3ggl15StandardLibrary20transitNodeRGBShaderEv, 
                       __ZNK3ggl15StandardLibrary21diffuseBuildingShaderEv, __ZNK3ggl15StandardLibrary21diffuseLandmarkShaderEv, 
                       __ZNK3ggl15StandardLibrary21patternedRibbonShaderEv, __ZNK3ggl15StandardLibrary21prefilteredLineShaderEv, 
                       __ZNK3ggl15StandardLibrary21venueWallEndCapShaderEv, __ZNK3ggl15StandardLibrary21venueWallShadowShaderEv, 
                       __ZNK3ggl15StandardLibrary22buildingTopDepthShaderEv, __ZNK3ggl15StandardLibrary22optimizedTrafficShaderEv, 
                       __ZNK3ggl15StandardLibrary22polygonSolidFillShaderEv, __ZNK3ggl15StandardLibrary22routeLineTrafficShaderEv, 
                       __ZNK3ggl15StandardLibrary22specularBuildingShaderEv, __ZNK3ggl15StandardLibrary22specularLandmarkShaderEv, 
                       __ZNK3ggl15StandardLibrary22textureAlphaMaskShaderEv, __ZNK3ggl15StandardLibrary23animatableTextureShaderEv, 
                       __ZNK3ggl15StandardLibrary23outerShadowRibbonShaderEv, __ZNK3ggl15StandardLibrary23renderTargetBlendShaderEv, 
                       __ZNK3ggl15StandardLibrary23transitLineRibbonShaderEv, __ZNK3ggl15StandardLibrary24buildingFlatStrokeShaderEv, 
                       __ZNK3ggl15StandardLibrary24diffuseBuildingTopShaderEv, __ZNK3ggl15StandardLibrary24glyphWithOuterHaloShaderEv, 
                       __ZNK3ggl15StandardLibrary24patternedRouteLineShaderEv, __ZNK3ggl15StandardLibrary24styleTextureRibbonShaderEv, 
                       __ZNK3ggl15StandardLibrary25buildingFacadeDepthShaderEv, __ZNK3ggl15StandardLibrary25glyphWithNormalHaloShaderEv, 
                       __ZNK3ggl15StandardLibrary25routeLineAlphaResetShaderEv, __ZNK3ggl15StandardLibrary25specularBuildingTopShaderEv, 
                       __ZNK3ggl15StandardLibrary25texturedSolidRibbonShaderEv, __ZNK3ggl15StandardLibrary26transitNodeColorizedShaderEv, 
                       __ZNK3ggl15StandardLibrary27foggedDiffuseBuildingShaderEv, 
                       __ZNK3ggl15StandardLibrary27foggedDiffuseLandmarkShaderEv, 
                       __ZNK3ggl15StandardLibrary27polygonAnimatableFillShaderEv, 
                       __ZNK3ggl15StandardLibrary27polygonShadowedStrokeShaderEv, 
                       __ZNK3ggl15StandardLibrary27textureWithBrightnessShaderEv, 
                       __ZNK3ggl15StandardLibrary27verticalVenue3DStrokeShaderEv, 
                       __ZNK3ggl15StandardLibrary28foggedSpecularBuildingShaderEv, 
                       __ZNK3ggl15StandardLibrary28foggedSpecularLandmarkShaderEv, 
                       __ZNK3ggl15StandardLibrary28venueOpenToBelowShadowShaderEv, 
                       __ZNK3ggl15StandardLibrary29buildingPointyRoofDepthShaderEv, 
                       __ZNK3ggl15StandardLibrary29colorGlyphWithOuterHaloShaderEv, 
                       __ZNK3ggl15StandardLibrary29horizontalVenue3DStrokeShaderEv, 
                       __ZNK3ggl15StandardLibrary29polygonAnimatableStrokeShaderEv, 
                       __ZNK3ggl15StandardLibrary29textureWithReverseAlphaShaderEv, 
                       __ZNK3ggl15StandardLibrary30colorGlyphWithNormalHaloShaderEv, 
                       __ZNK3ggl15StandardLibrary30foggedDiffuseBuildingTopShaderEv, 
                       __ZNK3ggl15StandardLibrary31diffuseBuildingPointyRoofShaderEv, 
                       __ZNK3ggl15StandardLibrary31foggedSpecularBuildingTopShaderEv, 
                       __ZNK3ggl15StandardLibrary31texturedInnerShadowRibbonShaderEv, 
                       __ZNK3ggl15StandardLibrary32patternedTransitLineRibbonShaderEv, 
                       __ZNK3ggl15StandardLibrary32specularBuildingPointyRoofShaderEv, 
                       __ZNK3ggl15StandardLibrary33animatedTexturedGroundCoverShaderEv, 
                       __ZNK3ggl15StandardLibrary33venueOpenToBelowShadowAlphaShaderEv, 
                       __ZNK3ggl15StandardLibrary9fogShaderEv, __ZNK3ggl15StandardLibrary9skyShaderEv, 
                       __ZNK3ggl15TileBaseSurface19P3T2T2PipelineSetup18sharedConstantDataEv, 
                       __ZNK3ggl15TileBaseSurface19P3T2T2PipelineSetup19elementConstantDataEv, 
                       __ZNK3ggl15TileBaseSurface19P3T2T2PipelineSetup21sharedConstantDataPtrEv, 
                       __ZNK3ggl15TileBaseSurface19P3T2T2PipelineSetup22elementConstantDataPtrEv, 
                       __ZNK3ggl15VenueWallShadow17MeshPipelineSetup16viewConstantDataEv, 
                       __ZNK3ggl15VenueWallShadow17MeshPipelineSetup16wallConstantDataEv, 
                       __ZNK3ggl15VenueWallShadow17MeshPipelineSetup19viewConstantDataPtrEv, 
                       __ZNK3ggl15VenueWallShadow17MeshPipelineSetup19wallConstantDataPtrEv, 
                       __ZNK3ggl16BuildingTopDepth27CompressedMeshPipelineSetup16viewConstantDataEv, 
                       __ZNK3ggl16BuildingTopDepth27CompressedMeshPipelineSetup17scaleConstantDataEv, 
                       __ZNK3ggl16BuildingTopDepth27CompressedMeshPipelineSetup19viewConstantDataPtrEv, 
                       __ZNK3ggl16BuildingTopDepth27CompressedMeshPipelineSetup20scaleConstantDataPtrEv, 
                       __ZNK3ggl16OptimizedTraffic17BasePipelineSetup16viewConstantDataEv, 
                       __ZNK3ggl16OptimizedTraffic17BasePipelineSetup17styleConstantDataEv, 
                       __ZNK3ggl16OptimizedTraffic17BasePipelineSetup19viewConstantDataPtrEv, 
                       __ZNK3ggl16OptimizedTraffic17BasePipelineSetup20styleConstantDataPtrEv, 
                       __ZNK3ggl16PolygonSolidFill17MeshPipelineSetup16viewConstantDataEv, 
                       __ZNK3ggl16PolygonSolidFill17MeshPipelineSetup19viewConstantDataPtrEv, 
                       __ZNK3ggl16PolygonSolidFill17MeshPipelineSetup21solidFillConstantDataEv, 
                       __ZNK3ggl16PolygonSolidFill17MeshPipelineSetup24solidFillConstantDataPtrEv, 
                       __ZNK3ggl16PolygonSolidFill27CompressedMeshPipelineSetup16viewConstantDataEv, 
                       __ZNK3ggl16PolygonSolidFill27CompressedMeshPipelineSetup19viewConstantDataPtrEv, 
                       __ZNK3ggl16PolygonSolidFill27CompressedMeshPipelineSetup21solidFillConstantDataEv, 
                       __ZNK3ggl16PolygonSolidFill27CompressedMeshPipelineSetup24solidFillConstantDataPtrEv, 
                       __ZNK3ggl16RouteLineTraffic17BasePipelineSetup16viewConstantDataEv, 
                       __ZNK3ggl16RouteLineTraffic17BasePipelineSetup17styleConstantDataEv, 
                       __ZNK3ggl16RouteLineTraffic17BasePipelineSetup19viewConstantDataPtrEv, 
                       __ZNK3ggl16RouteLineTraffic17BasePipelineSetup20styleConstantDataPtrEv, 
                       __ZNK3ggl16SpecularBuilding21BuildingPipelineSetup16fadeConstantDataEv, 
                       __ZNK3ggl16SpecularBuilding21BuildingPipelineSetup16viewConstantDataEv, 
                       __ZNK3ggl16SpecularBuilding21BuildingPipelineSetup17scaleConstantDataEv, 
                       __ZNK3ggl16SpecularBuilding21BuildingPipelineSetup17styleConstantDataEv, 
                       __ZNK3ggl16SpecularBuilding21BuildingPipelineSetup18skyfogConstantDataEv, 
                       __ZNK3ggl16SpecularBuilding21BuildingPipelineSetup19fadeConstantDataPtrEv, 
                       __ZNK3ggl16SpecularBuilding21BuildingPipelineSetup19viewConstantDataPtrEv, 
                       __ZNK3ggl16SpecularBuilding21BuildingPipelineSetup20gradientConstantDataEv, 
                       __ZNK3ggl16SpecularBuilding21BuildingPipelineSetup20lightingConstantDataEv, 
                       __ZNK3ggl16SpecularBuilding21BuildingPipelineSetup20scaleConstantDataPtrEv, 
                       __ZNK3ggl16SpecularBuilding21BuildingPipelineSetup20styleConstantDataPtrEv, 
                       __ZNK3ggl16SpecularBuilding21BuildingPipelineSetup21skyfogConstantDataPtrEv, 
                       __ZNK3ggl16SpecularBuilding21BuildingPipelineSetup23gradientConstantDataPtrEv, 
                       __ZNK3ggl16SpecularBuilding21BuildingPipelineSetup23lightingConstantDataPtrEv, 
                       __ZNK3ggl16SpecularLandmark21LandmarkPipelineSetup16fadeConstantDataEv, 
                       __ZNK3ggl16SpecularLandmark21LandmarkPipelineSetup16viewConstantDataEv, 
                       __ZNK3ggl16SpecularLandmark21LandmarkPipelineSetup17scaleConstantDataEv, 
                       __ZNK3ggl16SpecularLandmark21LandmarkPipelineSetup17styleConstantDataEv, 
                       __ZNK3ggl16SpecularLandmark21LandmarkPipelineSetup18skyfogConstantDataEv, 
                       __ZNK3ggl16SpecularLandmark21LandmarkPipelineSetup19fadeConstantDataPtrEv, 
                       __ZNK3ggl16SpecularLandmark21LandmarkPipelineSetup19viewConstantDataPtrEv, 
                       __ZNK3ggl16SpecularLandmark21LandmarkPipelineSetup20gradientConstantDataEv, 
                       __ZNK3ggl16SpecularLandmark21LandmarkPipelineSetup20lightingConstantDataEv, 
                       __ZNK3ggl16SpecularLandmark21LandmarkPipelineSetup20scaleConstantDataPtrEv, 
                       __ZNK3ggl16SpecularLandmark21LandmarkPipelineSetup20styleConstantDataPtrEv, 
                       __ZNK3ggl16SpecularLandmark21LandmarkPipelineSetup21skyfogConstantDataPtrEv, 
                       __ZNK3ggl16SpecularLandmark21LandmarkPipelineSetup23gradientConstantDataPtrEv, 
                       __ZNK3ggl16SpecularLandmark21LandmarkPipelineSetup23lightingConstantDataPtrEv, 
                       __ZNK3ggl16TextureAlphaMask17MeshPipelineSetup16viewConstantDataEv, 
                       __ZNK3ggl16TextureAlphaMask17MeshPipelineSetup17styleConstantDataEv, 
                       __ZNK3ggl16TextureAlphaMask17MeshPipelineSetup19viewConstantDataPtrEv, 
                       __ZNK3ggl16TextureAlphaMask17MeshPipelineSetup20styleConstantDataPtrEv, 
                       __ZNK3ggl17AnimatableTexture24Pos2DUVMeshPipelineSetup16viewConstantDataEv, 
                       __ZNK3ggl17AnimatableTexture24Pos2DUVMeshPipelineSetup19variantConstantDataEv, 
                       __ZNK3ggl17AnimatableTexture24Pos2DUVMeshPipelineSetup19viewConstantDataPtrEv, 
                       __ZNK3ggl17AnimatableTexture24Pos2DUVMeshPipelineSetup22variantConstantDataPtrEv, 
                       __ZNK3ggl17FlyoverMorphNight18MorphPipelineSetup16clipConstantDataEv, 
                       __ZNK3ggl17FlyoverMorphNight18MorphPipelineSetup17morphConstantDataEv, 
                       __ZNK3ggl17FlyoverMorphNight18MorphPipelineSetup18sharedConstantDataEv, 
                       __ZNK3ggl17FlyoverMorphNight18MorphPipelineSetup19clipConstantDataPtrEv, 
                       __ZNK3ggl17FlyoverMorphNight18MorphPipelineSetup20materialConstantDataEv, 
                       __ZNK3ggl17FlyoverMorphNight18MorphPipelineSetup20morphConstantDataPtrEv, 
                       __ZNK3ggl17FlyoverMorphNight18MorphPipelineSetup21sharedConstantDataPtrEv, 
                       __ZNK3ggl17FlyoverMorphNight18MorphPipelineSetup21texcoordsConstantDataEv, 
                       __ZNK3ggl17FlyoverMorphNight18MorphPipelineSetup21transformConstantDataEv, 
                       __ZNK3ggl17FlyoverMorphNight18MorphPipelineSetup23materialConstantDataPtrEv, 
                       __ZNK3ggl17FlyoverMorphNight18MorphPipelineSetup24texcoordsConstantDataPtrEv, 
                       __ZNK3ggl17FlyoverMorphNight18MorphPipelineSetup24transformConstantDataPtrEv, 
                       __ZNK3ggl17OuterShadowRibbon13PipelineSetup16viewConstantDataEv, 
                       __ZNK3ggl17OuterShadowRibbon13PipelineSetup17styleConstantDataEv, 
                       __ZNK3ggl17OuterShadowRibbon13PipelineSetup19viewConstantDataPtrEv, 
                       __ZNK3ggl17OuterShadowRibbon13PipelineSetup20styleConstantDataPtrEv, 
                       __ZNK3ggl17RenderTargetBlend17QuadPipelineSetup17blendConstantDataEv, 
                       __ZNK3ggl17RenderTargetBlend17QuadPipelineSetup20blendConstantDataPtrEv, 
                       __ZNK3ggl17TransitLineRibbon17BasePipelineSetup16viewConstantDataEv, 
                       __ZNK3ggl17TransitLineRibbon17BasePipelineSetup17styleConstantDataEv, 
                       __ZNK3ggl17TransitLineRibbon17BasePipelineSetup19viewConstantDataPtrEv, 
                       __ZNK3ggl17TransitLineRibbon17BasePipelineSetup20styleConstantDataPtrEv, 
                       __ZNK3ggl17TransitLineRibbon26PatternedBasePipelineSetup16viewConstantDataEv, 
                       __ZNK3ggl17TransitLineRibbon26PatternedBasePipelineSetup17styleConstantDataEv, 
                       __ZNK3ggl17TransitLineRibbon26PatternedBasePipelineSetup19viewConstantDataPtrEv, 
                       __ZNK3ggl17TransitLineRibbon26PatternedBasePipelineSetup20styleConstantDataPtrEv, 
                       __ZNK3ggl17TransitLineRibbon26PatternedBasePipelineSetup24patternStyleConstantDataEv, 
                       __ZNK3ggl17TransitLineRibbon26PatternedBasePipelineSetup27patternStyleConstantDataPtrEv, 
                       __ZNK3ggl18BuildingFlatStroke31BuildingFlatStrokePipelineSetup16viewConstantDataEv, 
                       __ZNK3ggl18BuildingFlatStroke31BuildingFlatStrokePipelineSetup19viewConstantDataPtrEv, 
                       __ZNK3ggl18BuildingFlatStroke31BuildingFlatStrokePipelineSetup20buildingConstantDataEv, 
                       __ZNK3ggl18BuildingFlatStroke31BuildingFlatStrokePipelineSetup23buildingConstantDataPtrEv, 
                       __ZNK3ggl18DiffuseBuildingTop27CompressedMeshPipelineSetup16fadeConstantDataEv, 
                       __ZNK3ggl18DiffuseBuildingTop27CompressedMeshPipelineSetup16viewConstantDataEv, 
                       __ZNK3ggl18DiffuseBuildingTop27CompressedMeshPipelineSetup17scaleConstantDataEv, 
                       __ZNK3ggl18DiffuseBuildingTop27CompressedMeshPipelineSetup17styleConstantDataEv, 
                       __ZNK3ggl18DiffuseBuildingTop27CompressedMeshPipelineSetup18skyfogConstantDataEv, 
                       __ZNK3ggl18DiffuseBuildingTop27CompressedMeshPipelineSetup19fadeConstantDataPtrEv, 
                       __ZNK3ggl18DiffuseBuildingTop27CompressedMeshPipelineSetup19viewConstantDataPtrEv, 
                       __ZNK3ggl18DiffuseBuildingTop27CompressedMeshPipelineSetup20gradientConstantDataEv, 
                       __ZNK3ggl18DiffuseBuildingTop27CompressedMeshPipelineSetup20lightingConstantDataEv, 
                       __ZNK3ggl18DiffuseBuildingTop27CompressedMeshPipelineSetup20scaleConstantDataPtrEv, 
                       __ZNK3ggl18DiffuseBuildingTop27CompressedMeshPipelineSetup20styleConstantDataPtrEv, 
                       __ZNK3ggl18DiffuseBuildingTop27CompressedMeshPipelineSetup21skyfogConstantDataPtrEv, 
                       __ZNK3ggl18DiffuseBuildingTop27CompressedMeshPipelineSetup23gradientConstantDataPtrEv, 
                       __ZNK3ggl18DiffuseBuildingTop27CompressedMeshPipelineSetup23lightingConstantDataPtrEv, 
                       __ZNK3ggl18FlyoverMorphBorder24MorphBorderPipelineSetup16clipConstantDataEv, 
                       __ZNK3ggl18FlyoverMorphBorder24MorphBorderPipelineSetup17morphConstantDataEv, 
                       __ZNK3ggl18FlyoverMorphBorder24MorphBorderPipelineSetup18sharedConstantDataEv, 
                       __ZNK3ggl18FlyoverMorphBorder24MorphBorderPipelineSetup19clipConstantDataPtrEv, 
                       __ZNK3ggl18FlyoverMorphBorder24MorphBorderPipelineSetup20materialConstantDataEv, 
                       __ZNK3ggl18FlyoverMorphBorder24MorphBorderPipelineSetup20morphConstantDataPtrEv, 
                       __ZNK3ggl18FlyoverMorphBorder24MorphBorderPipelineSetup21sharedConstantDataPtrEv, 
                       __ZNK3ggl18FlyoverMorphBorder24MorphBorderPipelineSetup21texcoordsConstantDataEv, 
                       __ZNK3ggl18FlyoverMorphBorder24MorphBorderPipelineSetup21transformConstantDataEv, 
                       __ZNK3ggl18FlyoverMorphBorder24MorphBorderPipelineSetup23materialConstantDataPtrEv, 
                       __ZNK3ggl18FlyoverMorphBorder24MorphBorderPipelineSetup24texcoordsConstantDataPtrEv, 
                       __ZNK3ggl18FlyoverMorphBorder24MorphBorderPipelineSetup24transformConstantDataPtrEv, 
                       __ZNK3ggl18GlyphWithOuterHalo20DefaultPipelineSetup16viewConstantDataEv, 
                       __ZNK3ggl18GlyphWithOuterHalo20DefaultPipelineSetup19channelConstantDataEv, 
                       __ZNK3ggl18GlyphWithOuterHalo20DefaultPipelineSetup19viewConstantDataPtrEv, 
                       __ZNK3ggl18GlyphWithOuterHalo20DefaultPipelineSetup22channelConstantDataPtrEv, 
                       __ZNK3ggl18StyleTextureRibbon17BasePipelineSetup16viewConstantDataEv, 
                       __ZNK3ggl18StyleTextureRibbon17BasePipelineSetup17styleConstantDataEv, 
                       __ZNK3ggl18StyleTextureRibbon17BasePipelineSetup19viewConstantDataPtrEv, 
                       __ZNK3ggl18StyleTextureRibbon17BasePipelineSetup20styleConstantDataPtrEv, 
                       __ZNK3ggl19BuildingFacadeDepth21BuildingPipelineSetup16viewConstantDataEv, 
                       __ZNK3ggl19BuildingFacadeDepth21BuildingPipelineSetup17scaleConstantDataEv, 
                       __ZNK3ggl19BuildingFacadeDepth21BuildingPipelineSetup19viewConstantDataPtrEv, 
                       __ZNK3ggl19BuildingFacadeDepth21BuildingPipelineSetup20scaleConstantDataPtrEv, 
                       __ZNK3ggl19FlyoverBorderRibbon20DefaultPipelineSetup16tileConstantDataEv, 
                       __ZNK3ggl19FlyoverBorderRibbon20DefaultPipelineSetup16viewConstantDataEv, 
                       __ZNK3ggl19FlyoverBorderRibbon20DefaultPipelineSetup17blendConstantDataEv, 
                       __ZNK3ggl19FlyoverBorderRibbon20DefaultPipelineSetup17colorConstantDataEv, 
                       __ZNK3ggl19FlyoverBorderRibbon20DefaultPipelineSetup18borderConstantDataEv, 
                       __ZNK3ggl19FlyoverBorderRibbon20DefaultPipelineSetup19tileConstantDataPtrEv, 
                       __ZNK3ggl19FlyoverBorderRibbon20DefaultPipelineSetup19viewConstantDataPtrEv, 
                       __ZNK3ggl19FlyoverBorderRibbon20DefaultPipelineSetup20blendConstantDataPtrEv, 
                       __ZNK3ggl19FlyoverBorderRibbon20DefaultPipelineSetup20colorConstantDataPtrEv, 
                       __ZNK3ggl19FlyoverBorderRibbon20DefaultPipelineSetup21borderConstantDataPtrEv, 
                       __ZNK3ggl19GlyphWithNormalHalo20DefaultPipelineSetup16viewConstantDataEv, 
                       __ZNK3ggl19GlyphWithNormalHalo20DefaultPipelineSetup19channelConstantDataEv, 
                       __ZNK3ggl19GlyphWithNormalHalo20DefaultPipelineSetup19viewConstantDataPtrEv, 
                       __ZNK3ggl19GlyphWithNormalHalo20DefaultPipelineSetup22channelConstantDataPtrEv, 
                       __ZNK3ggl19RouteLineAlphaReset17BasePipelineSetup16viewConstantDataEv, 
                       __ZNK3ggl19RouteLineAlphaReset17BasePipelineSetup17styleConstantDataEv, 
                       __ZNK3ggl19RouteLineAlphaReset17BasePipelineSetup18paramsConstantDataEv, 
                       __ZNK3ggl19RouteLineAlphaReset17BasePipelineSetup19viewConstantDataPtrEv, 
                       __ZNK3ggl19RouteLineAlphaReset17BasePipelineSetup20styleConstantDataPtrEv, 
                       __ZNK3ggl19RouteLineAlphaReset17BasePipelineSetup21paramsConstantDataPtrEv, 
                       __ZNK3ggl19SpecularBuildingTop27CompressedMeshPipelineSetup16fadeConstantDataEv, 
                       __ZNK3ggl19SpecularBuildingTop27CompressedMeshPipelineSetup16viewConstantDataEv, 
                       __ZNK3ggl19SpecularBuildingTop27CompressedMeshPipelineSetup17scaleConstantDataEv, 
                       __ZNK3ggl19SpecularBuildingTop27CompressedMeshPipelineSetup17styleConstantDataEv, 
                       __ZNK3ggl19SpecularBuildingTop27CompressedMeshPipelineSetup18skyfogConstantDataEv, 
                       __ZNK3ggl19SpecularBuildingTop27CompressedMeshPipelineSetup19fadeConstantDataPtrEv, 
                       __ZNK3ggl19SpecularBuildingTop27CompressedMeshPipelineSetup19viewConstantDataPtrEv, 
                       __ZNK3ggl19SpecularBuildingTop27CompressedMeshPipelineSetup20gradientConstantDataEv, 
                       __ZNK3ggl19SpecularBuildingTop27CompressedMeshPipelineSetup20lightingConstantDataEv, 
                       __ZNK3ggl19SpecularBuildingTop27CompressedMeshPipelineSetup20scaleConstantDataPtrEv, 
                       __ZNK3ggl19SpecularBuildingTop27CompressedMeshPipelineSetup20styleConstantDataPtrEv, 
                       __ZNK3ggl19SpecularBuildingTop27CompressedMeshPipelineSetup21skyfogConstantDataPtrEv, 
                       __ZNK3ggl19SpecularBuildingTop27CompressedMeshPipelineSetup23gradientConstantDataPtrEv, 
                       __ZNK3ggl19SpecularBuildingTop27CompressedMeshPipelineSetup23lightingConstantDataPtrEv, 
                       __ZNK3ggl19TexturedSolidRibbon13PipelineSetup16viewConstantDataEv, 
                       __ZNK3ggl19TexturedSolidRibbon13PipelineSetup17noiseConstantDataEv, 
                       __ZNK3ggl19TexturedSolidRibbon13PipelineSetup17styleConstantDataEv, 
                       __ZNK3ggl19TexturedSolidRibbon13PipelineSetup19viewConstantDataPtrEv, 
                       __ZNK3ggl19TexturedSolidRibbon13PipelineSetup20noiseConstantDataPtrEv, 
                       __ZNK3ggl19TexturedSolidRibbon13PipelineSetup20styleConstantDataPtrEv, 
                       __ZNK3ggl20TransitNodeColorized17BasePipelineSetup20settingsConstantDataEv, 
                       __ZNK3ggl20TransitNodeColorized17BasePipelineSetup23settingsConstantDataPtrEv, 
                       __ZNK3ggl21FoggedDiffuseBuilding21BuildingPipelineSetup16fadeConstantDataEv, 
                       __ZNK3ggl21FoggedDiffuseBuilding21BuildingPipelineSetup16viewConstantDataEv, 
                       __ZNK3ggl21FoggedDiffuseBuilding21BuildingPipelineSetup17scaleConstantDataEv, 
                       __ZNK3ggl21FoggedDiffuseBuilding21BuildingPipelineSetup17styleConstantDataEv, 
                       __ZNK3ggl21FoggedDiffuseBuilding21BuildingPipelineSetup18skyfogConstantDataEv, 
                       __ZNK3ggl21FoggedDiffuseBuilding21BuildingPipelineSetup19fadeConstantDataPtrEv, 
                       __ZNK3ggl21FoggedDiffuseBuilding21BuildingPipelineSetup19viewConstantDataPtrEv, 
                       __ZNK3ggl21FoggedDiffuseBuilding21BuildingPipelineSetup20gradientConstantDataEv, 
                       __ZNK3ggl21FoggedDiffuseBuilding21BuildingPipelineSetup20lightingConstantDataEv, 
                       __ZNK3ggl21FoggedDiffuseBuilding21BuildingPipelineSetup20scaleConstantDataPtrEv, 
                       __ZNK3ggl21FoggedDiffuseBuilding21BuildingPipelineSetup20styleConstantDataPtrEv, 
                       __ZNK3ggl21FoggedDiffuseBuilding21BuildingPipelineSetup21skyfogConstantDataPtrEv, 
                       __ZNK3ggl21FoggedDiffuseBuilding21BuildingPipelineSetup23gradientConstantDataPtrEv, 
                       __ZNK3ggl21FoggedDiffuseBuilding21BuildingPipelineSetup23lightingConstantDataPtrEv, 
                       __ZNK3ggl21FoggedDiffuseLandmark21LandmarkPipelineSetup16fadeConstantDataEv, 
                       __ZNK3ggl21FoggedDiffuseLandmark21LandmarkPipelineSetup16viewConstantDataEv, 
                       __ZNK3ggl21FoggedDiffuseLandmark21LandmarkPipelineSetup17scaleConstantDataEv, 
                       __ZNK3ggl21FoggedDiffuseLandmark21LandmarkPipelineSetup17styleConstantDataEv, 
                       __ZNK3ggl21FoggedDiffuseLandmark21LandmarkPipelineSetup18skyfogConstantDataEv, 
                       __ZNK3ggl21FoggedDiffuseLandmark21LandmarkPipelineSetup19fadeConstantDataPtrEv, 
                       __ZNK3ggl21FoggedDiffuseLandmark21LandmarkPipelineSetup19viewConstantDataPtrEv, 
                       __ZNK3ggl21FoggedDiffuseLandmark21LandmarkPipelineSetup20gradientConstantDataEv, 
                       __ZNK3ggl21FoggedDiffuseLandmark21LandmarkPipelineSetup20lightingConstantDataEv, 
                       __ZNK3ggl21FoggedDiffuseLandmark21LandmarkPipelineSetup20scaleConstantDataPtrEv, 
                       __ZNK3ggl21FoggedDiffuseLandmark21LandmarkPipelineSetup20styleConstantDataPtrEv, 
                       __ZNK3ggl21FoggedDiffuseLandmark21LandmarkPipelineSetup21skyfogConstantDataPtrEv, 
                       __ZNK3ggl21FoggedDiffuseLandmark21LandmarkPipelineSetup23gradientConstantDataPtrEv, 
                       __ZNK3ggl21FoggedDiffuseLandmark21LandmarkPipelineSetup23lightingConstantDataPtrEv, 
                       __ZNK3ggl21PolygonAnimatableFill17MeshPipelineSetup16fillConstantDataEv, 
                       __ZNK3ggl21PolygonAnimatableFill17MeshPipelineSetup16viewConstantDataEv, 
                       __ZNK3ggl21PolygonAnimatableFill17MeshPipelineSetup19fillConstantDataPtrEv, 
                       __ZNK3ggl21PolygonAnimatableFill17MeshPipelineSetup19variantConstantDataEv, 
                       __ZNK3ggl21PolygonAnimatableFill17MeshPipelineSetup19viewConstantDataPtrEv, 
                       __ZNK3ggl21PolygonAnimatableFill17MeshPipelineSetup22variantConstantDataPtrEv, 
                       __ZNK3ggl21PolygonAnimatableFill27CompressedMeshPipelineSetup16fillConstantDataEv, 
                       __ZNK3ggl21PolygonAnimatableFill27CompressedMeshPipelineSetup16viewConstantDataEv, 
                       __ZNK3ggl21PolygonAnimatableFill27CompressedMeshPipelineSetup19fillConstantDataPtrEv, 
                       __ZNK3ggl21PolygonAnimatableFill27CompressedMeshPipelineSetup19variantConstantDataEv, 
                       __ZNK3ggl21PolygonAnimatableFill27CompressedMeshPipelineSetup19viewConstantDataPtrEv, 
                       __ZNK3ggl21PolygonAnimatableFill27CompressedMeshPipelineSetup22variantConstantDataPtrEv, 
                       __ZNK3ggl21PolygonShadowedStroke23ShadowPathPipelineSetup16viewConstantDataEv, 
                       __ZNK3ggl21PolygonShadowedStroke23ShadowPathPipelineSetup19viewConstantDataPtrEv, 
                       __ZNK3ggl21PolygonShadowedStroke23ShadowPathPipelineSetup22shadowPathConstantDataEv, 
                       __ZNK3ggl21PolygonShadowedStroke23ShadowPathPipelineSetup25shadowPathConstantDataPtrEv, 
                       __ZNK3ggl21TextureWithBrightness17MeshPipelineSetup16viewConstantDataEv, 
                       __ZNK3ggl21TextureWithBrightness17MeshPipelineSetup17styleConstantDataEv, 
                       __ZNK3ggl21TextureWithBrightness17MeshPipelineSetup19viewConstantDataPtrEv, 
                       __ZNK3ggl21TextureWithBrightness17MeshPipelineSetup20styleConstantDataPtrEv, 
                       __ZNK3ggl22FoggedSpecularBuilding21BuildingPipelineSetup16fadeConstantDataEv, 
                       __ZNK3ggl22FoggedSpecularBuilding21BuildingPipelineSetup16viewConstantDataEv, 
                       __ZNK3ggl22FoggedSpecularBuilding21BuildingPipelineSetup17scaleConstantDataEv, 
                       __ZNK3ggl22FoggedSpecularBuilding21BuildingPipelineSetup17styleConstantDataEv, 
                       __ZNK3ggl22FoggedSpecularBuilding21BuildingPipelineSetup18skyfogConstantDataEv, 
                       __ZNK3ggl22FoggedSpecularBuilding21BuildingPipelineSetup19fadeConstantDataPtrEv, 
                       __ZNK3ggl22FoggedSpecularBuilding21BuildingPipelineSetup19viewConstantDataPtrEv, 
                       __ZNK3ggl22FoggedSpecularBuilding21BuildingPipelineSetup20gradientConstantDataEv, 
                       __ZNK3ggl22FoggedSpecularBuilding21BuildingPipelineSetup20lightingConstantDataEv, 
                       __ZNK3ggl22FoggedSpecularBuilding21BuildingPipelineSetup20scaleConstantDataPtrEv, 
                       __ZNK3ggl22FoggedSpecularBuilding21BuildingPipelineSetup20styleConstantDataPtrEv, 
                       __ZNK3ggl22FoggedSpecularBuilding21BuildingPipelineSetup21skyfogConstantDataPtrEv, 
                       __ZNK3ggl22FoggedSpecularBuilding21BuildingPipelineSetup23gradientConstantDataPtrEv, 
                       __ZNK3ggl22FoggedSpecularBuilding21BuildingPipelineSetup23lightingConstantDataPtrEv, 
                       __ZNK3ggl22FoggedSpecularLandmark21LandmarkPipelineSetup16fadeConstantDataEv, 
                       __ZNK3ggl22FoggedSpecularLandmark21LandmarkPipelineSetup16viewConstantDataEv, 
                       __ZNK3ggl22FoggedSpecularLandmark21LandmarkPipelineSetup17scaleConstantDataEv, 
                       __ZNK3ggl22FoggedSpecularLandmark21LandmarkPipelineSetup17styleConstantDataEv, 
                       __ZNK3ggl22FoggedSpecularLandmark21LandmarkPipelineSetup18skyfogConstantDataEv, 
                       __ZNK3ggl22FoggedSpecularLandmark21LandmarkPipelineSetup19fadeConstantDataPtrEv, 
                       __ZNK3ggl22FoggedSpecularLandmark21LandmarkPipelineSetup19viewConstantDataPtrEv, 
                       __ZNK3ggl22FoggedSpecularLandmark21LandmarkPipelineSetup20gradientConstantDataEv, 
                       __ZNK3ggl22FoggedSpecularLandmark21LandmarkPipelineSetup20lightingConstantDataEv, 
                       __ZNK3ggl22FoggedSpecularLandmark21LandmarkPipelineSetup20scaleConstantDataPtrEv, 
                       __ZNK3ggl22FoggedSpecularLandmark21LandmarkPipelineSetup20styleConstantDataPtrEv, 
                       __ZNK3ggl22FoggedSpecularLandmark21LandmarkPipelineSetup21skyfogConstantDataPtrEv, 
                       __ZNK3ggl22FoggedSpecularLandmark21LandmarkPipelineSetup23gradientConstantDataPtrEv, 
                       __ZNK3ggl22FoggedSpecularLandmark21LandmarkPipelineSetup23lightingConstantDataPtrEv, 
                       __ZNK3ggl22VenueOpenToBelowShadow17MeshPipelineSetup16viewConstantDataEv, 
                       __ZNK3ggl22VenueOpenToBelowShadow17MeshPipelineSetup17styleConstantDataEv, 
                       __ZNK3ggl22VenueOpenToBelowShadow17MeshPipelineSetup19viewConstantDataPtrEv, 
                       __ZNK3ggl22VenueOpenToBelowShadow17MeshPipelineSetup20styleConstantDataPtrEv, 
                       __ZNK3ggl23BuildingPointyRoofDepth21BuildingPipelineSetup16viewConstantDataEv, 
                       __ZNK3ggl23BuildingPointyRoofDepth21BuildingPipelineSetup17scaleConstantDataEv, 
                       __ZNK3ggl23BuildingPointyRoofDepth21BuildingPipelineSetup19viewConstantDataPtrEv, 
                       __ZNK3ggl23BuildingPointyRoofDepth21BuildingPipelineSetup20scaleConstantDataPtrEv, 
                       __ZNK3ggl23ColorGlyphWithOuterHalo20DefaultPipelineSetup16viewConstantDataEv, 
                       __ZNK3ggl23ColorGlyphWithOuterHalo20DefaultPipelineSetup19channelConstantDataEv, 
                       __ZNK3ggl23ColorGlyphWithOuterHalo20DefaultPipelineSetup19viewConstantDataPtrEv, 
                       __ZNK3ggl23ColorGlyphWithOuterHalo20DefaultPipelineSetup22channelConstantDataPtrEv, 
                       __ZNK3ggl23FlyoverRoadFillTextured20DefaultPipelineSetup16viewConstantDataEv, 
                       __ZNK3ggl23FlyoverRoadFillTextured20DefaultPipelineSetup17blendConstantDataEv, 
                       __ZNK3ggl23FlyoverRoadFillTextured20DefaultPipelineSetup17colorConstantDataEv, 
                       __ZNK3ggl23FlyoverRoadFillTextured20DefaultPipelineSetup19viewConstantDataPtrEv, 
                       __ZNK3ggl23FlyoverRoadFillTextured20DefaultPipelineSetup20blendConstantDataPtrEv, 
                       __ZNK3ggl23FlyoverRoadFillTextured20DefaultPipelineSetup20colorConstantDataPtrEv, 
                       __ZNK3ggl23FlyoverRoadFillTextured20DefaultPipelineSetup21transformConstantDataEv, 
                       __ZNK3ggl23FlyoverRoadFillTextured20DefaultPipelineSetup24transformConstantDataPtrEv, 
                       __ZNK3ggl23PolygonAnimatableStroke17MeshPipelineSetup16viewConstantDataEv, 
                       __ZNK3ggl23PolygonAnimatableStroke17MeshPipelineSetup19polygonConstantDataEv, 
                       __ZNK3ggl23PolygonAnimatableStroke17MeshPipelineSetup19variantConstantDataEv, 
                       __ZNK3ggl23PolygonAnimatableStroke17MeshPipelineSetup19viewConstantDataPtrEv, 
                       __ZNK3ggl23PolygonAnimatableStroke17MeshPipelineSetup22polygonConstantDataPtrEv, 
                       __ZNK3ggl23PolygonAnimatableStroke17MeshPipelineSetup22variantConstantDataPtrEv, 
                       __ZNK3ggl23PolygonAnimatableStroke17MeshPipelineSetup29animatablePolygonConstantDataEv, 
                       __ZNK3ggl23PolygonAnimatableStroke17MeshPipelineSetup32animatablePolygonConstantDataPtrEv, 
                       __ZNK3ggl23TextureWithReverseAlpha20Pos2DUVPipelineSetup16viewConstantDataEv, 
                       __ZNK3ggl23TextureWithReverseAlpha20Pos2DUVPipelineSetup19viewConstantDataPtrEv, 
                       __ZNK3ggl23TextureWithReverseAlpha20Pos2DUVPipelineSetup24reverseAlphaConstantDataEv, 
                       __ZNK3ggl23TextureWithReverseAlpha20Pos2DUVPipelineSetup27reverseAlphaConstantDataPtrEv, 
                       __ZNK3ggl24ColorGlyphWithNormalHalo20DefaultPipelineSetup16viewConstantDataEv, 
                       __ZNK3ggl24ColorGlyphWithNormalHalo20DefaultPipelineSetup19channelConstantDataEv, 
                       __ZNK3ggl24ColorGlyphWithNormalHalo20DefaultPipelineSetup19viewConstantDataPtrEv, 
                       __ZNK3ggl24ColorGlyphWithNormalHalo20DefaultPipelineSetup22channelConstantDataPtrEv, 
                       __ZNK3ggl24FoggedDiffuseBuildingTop27CompressedMeshPipelineSetup16fadeConstantDataEv, 
                       __ZNK3ggl24FoggedDiffuseBuildingTop27CompressedMeshPipelineSetup16viewConstantDataEv, 
                       __ZNK3ggl24FoggedDiffuseBuildingTop27CompressedMeshPipelineSetup17scaleConstantDataEv, 
                       __ZNK3ggl24FoggedDiffuseBuildingTop27CompressedMeshPipelineSetup17styleConstantDataEv, 
                       __ZNK3ggl24FoggedDiffuseBuildingTop27CompressedMeshPipelineSetup18skyfogConstantDataEv, 
                       __ZNK3ggl24FoggedDiffuseBuildingTop27CompressedMeshPipelineSetup19fadeConstantDataPtrEv, 
                       __ZNK3ggl24FoggedDiffuseBuildingTop27CompressedMeshPipelineSetup19viewConstantDataPtrEv, 
                       __ZNK3ggl24FoggedDiffuseBuildingTop27CompressedMeshPipelineSetup20gradientConstantDataEv, 
                       __ZNK3ggl24FoggedDiffuseBuildingTop27CompressedMeshPipelineSetup20lightingConstantDataEv, 
                       __ZNK3ggl24FoggedDiffuseBuildingTop27CompressedMeshPipelineSetup20scaleConstantDataPtrEv, 
                       __ZNK3ggl24FoggedDiffuseBuildingTop27CompressedMeshPipelineSetup20styleConstantDataPtrEv, 
                       __ZNK3ggl24FoggedDiffuseBuildingTop27CompressedMeshPipelineSetup21skyfogConstantDataPtrEv, 
                       __ZNK3ggl24FoggedDiffuseBuildingTop27CompressedMeshPipelineSetup23gradientConstantDataPtrEv, 
                       __ZNK3ggl24FoggedDiffuseBuildingTop27CompressedMeshPipelineSetup23lightingConstantDataPtrEv, 
                       __ZNK3ggl25DiffuseBuildingPointyRoof21BuildingPipelineSetup16fadeConstantDataEv, 
                       __ZNK3ggl25DiffuseBuildingPointyRoof21BuildingPipelineSetup16viewConstantDataEv, 
                       __ZNK3ggl25DiffuseBuildingPointyRoof21BuildingPipelineSetup17scaleConstantDataEv, 
                       __ZNK3ggl25DiffuseBuildingPointyRoof21BuildingPipelineSetup17styleConstantDataEv, 
                       __ZNK3ggl25DiffuseBuildingPointyRoof21BuildingPipelineSetup18skyfogConstantDataEv, 
                       __ZNK3ggl25DiffuseBuildingPointyRoof21BuildingPipelineSetup19fadeConstantDataPtrEv, 
                       __ZNK3ggl25DiffuseBuildingPointyRoof21BuildingPipelineSetup19viewConstantDataPtrEv, 
                       __ZNK3ggl25DiffuseBuildingPointyRoof21BuildingPipelineSetup20gradientConstantDataEv, 
                       __ZNK3ggl25DiffuseBuildingPointyRoof21BuildingPipelineSetup20lightingConstantDataEv, 
                       __ZNK3ggl25DiffuseBuildingPointyRoof21BuildingPipelineSetup20scaleConstantDataPtrEv, 
                       __ZNK3ggl25DiffuseBuildingPointyRoof21BuildingPipelineSetup20styleConstantDataPtrEv, 
                       __ZNK3ggl25DiffuseBuildingPointyRoof21BuildingPipelineSetup21skyfogConstantDataPtrEv, 
                       __ZNK3ggl25DiffuseBuildingPointyRoof21BuildingPipelineSetup23gradientConstantDataPtrEv, 
                       __ZNK3ggl25DiffuseBuildingPointyRoof21BuildingPipelineSetup23lightingConstantDataPtrEv, 
                       __ZNK3ggl25FlyoverRoadFillProcedural20DefaultPipelineSetup16viewConstantDataEv, 
                       __ZNK3ggl25FlyoverRoadFillProcedural20DefaultPipelineSetup17blendConstantDataEv, 
                       __ZNK3ggl25FlyoverRoadFillProcedural20DefaultPipelineSetup17colorConstantDataEv, 
                       __ZNK3ggl25FlyoverRoadFillProcedural20DefaultPipelineSetup19viewConstantDataPtrEv, 
                       __ZNK3ggl25FlyoverRoadFillProcedural20DefaultPipelineSetup20blendConstantDataPtrEv, 
                       __ZNK3ggl25FlyoverRoadFillProcedural20DefaultPipelineSetup20colorConstantDataPtrEv, 
                       __ZNK3ggl25FlyoverRoadFillProcedural20DefaultPipelineSetup21transformConstantDataEv, 
                       __ZNK3ggl25FlyoverRoadFillProcedural20DefaultPipelineSetup24transformConstantDataPtrEv, 
                       __ZNK3ggl25FlyoverRoadStrokeTextured20DefaultPipelineSetup16viewConstantDataEv, 
                       __ZNK3ggl25FlyoverRoadStrokeTextured20DefaultPipelineSetup17blendConstantDataEv, 
                       __ZNK3ggl25FlyoverRoadStrokeTextured20DefaultPipelineSetup17colorConstantDataEv, 
                       __ZNK3ggl25FlyoverRoadStrokeTextured20DefaultPipelineSetup19viewConstantDataPtrEv, 
                       __ZNK3ggl25FlyoverRoadStrokeTextured20DefaultPipelineSetup20blendConstantDataPtrEv, 
                       __ZNK3ggl25FlyoverRoadStrokeTextured20DefaultPipelineSetup20colorConstantDataPtrEv, 
                       __ZNK3ggl25FlyoverRoadStrokeTextured20DefaultPipelineSetup21transformConstantDataEv, 
                       __ZNK3ggl25FlyoverRoadStrokeTextured20DefaultPipelineSetup23ribbonExtraConstantDataEv, 
                       __ZNK3ggl25FlyoverRoadStrokeTextured20DefaultPipelineSetup24transformConstantDataPtrEv, 
                       __ZNK3ggl25FlyoverRoadStrokeTextured20DefaultPipelineSetup26ribbonExtraConstantDataPtrEv, 
                       __ZNK3ggl25FoggedSpecularBuildingTop27CompressedMeshPipelineSetup16fadeConstantDataEv, 
                       __ZNK3ggl25FoggedSpecularBuildingTop27CompressedMeshPipelineSetup16viewConstantDataEv, 
                       __ZNK3ggl25FoggedSpecularBuildingTop27CompressedMeshPipelineSetup17scaleConstantDataEv, 
                       __ZNK3ggl25FoggedSpecularBuildingTop27CompressedMeshPipelineSetup17styleConstantDataEv, 
                       __ZNK3ggl25FoggedSpecularBuildingTop27CompressedMeshPipelineSetup18skyfogConstantDataEv, 
                       __ZNK3ggl25FoggedSpecularBuildingTop27CompressedMeshPipelineSetup19fadeConstantDataPtrEv, 
                       __ZNK3ggl25FoggedSpecularBuildingTop27CompressedMeshPipelineSetup19viewConstantDataPtrEv, 
                       __ZNK3ggl25FoggedSpecularBuildingTop27CompressedMeshPipelineSetup20gradientConstantDataEv, 
                       __ZNK3ggl25FoggedSpecularBuildingTop27CompressedMeshPipelineSetup20lightingConstantDataEv, 
                       __ZNK3ggl25FoggedSpecularBuildingTop27CompressedMeshPipelineSetup20scaleConstantDataPtrEv, 
                       __ZNK3ggl25FoggedSpecularBuildingTop27CompressedMeshPipelineSetup20styleConstantDataPtrEv, 
                       __ZNK3ggl25FoggedSpecularBuildingTop27CompressedMeshPipelineSetup21skyfogConstantDataPtrEv, 
                       __ZNK3ggl25FoggedSpecularBuildingTop27CompressedMeshPipelineSetup23gradientConstantDataPtrEv, 
                       __ZNK3ggl25FoggedSpecularBuildingTop27CompressedMeshPipelineSetup23lightingConstantDataPtrEv, 
                       __ZNK3ggl25TexturedInnerShadowRibbon13PipelineSetup16viewConstantDataEv, 
                       __ZNK3ggl25TexturedInnerShadowRibbon13PipelineSetup17noiseConstantDataEv, 
                       __ZNK3ggl25TexturedInnerShadowRibbon13PipelineSetup17styleConstantDataEv, 
                       __ZNK3ggl25TexturedInnerShadowRibbon13PipelineSetup19viewConstantDataPtrEv, 
                       __ZNK3ggl25TexturedInnerShadowRibbon13PipelineSetup20noiseConstantDataPtrEv, 
                       __ZNK3ggl25TexturedInnerShadowRibbon13PipelineSetup20styleConstantDataPtrEv, 
                       __ZNK3ggl25TexturedInnerShadowRibbon13PipelineSetup23shadowStyleConstantDataEv, 
                       __ZNK3ggl25TexturedInnerShadowRibbon13PipelineSetup26shadowStyleConstantDataPtrEv, 
                       __ZNK3ggl26SpecularBuildingPointyRoof21BuildingPipelineSetup16fadeConstantDataEv, 
                       __ZNK3ggl26SpecularBuildingPointyRoof21BuildingPipelineSetup16viewConstantDataEv, 
                       __ZNK3ggl26SpecularBuildingPointyRoof21BuildingPipelineSetup17scaleConstantDataEv, 
                       __ZNK3ggl26SpecularBuildingPointyRoof21BuildingPipelineSetup17styleConstantDataEv, 
                       __ZNK3ggl26SpecularBuildingPointyRoof21BuildingPipelineSetup18skyfogConstantDataEv, 
                       __ZNK3ggl26SpecularBuildingPointyRoof21BuildingPipelineSetup19fadeConstantDataPtrEv, 
                       __ZNK3ggl26SpecularBuildingPointyRoof21BuildingPipelineSetup19viewConstantDataPtrEv, 
                       __ZNK3ggl26SpecularBuildingPointyRoof21BuildingPipelineSetup20gradientConstantDataEv, 
                       __ZNK3ggl26SpecularBuildingPointyRoof21BuildingPipelineSetup20lightingConstantDataEv, 
                       __ZNK3ggl26SpecularBuildingPointyRoof21BuildingPipelineSetup20scaleConstantDataPtrEv, 
                       __ZNK3ggl26SpecularBuildingPointyRoof21BuildingPipelineSetup20styleConstantDataPtrEv, 
                       __ZNK3ggl26SpecularBuildingPointyRoof21BuildingPipelineSetup21skyfogConstantDataPtrEv, 
                       __ZNK3ggl26SpecularBuildingPointyRoof21BuildingPipelineSetup23gradientConstantDataPtrEv, 
                       __ZNK3ggl26SpecularBuildingPointyRoof21BuildingPipelineSetup23lightingConstantDataPtrEv, 
                       __ZNK3ggl27AnimatedTexturedGroundCover24GroundCoverPipelineSetup16viewConstantDataEv, 
                       __ZNK3ggl27AnimatedTexturedGroundCover24GroundCoverPipelineSetup19viewConstantDataPtrEv, 
                       __ZNK3ggl27AnimatedTexturedGroundCover24GroundCoverPipelineSetup21variationConstantDataEv, 
                       __ZNK3ggl27AnimatedTexturedGroundCover24GroundCoverPipelineSetup24variationConstantDataPtrEv, 
                       __ZNK3ggl27FlyoverRoadStrokeProcedural20DefaultPipelineSetup16viewConstantDataEv, 
                       __ZNK3ggl27FlyoverRoadStrokeProcedural20DefaultPipelineSetup17blendConstantDataEv, 
                       __ZNK3ggl27FlyoverRoadStrokeProcedural20DefaultPipelineSetup17colorConstantDataEv, 
                       __ZNK3ggl27FlyoverRoadStrokeProcedural20DefaultPipelineSetup19viewConstantDataPtrEv, 
                       __ZNK3ggl27FlyoverRoadStrokeProcedural20DefaultPipelineSetup20blendConstantDataPtrEv, 
                       __ZNK3ggl27FlyoverRoadStrokeProcedural20DefaultPipelineSetup20colorConstantDataPtrEv, 
                       __ZNK3ggl27FlyoverRoadStrokeProcedural20DefaultPipelineSetup21transformConstantDataEv, 
                       __ZNK3ggl27FlyoverRoadStrokeProcedural20DefaultPipelineSetup23ribbonExtraConstantDataEv, 
                       __ZNK3ggl27FlyoverRoadStrokeProcedural20DefaultPipelineSetup24transformConstantDataPtrEv, 
                       __ZNK3ggl27FlyoverRoadStrokeProcedural20DefaultPipelineSetup26ribbonExtraConstantDataPtrEv, 
                       __ZNK3ggl27VenueOpenToBelowShadowAlpha17MeshPipelineSetup16viewConstantDataEv, 
                       __ZNK3ggl27VenueOpenToBelowShadowAlpha17MeshPipelineSetup17styleConstantDataEv, 
                       __ZNK3ggl27VenueOpenToBelowShadowAlpha17MeshPipelineSetup19viewConstantDataPtrEv, 
                       __ZNK3ggl27VenueOpenToBelowShadowAlpha17MeshPipelineSetup20styleConstantDataPtrEv, 
                       __ZNK3ggl3Fog16FogPipelineSetup16viewConstantDataEv, __ZNK3ggl3Fog16FogPipelineSetup18skyfogConstantDataEv, 
                       __ZNK3ggl3Fog16FogPipelineSetup19viewConstantDataPtrEv, __ZNK3ggl3Fog16FogPipelineSetup21skyfogConstantDataPtrEv, 
                       __ZNK3ggl3Sky16SkyPipelineSetup17styleConstantDataEv, __ZNK3ggl3Sky16SkyPipelineSetup20styleConstantDataPtrEv, 
                       __ZNK3ggl4Clut20Pos2DUVPipelineSetup16viewConstantDataEv, 
                       __ZNK3ggl4Clut20Pos2DUVPipelineSetup19viewConstantDataPtrEv, 
                       __ZNK3ggl4Clut20Pos2DUVPipelineSetup21variationConstantDataEv, 
                       __ZNK3ggl4Clut20Pos2DUVPipelineSetup24variationConstantDataPtrEv, 
                       __ZNK3ggl4Glow17MeshPipelineSetup16viewConstantDataEv, __ZNK3ggl4Glow17MeshPipelineSetup17styleConstantDataEv, 
                       __ZNK3ggl4Glow17MeshPipelineSetup19viewConstantDataPtrEv, 
                       __ZNK3ggl4Glow17MeshPipelineSetup20styleConstantDataPtrEv, 
                       __ZNK3ggl4Grid17GridPipelineSetup16viewConstantDataEv, __ZNK3ggl4Grid17GridPipelineSetup17styleConstantDataEv, 
                       __ZNK3ggl4Grid17GridPipelineSetup19viewConstantDataPtrEv, 
                       __ZNK3ggl4Grid17GridPipelineSetup20gridViewConstantDataEv, 
                       __ZNK3ggl4Grid17GridPipelineSetup20styleConstantDataPtrEv, 
                       __ZNK3ggl4Grid17GridPipelineSetup23gridViewConstantDataPtrEv, 
                       __ZNK3ggl4Icon17IconPipelineSetup16viewConstantDataEv, __ZNK3ggl4Icon17IconPipelineSetup19viewConstantDataPtrEv, 
                       __ZNK3ggl4Line17BasePipelineSetup16viewConstantDataEv, __ZNK3ggl4Line17BasePipelineSetup17styleConstantDataEv, 
                       __ZNK3ggl4Line17BasePipelineSetup19viewConstantDataPtrEv, 
                       __ZNK3ggl4Line17BasePipelineSetup20styleConstantDataPtrEv, 
                       __ZNK3ggl5Clear18ClearPipelineSetup26clearConstantsConstantDataEv, 
                       __ZNK3ggl5Clear18ClearPipelineSetup29clearConstantsConstantDataPtrEv, 
                       __ZNK3ggl5Debug17BasePipelineSetup16viewConstantDataEv, __ZNK3ggl5Debug17BasePipelineSetup17styleConstantDataEv, 
                       __ZNK3ggl5Debug17BasePipelineSetup19viewConstantDataPtrEv, 
                       __ZNK3ggl5Debug17BasePipelineSetup20styleConstantDataPtrEv, 
                       __ZNK3ggl5Stars18StarsPipelineSetup16viewConstantDataEv, __ZNK3ggl5Stars18StarsPipelineSetup19viewConstantDataPtrEv, 
                       __ZNK3ggl7Flyover20FlyoverPipelineSetup16clipConstantDataEv, 
                       __ZNK3ggl7Flyover20FlyoverPipelineSetup18sharedConstantDataEv, 
                       __ZNK3ggl7Flyover20FlyoverPipelineSetup19clipConstantDataPtrEv, 
                       __ZNK3ggl7Flyover20FlyoverPipelineSetup20materialConstantDataEv, 
                       __ZNK3ggl7Flyover20FlyoverPipelineSetup21sharedConstantDataPtrEv, 
                       __ZNK3ggl7Flyover20FlyoverPipelineSetup21texcoordsConstantDataEv, 
                       __ZNK3ggl7Flyover20FlyoverPipelineSetup21transformConstantDataEv, 
                       __ZNK3ggl7Flyover20FlyoverPipelineSetup23materialConstantDataPtrEv, 
                       __ZNK3ggl7Flyover20FlyoverPipelineSetup24texcoordsConstantDataPtrEv, 
                       __ZNK3ggl7Flyover20FlyoverPipelineSetup24transformConstantDataPtrEv, 
                       __ZNK3ggl8Textured20Pos2DUVPipelineSetup16viewConstantDataEv, 
                       __ZNK3ggl8Textured20Pos2DUVPipelineSetup19viewConstantDataPtrEv, 
                       __ZNK3ggl9GlowAlpha17MeshPipelineSetup16glowConstantDataEv, 
                       __ZNK3ggl9GlowAlpha17MeshPipelineSetup16viewConstantDataEv, 
                       __ZNK3ggl9GlowAlpha17MeshPipelineSetup19glowConstantDataPtrEv, 
                       __ZNK3ggl9GlowAlpha17MeshPipelineSetup19viewConstantDataPtrEv, 
                       __ZNK3ggl9ImageCopy20Pos2DUVPipelineSetup17alphaConstantDataEv, 
                       __ZNK3ggl9ImageCopy20Pos2DUVPipelineSetup20alphaConstantDataPtrEv, 
                       __ZNK3ggl9RouteLine17BasePipelineSetup16viewConstantDataEv, 
                       __ZNK3ggl9RouteLine17BasePipelineSetup17styleConstantDataEv, 
                       __ZNK3ggl9RouteLine17BasePipelineSetup19viewConstantDataPtrEv, 
                       __ZNK3ggl9RouteLine17BasePipelineSetup20styleConstantDataPtrEv, 
                       __ZNK3ggl9RouteLine26PatternedBasePipelineSetup16viewConstantDataEv, 
                       __ZNK3ggl9RouteLine26PatternedBasePipelineSetup19viewConstantDataPtrEv, 
                       __ZNK3ggl9RouteLine26PatternedBasePipelineSetup22routeStyleConstantDataEv, 
                       __ZNK3ggl9RouteLine26PatternedBasePipelineSetup24patternStyleConstantDataEv, 
                       __ZNK3ggl9RouteLine26PatternedBasePipelineSetup25routeStyleConstantDataPtrEv, 
                       __ZNK3ggl9RouteLine26PatternedBasePipelineSetup27patternStyleConstantDataPtrEv, 
                       __ZNK3ggl9SolidLine17BasePipelineSetup16viewConstantDataEv, 
                       __ZNK3ggl9SolidLine17BasePipelineSetup17styleConstantDataEv, 
                       __ZNK3ggl9SolidLine17BasePipelineSetup19viewConstantDataPtrEv, 
                       __ZNK3ggl9SolidLine17BasePipelineSetup20styleConstantDataPtrEv, 
                       __ZNK3ggl9VenueWall17MeshPipelineSetup16viewConstantDataEv, 
                       __ZNK3ggl9VenueWall17MeshPipelineSetup16wallConstantDataEv, 
                       __ZNK3ggl9VenueWall17MeshPipelineSetup19viewConstantDataPtrEv, 
                       __ZNK3ggl9VenueWall17MeshPipelineSetup19wallConstantDataPtrEv, 
                       __ZNK3ggl9VenueWall17MeshPipelineSetup20gradientConstantDataEv, 
                       __ZNK3ggl9VenueWall17MeshPipelineSetup20lightingConstantDataEv, 
                       __ZNK3ggl9VenueWall17MeshPipelineSetup23gradientConstantDataPtrEv, 
                       __ZNK3ggl9VenueWall17MeshPipelineSetup23lightingConstantDataPtrEv, 
                       __ZNK3ggl9VenueWall24WallTopMeshPipelineSetup16viewConstantDataEv, 
                       __ZNK3ggl9VenueWall24WallTopMeshPipelineSetup16wallConstantDataEv, 
                       __ZNK3ggl9VenueWall24WallTopMeshPipelineSetup19viewConstantDataPtrEv, 
                       __ZNK3ggl9VenueWall24WallTopMeshPipelineSetup19wallConstantDataPtrEv, 
                       __ZNK3ggl9VenueWall24WallTopMeshPipelineSetup20lightingConstantDataEv, 
                       __ZNK3ggl9VenueWall24WallTopMeshPipelineSetup23lightingConstantDataPtrEv, 
                       __ZNK3ggl9VenueWall27WallEndCapMeshPipelineSetup16viewConstantDataEv, 
                       __ZNK3ggl9VenueWall27WallEndCapMeshPipelineSetup16wallConstantDataEv, 
                       __ZNK3ggl9VenueWall27WallEndCapMeshPipelineSetup19viewConstantDataPtrEv, 
                       __ZNK3ggl9VenueWall27WallEndCapMeshPipelineSetup19wallConstantDataPtrEv, 
                       __ZNK3ggl9VenueWall27WallEndCapMeshPipelineSetup20gradientConstantDataEv, 
                       __ZNK3ggl9VenueWall27WallEndCapMeshPipelineSetup20lightingConstantDataEv, 
                       __ZNK3ggl9VenueWall27WallEndCapMeshPipelineSetup23gradientConstantDataPtrEv, 
                       __ZNK3ggl9VenueWall27WallEndCapMeshPipelineSetup23lightingConstantDataPtrEv, 
                       __ZNK7MITPath20pathWithNewComponentERKNSt3__112basic_stringIcNS0_11char_traitsIcEENS0_9allocatorIcEEEE, 
                       __ZNK7MITPath2atEj, __ZNK7MITPath4sizeEv, __ZNK7MITPath8asStringEv, 
                       __ZNK9MITObject17containsValueTypeEv, __ZNK9MITObject4nameEv, 
                       __ZNK9MITObject4pathEv, __ZNK9MITObject5splitERKNSt3__112basic_stringIcNS0_11char_traitsIcEENS0_9allocatorIcEEEEcRNS0_6vectorIS6_NS4_IS6_EEEE, 
                       __ZNK9MITObject6isTypeERKNSt3__112basic_stringIcNS0_11char_traitsIcEENS0_9allocatorIcEEEE, 
                       __ZNK9MITObject6typeIDEv, __ZNK9MITObject7isValidEv, __ZNK9MITObject9serializeEv, 
                       __ZTVN3ggl13CommonLibraryE, __ZTVN3ggl14FlyoverLibraryE, __ZTVN3ggl15StandardLibraryE, 
                       _dynamicValueAnimation, _kVKOuterStrokeWidthAttributeName, 
                       _pgl_point_corrector, _pgl_point_predictor, _pgl_tagged_point_corrector, 
                       _pgl_tagged_point_predictor ]
    objc-classes:    [ _MIController, _VKAlternateRouteInfo, _VKAnchorWrapper, _VKAnimation, 
                       _VKAnnotationMarker, _VKCamera, _VKClientLocalizedStrings, 
                       _VKCompoundAnimation, _VKCustomFeature, _VKDebugSettings, 
                       _VKDebugTree, _VKDynamicAnimation, _VKFeatureMarker, _VKIconInfo, 
                       _VKIconManager, _VKImage, _VKImageSourceKey, _VKLabelMarker, 
                       _VKLabelMarkerFeatureHandle, _VKLabelMarkerShield, _VKMapSnapshot, 
                       _VKMapSnapshotCreator, _VKMapSnapshotRequest, _VKMapSnapshotServer, 
                       _VKMapView, _VKNavContext, _VKNavigationPuck, _VKObjectBoundsContext, 
                       _VKPlatform, _VKPolylineGroupOverlay, _VKPolylineOverlay, 
                       _VKPuckAnimator, _VKRasterOverlay, _VKResourceManager, _VKRouteContext, 
                       _VKRouteEtaDescription, _VKRouteInfo, _VKSceneConfiguration, 
                       _VKShieldArtwork, _VKShieldImage, _VKShieldManager, _VKTimedAnimation, 
                       _VKTimer, _VKTrafficCameraFeature, _VKTrafficFeature, _VKTrafficIncidentFeature, 
                       _VKTransitLineMarker, _VKTriangulator, _VKViewportInfo ]
    objc-ivars:      [ _VKAnimation._completionHandler, _VKAnimation._name, _VKAnimation._priority, 
                       _VKAnimation._runner, _VKAnimation._runsForever, _VKAnimation._state, 
                       _VKCamera._allowDatelineWraparound, _VKCamera._canonicalPitch, 
                       _VKCamera._distanceToGroundAndFarClipPlaneIntersection, _VKCamera._footprint, 
                       _VKCamera._forward, _VKCamera._fractionOfScreenAboveFarClipPlaneAtCanonicalPitch, 
                       _VKCamera._frustum, _VKCamera._horizontalOffset, _VKCamera._maxFarClipDistance, 
                       _VKCamera._maxHeight, _VKCamera._maxPitch, _VKCamera._minHeight, 
                       _VKCamera._ndcZNear, _VKCamera._needsUpdate, _VKCamera._right, 
                       _VKCamera._runLoopController, _VKCamera._screenHeightOfGroundAndFarClipPlaneIntersection, 
                       _VKCamera._tanHalfHorizFOV, _VKCamera._tanHalfVerticalFOV, 
                       _VKCamera._terrainHeight, _VKCamera._up, _VKCamera._updating, 
                       _VKCamera._viewVolume, _VKCompoundAnimation._animations, _VKCompoundAnimation._groupStepHandler, 
                       _VKDynamicAnimation._dynamicStepHandler, _VKDynamicAnimation._lastTimestamp, 
                       _VKDynamicAnimation._resuming, _VKMapSnapshotCreator._completion, 
                       _VKMapSnapshotCreator._didBecomeFullyDrawn, _VKMapSnapshotCreator._globeCanvas, 
                       _VKMapSnapshotCreator._hasFailedTiles, _VKMapSnapshotCreator._mapCanvas, 
                       _VKMapSnapshotCreator._mapDisplayStyle, _VKMapSnapshotCreator._mapType, 
                       _VKPlatform._isMac, _VKPlatform._memSize, _VKPlatform._numCPUs, 
                       _VKRasterOverlay._delegate, _VKRasterOverlay._level, _VKRasterOverlay._mapModel, 
                       _VKRasterOverlay._replaceMapContentInRect, _VKShieldArtwork._scale, 
                       _VKTimedAnimation._duration, _VKTimedAnimation._lastTimestamp, 
                       _VKTimedAnimation._resuming, _VKTimedAnimation._startTimestamp, 
                       _VKTimedAnimation._startTimestampSet, _VKTimedAnimation._stepHandler, 
                       _VKTimedAnimation._timingFunction, _VKTriangulator._mesh, 
                       _VKTriangulator._mesh_capacity, _VKTriangulator._opaque_segments, 
                       _VKTriangulator._opaque_triangulator, _VKTriangulator._scratch, 
                       _VKTriangulator._segments_capacity ]
    weak-def-symbols: [ __ZTINSt3__117bad_function_callE, __ZTSNSt3__117bad_function_callE ]
...
