---
archs:           [ x86_64 ]
platform:        macosx
install-name:    /System/Library/Frameworks/GameplayKit.framework/Versions/A/GameplayKit
exports:         
  - archs:           [ x86_64 ]
    symbols:         [ _GKClosestPointsBetweenLineSegments, _GKDoesCircleIntersectLine, 
                       _GKDoesCircleIntersectLineSegment, _GKDoesCircleIntersectPolygon, 
                       _GKGetCircleToLineIntersectionPoints, _GKGetCircleToLineSegmentIntersectionPoints, 
                       _GKGetClosestPointOnLineSegmentToPoint, _GKGetLineSegmentToLineSegmentIntersectionPoint, 
                       _GKGetLineToLineIntersection, _GameplayKitVersionNumber, 
                       _GameplayKitVersionString, __Z10GKFindPathP11GKGraphNodeS0_, 
                       __Z10GKFindPathP12GKCGraphNodeS0_RNSt3__16vectorIS0_NS1_9allocatorIS0_EEEE, 
                       __Z11orientationDv2_fS_S_, __Z11pointOnLineDv2_fS_S_, 
                       __Z16MakeVectorFloat2ff, __Z16MakeVectorFloat3fff, 
                       __Z33GKDoesLineSegmentIntersectPolygonPDv2_fiS_S_, 
                       __Z41GKGetLineSegmentPolygonIntersectionPointsPDv2_fiS_S_, 
                       __Z5Clampfff, __Z8makeHeapPNSt3__16vectorIP12GKCGraphNodeNS_9allocatorIS2_EEEERNS_3mapIS2_fNS_4lessIS2_EENS3_INS_4pairIKS2_fEEEEEE, 
                       __Z8makeHeapPNSt3__16vectorIU8__strongP11GKGraphNodeNS_9allocatorIS3_EEEERNS_3mapIS3_fNS_4lessIS3_EENS4_INS_4pairIKU8__strongS2_fEEEEEE, 
                       __ZN12GKCGraphNode10costToNodeEPS_, __ZN12GKCGraphNode19addConnectionToNodeEPS_b, 
                       __ZN12GKCGraphNode19estimatedCostToNodeEPS_, __ZN12GKCGraphNode22removeConnectionToNodeEPS_b, 
                       __ZN12GKCGraphNodeC1Ev, __ZN12GKCGraphNodeC2Ev, 
                       __ZN12GKCGraphNodeD0Ev, __ZN12GKCGraphNodeD1Ev, 
                       __ZN12GKCGraphNodeD2Ev, __ZN12GKCGridGraph10removeNodeEP12GKCGraphNode, 
                       __ZN12GKCGridGraph18nodeAtGridPositionEDv2_i, __ZN12GKCGridGraph26connectNodeToAdjacentNodesEP16GKCGridGraphNode, 
                       __ZN12GKCGridGraph29nodeAtGridPositionNoNullCheckEDv2_i, 
                       __ZN12GKCGridGraph31connectNodeToAdjacentNodesNoAddEP16GKCGridGraphNode, 
                       __ZN12GKCGridGraph4initEDv2_ijjb, __ZN12GKCGridGraphC1Ev, 
                       __ZN12GKCGridGraphC2Ev, __ZN12GKCGridGraphD0Ev, 
                       __ZN12GKCGridGraphD1Ev, __ZN12GKCGridGraphD2Ev, 
                       __ZN14GKCGraphNode2D10costToNodeEP12GKCGraphNode, 
                       __ZN14GKCGraphNode2D19estimatedCostToNodeEP12GKCGraphNode, 
                       __ZN14GKCGraphNode2DC1EDv2_f, __ZN14GKCGraphNode2DC1Ev, 
                       __ZN14GKCGraphNode2DC2EDv2_f, __ZN14GKCGraphNode2DC2Ev, 
                       __ZN16GKCGridGraphNode10costToNodeEP12GKCGraphNode, 
                       __ZN16GKCGridGraphNode19estimatedCostToNodeEP12GKCGraphNode, 
                       __ZN16GKCGridGraphNodeC1EDv2_i, __ZN16GKCGridGraphNodeC1Ev, 
                       __ZN16GKCGridGraphNodeC2EDv2_i, __ZN16GKCGridGraphNodeC2Ev, 
                       __ZN16GKCGridGraphNodeD0Ev, __ZN16GKCGridGraphNodeD1Ev, 
                       __ZN16GKCGridGraphNodeD2Ev, __ZN16GKCObstacleGraph11addObstacleEP18GKCPolygonObstacle, 
                       __ZN16GKCObstacleGraph11addObstacleEP18GKCPolygonObstacleb, 
                       __ZN16GKCObstacleGraph14removeObstacleEP18GKCPolygonObstacle, 
                       __ZN16GKCObstacleGraph15extrudeObstacleEP18GKCPolygonObstacle, 
                       __ZN16GKCObstacleGraph16nodesForObstacleEP18GKCPolygonObstacle, 
                       __ZN16GKCObstacleGraph18removeAllObstaclesEv, __ZN16GKCObstacleGraph22lockConnectionFromNodeEP14GKCGraphNode2DS1_, 
                       __ZN16GKCObstacleGraph24unlockConnectionFromNodeEP14GKCGraphNode2DS1_, 
                       __ZN16GKCObstacleGraph25connectNodeUsingObstaclesEP14GKCGraphNode2D, 
                       __ZN16GKCObstacleGraph25isConnectedLockedFromNodeEP14GKCGraphNode2DS1_, 
                       __ZN16GKCObstacleGraph30restoreObstacleNodeConnectionsEv, 
                       __ZN16GKCObstacleGraph31connectNodeToNodeUsingObstaclesEP14GKCGraphNode2DS1_P7NSArrayIP17GKPolygonObstacleE, 
                       __ZN16GKCObstacleGraph36extrudeObstacleAndGenerateGraphNodesEP18GKCPolygonObstacleRNSt3__16vectorIU8__strongP13GKGraphNode2DNS2_9allocatorIS6_EEEE, 
                       __ZN16GKCObstacleGraph42connectNodeUsingObstaclesIgnoringObstaclesEP14GKCGraphNode2DP7NSArrayIP17GKPolygonObstacleE, 
                       __ZN16GKCObstacleGraph49connectNodeToNodeUsingObstaclesIgnoreBufferRadiusEP14GKCGraphNode2DS1_P7NSArrayIP17GKPolygonObstacleE, 
                       __ZN16GKCObstacleGraph56connectNodeUsingObstaclesIgnoringBufferRadiusOfObstaclesEP14GKCGraphNode2DP7NSArrayIP17GKPolygonObstacleE, 
                       __ZN16GKCObstacleGraphC1Ev, __ZN16GKCObstacleGraphC2Ev, 
                       __ZN16GKCObstacleGraphD0Ev, __ZN16GKCObstacleGraphD1Ev, 
                       __ZN16GKCObstacleGraphD2Ev, __ZN17GKCCircleObstacle11getPositionEv, 
                       __ZN17GKCCircleObstacle11setPositionEDv2_f, __ZN17GKCCircleObstacleC1EfDv2_f, 
                       __ZN17GKCCircleObstacleC2EfDv2_f, __ZN17GKCCircleObstacleD0Ev, 
                       __ZN17GKCCircleObstacleD1Ev, __ZN17GKCCircleObstacleD2Ev, 
                       __ZN18GKCPolygonObstacleC1EPDv2_fm, __ZN18GKCPolygonObstacleC2EPDv2_fm, 
                       __ZN18GKCPolygonObstacleD0Ev, __ZN18GKCPolygonObstacleD1Ev, 
                       __ZN18GKCPolygonObstacleD2Ev, __ZN8GKCGraph10removeNodeEP12GKCGraphNode, 
                       __ZN8GKCGraph27connectNodeToLowestCostNodeEP12GKCGraphNodeb, 
                       __ZN8GKCGraph7addNodeEP12GKCGraphNode, __ZN8GKCGraphC1Ev, 
                       __ZN8GKCGraphC2Ev, __ZN8GKCGraphD0Ev, __ZN8GKCGraphD1Ev, 
                       __ZN8GKCGraphD2Ev, __ZN9OpenSteer13SimpleVehicle17applyBrakingForceEff, 
                       __ZN9OpenSteer13SimpleVehicle18applySteeringForceERKNS_4Vec3Ef, 
                       __ZN9OpenSteer13SimpleVehicle19serialNumberCounterE, 
                       __ZN9OpenSteer13SimpleVehicle20measurePathCurvatureEf, 
                       __ZN9OpenSteer13SimpleVehicle20regenerateLocalSpaceERKNS_4Vec3Ef, 
                       __ZN9OpenSteer13SimpleVehicle22adjustRawSteeringForceERKNS_4Vec3Ef, 
                       __ZN9OpenSteer13SimpleVehicle30annotationVelocityAccelerationEff, 
                       __ZN9OpenSteer13SimpleVehicle30regenerateLocalSpaceForBankingERKNS_4Vec3Ef, 
                       __ZN9OpenSteer13SimpleVehicleC1Ev, __ZN9OpenSteer13SimpleVehicleC2Ev, 
                       __ZN9OpenSteer13SimpleVehicleD1Ev, __ZN9OpenSteer13SimpleVehicleD2Ev, 
                       __ZN9OpenSteer15PolygonObstacle31findIntersectionWithVehiclePathERKNS_15AbstractVehicleERNS_16PathIntersectionEf, 
                       __ZN9OpenSteer15PolygonObstacleC1ERNSt3__16vectorINS_4Vec3ENS1_9allocatorIS3_EEEE, 
                       __ZN9OpenSteer15PolygonObstacleC1Ev, __ZN9OpenSteer15PolygonObstacleC2ERNSt3__16vectorINS_4Vec3ENS1_9allocatorIS3_EEEE, 
                       __ZN9OpenSteer15PolygonObstacleC2Ev, __ZN9OpenSteer15PolylinePathway10initializeEiPKNS_4Vec3Efb, 
                       __ZN9OpenSteer15PolylinePathway14mapPointToPathERKNS_4Vec3ERS1_Rf, 
                       __ZN9OpenSteer15PolylinePathway22mapPathDistanceToPointEf, 
                       __ZN9OpenSteer15PolylinePathway22mapPointToPathDistanceERKNS_4Vec3E, 
                       __ZN9OpenSteer15PolylinePathway22pointToSegmentDistanceERKNS_4Vec3ES3_S3_, 
                       __ZN9OpenSteer15PolylinePathwayC1EiPKNS_4Vec3Efb, 
                       __ZN9OpenSteer15PolylinePathwayC2EiPKNS_4Vec3Efb, 
                       __ZN9OpenSteer21findPerpendicularIn3dERKNS_4Vec3E, 
                       __ZN9OpenSteer29vecLimitDeviationAngleUtilityEbRKNS_4Vec3EfS2_, 
                       __ZN9OpenSteer30RandomVectorInUnitRadiusSphereEv, 
                       __ZN9OpenSteer30randomVectorOnUnitRadiusXZDiskEv, 
                       __ZN9OpenSteer4Vec32upE, __ZN9OpenSteer4Vec34sideE, 
                       __ZN9OpenSteer4Vec34zeroE, __ZN9OpenSteer4Vec37forwardE, 
                       __ZN9OpenSteer6PlugIn10applyToAllEPFvRS0_E, __ZN9OpenSteer6PlugIn10findByNameEPKc, 
                       __ZN9OpenSteer6PlugIn11findDefaultEv, __ZN9OpenSteer6PlugIn13addToRegistryEv, 
                       __ZN9OpenSteer6PlugIn15itemsInRegistryE, __ZN9OpenSteer6PlugIn19totalSizeOfRegistryE, 
                       __ZN9OpenSteer6PlugIn20sortBySelectionOrderEv, __ZN9OpenSteer6PlugIn4nextEv, 
                       __ZN9OpenSteer6PlugIn8registryE, __ZN9OpenSteer6PlugInC2Ev, 
                       __ZN9OpenSteer6PlugInD0Ev, __ZN9OpenSteer6PlugInD1Ev, 
                       __ZN9OpenSteer6PlugInD2Ev, __ZNK18GKCPolygonObstacle15intersectsPointEPKDv2_f, 
                       __ZNK18GKCPolygonObstacle18intersectsLineFromEPKDv2_fS2_, 
                       __ZNK9OpenSteer13SimpleVehicle21predictFuturePositionEf, 
                       __ZNK9OpenSteer15PolygonObstacle12steerToAvoidERKNS_15AbstractVehicleEf, 
                       __ZTI12GKCGraphNode, __ZTI12GKCGridGraph, __ZTI14GKCGraphNode2D, 
                       __ZTI16GKCGridGraphNode, __ZTI16GKCObstacleGraph, 
                       __ZTI17GKCCircleObstacle, __ZTI18GKCPolygonObstacle, 
                       __ZTI8GKCGraph, __ZTIN9OpenSteer13SimpleVehicleE, 
                       __ZTIN9OpenSteer15PolygonObstacleE, __ZTIN9OpenSteer15PolylinePathwayE, 
                       __ZTIN9OpenSteer6PlugInE, __ZTS12GKCGraphNode, __ZTS12GKCGridGraph, 
                       __ZTS14GKCGraphNode2D, __ZTS16GKCGridGraphNode, 
                       __ZTS16GKCObstacleGraph, __ZTS17GKCCircleObstacle, 
                       __ZTS18GKCPolygonObstacle, __ZTS8GKCGraph, __ZTSN9OpenSteer13SimpleVehicleE, 
                       __ZTSN9OpenSteer15PolygonObstacleE, __ZTSN9OpenSteer15PolylinePathwayE, 
                       __ZTSN9OpenSteer6PlugInE, __ZTTN9OpenSteer15PolylinePathwayE, 
                       __ZTV12GKCGraphNode, __ZTV12GKCGridGraph, __ZTV14GKCGraphNode2D, 
                       __ZTV16GKCGridGraphNode, __ZTV16GKCObstacleGraph, 
                       __ZTV17GKCCircleObstacle, __ZTV18GKCPolygonObstacle, 
                       __ZTV8GKCGraph, __ZTVN9OpenSteer13SimpleVehicleE, 
                       __ZTVN9OpenSteer15PolygonObstacleE, __ZTVN9OpenSteer15PolylinePathwayE, 
                       __ZTVN9OpenSteer6PlugInE, __ZTv0_n24_N9OpenSteer15PolylinePathway14mapPointToPathERKNS_4Vec3ERS1_Rf, 
                       __ZTv0_n32_N9OpenSteer15PolylinePathway22mapPathDistanceToPointEf, 
                       __ZTv0_n40_N9OpenSteer15PolylinePathway22mapPointToPathDistanceERKNS_4Vec3E, 
                       _lqAddToBin, _lqBinForLocation, _lqCreateDatabase, 
                       _lqDeleteDatabase, _lqFindNearestHelper, _lqFindNearestNeighborWithinRadius, 
                       _lqInitClientProxy, _lqInitDatabase, _lqMapOverAllObjects, 
                       _lqMapOverAllObjectsInBin, _lqMapOverAllObjectsInLocality, 
                       _lqMapOverAllObjectsInLocalityClipped, _lqMapOverAllOutsideObjects, 
                       _lqRemoveAllObjects, _lqRemoveFromBin, _lqUpdateForNewLocation ]
    objc-classes:    [ _GKARC4RandomSource, _GKAgent, _GKAgent2D, _GKBehavior, 
                       _GKCircleObstacle, _GKComponent, _GKComponentSystem, 
                       _GKEntity, _GKGaussianDistribution, _GKGoal, _GKGraph, 
                       _GKGraphNode, _GKGraphNode2D, _GKGridGraph, _GKGridGraphNode, 
                       _GKLinearCongruentialRandomSource, _GKMersenneTwisterRandomSource, 
                       _GKMinmaxStrategist, _GKNSPredicateRule, _GKObstacle, 
                       _GKObstacleGraph, _GKPath, _GKPolygonObstacle, _GKRandomDistribution, 
                       _GKRandomSource, _GKRule, _GKRuleSystem, _GKShuffledDistribution, 
                       _GKState, _GKStateMachine, _GKSystemArc4RandomSource, 
                       __GKBlockRule, __GKNSBoolPredicateTemplate, __GKNSKeypathPredicateTemplate, 
                       __GKNSPredicateRule ]
    weak-def-symbols: [ __ZTIN9OpenSteer14AbstractPlugInE, __ZTIN9OpenSteer15AbstractVehicleE, 
                        __ZTIN9OpenSteer15LocalSpaceMixinINS_15AbstractVehicleEEE, 
                        __ZTIN9OpenSteer15LocalSpaceMixinINS_18AbstractLocalSpaceEEE, 
                        __ZTIN9OpenSteer17SphericalObstacleE, __ZTIN9OpenSteer17SteerLibraryMixinINS_15LocalSpaceMixinINS_15AbstractVehicleEEEEE, 
                        __ZTIN9OpenSteer18AbstractLocalSpaceE, __ZTIN9OpenSteer7PathwayE, 
                        __ZTIN9OpenSteer8ObstacleE, __ZTSN9OpenSteer14AbstractPlugInE, 
                        __ZTSN9OpenSteer15AbstractVehicleE, __ZTSN9OpenSteer15LocalSpaceMixinINS_15AbstractVehicleEEE, 
                        __ZTSN9OpenSteer15LocalSpaceMixinINS_18AbstractLocalSpaceEEE, 
                        __ZTSN9OpenSteer17SphericalObstacleE, __ZTSN9OpenSteer17SteerLibraryMixinINS_15LocalSpaceMixinINS_15AbstractVehicleEEEEE, 
                        __ZTSN9OpenSteer18AbstractLocalSpaceE, __ZTSN9OpenSteer7PathwayE, 
                        __ZTSN9OpenSteer8ObstacleE ]
...
