--- !tapi-tbd
tbd-version:     4
targets:         [ x86_64-macos, arm64-macos, arm64e-macos ]
uuids:
  - target:          x86_64-macos
    value:           31A80C22-D5D4-34C0-BEA8-F1D7E9613A24
  - target:          arm64-macos
    value:           00000000-0000-0000-0000-000000000000
  - target:          arm64e-macos
    value:           E1B6CD0C-81A1-3A52-B6C5-0403B8674425
install-name:    '/System/Library/PrivateFrameworks/SiriNaturalLanguageParsing.framework/Versions/A/SiriNaturalLanguageParsing'
exports:
  - targets:         [ x86_64-macos ]
    weak-symbols:    [ __ZTIN10global_ner12post_process6EntityE, __ZTIN10global_ner9inference13EspressoModelE, 
                       __ZTIN16nl_featurization18AbstractFeaturizerE, __ZTIN27nlv4_inference_orchestrator13span_matching19MatchingSpansFilterE, 
                       __ZTIN4siri8ontology12UsoGraphNodeE, __ZTIN4siri8ontology16NoOpONameVisitorE, 
                       __ZTIN4siri8ontology16OntologyUnitNameE, __ZTIN4siri8ontology17IsNameTypeVisitorINS0_16OntologyEdgeNameEEE, 
                       __ZTIN4siri8ontology17IsNameTypeVisitorINS0_16OntologyNodeNameEEE, 
                       __ZTIN4siri8ontology17IsNameTypeVisitorINS0_16OntologyVerbNameEEE, 
                       __ZTIN4siri8ontology17OntologyExceptionE, __ZTIN4siri8ontology19OntologyNameVisitorE, 
                       __ZTIN4siri8ontology21OntologyBaseExceptionE, __ZTIN4snlp6common14text_uso_graph13TextTreeLexerE, 
                       __ZTIN4snlp6common14text_uso_graph14TextTreeParserE, __ZTIN4snlp6common14text_uso_graph18UsoGraphComparatorE, 
                       __ZTIN4snlp6common14text_uso_graph21UDATextTreeParseErrorE, 
                       __ZTIN4snlp6common14text_uso_graph26UsoGraphTextTreeParseErrorE, 
                       __ZTIN4snlp6common9exception13SNLPExceptionE, __ZTIN4snlp6common9exception18SNLPAssetExceptionE, 
                       __ZTIN4uaap12UPDDDateSpanE, __ZTIN4uaap12UPDDTimeSpanE, __ZTIN4uaap16UPDDDateTimeSpanE, 
                       __ZTIN4uaap18UPDDDateOffsetSpanE, __ZTIN4uaap20UPDDAbsoluteDateSpanE, 
                       __ZTIN4uaap20UPDDDateTimeBaseSpanE, __ZTIN4uaap20UPDDTimeDurationSpanE, 
                       __ZTIN4uaap23AbstractDateTimeHandlerE, __ZTIN4uaap25UPDDSpecialDatePeriodSpanE, 
                       __ZTIN4uaap8UPDDSpanE, __ZTIN5boost16exception_detail10clone_baseE, 
                       __ZTIN5boost16exception_detail10clone_implINS0_19error_info_injectorISt13runtime_errorEEEE, 
                       __ZTIN5boost16exception_detail10clone_implINS0_19error_info_injectorISt16invalid_argumentEEEE, 
                       __ZTIN5boost16exception_detail19error_info_injectorISt13runtime_errorEE, 
                       __ZTIN5boost16exception_detail19error_info_injectorISt16invalid_argumentEE, 
                       __ZTIN5boost6detail15sp_counted_baseE, __ZTIN5boost6detail17sp_counted_impl_pINS_6random23mersenne_twister_engineIjLm32ELm624ELm397ELm31ELj2567483615ELm11ELj4294967295ELm7ELj2636928640ELm15ELj4022730752ELm18ELj1812433253EEEEE, 
                       __ZTIN5boost9exceptionE, __ZTIN8nlohmann6detail10type_errorE, 
                       __ZTIN8nlohmann6detail11parse_errorE, __ZTIN8nlohmann6detail12out_of_rangeE, 
                       __ZTIN8nlohmann6detail16invalid_iteratorE, __ZTIN8nlohmann6detail9exceptionE, 
                       __ZTINSt3__110__back_refIcEE, __ZTINSt3__111__alternateIcEE, 
                       __ZTINSt3__111__end_stateIcEE, __ZTINSt3__111__lookaheadIcNS_12regex_traitsIcEEEE, 
                       __ZTINSt3__111__match_anyIcEE, __ZTINSt3__112__match_charIcEE, 
                       __ZTINSt3__113__empty_stateIcEE, __ZTINSt3__113basic_filebufIcNS_11char_traitsIcEEEE, 
                       __ZTINSt3__114basic_ifstreamIcNS_11char_traitsIcEEEE, __ZTINSt3__115__has_one_stateIcEE, 
                       __ZTINSt3__115__word_boundaryIcNS_12regex_traitsIcEEEE, __ZTINSt3__115basic_stringbufIcNS_11char_traitsIcEENS_9allocatorIcEEEE, 
                       __ZTINSt3__116__back_ref_icaseIcNS_12regex_traitsIcEEEE, __ZTINSt3__116__owns_one_stateIcEE, 
                       __ZTINSt3__117__owns_two_statesIcEE, __ZTINSt3__117__repeat_one_loopIcEE, 
                       __ZTINSt3__117bad_function_callE, __ZTINSt3__118__back_ref_collateIcNS_12regex_traitsIcEEEE, 
                       __ZTINSt3__118__match_char_icaseIcNS_12regex_traitsIcEEEE, 
                       __ZTINSt3__118basic_stringstreamIcNS_11char_traitsIcEENS_9allocatorIcEEEE, 
                       __ZTINSt3__119basic_ostringstreamIcNS_11char_traitsIcEENS_9allocatorIcEEEE, 
                       __ZTINSt3__120__bracket_expressionIcNS_12regex_traitsIcEEEE, 
                       __ZTINSt3__120__l_anchor_multilineIcEE, __ZTINSt3__120__match_char_collateIcNS_12regex_traitsIcEEEE, 
                       __ZTINSt3__120__r_anchor_multilineIcEE, __ZTINSt3__120__shared_ptr_emplaceIN27snlc_inference_orchestrator10vocabulary10VocabularyENS_9allocatorIS3_EEEE, 
                       __ZTINSt3__120__shared_ptr_pointerIPNS_13__empty_stateIcEENS_10shared_ptrIS2_E27__shared_ptr_default_deleteIS2_S2_EENS_9allocatorIS2_EEEE, 
                       __ZTINSt3__121__empty_non_own_stateIcEE, __ZTINSt3__123__match_any_but_newlineIcEE, 
                       __ZTINSt3__126__end_marked_subexpressionIcEE, __ZTINSt3__128__begin_marked_subexpressionIcEE, 
                       __ZTINSt3__16__loopIcEE, __ZTINSt3__16__nodeIcEE, __ZTSN10global_ner12post_process6EntityE, 
                       __ZTSN10global_ner9inference13EspressoModelE, __ZTSN16nl_featurization18AbstractFeaturizerE, 
                       __ZTSN27nlv4_inference_orchestrator13span_matching19MatchingSpansFilterE, 
                       __ZTSN4siri8ontology12UsoGraphNodeE, __ZTSN4siri8ontology16NoOpONameVisitorE, 
                       __ZTSN4siri8ontology16OntologyUnitNameE, __ZTSN4siri8ontology17IsNameTypeVisitorINS0_16OntologyEdgeNameEEE, 
                       __ZTSN4siri8ontology17IsNameTypeVisitorINS0_16OntologyNodeNameEEE, 
                       __ZTSN4siri8ontology17IsNameTypeVisitorINS0_16OntologyVerbNameEEE, 
                       __ZTSN4siri8ontology17OntologyExceptionE, __ZTSN4siri8ontology19OntologyNameVisitorE, 
                       __ZTSN4siri8ontology21OntologyBaseExceptionE, __ZTSN4snlp6common14text_uso_graph13TextTreeLexerE, 
                       __ZTSN4snlp6common14text_uso_graph14TextTreeParserE, __ZTSN4snlp6common14text_uso_graph18UsoGraphComparatorE, 
                       __ZTSN4snlp6common14text_uso_graph21UDATextTreeParseErrorE, 
                       __ZTSN4snlp6common14text_uso_graph26UsoGraphTextTreeParseErrorE, 
                       __ZTSN4snlp6common9exception13SNLPExceptionE, __ZTSN4snlp6common9exception18SNLPAssetExceptionE, 
                       __ZTSN4uaap12UPDDDateSpanE, __ZTSN4uaap12UPDDTimeSpanE, __ZTSN4uaap16UPDDDateTimeSpanE, 
                       __ZTSN4uaap18UPDDDateOffsetSpanE, __ZTSN4uaap20UPDDAbsoluteDateSpanE, 
                       __ZTSN4uaap20UPDDDateTimeBaseSpanE, __ZTSN4uaap20UPDDTimeDurationSpanE, 
                       __ZTSN4uaap23AbstractDateTimeHandlerE, __ZTSN4uaap25UPDDSpecialDatePeriodSpanE, 
                       __ZTSN4uaap8UPDDSpanE, __ZTSN5boost16exception_detail10clone_baseE, 
                       __ZTSN5boost16exception_detail10clone_implINS0_19error_info_injectorISt13runtime_errorEEEE, 
                       __ZTSN5boost16exception_detail10clone_implINS0_19error_info_injectorISt16invalid_argumentEEEE, 
                       __ZTSN5boost16exception_detail19error_info_injectorISt13runtime_errorEE, 
                       __ZTSN5boost16exception_detail19error_info_injectorISt16invalid_argumentEE, 
                       __ZTSN5boost6detail15sp_counted_baseE, __ZTSN5boost6detail17sp_counted_impl_pINS_6random23mersenne_twister_engineIjLm32ELm624ELm397ELm31ELj2567483615ELm11ELj4294967295ELm7ELj2636928640ELm15ELj4022730752ELm18ELj1812433253EEEEE, 
                       __ZTSN5boost9exceptionE, __ZTSN8nlohmann6detail10type_errorE, 
                       __ZTSN8nlohmann6detail11parse_errorE, __ZTSN8nlohmann6detail12out_of_rangeE, 
                       __ZTSN8nlohmann6detail16invalid_iteratorE, __ZTSN8nlohmann6detail9exceptionE, 
                       __ZTSNSt3__110__back_refIcEE, __ZTSNSt3__110shared_ptrINS_13__empty_stateIcEEE27__shared_ptr_default_deleteIS2_S2_EE, 
                       __ZTSNSt3__111__alternateIcEE, __ZTSNSt3__111__end_stateIcEE, 
                       __ZTSNSt3__111__lookaheadIcNS_12regex_traitsIcEEEE, __ZTSNSt3__111__match_anyIcEE, 
                       __ZTSNSt3__112__match_charIcEE, __ZTSNSt3__113__empty_stateIcEE, 
                       __ZTSNSt3__113basic_filebufIcNS_11char_traitsIcEEEE, __ZTSNSt3__114basic_ifstreamIcNS_11char_traitsIcEEEE, 
                       __ZTSNSt3__115__has_one_stateIcEE, __ZTSNSt3__115__word_boundaryIcNS_12regex_traitsIcEEEE, 
                       __ZTSNSt3__115basic_stringbufIcNS_11char_traitsIcEENS_9allocatorIcEEEE, 
                       __ZTSNSt3__116__back_ref_icaseIcNS_12regex_traitsIcEEEE, __ZTSNSt3__116__owns_one_stateIcEE, 
                       __ZTSNSt3__117__owns_two_statesIcEE, __ZTSNSt3__117__repeat_one_loopIcEE, 
                       __ZTSNSt3__117bad_function_callE, __ZTSNSt3__118__back_ref_collateIcNS_12regex_traitsIcEEEE, 
                       __ZTSNSt3__118__match_char_icaseIcNS_12regex_traitsIcEEEE, 
                       __ZTSNSt3__118basic_stringstreamIcNS_11char_traitsIcEENS_9allocatorIcEEEE, 
                       __ZTSNSt3__119basic_ostringstreamIcNS_11char_traitsIcEENS_9allocatorIcEEEE, 
                       __ZTSNSt3__120__bracket_expressionIcNS_12regex_traitsIcEEEE, 
                       __ZTSNSt3__120__l_anchor_multilineIcEE, __ZTSNSt3__120__match_char_collateIcNS_12regex_traitsIcEEEE, 
                       __ZTSNSt3__120__r_anchor_multilineIcEE, __ZTSNSt3__120__shared_ptr_emplaceIN27snlc_inference_orchestrator10vocabulary10VocabularyENS_9allocatorIS3_EEEE, 
                       __ZTSNSt3__120__shared_ptr_pointerIPNS_13__empty_stateIcEENS_10shared_ptrIS2_E27__shared_ptr_default_deleteIS2_S2_EENS_9allocatorIS2_EEEE, 
                       __ZTSNSt3__121__empty_non_own_stateIcEE, __ZTSNSt3__123__match_any_but_newlineIcEE, 
                       __ZTSNSt3__126__end_marked_subexpressionIcEE, __ZTSNSt3__128__begin_marked_subexpressionIcEE, 
                       __ZTSNSt3__16__loopIcEE, __ZTSNSt3__16__nodeIcEE ]
  - targets:         [ x86_64-macos, arm64e-macos, arm64-macos ]
    symbols:         [ _SNLPNaturalLanguageParserErrorDomain, _SNLPOSLoggerForCategory, 
                       _SNLPServerNLClassifierErrorDomain, _SiriNaturalLanguageParsingVersionNumber, 
                       _SiriNaturalLanguageParsingVersionString, _UPContextualizerDefaultPrebuiltIntentThreshold, 
                       _UPCoreModelEntityLabelOrdinal, _UPCoreModelIntentCancel, 
                       _UPCoreModelIntentNo, _UPCoreModelIntentNotForMe, _UPCoreModelIntentSelectOrdinal, 
                       _UPCoreModelIntentYes, _UPDialogActEntityTypePhoneNumber, 
                       _UPDialogActEntityTypeString, _UnsupportedLocaleException, 
                       __Z11scoreOfSpanRKN15sirinluinternal12MatchingSpanERKN4snlp6common7logging13SNLPComponentE, 
                       __Z11toU16StringPKcm, __Z11toU16StringRKNSt3__112basic_stringIcNS_11char_traitsIcEENS_9allocatorIcEEEE, 
                       __Z12toNLv4TensorRKN27snlc_inference_orchestrator16inference_engine15InferenceTensorE, 
                       __Z12u16SubstringRKNSt3__112basic_stringIDsNS_11char_traitsIDsEENS_9allocatorIDsEEEEmm, 
                       __Z13getBoltTaskIdRKNSt3__113unordered_mapINS_12basic_stringIcNS_11char_traitsIcEENS_9allocatorIcEEEENS_7variantIJijfbS6_EEENS_4hashIS6_EENS_8equal_toIS6_EENS4_INS_4pairIKS6_S8_EEEEEERKN4snlp6common7logging13SNLPComponentE, 
                       __Z14hasProbabilityRKN15sirinluinternal12MatchingSpanERKN4snlp6common7logging13SNLPComponentE, 
                       __Z14u16strCaseFoldRKNSt3__112basic_stringIDsNS_11char_traitsIDsEENS_9allocatorIDsEEEE, 
                       __Z16createResultNodeRKN4uaap20UPStructuredDataNodeE, __Z17u16strCaseCompareRKNSt3__112basic_stringIDsNS_11char_traitsIDsEENS_9allocatorIDsEEEES7_, 
                       __Z19isU16CharAppendSafeDs, __Z20isSiriVocabularySpanRKN15sirinluinternal12MatchingSpanE, 
                       __Z20parseVersionFileLineRKNSt3__112basic_stringIcNS_11char_traitsIcEENS_9allocatorIcEEEE, 
                       __Z24getAssetDirectoryVersionRKNSt3__14__fs10filesystem4pathE, 
                       __Z24sha256HashForFileContentRKNSt3__112basic_stringIcNS_11char_traitsIcEENS_9allocatorIcEEEEPhmRKN4snlp6common7logging13SNLPComponentE, 
                       __Z26createLogForCategoryStringPKc, __Z26sha256HashForRecursivePathRKNSt3__112basic_stringIcNS_11char_traitsIcEENS_9allocatorIcEEEERKN4snlp6common7logging13SNLPComponentE, 
                       __Z28bundleInfoForAssetsDirectoryRKN4snlp6common7logging13SNLPComponentERKNSt3__112basic_stringIcNS5_11char_traitsIcEENS5_9allocatorIcEEEERKNS5_13unordered_mapISB_NS5_7variantIJijfbSB_EEENS5_4hashISB_EENS5_8equal_toISB_EENS9_INS5_4pairISC_SG_EEEEEERKNS5_8optionalINS0_7version15SNLPVersionInfoEEE, 
                       __Z29UPSpanToMatchedCharacterSpansPK6UPSpanRNSt3__16vectorIN16nl_featurization20MatchedCharacterSpanENS2_9allocatorIS5_EEEE, 
                       __Z32UPDataDetectorSpanToDetectedSpanPK18UPDataDetectorSpanRNSt3__16vectorIN4uaap14UPDetectedSpanENS2_9allocatorIS5_EEEE, 
                       __Z34createResultTreeFromStructuredDataRKN4uaap16UPStructuredDataE, 
                       __Z38globalNerResultToMatchedCharacterSpansPK15UPPLNerResponseRNSt3__16vectorIN16nl_featurization20MatchedCharacterSpanENS2_9allocatorIS5_EEEE, 
                       __Z7convertRNSt3__112basic_stringIcNS_11char_traitsIcEENS_9allocatorIcEEEERKNS0_IDsNS1_IDsEENS3_IDsEEEE, 
                       __Z8toStringRKNSt3__112basic_stringIDsNS_11char_traitsIDsEENS_9allocatorIDsEEEE, 
                       __Z9normalizeRKNSt3__112basic_stringIDsNS_11char_traitsIDsEENS_9allocatorIDsEEEE16NormalizerChoice, 
                       __ZN10global_ner11beam_search10BeamSearchC1ENSt3__16vectorINS3_IfNS2_9allocatorIfEEEENS4_IS6_EEEENS2_13unordered_mapImNS2_12basic_stringIcNS2_11char_traitsIcEENS4_IcEEEENS2_4hashImEENS2_8equal_toImEENS4_INS2_4pairIKmSE_EEEEEE, 
                       __ZN10global_ner11beam_search10BeamSearchC2ENSt3__16vectorINS3_IfNS2_9allocatorIfEEEENS4_IS6_EEEENS2_13unordered_mapImNS2_12basic_stringIcNS2_11char_traitsIcEENS4_IcEEEENS2_4hashImEENS2_8equal_toImEENS4_INS2_4pairIKmSE_EEEEEE, 
                       __ZN10global_ner12post_process12NumberEntityC1EmmRKNSt3__112basic_stringIDsNS2_11char_traitsIDsEENS2_9allocatorIDsEEEE, 
                       __ZN10global_ner12post_process12NumberEntityC2EmmRKNSt3__112basic_stringIDsNS2_11char_traitsIDsEENS2_9allocatorIDsEEEE, 
                       __ZN10global_ner12post_process13AppNameEntityC1EmmRKNSt3__112basic_stringIDsNS2_11char_traitsIDsEENS2_9allocatorIDsEEEE, 
                       __ZN10global_ner12post_process13AppNameEntityC2EmmRKNSt3__112basic_stringIDsNS2_11char_traitsIDsEENS2_9allocatorIDsEEEE, 
                       __ZN10global_ner12post_process13PostProcessor16generateEntitiesERKNSt3__16vectorINS_9interface15ChunkPredictionENS2_9allocatorIS5_EEEE, 
                       __ZN10global_ner12post_process13PostProcessor19filterEntityByRangeERKNSt3__16vectorIPNS0_6EntityENS2_9allocatorIS5_EEEENS2_4pairImmEE, 
                       __ZN10global_ner12post_process13PostProcessor24processMeasurementEntityEPNS0_6EntityERNSt3__113unordered_mapINS4_12basic_stringIcNS4_11char_traitsIcEENS4_9allocatorIcEEEENS4_6vectorIS3_NS9_IS3_EEEENS4_4hashISB_EENS4_8equal_toISB_EENS9_INS4_4pairIKSB_SE_EEEEEE, 
                       __ZN10global_ner12post_process13PostProcessor33processMeasurementComponentEntityEPNS0_6EntityERNSt3__113unordered_mapINS4_12basic_stringIcNS4_11char_traitsIcEENS4_9allocatorIcEEEENS4_6vectorIS3_NS9_IS3_EEEENS4_4hashISB_EENS4_8equal_toISB_EENS9_INS4_4pairIKSB_SE_EEEEEE, 
                       __ZN10global_ner12post_process13PostProcessor7processERKNSt3__16vectorINS_9interface15ChunkPredictionENS2_9allocatorIS5_EEEERNS3_INS2_10unique_ptrIN4siri8ontology8UsoGraphENS2_14default_deleteISE_EEEENS6_ISH_EEEE, 
                       __ZN10global_ner12post_process14CurrencyEntityC1EmmRKNSt3__112basic_stringIDsNS2_11char_traitsIDsEENS2_9allocatorIDsEEEE, 
                       __ZN10global_ner12post_process14CurrencyEntityC2EmmRKNSt3__112basic_stringIDsNS2_11char_traitsIDsEENS2_9allocatorIDsEEEE, 
                       __ZN10global_ner12post_process17MeasurementEntityC1EmmRKNSt3__112basic_stringIDsNS2_11char_traitsIDsEENS2_9allocatorIDsEEEE, 
                       __ZN10global_ner12post_process17MeasurementEntityC2EmmRKNSt3__112basic_stringIDsNS2_11char_traitsIDsEENS2_9allocatorIDsEEEE, 
                       __ZN10global_ner12post_process17OtherPersonEntityC1EmmRKNSt3__112basic_stringIDsNS2_11char_traitsIDsEENS2_9allocatorIDsEEEE, 
                       __ZN10global_ner12post_process17OtherPersonEntityC2EmmRKNSt3__112basic_stringIDsNS2_11char_traitsIDsEENS2_9allocatorIDsEEEE, 
                       __ZN10global_ner12post_process17PhoneNumberEntityC1EmmRKNSt3__112basic_stringIDsNS2_11char_traitsIDsEENS2_9allocatorIDsEEEE, 
                       __ZN10global_ner12post_process17PhoneNumberEntityC2EmmRKNSt3__112basic_stringIDsNS2_11char_traitsIDsEENS2_9allocatorIDsEEEE, 
                       __ZN10global_ner12post_process18BusinessNameEntityC1EmmRKNSt3__112basic_stringIDsNS2_11char_traitsIDsEENS2_9allocatorIDsEEEE, 
                       __ZN10global_ner12post_process18BusinessNameEntityC2EmmRKNSt3__112basic_stringIDsNS2_11char_traitsIDsEENS2_9allocatorIDsEEEE, 
                       __ZN10global_ner12post_process18EmailAddressEntityC1EmmRKNSt3__112basic_stringIDsNS2_11char_traitsIDsEENS2_9allocatorIDsEEEE, 
                       __ZN10global_ner12post_process18EmailAddressEntityC2EmmRKNSt3__112basic_stringIDsNS2_11char_traitsIDsEENS2_9allocatorIDsEEEE, 
                       __ZN10global_ner12post_process20GeographicAreaEntityC1EmmRKNSt3__112basic_stringIDsNS2_11char_traitsIDsEENS2_9allocatorIDsEEEE, 
                       __ZN10global_ner12post_process20GeographicAreaEntityC2EmmRKNSt3__112basic_stringIDsNS2_11char_traitsIDsEENS2_9allocatorIDsEEEE, 
                       __ZN10global_ner12post_process21MeasurementUnitEntityC1EmmRKNSt3__112basic_stringIDsNS2_11char_traitsIDsEENS2_9allocatorIDsEEEE, 
                       __ZN10global_ner12post_process21MeasurementUnitEntityC1EmmRKNSt3__112basic_stringIDsNS2_11char_traitsIDsEENS2_9allocatorIDsEEEERKNS3_IcNS4_IcEENS6_IcEEEE, 
                       __ZN10global_ner12post_process21MeasurementUnitEntityC2EmmRKNSt3__112basic_stringIDsNS2_11char_traitsIDsEENS2_9allocatorIDsEEEE, 
                       __ZN10global_ner12post_process21MeasurementUnitEntityC2EmmRKNSt3__112basic_stringIDsNS2_11char_traitsIDsEENS2_9allocatorIDsEEEERKNS3_IcNS4_IcEENS6_IcEEEE, 
                       __ZN10global_ner12post_process22PersonalLocationEntityC1EmmRKNSt3__112basic_stringIDsNS2_11char_traitsIDsEENS2_9allocatorIDsEEEE, 
                       __ZN10global_ner12post_process22PersonalLocationEntityC2EmmRKNSt3__112basic_stringIDsNS2_11char_traitsIDsEENS2_9allocatorIDsEEEE, 
                       __ZN10global_ner12post_process26MeasurementComponentEntityC1EmmRKNSt3__112basic_stringIDsNS2_11char_traitsIDsEENS2_9allocatorIDsEEEE, 
                       __ZN10global_ner12post_process26MeasurementComponentEntityC2EmmRKNSt3__112basic_stringIDsNS2_11char_traitsIDsEENS2_9allocatorIDsEEEE, 
                       __ZN10global_ner14crf_normalizer13CrfNormalizer25computeSequenceConfidenceEddd, 
                       __ZN10global_ner14crf_normalizer13CrfNormalizerC1ENSt3__16vectorINS3_IfNS2_9allocatorIfEEEENS4_IS6_EEEENS2_13unordered_mapImNS2_12basic_stringIcNS2_11char_traitsIcEENS4_IcEEEENS2_4hashImEENS2_8equal_toImEENS4_INS2_4pairIKmSE_EEEEEE, 
                       __ZN10global_ner14crf_normalizer13CrfNormalizerC2ENSt3__16vectorINS3_IfNS2_9allocatorIfEEEENS4_IS6_EEEENS2_13unordered_mapImNS2_12basic_stringIcNS2_11char_traitsIcEENS4_IcEEEENS2_4hashImEENS2_8equal_toImEENS4_INS2_4pairIKmSE_EEEEEE, 
                       __ZN10global_ner16GlobalNerHandlerC1ENSt3__112basic_stringIcNS1_11char_traitsIcEENS1_9allocatorIcEEEERKS7_S9_S9_S9_mmmPKDsSB_bb, 
                       __ZN10global_ner16GlobalNerHandlerC2ENSt3__112basic_stringIcNS1_11char_traitsIcEENS1_9allocatorIcEEEERKS7_S9_S9_S9_mmmPKDsSB_bb, 
                       __ZN10global_ner5utils11NerTagUtils11getNestITagERKNSt3__112basic_stringIcNS2_11char_traitsIcEENS2_9allocatorIcEEEE, 
                       __ZN10global_ner5utils11NerTagUtils14getAllNestTagsERKNSt3__112basic_stringIcNS2_11char_traitsIcEENS2_9allocatorIcEEEE, 
                       __ZN10global_ner5utils11NerTagUtils17extractChunkInfosERKNSt3__16vectorImNS2_9allocatorImEEEERKNS2_13unordered_mapImNS2_12basic_stringIcNS2_11char_traitsIcEENS4_IcEEEENS2_4hashImEENS2_8equal_toImEENS4_INS2_4pairIKmSE_EEEEEE, 
                       __ZN10global_ner5utils11NerTagUtils18calculateFirstITagERKNSt3__113unordered_mapImNS2_12basic_stringIcNS2_11char_traitsIcEENS2_9allocatorIcEEEENS2_4hashImEENS2_8equal_toImEENS7_INS2_4pairIKmS9_EEEEEE, 
                       __ZN10global_ner5utils11NerTagUtils27generateBTag2ITagIndicesMapERKNSt3__113unordered_mapImNS2_12basic_stringIcNS2_11char_traitsIcEENS2_9allocatorIcEEEENS2_4hashImEENS2_8equal_toImEENS7_INS2_4pairIKmS9_EEEEEE, 
                       __ZN10global_ner5utils11StringUtils10startsWithERKNSt3__112basic_stringIcNS2_11char_traitsIcEENS2_9allocatorIcEEEESA_, 
                       __ZN10global_ner5utils11StringUtils11toU16StringERKNSt3__112basic_stringIcNS2_11char_traitsIcEENS2_9allocatorIcEEEE, 
                       __ZN10global_ner5utils11StringUtils16equalsIgnoreCaseERKNSt3__112basic_stringIcNS2_11char_traitsIcEENS2_9allocatorIcEEEESA_, 
                       __ZN10global_ner5utils11StringUtils19isU16CharAppendSafeEDs, 
                       __ZN10global_ner5utils11StringUtils5splitERKNSt3__112basic_stringIcNS2_11char_traitsIcEENS2_9allocatorIcEEEESA_, 
                       __ZN10global_ner5utils11StringUtils7convertERNSt3__112basic_stringIDsNS2_11char_traitsIDsEENS2_9allocatorIDsEEEERKNS3_IcNS4_IcEENS6_IcEEEE, 
                       __ZN10global_ner5utils11StringUtils7convertERNSt3__112basic_stringIcNS2_11char_traitsIcEENS2_9allocatorIcEEEERKNS3_IDsNS4_IDsEENS6_IDsEEEE, 
                       __ZN10global_ner5utils11StringUtils8toStringERKNSt3__112basic_stringIDsNS2_11char_traitsIDsEENS2_9allocatorIDsEEEE, 
                       __ZN10global_ner5utils13FileLoadUtils11loadStringsERKNSt3__112basic_stringIcNS2_11char_traitsIcEENS2_9allocatorIcEEEE, 
                       __ZN10global_ner5utils13FileLoadUtils14loadIntsVectorERKNSt3__112basic_stringIcNS2_11char_traitsIcEENS2_9allocatorIcEEEE, 
                       __ZN10global_ner5utils13FileLoadUtils15loadTransParamsERKNSt3__112basic_stringIcNS2_11char_traitsIcEENS2_9allocatorIcEEEESA_, 
                       __ZN10global_ner5utils13FileLoadUtils18loadOutputLabelMapERKNSt3__112basic_stringIcNS2_11char_traitsIcEENS2_9allocatorIcEEEESA_, 
                       __ZN10global_ner5utils13FileLoadUtils19load2DFloatsVectorsERKNSt3__112basic_stringIcNS2_11char_traitsIcEENS2_9allocatorIcEEEESA_, 
                       __ZN10global_ner5utils13FileLoadUtils19loadVocabIndicesMapERKNSt3__112basic_stringIcNS2_11char_traitsIcEENS2_9allocatorIcEEEESA_, 
                       __ZN10global_ner5utils8LogUtils20createEspressoLoggerEv, __ZN10global_ner5utils8LogUtils22createNerFactoryLoggerEv, 
                       __ZN10global_ner5utils8LogUtils22createNerHandlerLoggerEv, 
                       __ZN10global_ner7factory10NerFactoryC1ERKNSt3__112basic_stringIcNS2_11char_traitsIcEENS2_9allocatorIcEEEESA_SA_mmbb, 
                       __ZN10global_ner7factory10NerFactoryC2ERKNSt3__112basic_stringIcNS2_11char_traitsIcEENS2_9allocatorIcEEEESA_SA_mmbb, 
                       __ZN10global_ner9inference13EspressoModel9loadModelERKNSt3__112basic_stringIcNS2_11char_traitsIcEENS2_9allocatorIcEEEE, 
                       __ZN10global_ner9inference13EspressoModelC1ERKNSt3__112basic_stringIcNS2_11char_traitsIcEENS2_9allocatorIcEEEE, 
                       __ZN10global_ner9inference13EspressoModelC2ERKNSt3__112basic_stringIcNS2_11char_traitsIcEENS2_9allocatorIcEEEE, 
                       __ZN10global_ner9inference13EspressoModelD1Ev, __ZN10global_ner9inference13EspressoModelD2Ev, 
                       __ZN10global_ner9inference16NerEspressoModelC1ERKNSt3__112basic_stringIcNS2_11char_traitsIcEENS2_9allocatorIcEEEEmmbb, 
                       __ZN10global_ner9inference16NerEspressoModelC2ERKNSt3__112basic_stringIcNS2_11char_traitsIcEENS2_9allocatorIcEEEEmmbb, 
                       __ZN10global_ner9inference16NerEspressoModelD0Ev, __ZN10global_ner9inference16NerEspressoModelD1Ev, 
                       __ZN10global_ner9inference16NerEspressoModelD2Ev, __ZN16nl_featurization10vocabulary10Vocabulary11insertTokenERKNSt3__112basic_stringIDsNS2_11char_traitsIDsEENS2_9allocatorIDsEEEEm, 
                       __ZN16nl_featurization10vocabulary10Vocabulary20initializeFromStreamERNSt3__113basic_istreamIcNS2_11char_traitsIcEEEE, 
                       __ZN16nl_featurization10vocabulary10VocabularyC1ERKNSt3__112basic_stringIcNS2_11char_traitsIcEENS2_9allocatorIcEEEE, 
                       __ZN16nl_featurization10vocabulary10VocabularyC1ERNSt3__113basic_istreamIcNS2_11char_traitsIcEEEE, 
                       __ZN16nl_featurization10vocabulary10VocabularyC2ERKNSt3__112basic_stringIcNS2_11char_traitsIcEENS2_9allocatorIcEEEE, 
                       __ZN16nl_featurization10vocabulary10VocabularyC2ERNSt3__113basic_istreamIcNS2_11char_traitsIcEEEE, 
                       __ZN16nl_featurization11beam_search10beamSearchERKNSt3__16vectorIdNS1_9allocatorIdEEEERKNS2_IS5_NS3_IS5_EEEES7_SB_S7_SB_RKNS1_13unordered_mapImNS1_3setImNS1_4lessImEENS3_ImEEEENS1_4hashImEENS1_8equal_toImEENS3_INS1_4pairIKmSH_EEEEEESS_m, 
                       __ZN16nl_featurization11beam_search12BeamSequenceC1ENSt3__16vectorImNS2_9allocatorImEEEENS3_INS2_8optionalImEENS4_IS8_EEEEdNS2_3setImNS2_4lessImEES5_EE, 
                       __ZN16nl_featurization11beam_search12BeamSequenceC2ENSt3__16vectorImNS2_9allocatorImEEEENS3_INS2_8optionalImEENS4_IS8_EEEEdNS2_3setImNS2_4lessImEES5_EE, 
                       __ZN16nl_featurization11beam_search14validateInputsERKNSt3__16vectorIdNS1_9allocatorIdEEEERKNS2_IS5_NS3_IS5_EEEES7_SB_S7_SB_RKNS1_13unordered_mapImNS1_3setImNS1_4lessImEENS3_ImEEEENS1_4hashImEENS1_8equal_toImEENS3_INS1_4pairIKmSH_EEEEEESS_m, 
                       __ZN16nl_featurization11beam_search16isEntityNewGroupERKNSt3__16vectorIdNS1_9allocatorIdEEEEm, 
                       __ZN16nl_featurization11beam_search16isSequenceUniqueERKNS0_12BeamSequenceERKNSt3__113unordered_mapImNS4_3setImNS4_4lessImEENS4_9allocatorImEEEENS4_4hashImEENS4_8equal_toImEENS9_INS4_4pairIKmSB_EEEEEEm, 
                       __ZN16nl_featurization11beam_search19isSequenceIndexableERKNS0_12BeamSequenceERKNSt3__113unordered_mapImNS4_3setImNS4_4lessImEENS4_9allocatorImEEEENS4_4hashImEENS4_8equal_toImEENS9_INS4_4pairIKmSB_EEEEEEm, 
                       __ZN16nl_featurization11beam_search21getGroupIdForSequenceERKNSt3__113unordered_mapImNS1_3setImNS1_4lessImEENS1_9allocatorImEEEENS1_4hashImEENS1_8equal_toImEENS6_INS1_4pairIKmS8_EEEEEERKNS0_12BeamSequenceENS1_8optionalImEEbm, 
                       __ZN16nl_featurization11beam_search25getHighestExistingGroupIdERKNSt3__16vectorINS1_8optionalImEENS1_9allocatorIS4_EEEE, 
                       __ZN16nl_featurization11beam_search29getCandidatesFromEntityScoresERKNSt3__16vectorINS0_12BeamSequenceENS1_9allocatorIS3_EEEERKNS2_IdNS4_IdEEEESC_RKNS2_ISA_NS4_ISA_EEEESC_SG_RKNS1_13unordered_mapImNS1_3setImNS1_4lessImEENS4_ImEEEENS1_4hashImEENS1_8equal_toImEENS4_INS1_4pairIKmSM_EEEEEESX_, 
                       __ZN16nl_featurization12pattern_trie11PatternTrie6insertERKNSt3__112basic_stringIDsNS2_11char_traitsIDsEENS2_9allocatorIDsEEEE, 
                       __ZN16nl_featurization13span_matching14span_processor13SpanProcessorC1ERKNSt3__16vectorINS_18SpanMatcherPatternENS3_9allocatorIS5_EEEE, 
                       __ZN16nl_featurization13span_matching14span_processor13SpanProcessorC2ERKNSt3__16vectorINS_18SpanMatcherPatternENS3_9allocatorIS5_EEEE, 
                       __ZN16nl_featurization13span_matching14span_processor24validatePatternSubstringERKNSt3__112basic_stringIDsNS2_11char_traitsIDsEENS2_9allocatorIDsEEEESA_, 
                       __ZN16nl_featurization13span_matching18alignSpansToTokensERKNSt3__16vectorINS_5TokenENS1_9allocatorIS3_EEEERKNS2_INS_20MatchedCharacterSpanENS4_IS9_EEEE, 
                       __ZN16nl_featurization13span_matching22MatchedSpansFeaturizerC1ENS_10vocabulary10VocabularyENSt3__112basic_stringIDsNS4_11char_traitsIDsEENS4_9allocatorIDsEEEENS4_13unordered_setISA_NS4_4hashISA_EENS4_8equal_toISA_EENS8_ISA_EEEE, 
                       __ZN16nl_featurization13span_matching22MatchedSpansFeaturizerC2ENS_10vocabulary10VocabularyENSt3__112basic_stringIDsNS4_11char_traitsIDsEENS4_9allocatorIDsEEEENS4_13unordered_setISA_NS4_4hashISA_EENS4_8equal_toISA_EENS8_ISA_EEEE, 
                       __ZN16nl_featurization14postprocessing4base20postProcessBaseModelERKNS1_21BaseModelQueryContextERKNS1_15BaseModelOutputE, 
                       __ZN16nl_featurization14postprocessing4base25postProcessBaseModelInnerERKNS1_26BaseModelQueryContextInnerERKNS1_15BaseModelOutputE, 
                       __ZN16nl_featurization15buildFeaturizerERKNS_16FeaturizerConfigE, 
                       __ZN16nl_featurization3bio11kOutsideTagE, __ZN16nl_featurization3bio11parseBioTagERKNSt3__112basic_stringIDsNS1_11char_traitsIDsEENS1_9allocatorIDsEEEE, 
                       __ZN16nl_featurization3bio22convertToLabelledSpansERKNSt3__16vectorINS1_12basic_stringIDsNS1_11char_traitsIDsEENS1_9allocatorIDsEEEENS6_IS8_EEEERKNS2_INS1_8optionalImEENS6_ISE_EEEERKNS2_INS_5TokenENS6_ISJ_EEEE, 
                       __ZN16nl_featurization3bio31buildAllBioTagsFromEntityLabelsERKNSt3__16vectorINS1_12basic_stringIDsNS1_11char_traitsIDsEENS1_9allocatorIDsEEEENS6_IS8_EEEE, 
                       __ZN16nl_featurization3bio33buildBeginBioTagsFromEntityLabelsERKNSt3__16vectorINS1_12basic_stringIDsNS1_11char_traitsIDsEENS1_9allocatorIDsEEEENS6_IS8_EEEE, 
                       __ZN16nl_featurization3bio6BioTagC1ENS0_12BioTagPrefixENSt3__18optionalINS0_13BioTagPayloadEEE, 
                       __ZN16nl_featurization3bio6BioTagC2ENS0_12BioTagPrefixENSt3__18optionalINS0_13BioTagPayloadEEE, 
                       __ZN16nl_featurizationeqERKNS_9EmbeddingES2_, __ZN16nl_featurizationlsERNSt3__113basic_ostreamIcNS0_11char_traitsIcEEEERKNS_9EmbeddingE, 
                       __ZN18uaap_orchestration10beam_input16buildGrammarMaskERKN16nl_featurization10vocabulary10VocabularyES5_RKNS_7grammar11UaapGrammarE, 
                       __ZN18uaap_orchestration10beam_input17buildUniqueLabelsERKN16nl_featurization10vocabulary10VocabularyES5_RKNS_7grammar11UaapGrammarE, 
                       __ZN18uaap_orchestration10beam_input19buildBeamMaskInputsERKN16nl_featurization10vocabulary10VocabularyES5_RKNS_7grammar11UaapGrammarE, 
                       __ZN18uaap_orchestration10beam_input20buildIndexableLabelsERKN16nl_featurization10vocabulary10VocabularyES5_RKNS_7grammar11UaapGrammarE, 
                       __ZN18uaap_orchestration10beam_input20buildStartEntityMaskERKN16nl_featurization10vocabulary10VocabularyE, 
                       __ZN18uaap_orchestration10beam_input25isParentLabelSpecialTokenERKN16nl_featurization10vocabulary10VocabularyEm, 
                       __ZN18uaap_orchestration10beam_input27getRepeatedEntityLabelNamesERKNS_7grammar11UaapGrammarERKNSt3__112basic_stringIDsNS5_11char_traitsIDsEENS5_9allocatorIDsEEEE, 
                       __ZN18uaap_orchestration10beam_input30childrenBeginLabelIdsFromPathsERKNS_7grammar11UaapGrammarERKN16nl_featurization10vocabulary10VocabularyENSt3__16vectorINS1_4PathENSA_9allocatorISC_EEEE, 
                       __ZN18uaap_orchestration10beam_input31buildInnerEntityTransitionsMaskERKN16nl_featurization10vocabulary10VocabularyE, 
                       __ZN18uaap_orchestration6labels26buildEntityLabelsFromPathsERKNSt3__16vectorINS_7grammar4PathENS1_9allocatorIS4_EEEERKNS3_11UaapGrammarE, 
                       __ZN18uaap_orchestration6labels30buildSimpleEntityLabelFromPathERKNS_7grammar4PathE, 
                       __ZN18uaap_orchestration6labels46buildEntityLabelsFromSimpleLabelAndEnumChoicesERKNSt3__112basic_stringIDsNS1_11char_traitsIDsEENS1_9allocatorIDsEEEERKNS1_6vectorIS7_NS5_IS7_EEEE, 
                       __ZN18uaap_orchestration7grammar11UaapGrammar17loadRulesFromJsonERN9rapidjson15GenericDocumentINS2_4UTF8IcEENS2_19MemoryPoolAllocatorINS2_12CrtAllocatorEEES7_EE, 
                       __ZN18uaap_orchestration7grammar11UaapGrammar8fromFileERKNSt3__112basic_stringIcNS2_11char_traitsIcEENS2_9allocatorIcEEEE, 
                       __ZN18uaap_orchestration7grammar11UaapGrammarC1ERKNSt3__112basic_stringIcNS2_11char_traitsIcEENS2_9allocatorIcEEEE, 
                       __ZN18uaap_orchestration7grammar11UaapGrammarC2ERKNSt3__112basic_stringIcNS2_11char_traitsIcEENS2_9allocatorIcEEEE, 
                       __ZN18uaap_orchestration7grammar18parseValueToStringERKN9rapidjson12GenericValueINS1_4UTF8IcEENS1_19MemoryPoolAllocatorINS1_12CrtAllocatorEEEEE, 
                       __ZN18uaap_orchestration7grammar4Path13singletonPathERKNSt3__112basic_stringIDsNS2_11char_traitsIDsEENS2_9allocatorIDsEEEE, 
                       __ZN18uaap_orchestration7grammar4Rule21loadLeftLabelFromJsonERKN9rapidjson12GenericValueINS2_4UTF8IcEENS2_19MemoryPoolAllocatorINS2_12CrtAllocatorEEEEE, 
                       __ZN18uaap_orchestration7grammar4Rule23loadRightLabelsFromJsonERKN9rapidjson12GenericValueINS2_4UTF8IcEENS2_19MemoryPoolAllocatorINS2_12CrtAllocatorEEEEE, 
                       __ZN18uaap_orchestration7grammar4Rule28loadValueConstraintsFromJsonERKN9rapidjson12GenericValueINS2_4UTF8IcEENS2_19MemoryPoolAllocatorINS2_12CrtAllocatorEEEEE, 
                       __ZN18uaap_orchestration7grammar9json_keys11enumChoicesE, 
                       __ZN18uaap_orchestration7grammar9json_keys11rightLabelsE, 
                       __ZN18uaap_orchestration7grammar9json_keys13semanticValueE, 
                       __ZN18uaap_orchestration7grammar9json_keys15openListChoicesE, 
                       __ZN18uaap_orchestration7grammar9json_keys15resolutionTableE, 
                       __ZN18uaap_orchestration7grammar9json_keys16valueConstraintsE, 
                       __ZN18uaap_orchestration7grammar9json_keys4nameE, __ZN18uaap_orchestration7grammar9json_keys4typeE, 
                       __ZN18uaap_orchestration7grammar9json_keys5rulesE, __ZN18uaap_orchestration7grammar9json_keys8repeatedE, 
                       __ZN18uaap_orchestration7grammar9json_keys8synonymsE, __ZN18uaap_orchestration7grammar9json_keys9leftLabelE, 
                       __ZN27nlv4_inference_orchestrator10vocabulary10Vocabulary11insertTokenERKNSt3__112basic_stringIcNS2_11char_traitsIcEENS2_9allocatorIcEEEEm, 
                       __ZN27nlv4_inference_orchestrator10vocabulary10Vocabulary20initializeFromStreamERNSt3__113basic_istreamIcNS2_11char_traitsIcEEEE, 
                       __ZN27nlv4_inference_orchestrator10vocabulary10VocabularyC1ERKNSt3__112basic_stringIcNS2_11char_traitsIcEENS2_9allocatorIcEEEE, 
                       __ZN27nlv4_inference_orchestrator10vocabulary10VocabularyC2ERKNSt3__112basic_stringIcNS2_11char_traitsIcEENS2_9allocatorIcEEEE, 
                       __ZN27nlv4_inference_orchestrator13orchestration20EmbedderOrchestratorC1ERKNSt3__112basic_stringIcNS2_11char_traitsIcEENS2_9allocatorIcEEEESA_SA_SA_, 
                       __ZN27nlv4_inference_orchestrator13orchestration20EmbedderOrchestratorC2ERKNSt3__112basic_stringIcNS2_11char_traitsIcEENS2_9allocatorIcEEEESA_SA_SA_, 
                       __ZN27nlv4_inference_orchestrator13orchestration25NLv4InferenceOrchestrator15validateRequestERKN26sirinluinternalnlv4_parser17NLv4ParserRequestE, 
                       __ZN27nlv4_inference_orchestrator13orchestration25NLv4InferenceOrchestrator16kAssetPathConfigE, 
                       __ZN27nlv4_inference_orchestrator13orchestration25NLv4InferenceOrchestrator19safeReadVersionInfoERKNSt3__14__fs10filesystem4pathE, 
                       __ZN27nlv4_inference_orchestrator13orchestration25NLv4InferenceOrchestrator20kAssetPathSpansVocabE, 
                       __ZN27nlv4_inference_orchestrator13orchestration25NLv4InferenceOrchestrator21kAssetPathSpanMappingE, 
                       __ZN27nlv4_inference_orchestrator13orchestration25NLv4InferenceOrchestrator21kAssetPathTargetVocabE, 
                       __ZN27nlv4_inference_orchestrator13orchestration25NLv4InferenceOrchestrator21kAssetPathVersionYamlE, 
                       __ZN27nlv4_inference_orchestrator13orchestration25NLv4InferenceOrchestrator22kAssetPathContextVocabE, 
                       __ZN27nlv4_inference_orchestrator13orchestration25NLv4InferenceOrchestrator23kAssetPathParserDecoderE, 
                       __ZN27nlv4_inference_orchestrator13orchestration25NLv4InferenceOrchestrator23kAssetPathParserEncoderE, 
                       __ZN27nlv4_inference_orchestrator13orchestration25NLv4InferenceOrchestrator28kAssetPathMulticardinalVocabE, 
                       __ZN27nlv4_inference_orchestrator13orchestration25NLv4InferenceOrchestrator35kMajorAssetVersionBeforeVersionYamlE, 
                       __ZN27nlv4_inference_orchestrator13orchestration25NLv4InferenceOrchestrator36getVersionYamlPathGivenSpanVocabPathERKNSt3__112basic_stringIcNS2_11char_traitsIcEENS2_9allocatorIcEEEE, 
                       __ZN27nlv4_inference_orchestrator13orchestration25NLv4InferenceOrchestrator43getMulticardinalVocabPathGivenSpanVocabPathERKNSt3__112basic_stringIcNS2_11char_traitsIcEENS2_9allocatorIcEEEE, 
                       __ZN27nlv4_inference_orchestrator13orchestration25NLv4InferenceOrchestrator46kMinimumMajorAssetVersionForMulticardinalVocabE, 
                       __ZN27nlv4_inference_orchestrator13orchestration25NLv4InferenceOrchestratorC1ERKNSt3__112basic_stringIcNS2_11char_traitsIcEENS2_9allocatorIcEEEESA_SA_SA_SA_SA_, 
                       __ZN27nlv4_inference_orchestrator13orchestration25NLv4InferenceOrchestratorC1ERKNSt3__14__fs10filesystem4pathE, 
                       __ZN27nlv4_inference_orchestrator13orchestration25NLv4InferenceOrchestratorC2ERKNSt3__112basic_stringIcNS2_11char_traitsIcEENS2_9allocatorIcEEEESA_SA_SA_SA_SA_, 
                       __ZN27nlv4_inference_orchestrator13orchestration25NLv4InferenceOrchestratorC2ERKNSt3__14__fs10filesystem4pathE, 
                       __ZN27nlv4_inference_orchestrator13orchestration30getUnicodeScalarAndUtf8OffsetsERKNSt3__112basic_stringIcNS1_11char_traitsIcEENS1_9allocatorIcEEEEm, 
                       __ZN27nlv4_inference_orchestrator13span_matching14makeVocabLabelERKNSt3__112basic_stringIcNS1_11char_traitsIcEENS1_9allocatorIcEEEES9_RKNS1_8optionalIS7_EE, 
                       __ZN27nlv4_inference_orchestrator13span_matching19getNamespaceForNodeERKN4siri8ontology12UsoGraphNodeERKN4snlp6common7logging13SNLPComponentE, 
                       __ZN27nlv4_inference_orchestrator13span_matching21getEntityFromUsoGraphERKN4siri8ontology8UsoGraphERKN4snlp6common7logging13SNLPComponentE, 
                       __ZN27nlv4_inference_orchestrator13span_matching22MatchedSpansFeaturizerC1ERKNSt3__112basic_stringIcNS2_11char_traitsIcEENS2_9allocatorIcEEEENS2_10shared_ptrIN4siri8ontology15UsoVocabManagerEEERKN4snlp6common7logging13SNLPComponentE, 
                       __ZN27nlv4_inference_orchestrator13span_matching22MatchedSpansFeaturizerC1ERKNSt3__112basic_stringIcNS2_11char_traitsIcEENS2_9allocatorIcEEEESA_NS2_10shared_ptrIN4siri8ontology15UsoVocabManagerEEERKN4snlp6common7logging13SNLPComponentE, 
                       __ZN27nlv4_inference_orchestrator13span_matching22MatchedSpansFeaturizerC2ERKNSt3__112basic_stringIcNS2_11char_traitsIcEENS2_9allocatorIcEEEENS2_10shared_ptrIN4siri8ontology15UsoVocabManagerEEERKN4snlp6common7logging13SNLPComponentE, 
                       __ZN27nlv4_inference_orchestrator13span_matching22MatchedSpansFeaturizerC2ERKNSt3__112basic_stringIcNS2_11char_traitsIcEENS2_9allocatorIcEEEESA_NS2_10shared_ptrIN4siri8ontology15UsoVocabManagerEEERKN4snlp6common7logging13SNLPComponentE, 
                       __ZN27nlv4_inference_orchestrator13span_matching25addExtraEntityInformationERKN4siri8ontology8UsoGraphERKNSt3__112basic_stringIcNS6_11char_traitsIcEENS6_9allocatorIcEEEERKN4snlp6common7logging13SNLPComponentE, 
                       __ZN27nlv4_inference_orchestrator13span_matching25copyAndConvertLabelLegacyERKN15sirinluinternal12MatchingSpanE, 
                       __ZN27nlv4_inference_orchestrator13span_matching25getNamespaceForEntityNodeERKN4siri8ontology13UsoEntityNodeE, 
                       __ZN27nlv4_inference_orchestrator13span_matching26convertMatcherTypeToStringERKNSt3__16vectorIN15sirinluinternal24MatchingSpan_MatcherNameENS1_9allocatorIS4_EEEE, 
                       __ZN27nlv4_inference_orchestrator13span_matching36RelativeThresholdMatchingSpansFilterC1ERKN4snlp6common7logging13SNLPComponentEd, 
                       __ZN27nlv4_inference_orchestrator13span_matching36RelativeThresholdMatchingSpansFilterC2ERKN4snlp6common7logging13SNLPComponentEd, 
                       __ZN27nlv4_inference_orchestrator13span_matching8getLabelERKN15sirinluinternal12MatchingSpanENSt3__110shared_ptrIN4siri8ontology15UsoVocabManagerEEERKN4snlp6common7logging13SNLPComponentE, 
                       __ZN27nlv4_inference_orchestrator14pre_processing12Reformulator18readReformulationsERKNSt3__112basic_stringIcNS2_11char_traitsIcEENS2_9allocatorIcEEEE, 
                       __ZN27nlv4_inference_orchestrator14pre_processing12ReformulatorC1ERKNSt3__112basic_stringIcNS2_11char_traitsIcEENS2_9allocatorIcEEEE, 
                       __ZN27nlv4_inference_orchestrator14pre_processing12ReformulatorC2ERKNSt3__112basic_stringIcNS2_11char_traitsIcEENS2_9allocatorIcEEEE, 
                       __ZN27nlv4_inference_orchestrator15post_processing18tree_manipulations16ContactTypeSplit22getPersonMatchingSpansERKNSt3__16vectorIN15sirinluinternal12MatchingSpanENS3_9allocatorIS6_EEEE, 
                       __ZN27nlv4_inference_orchestrator15post_processing18tree_manipulations16ContactTypeSplit25isContactTypeMatchingSpanERKN15sirinluinternal12MatchingSpanE, 
                       __ZN27nlv4_inference_orchestrator15post_processing18tree_manipulations16ContactTypeSplit27getContactTypeMatchingSpansERKNSt3__16vectorIN15sirinluinternal12MatchingSpanENS3_9allocatorIS6_EEEE, 
                       __ZN27nlv4_inference_orchestrator15post_processing18tree_manipulations16ContactTypeSplit27kMatchingSpanLabelEmailTypeE, 
                       __ZN27nlv4_inference_orchestrator15post_processing18tree_manipulations16ContactTypeSplit29kMatchingSpanLabelContactTypeE, 
                       __ZN27nlv4_inference_orchestrator15post_processing18tree_manipulations16ContactTypeSplit33kLoggingComponentContactTypeSplitE, 
                       __ZN27nlv4_inference_orchestrator15post_processing18tree_manipulations16ContactTypeSplitC1ERKNSt3__16vectorINS_13orchestration12IndexedTokenENS3_9allocatorIS6_EEEERKNS4_IN15sirinluinternal12MatchingSpanENS7_ISD_EEEE, 
                       __ZN27nlv4_inference_orchestrator15post_processing18tree_manipulations16ContactTypeSplitC2ERKNSt3__16vectorINS_13orchestration12IndexedTokenENS3_9allocatorIS6_EEEERKNS4_IN15sirinluinternal12MatchingSpanENS7_ISD_EEEE, 
                       __ZN27nlv4_inference_orchestrator15post_processing18tree_manipulations17TreeManipulationsC1ERKNSt3__112basic_stringIcNS3_11char_traitsIcEENS3_9allocatorIcEEEERKNS3_6vectorINS_13orchestration12IndexedTokenENS7_ISE_EEEERKNSC_IN15sirinluinternal12MatchingSpanENS7_ISK_EEEERKNS3_8optionalIN15sirinluexternal9NLContextEEE, 
                       __ZN27nlv4_inference_orchestrator15post_processing18tree_manipulations17TreeManipulationsC2ERKNSt3__112basic_stringIcNS3_11char_traitsIcEENS3_9allocatorIcEEEERKNS3_6vectorINS_13orchestration12IndexedTokenENS7_ISE_EEEERKNSC_IN15sirinluinternal12MatchingSpanENS7_ISK_EEEERKNS3_8optionalIN15sirinluexternal9NLContextEEE, 
                       __ZN27nlv4_inference_orchestrator15post_processing18tree_manipulations18GroupNameTransform14kLoggingPrefixE, 
                       __ZN27nlv4_inference_orchestrator15post_processing18tree_manipulations18GroupNameTransform20getSmsGroupNameSpansERKNSt3__16vectorIN15sirinluinternal12MatchingSpanENS3_9allocatorIS6_EEEE, 
                       __ZN27nlv4_inference_orchestrator15post_processing18tree_manipulations18GroupNameTransform20isUVSmsGroupNameSpanERKN15sirinluinternal12MatchingSpanE, 
                       __ZN27nlv4_inference_orchestrator15post_processing18tree_manipulations18GroupNameTransform22getPersonFullNameSpansERKNSt3__16vectorIN15sirinluinternal12MatchingSpanENS3_9allocatorIS6_EEEE, 
                       __ZN27nlv4_inference_orchestrator15post_processing18tree_manipulations18GroupNameTransform22isUVPersonFullNameSpanERKN15sirinluinternal12MatchingSpanE, 
                       __ZN27nlv4_inference_orchestrator15post_processing18tree_manipulations18GroupNameTransform25isCommonPersonOrAgentNodeERKNS_5trees8TreeNodeE, 
                       __ZN27nlv4_inference_orchestrator15post_processing18tree_manipulations18GroupNameTransform30kMatchingSpanLabelSmsGroupNameE, 
                       __ZN27nlv4_inference_orchestrator15post_processing18tree_manipulations18GroupNameTransform32kMatchingSpanLabelPersonFullNameE, 
                       __ZN27nlv4_inference_orchestrator15post_processing18tree_manipulations18GroupNameTransformC1ERKNSt3__16vectorINS_13orchestration12IndexedTokenENS3_9allocatorIS6_EEEERKNS4_IN15sirinluinternal12MatchingSpanENS7_ISD_EEEE, 
                       __ZN27nlv4_inference_orchestrator15post_processing18tree_manipulations18GroupNameTransformC2ERKNSt3__16vectorINS_13orchestration12IndexedTokenENS3_9allocatorIS6_EEEERKNS4_IN15sirinluinternal12MatchingSpanENS7_ISD_EEEE, 
                       __ZN27nlv4_inference_orchestrator15post_processing18tree_manipulations19PersonNameSplitHack22getPersonMatchingSpansERKNSt3__16vectorIN15sirinluinternal12MatchingSpanENS3_9allocatorIS6_EEEE, 
                       __ZN27nlv4_inference_orchestrator15post_processing18tree_manipulations19PersonNameSplitHack32kLoggingComponentPersonNameSplitE, 
                       __ZN27nlv4_inference_orchestrator15post_processing18tree_manipulations19PersonNameSplitHackC1ERKNSt3__16vectorINS_13orchestration12IndexedTokenENS3_9allocatorIS6_EEEERKNS4_IN15sirinluinternal12MatchingSpanENS7_ISD_EEEE, 
                       __ZN27nlv4_inference_orchestrator15post_processing18tree_manipulations19PersonNameSplitHackC2ERKNSt3__16vectorINS_13orchestration12IndexedTokenENS3_9allocatorIS6_EEEERKNS4_IN15sirinluinternal12MatchingSpanENS7_ISD_EEEE, 
                       __ZN27nlv4_inference_orchestrator15post_processing18tree_manipulations21SetNumberVerbReplacer14kLoggingPrefixE, 
                       __ZN27nlv4_inference_orchestrator15post_processing18tree_manipulations21SetNumberVerbReplacer18isSetNumberVocSpanERKN15sirinluinternal12MatchingSpanE, 
                       __ZN27nlv4_inference_orchestrator15post_processing18tree_manipulations21SetNumberVerbReplacer18kSetNumberSpanNameE, 
                       __ZN27nlv4_inference_orchestrator15post_processing18tree_manipulations21SetNumberVerbReplacer19kEntityVerbSplitterE, 
                       __ZN27nlv4_inference_orchestrator15post_processing18tree_manipulations21SetNumberVerbReplacer20hasSetNumberVocSpansERKNSt3__16vectorIN15sirinluinternal12MatchingSpanENS3_9allocatorIS6_EEEE, 
                       __ZN27nlv4_inference_orchestrator15post_processing18tree_manipulations21SetNumberVerbReplacer24kCommonSettingVerbPrefixE, 
                       __ZN27nlv4_inference_orchestrator15post_processing18tree_manipulations21SetNumberVerbReplacerC1ERKNSt3__16vectorIN15sirinluinternal12MatchingSpanENS3_9allocatorIS6_EEEE, 
                       __ZN27nlv4_inference_orchestrator15post_processing18tree_manipulations21SetNumberVerbReplacerC2ERKNSt3__16vectorIN15sirinluinternal12MatchingSpanENS3_9allocatorIS6_EEEE, 
                       __ZN27nlv4_inference_orchestrator15post_processing18tree_manipulations22MinimumMaximumLabeller14isDefinedValueERKNS_5trees8TreeNodeE, 
                       __ZN27nlv4_inference_orchestrator15post_processing18tree_manipulations22MinimumMaximumLabeller16hasMatchingSpansERKNSt3__16vectorIN15sirinluinternal12MatchingSpanENS3_9allocatorIS6_EEEENS3_17basic_string_viewIcNS3_11char_traitsIcEEEESF_, 
                       __ZN27nlv4_inference_orchestrator15post_processing18tree_manipulations22MinimumMaximumLabeller17kMaxSemanticValueE, 
                       __ZN27nlv4_inference_orchestrator15post_processing18tree_manipulations22MinimumMaximumLabeller17kMinSemanticValueE, 
                       __ZN27nlv4_inference_orchestrator15post_processing18tree_manipulations22MinimumMaximumLabeller17requiredForLocaleERKNSt3__112basic_stringIcNS3_11char_traitsIcEENS3_9allocatorIcEEEE, 
                       __ZN27nlv4_inference_orchestrator15post_processing18tree_manipulations22MinimumMaximumLabeller22correctLabelGivenSpansERKNSt3__16vectorIN15sirinluinternal12MatchingSpanENS3_9allocatorIS6_EEEE, 
                       __ZN27nlv4_inference_orchestrator15post_processing18tree_manipulations22MinimumMaximumLabeller23hasMinOrMaxDefinedValueERKNS_5trees8TreeNodeE, 
                       __ZN27nlv4_inference_orchestrator15post_processing18tree_manipulations22MinimumMaximumLabeller24kMatchingSpanLabelMinMaxE, 
                       __ZN27nlv4_inference_orchestrator15post_processing18tree_manipulations22MinimumMaximumLabeller27kMatchingSpanLabelMinMaxAltE, 
                       __ZN27nlv4_inference_orchestrator15post_processing18tree_manipulations22MinimumMaximumLabeller30correctLabelGivenSpecificSpansERKNSt3__16vectorIN15sirinluinternal12MatchingSpanENS3_9allocatorIS6_EEEENS3_17basic_string_viewIcNS3_11char_traitsIcEEEE, 
                       __ZN27nlv4_inference_orchestrator15post_processing18tree_manipulations22MinimumMaximumLabeller39kLoggingComponentMinimumMaximumLabellerE, 
                       __ZN27nlv4_inference_orchestrator15post_processing18tree_manipulations22MinimumMaximumLabeller41doesMatchingSpanHaveLabelAndSemanticValueERKN15sirinluinternal12MatchingSpanENSt3__117basic_string_viewIcNS7_11char_traitsIcEEEESB_, 
                       __ZN27nlv4_inference_orchestrator15post_processing18tree_manipulations22MinimumMaximumLabellerC1ERKNSt3__16vectorIN15sirinluinternal12MatchingSpanENS3_9allocatorIS6_EEEE, 
                       __ZN27nlv4_inference_orchestrator15post_processing18tree_manipulations22MinimumMaximumLabellerC2ERKNSt3__16vectorIN15sirinluinternal12MatchingSpanENS3_9allocatorIS6_EEEE, 
                       __ZN27nlv4_inference_orchestrator15post_processing18tree_manipulations22OneShotReplyRemodeller18isReplyMessageNodeERKN15sirinluexternal7UsoNodeE, 
                       __ZN27nlv4_inference_orchestrator15post_processing18tree_manipulations22OneShotReplyRemodeller19isReplyMessageGraphERKN15sirinluexternal8UsoGraphE, 
                       __ZN27nlv4_inference_orchestrator15post_processing18tree_manipulations22OneShotReplyRemodeller28udaContainsReplyMessageGraphERKN15sirinluexternal13UserDialogActE, 
                       __ZN27nlv4_inference_orchestrator15post_processing18tree_manipulations22OneShotReplyRemodeller49contextContainsReplyMessageSystemOfferedDialogActERKNSt3__18optionalIN15sirinluexternal9NLContextEEE, 
                       __ZN27nlv4_inference_orchestrator15post_processing18tree_manipulations22OneShotReplyRemodellerC1ERKNSt3__18optionalIN15sirinluexternal9NLContextEEE, 
                       __ZN27nlv4_inference_orchestrator15post_processing18tree_manipulations22OneShotReplyRemodellerC2ERKNSt3__18optionalIN15sirinluexternal9NLContextEEE, 
                       __ZN27nlv4_inference_orchestrator15post_processing18tree_manipulations24ContactAddressDowncaster16getMatchingSpansERKNSt3__16vectorIN15sirinluinternal12MatchingSpanENS3_9allocatorIS6_EEEENS3_17basic_string_viewIcNS3_11char_traitsIcEEEE, 
                       __ZN27nlv4_inference_orchestrator15post_processing18tree_manipulations24ContactAddressDowncaster22isRelevantMatchingSpanERKN15sirinluinternal12MatchingSpanENSt3__117basic_string_viewIcNS7_11char_traitsIcEEEE, 
                       __ZN27nlv4_inference_orchestrator15post_processing18tree_manipulations24ContactAddressDowncaster26isCommonContactAddressNodeERKNS_5trees8TreeNodeE, 
                       __ZN27nlv4_inference_orchestrator15post_processing18tree_manipulations24ContactAddressDowncaster29kMatchingSpanLabelPhoneNumberE, 
                       __ZN27nlv4_inference_orchestrator15post_processing18tree_manipulations24ContactAddressDowncaster30kMatchingSpanLabelEmailAddressE, 
                       __ZN27nlv4_inference_orchestrator15post_processing18tree_manipulations24ContactAddressDowncaster41kLoggingComponentContactAddressDowncasterE, 
                       __ZN27nlv4_inference_orchestrator15post_processing18tree_manipulations24ContactAddressDowncasterC1ERKNSt3__16vectorINS_13orchestration12IndexedTokenENS3_9allocatorIS6_EEEERKNS4_IN15sirinluinternal12MatchingSpanENS7_ISD_EEEE, 
                       __ZN27nlv4_inference_orchestrator15post_processing18tree_manipulations24ContactAddressDowncasterC2ERKNSt3__16vectorINS_13orchestration12IndexedTokenENS3_9allocatorIS6_EEEERKNS4_IN15sirinluinternal12MatchingSpanENS7_ISD_EEEE, 
                       __ZN27nlv4_inference_orchestrator15post_processing18tree_manipulations5utils18isCommonPersonNodeERKNS_5trees8TreeNodeE, 
                       __ZN27nlv4_inference_orchestrator15post_processing18tree_manipulations5utils20isPersonMatchingSpanERKN15sirinluinternal12MatchingSpanE, 
                       __ZN27nlv4_inference_orchestrator15post_processing18tree_manipulations5utils35doesMatchingSpanHaveLabelAndMatcherENSt3__117basic_string_viewIcNS3_11char_traitsIcEEEEN15sirinluinternal24MatchingSpan_MatcherNameERKNS8_12MatchingSpanE, 
                       __ZN27nlv4_inference_orchestrator16inference_engine14EspressoModule17deserialiseModuleERKNSt3__112basic_stringIcNS2_11char_traitsIcEENS2_9allocatorIcEEEERKNS2_13unordered_mapIS8_NS2_7variantIJijfbS8_EEENS2_4hashIS8_EENS2_8equal_toIS8_EENS6_INS2_4pairIS9_SD_EEEEEE, 
                       __ZN27nlv4_inference_orchestrator16inference_engine14EspressoModuleC1ERKNSt3__112basic_stringIcNS2_11char_traitsIcEENS2_9allocatorIcEEEERKNS2_13unordered_mapIS8_NS2_7variantIJijfbS8_EEENS2_4hashIS8_EENS2_8equal_toIS8_EENS6_INS2_4pairIS9_SD_EEEEEE, 
                       __ZN27nlv4_inference_orchestrator16inference_engine14EspressoModuleC2ERKNSt3__112basic_stringIcNS2_11char_traitsIcEENS2_9allocatorIcEEEERKNS2_13unordered_mapIS8_NS2_7variantIJijfbS8_EEENS2_4hashIS8_EENS2_8equal_toIS8_EENS6_INS2_4pairIS9_SD_EEEEEE, 
                       __ZN27nlv4_inference_orchestrator16inference_engine14EspressoModuleD1Ev, 
                       __ZN27nlv4_inference_orchestrator16inference_engine14EspressoModuleD2Ev, 
                       __ZN27nlv4_inference_orchestrator16inference_engine17EspressoBertModelC1ERKNSt3__112basic_stringIcNS2_11char_traitsIcEENS2_9allocatorIcEEEERKNS2_13unordered_mapIS8_NS2_7variantIJijfbS8_EEENS2_4hashIS8_EENS2_8equal_toIS8_EENS6_INS2_4pairIS9_SD_EEEEEEm, 
                       __ZN27nlv4_inference_orchestrator16inference_engine17EspressoBertModelC2ERKNSt3__112basic_stringIcNS2_11char_traitsIcEENS2_9allocatorIcEEEERKNS2_13unordered_mapIS8_NS2_7variantIJijfbS8_EEENS2_4hashIS8_EENS2_8equal_toIS8_EENS6_INS2_4pairIS9_SD_EEEEEEm, 
                       __ZN27nlv4_inference_orchestrator16inference_engine5TrailC1ERKNSt3__16vectorImNS2_9allocatorImEEEERKfRKbRKNS0_15InferenceTensorESF_SF_, 
                       __ZN27nlv4_inference_orchestrator16inference_engine5TrailC2ERKNSt3__16vectorImNS2_9allocatorImEEEERKfRKbRKNS0_15InferenceTensorESF_SF_, 
                       __ZN27nlv4_inference_orchestrator5trees15PlyStateHandler10isFinishedEv, 
                       __ZN27nlv4_inference_orchestrator5trees15PlyStateHandler12constructUDAERKNSt3__112basic_stringIcNS2_11char_traitsIcEENS2_9allocatorIcEEEE, 
                       __ZN27nlv4_inference_orchestrator5trees15PlyStateHandler15constructIntentERKNSt3__112basic_stringIcNS2_11char_traitsIcEENS2_9allocatorIcEEEE, 
                       __ZN27nlv4_inference_orchestrator5trees15PlyStateHandler15mergePathToTreeERKNSt3__17variantIJNS2_12basic_stringIcNS2_11char_traitsIcEENS2_9allocatorIcEEEENS0_15PayloadStartEndEEEE, 
                       __ZN27nlv4_inference_orchestrator5trees15PlyStateHandler7readTagERKNSt3__112basic_stringIcNS2_11char_traitsIcEENS2_9allocatorIcEEEE, 
                       __ZN27nlv4_inference_orchestrator5trees15PlyStateHandler9resetPathEv, 
                       __ZN27nlv4_inference_orchestrator5treeslsERNSt3__113basic_ostreamIcNS1_11char_traitsIcEEEERKNS0_8TreeNodeE, 
                       __ZN27snlc_inference_orchestrator10vocabulary10Vocabulary11insertTokenERKNSt3__112basic_stringIcNS2_11char_traitsIcEENS2_9allocatorIcEEEEm, 
                       __ZN27snlc_inference_orchestrator10vocabulary10Vocabulary20initializeFromStreamERNSt3__113basic_istreamIcNS2_11char_traitsIcEEEE, 
                       __ZN27snlc_inference_orchestrator10vocabulary10VocabularyC1ERKNSt3__112basic_stringIcNS2_11char_traitsIcEENS2_9allocatorIcEEEE, 
                       __ZN27snlc_inference_orchestrator10vocabulary10VocabularyC2ERKNSt3__112basic_stringIcNS2_11char_traitsIcEENS2_9allocatorIcEEEE, 
                       __ZN27snlc_inference_orchestrator13orchestration16SNLCOrchestrator27kFallbackMajorVersionNumberE, 
                       __ZN27snlc_inference_orchestrator13orchestration16SNLCOrchestratorC1ERKNSt3__112basic_stringIcNS2_11char_traitsIcEENS2_9allocatorIcEEEESA_SA_SA_RKj, 
                       __ZN27snlc_inference_orchestrator13orchestration16SNLCOrchestratorC2ERKNSt3__112basic_stringIcNS2_11char_traitsIcEENS2_9allocatorIcEEEESA_SA_SA_RKj, 
                       __ZN27snlc_inference_orchestrator13orchestration21SNLCOverrideGenerator23legacyNLContextOverrideERKN15sirinluexternal15LegacyNLContextE, 
                       __ZN27snlc_inference_orchestrator13orchestration21SNLCOverrideGenerator31sdaMessagePayloadPromptOverrideERKN15sirinluexternal20SystemDialogActGroupE, 
                       __ZN27snlc_inference_orchestrator16inference_engine17EspressoSNLCModelC1ERKNSt3__112basic_stringIcNS2_11char_traitsIcEENS2_9allocatorIcEEEERKNS2_13unordered_mapIS8_NS2_7variantIJijfbS8_EEENS2_4hashIS8_EENS2_8equal_toIS8_EENS6_INS2_4pairIS9_SD_EEEEEE, 
                       __ZN27snlc_inference_orchestrator16inference_engine17EspressoSNLCModelC2ERKNSt3__112basic_stringIcNS2_11char_traitsIcEENS2_9allocatorIcEEEERKNS2_13unordered_mapIS8_NS2_7variantIJijfbS8_EEENS2_4hashIS8_EENS2_8equal_toIS8_EENS6_INS2_4pairIS9_SD_EEEEEE, 
                       __ZN4siri2nl4span12datadetector4type10kBeginTimeE, __ZN4siri2nl4span12datadetector4type10kDayOfWeekE, 
                       __ZN4siri2nl4span12datadetector4type11kDateOffsetE, __ZN4siri2nl4span12datadetector4type11kIdentifierE, 
                       __ZN4siri2nl4span12datadetector4type11kSpecialDayE, __ZN4siri2nl4span12datadetector4type11kTimeOffsetE, 
                       __ZN4siri2nl4span12datadetector4type12kMonthNumberE, __ZN4siri2nl4span12datadetector4type12kRelativeDayE, 
                       __ZN4siri2nl4span12datadetector4type13kAbsoluteDateE, __ZN4siri2nl4span12datadetector4type13kDateDurationE, 
                       __ZN4siri2nl4span12datadetector4type13kTimeDurationE, __ZN4siri2nl4span12datadetector4type14kMinutesBeforeE, 
                       __ZN4siri2nl4span12datadetector4type15kOccurenceCountE, __ZN4siri2nl4span12datadetector4type18kDateTimeQualifierE, 
                       __ZN4siri2nl4span12datadetector4type18kRelativeDayOfWeekE, 
                       __ZN4siri2nl4span12datadetector4type18kSpecialDatePeriodE, 
                       __ZN4siri2nl4span12datadetector4type18kSpecialTimePeriodE, 
                       __ZN4siri2nl4span12datadetector4type22kSpecialDatePeriodUnitE, 
                       __ZN4siri2nl4span12datadetector4type4kNowE, __ZN4siri2nl4span12datadetector4type5kDateE, 
                       __ZN4siri2nl4span12datadetector4type5kTimeE, __ZN4siri2nl4span12datadetector4type6kHoursE, 
                       __ZN4siri2nl4span12datadetector4type8kEndTimeE, __ZN4siri2nl4span12datadetector4type8kMinutesE, 
                       __ZN4siri2nl4span12datadetector4type8kSecondsE, __ZN4siri2nl4span12datadetector4type9kDateSpanE, 
                       __ZN4siri2nl4span12datadetector4type9kDateTimeE, __ZN4siri2nl4span12datadetector4type9kMeridianE, 
                       __ZN4siri2nl4span12datadetector4type9kTimeSpanE, __ZN4siri2nl4span12datadetector5value12kMeridian_AME, 
                       __ZN4siri2nl4span12datadetector5value12kMeridian_PME, __ZN4siri2nl4span12datadetector5value23kDateTimeQualifier_LastE, 
                       __ZN4siri2nl4span12datadetector5value23kDateTimeQualifier_NextE, 
                       __ZN4siri2nl4span12datadetector5value23kDateTimeQualifier_SameE, 
                       __ZN4siri2nl4span12datadetector5value23kDateTimeQualifier_ThisE, 
                       __ZN4siri2nl4span12datadetector5value23kSpecialTimePeriod_NoonE, 
                       __ZN4siri2nl4span12datadetector5value24kDateTimeQualifier_AfterE, 
                       __ZN4siri2nl4span12datadetector5value24kDateTimeQualifier_EveryE, 
                       __ZN4siri2nl4span12datadetector5value24kDateTimeQualifier_LaterE, 
                       __ZN4siri2nl4span12datadetector5value24kSpecialTimePeriod_LunchE, 
                       __ZN4siri2nl4span12datadetector5value24kSpecialTimePeriod_NightE, 
                       __ZN4siri2nl4span12datadetector5value25kDateTimeQualifier_ApproxE, 
                       __ZN4siri2nl4span12datadetector5value25kDateTimeQualifier_BeforeE, 
                       __ZN4siri2nl4span12datadetector5value25kDateTimeQualifier_MiddleE, 
                       __ZN4siri2nl4span12datadetector5value25kSpecialTimePeriod_BrunchE, 
                       __ZN4siri2nl4span12datadetector5value25kSpecialTimePeriod_DinnerE, 
                       __ZN4siri2nl4span12datadetector5value26kDateTimeQualifier_EarlierE, 
                       __ZN4siri2nl4span12datadetector5value26kSpecialDatePeriodUnit_DayE, 
                       __ZN4siri2nl4span12datadetector5value26kSpecialTimePeriod_BedtimeE, 
                       __ZN4siri2nl4span12datadetector5value26kSpecialTimePeriod_EveningE, 
                       __ZN4siri2nl4span12datadetector5value26kSpecialTimePeriod_MorningE, 
                       __ZN4siri2nl4span12datadetector5value27kDateTimeQualifier_LastlastE, 
                       __ZN4siri2nl4span12datadetector5value27kDateTimeQualifier_NextnextE, 
                       __ZN4siri2nl4span12datadetector5value27kDateTimeQualifier_UpcomingE, 
                       __ZN4siri2nl4span12datadetector5value27kSpecialDatePeriodUnit_WeekE, 
                       __ZN4siri2nl4span12datadetector5value27kSpecialDatePeriodUnit_YearE, 
                       __ZN4siri2nl4span12datadetector5value27kSpecialTimePeriod_MidnightE, 
                       __ZN4siri2nl4span12datadetector5value28kSpecialDatePeriodUnit_MonthE, 
                       __ZN4siri2nl4span12datadetector5value28kSpecialTimePeriod_AfternoonE, 
                       __ZN4siri2nl4span12datadetector5value28kSpecialTimePeriod_BreakfastE, 
                       __ZN4siri2nl4span12datadetector5value28kSpecialTimePeriod_HappyhourE, 
                       __ZN4siri2nl4span12datadetector5value29kSpecialDatePeriodUnit_AutumnE, 
                       __ZN4siri2nl4span12datadetector5value29kSpecialDatePeriodUnit_SeasonE, 
                       __ZN4siri2nl4span12datadetector5value29kSpecialDatePeriodUnit_SpringE, 
                       __ZN4siri2nl4span12datadetector5value29kSpecialDatePeriodUnit_SummerE, 
                       __ZN4siri2nl4span12datadetector5value29kSpecialDatePeriodUnit_WinterE, 
                       __ZN4siri2nl4span12datadetector5value30kDateTimeQualifier_SlidinglastE, 
                       __ZN4siri2nl4span12datadetector5value30kSpecialDatePeriodUnit_QuarterE, 
                       __ZN4siri2nl4span12datadetector5value30kSpecialDatePeriodUnit_WeekdayE, 
                       __ZN4siri2nl4span12datadetector5value30kSpecialDatePeriodUnit_WeekendE, 
                       __ZN4siri2nl4span12datadetector5value31kSpecialDatePeriodUnit_SemesterE, 
                       __ZN4siri2nl4span12datadetector5value33kDateTimeQualifier_PotentialEveryE, 
                       __ZN4siri2nl4span12datadetector5value34kSpecialDatePeriodUnit_BusinessdayE, 
                       __ZN4snlp6common12asset_logger15SNLPAssetLoggerC1ENS0_7logging13SNLPComponentERKNSt3__112basic_stringIcNS5_11char_traitsIcEENS5_9allocatorIcEEEERKNS5_13unordered_mapISB_NS5_7variantIJijfbSB_EEENS5_4hashISB_EENS5_8equal_toISB_EENS9_INS5_4pairISC_SG_EEEEEERKNS5_8optionalINS0_7version15SNLPVersionInfoEEE, 
                       __ZN4snlp6common12asset_logger15SNLPAssetLoggerC2ENS0_7logging13SNLPComponentERKNSt3__112basic_stringIcNS5_11char_traitsIcEENS5_9allocatorIcEEEERKNS5_13unordered_mapISB_NS5_7variantIJijfbSB_EEENS5_4hashISB_EENS5_8equal_toISB_EENS9_INS5_4pairISC_SG_EEEEEERKNS5_8optionalINS0_7version15SNLPVersionInfoEEE, 
                       __ZN4snlp6common14text_uso_graph12extractGraphERKN15sirinluexternal13UserDialogActENSt3__110shared_ptrIN4siri8ontology15UsoVocabManagerEEE, 
                       __ZN4snlp6common14text_uso_graph16ActionListParser11indentationEj, 
                       __ZN4snlp6common14text_uso_graph16ActionListParser11stringValueERKNSt3__112basic_stringIcNS3_11char_traitsIcEENS3_9allocatorIcEEEE, 
                       __ZN4snlp6common14text_uso_graph16ActionListParser11toTreeDebugEv, 
                       __ZN4snlp6common14text_uso_graph16ActionListParser12integerValueEi, 
                       __ZN4snlp6common14text_uso_graph16ActionListParser13textAlignmentEii, 
                       __ZN4snlp6common14text_uso_graph16ActionListParser4edgeERKNSt3__112basic_stringIcNS3_11char_traitsIcEENS3_9allocatorIcEEEE, 
                       __ZN4snlp6common14text_uso_graph16ActionListParser4nodeERKNSt3__112basic_stringIcNS3_11char_traitsIcEENS3_9allocatorIcEEEE, 
                       __ZN4snlp6common14text_uso_graph16ActionListParser5aliasERKNSt3__112basic_stringIcNS3_11char_traitsIcEENS3_9allocatorIcEEEE, 
                       __ZN4snlp6common14text_uso_graph16bottomUpTreeHashERKN4siri8ontology12UsoGraphNodeE, 
                       __ZN4snlp6common14text_uso_graph16createNodeByNameERKNSt3__112basic_stringIcNS2_11char_traitsIcEENS2_9allocatorIcEEEENS2_10shared_ptrIKN4siri8ontology15UsoVocabManagerEEERNSD_8UsoGraphE, 
                       __ZN4snlp6common14text_uso_graph17UDATextTreeParser11indentationEj, 
                       __ZN4snlp6common14text_uso_graph17UDATextTreeParser11stringValueERKNSt3__112basic_stringIcNS3_11char_traitsIcEENS3_9allocatorIcEEEE, 
                       __ZN4snlp6common14text_uso_graph17UDATextTreeParser11toTreeDebugEv, 
                       __ZN4snlp6common14text_uso_graph17UDATextTreeParser12integerValueEi, 
                       __ZN4snlp6common14text_uso_graph17UDATextTreeParser13textAlignmentEii, 
                       __ZN4snlp6common14text_uso_graph17UDATextTreeParser20releaseUserDialogActEv, 
                       __ZN4snlp6common14text_uso_graph17UDATextTreeParser4edgeERKNSt3__112basic_stringIcNS3_11char_traitsIcEENS3_9allocatorIcEEEE, 
                       __ZN4snlp6common14text_uso_graph17UDATextTreeParser4nodeERKNSt3__112basic_stringIcNS3_11char_traitsIcEENS3_9allocatorIcEEEE, 
                       __ZN4snlp6common14text_uso_graph17UDATextTreeParser5aliasERKNSt3__112basic_stringIcNS3_11char_traitsIcEENS3_9allocatorIcEEEE, 
                       __ZN4snlp6common14text_uso_graph17UDATextTreeParserC1ENSt3__110shared_ptrIN4siri8ontology15UsoVocabManagerEEE, 
                       __ZN4snlp6common14text_uso_graph17UDATextTreeParserC2ENSt3__110shared_ptrIN4siri8ontology15UsoVocabManagerEEE, 
                       __ZN4snlp6common14text_uso_graph19SpacedTextTreeLexer3lexERKNSt3__112basic_stringIcNS3_11char_traitsIcEENS3_9allocatorIcEEEERNS1_14TextTreeParserE, 
                       __ZN4snlp6common14text_uso_graph19UsoGraphWithAliases13constUsoGraphEv, 
                       __ZN4snlp6common14text_uso_graph20readUsoGraphFromTextENSt3__110shared_ptrIN4siri8ontology15UsoVocabManagerEEERKNS2_12basic_stringIcNS2_11char_traitsIcEENS2_9allocatorIcEEEE, 
                       __ZN4snlp6common14text_uso_graph22UsoGraphTextTreeParser11indentationEj, 
                       __ZN4snlp6common14text_uso_graph22UsoGraphTextTreeParser11stringValueERKNSt3__112basic_stringIcNS3_11char_traitsIcEENS3_9allocatorIcEEEE, 
                       __ZN4snlp6common14text_uso_graph22UsoGraphTextTreeParser11toTreeDebugEv, 
                       __ZN4snlp6common14text_uso_graph22UsoGraphTextTreeParser12integerValueEi, 
                       __ZN4snlp6common14text_uso_graph22UsoGraphTextTreeParser12releaseGraphEv, 
                       __ZN4snlp6common14text_uso_graph22UsoGraphTextTreeParser13textAlignmentEii, 
                       __ZN4snlp6common14text_uso_graph22UsoGraphTextTreeParser18attachChildInStackEv, 
                       __ZN4snlp6common14text_uso_graph22UsoGraphTextTreeParser4edgeERKNSt3__112basic_stringIcNS3_11char_traitsIcEENS3_9allocatorIcEEEE, 
                       __ZN4snlp6common14text_uso_graph22UsoGraphTextTreeParser4nodeERKNSt3__112basic_stringIcNS3_11char_traitsIcEENS3_9allocatorIcEEEE, 
                       __ZN4snlp6common14text_uso_graph22UsoGraphTextTreeParser5aliasERKNSt3__112basic_stringIcNS3_11char_traitsIcEENS3_9allocatorIcEEEE, 
                       __ZN4snlp6common14text_uso_graph22UsoGraphTextTreeParserC1ENSt3__110shared_ptrIN4siri8ontology15UsoVocabManagerEEENS6_15OntologyVersionE, 
                       __ZN4snlp6common14text_uso_graph22UsoGraphTextTreeParserC2ENSt3__110shared_ptrIN4siri8ontology15UsoVocabManagerEEENS6_15OntologyVersionE, 
                       __ZN4snlp6common14text_uso_graph25readUserDialogActFromTextENSt3__110shared_ptrIN4siri8ontology15UsoVocabManagerEEERKNS2_12basic_stringIcNS2_11char_traitsIcEENS2_9allocatorIcEEEE, 
                       __ZN4snlp6common7logging18getComponentStringERKNS1_13SNLPComponentE, 
                       __ZN4uaap11DDUsoMapper35getSpanRangeFromUtteranceAlignmentsERKN4siri8ontology8UsoGraphE, 
                       __ZN4uaap11DDUsoMapperC1Ev, __ZN4uaap11DDUsoMapperC2Ev, __ZN4uaap11DateHandler11resolveDateEPNS_12UPDDDateSpanEPN4siri8ontology8UsoGraphEPNS4_13UsoEntityNodeEPKNS4_16OntologyEdgeNameE, 
                       __ZN4uaap11DateHandler17resolveDateOffsetEPNS_12UPDDDateSpanEPN4siri8ontology8UsoGraphEPNS4_13UsoEntityNodeEPKNS4_16OntologyEdgeNameE, 
                       __ZN4uaap11DateHandler18resolveRelativeDayEPNS_8UPDDSpanEPN4siri8ontology8UsoGraphEPNS4_13UsoEntityNodeEPKNS4_16OntologyEdgeNameE, 
                       __ZN4uaap11DateHandler21mapDateToItemizedUsosERKNSt3__113unordered_mapImNS1_6vectorINS1_10unique_ptrINS_8UPDDSpanENS1_14default_deleteIS5_EEEENS1_9allocatorIS8_EEEENS1_4hashImEENS1_8equal_toImEENS9_INS1_4pairIKmSB_EEEEEERNS3_INS4_IN4siri8ontology8UsoGraphENS6_ISP_EEEENS9_ISR_EEEE, 
                       __ZN4uaap11DateHandler22resolveDateOffsetGraphEPNS_12UPDDDateSpanERN4siri8ontology8UsoGraphE, 
                       __ZN4uaap11DateHandler23resolveRelativeDayGraphEPNS_8UPDDSpanERN4siri8ontology8UsoGraphE, 
                       __ZN4uaap11DateHandler24resolveRecurringDateSpanEPNS_12UPDDDateSpanEPN4siri8ontology8UsoGraphEPNS4_13UsoEntityNodeEPKNS4_16OntologyEdgeNameE, 
                       __ZN4uaap11DateHandler24resolveRelativeDayOfWeekEPNS_8UPDDSpanEPN4siri8ontology8UsoGraphEPNS4_13UsoEntityNodeEPKNS4_16OntologyEdgeNameE, 
                       __ZN4uaap11DateHandler25resolveDateTimeRangeValueEPNS_12UPDDDateSpanEPN4siri8ontology8UsoGraphEPNS4_13UsoEntityNodeE, 
                       __ZN4uaap11DateHandler27resolveDurationValueAndUnitEPNS_12UPDDDateSpanEPN4siri8ontology8UsoGraphEPNS4_13UsoEntityNodeEPKNS4_16OntologyEdgeNameE, 
                       __ZN4uaap11DateHandler29resolveRecurringDateSpanGraphEPNS_12UPDDDateSpanERN4siri8ontology8UsoGraphE, 
                       __ZN4uaap11DateHandler29resolveRelativeDayOfWeekGraphEPNS_8UPDDSpanERN4siri8ontology8UsoGraphE, 
                       __ZN4uaap11DateHandler32resolveDurationValueAndUnitGraphEPNS_12UPDDDateSpanERN4siri8ontology8UsoGraphE, 
                       __ZN4uaap11DateHandler33resolveOffsetDurationValueAndUnitEPNS_18UPDDDateOffsetSpanEPN4siri8ontology8UsoGraphEPNS4_13UsoEntityNodeEPKNS4_16OntologyEdgeNameE, 
                       __ZN4uaap11DateHandler38resolveDateDurationGraphFromDateOffsetEPNS_12UPDDDateSpanERN4siri8ontology8UsoGraphE, 
                       __ZN4uaap11DateHandler6handleEP10__DDResultRKNSt3__113unordered_mapImNS3_6vectorINS3_10unique_ptrINS_8UPDDSpanENS3_14default_deleteIS7_EEEENS3_9allocatorISA_EEEENS3_4hashImEENS3_8equal_toImEENSB_INS3_4pairIKmSD_EEEEEERNS5_INS6_IN4siri8ontology8UsoGraphENS8_ISR_EEEENSB_IST_EEEEb, 
                       __ZN4uaap11TimeHandler10resolveNowEPNS_12UPDDTimeSpanEPN4siri8ontology8UsoGraphEPNS4_13UsoEntityNodeE, 
                       __ZN4uaap11TimeHandler11resolveTimeEPNS_12UPDDTimeSpanEPN4siri8ontology8UsoGraphEPNS4_13UsoEntityNodeEPKNS4_16OntologyEdgeNameE, 
                       __ZN4uaap11TimeHandler15resolveNowGraphEPNS_12UPDDTimeSpanERN4siri8ontology8UsoGraphE, 
                       __ZN4uaap11TimeHandler16resolveTimeGraphEPNS_12UPDDTimeSpanERN4siri8ontology8UsoGraphE, 
                       __ZN4uaap11TimeHandler21mapTimeToItemizedUsosERKNSt3__113unordered_mapImNS1_6vectorINS1_10unique_ptrINS_8UPDDSpanENS1_14default_deleteIS5_EEEENS1_9allocatorIS8_EEEENS1_4hashImEENS1_8equal_toImEENS9_INS1_4pairIKmSB_EEEEEERNS3_INS4_IN4siri8ontology8UsoGraphENS6_ISP_EEEENS9_ISR_EEEE, 
                       __ZN4uaap11TimeHandler22resolveTimeAndMeridianEPNS_12UPDDTimeSpanEPN4siri8ontology8UsoGraphEPNS4_13UsoEntityNodeEPKNS4_16OntologyEdgeNameE, 
                       __ZN4uaap11TimeHandler22resolveTimeOffsetGraphEPNS_12UPDDTimeSpanERN4siri8ontology8UsoGraphE, 
                       __ZN4uaap11TimeHandler24resolveSpecialTimePeriodEPNS_12UPDDTimeSpanEPN4siri8ontology8UsoGraphEPNS4_13UsoEntityNodeE, 
                       __ZN4uaap11TimeHandler25resolveDateTimeRangeValueEPNS_12UPDDTimeSpanEPN4siri8ontology8UsoGraphEPNS4_13UsoEntityNodeE, 
                       __ZN4uaap11TimeHandler26resolveOffsetDurationValueEPNS_12UPDDTimeSpanEPN4siri8ontology8UsoGraphEPNS4_13UsoEntityNodeEPKNS4_16OntologyEdgeNameE, 
                       __ZN4uaap11TimeHandler31resolveOffsetDurationValueGraphEPNS_12UPDDTimeSpanERN4siri8ontology8UsoGraphE, 
                       __ZN4uaap11TimeHandler33resolveDateTimeQualifierListValueEPNS_20UPDDDateTimeBaseSpanEPN4siri8ontology8UsoGraphEPNS4_13UsoEntityNodeE, 
                       __ZN4uaap11TimeHandler38resolveTimeWithOffsetValueAndDirectionEPNS_12UPDDTimeSpanEPN4siri8ontology8UsoGraphEPNS4_13UsoEntityNodeEPKNS4_16OntologyEdgeNameE, 
                       __ZN4uaap11TimeHandler6handleEP10__DDResultRKNSt3__113unordered_mapImNS3_6vectorINS3_10unique_ptrINS_8UPDDSpanENS3_14default_deleteIS7_EEEENS3_9allocatorISA_EEEENS3_4hashImEENS3_8equal_toImEENSB_INS3_4pairIKmSD_EEEEEERNS5_INS6_IN4siri8ontology8UsoGraphENS8_ISR_EEEENSB_IST_EEEEb, 
                       __ZN4uaap12UPDDDateSpanC1EP10__DDResult, __ZN4uaap12UPDDDateSpanC2EP10__DDResult, 
                       __ZN4uaap12UPDDTimeSpanC1EP10__DDResult, __ZN4uaap12UPDDTimeSpanC2EP10__DDResult, 
                       __ZN4uaap12toUTF8StringEPK10__CFString, __ZN4uaap14EspressoModule11executePlanEv, 
                       __ZN4uaap14EspressoModule17deserializeModuleERKNSt3__112basic_stringIcNS1_11char_traitsIcEENS1_9allocatorIcEEEE, 
                       __ZN4uaap14EspressoModule7reshapeERKNSt3__16vectorImNS1_9allocatorImEEEES7_, 
                       __ZN4uaap14EspressoModule8setInputERKNSt3__112basic_stringIcNS1_11char_traitsIcEENS1_9allocatorIcEEEERNS1_6vectorIfNS5_IfEEEERKNSA_ImNS5_ImEEEE, 
                       __ZN4uaap14EspressoModule9buildPlanEv, __ZN4uaap14EspressoModule9cleanPlanEv, 
                       __ZN4uaap14EspressoModule9getOutputERKNSt3__112basic_stringIcNS1_11char_traitsIcEENS1_9allocatorIcEEEE, 
                       __ZN4uaap14EspressoModuleC1ERKNSt3__112basic_stringIcNS1_11char_traitsIcEENS1_9allocatorIcEEEE, 
                       __ZN4uaap14EspressoModuleC2ERKNSt3__112basic_stringIcNS1_11char_traitsIcEENS1_9allocatorIcEEEE, 
                       __ZN4uaap14EspressoModuleD1Ev, __ZN4uaap14EspressoModuleD2Ev, 
                       __ZN4uaap14UPDataDetector15labelToUaapTypeERKNSt3__112basic_stringIDsNS1_11char_traitsIDsEENS1_9allocatorIDsEEEE, 
                       __ZN4uaap14UPDataDetectorC1ERKNS_24UPDataDetectorCacheFilesE, 
                       __ZN4uaap14UPDataDetectorC2ERKNS_24UPDataDetectorCacheFilesE, 
                       __ZN4uaap14UPDataDetectorD1Ev, __ZN4uaap14UPDataDetectorD2Ev, 
                       __ZN4uaap15DateSpanHandler15isRecurringDateEPNS_12UPDDDateSpanE, 
                       __ZN4uaap15DateSpanHandler15resolveDateSpanEPNS_12UPDDDateSpanEPN4siri8ontology8UsoGraphEPNS4_13UsoEntityNodeEPKNS4_16OntologyEdgeNameE, 
                       __ZN4uaap15DateSpanHandler20resolveDateSpanGraphEPNS_12UPDDDateSpanERN4siri8ontology8UsoGraphE, 
                       __ZN4uaap15DateSpanHandler24resolveRecurringDateSpanEPNS_12UPDDDateSpanEPN4siri8ontology8UsoGraphEPNS4_13UsoEntityNodeEPKNS4_16OntologyEdgeNameE, 
                       __ZN4uaap15DateSpanHandler25mapDateSpanToItemizedUsosERKNSt3__113unordered_mapImNS1_6vectorINS1_10unique_ptrINS_8UPDDSpanENS1_14default_deleteIS5_EEEENS1_9allocatorIS8_EEEENS1_4hashImEENS1_8equal_toImEENS9_INS1_4pairIKmSB_EEEEEERNS3_INS4_IN4siri8ontology8UsoGraphENS6_ISP_EEEENS9_ISR_EEEE, 
                       __ZN4uaap15DateSpanHandler29resolveDateTimeRangeSpanGraphEPNS_12UPDDDateSpanERN4siri8ontology8UsoGraphE, 
                       __ZN4uaap15DateSpanHandler29resolveRecurringDateSpanGraphEPNS_12UPDDDateSpanERN4siri8ontology8UsoGraphE, 
                       __ZN4uaap15DateSpanHandler6handleEP10__DDResultRKNSt3__113unordered_mapImNS3_6vectorINS3_10unique_ptrINS_8UPDDSpanENS3_14default_deleteIS7_EEEENS3_9allocatorISA_EEEENS3_4hashImEENS3_8equal_toImEENSB_INS3_4pairIKmSD_EEEEEERNS5_INS6_IN4siri8ontology8UsoGraphENS8_ISR_EEEENSB_IST_EEEEb, 
                       __ZN4uaap15DateTimeHandler15resolveDateTimeEPNS_16UPDDDateTimeSpanEPN4siri8ontology8UsoGraphEPNS4_13UsoEntityNodeEPKNS4_16OntologyEdgeNameEb, 
                       __ZN4uaap15DateTimeHandler20resolveDateTimeGraphEPNS_16UPDDDateTimeSpanERKNSt3__113unordered_mapImNS3_6vectorINS3_10unique_ptrINS_8UPDDSpanENS3_14default_deleteIS7_EEEENS3_9allocatorISA_EEEENS3_4hashImEENS3_8equal_toImEENSB_INS3_4pairIKmSD_EEEEEERN4siri8ontology8UsoGraphE, 
                       __ZN4uaap15DateTimeHandler24resolveRecurringDateTimeEPNS_16UPDDDateTimeSpanEPN4siri8ontology8UsoGraphEPNS4_13UsoEntityNodeEPKNS4_16OntologyEdgeNameE, 
                       __ZN4uaap15DateTimeHandler25resolveRecurrenceDurationEPNS_16UPDDDateTimeSpanEPN4siri8ontology8UsoGraphEPNS4_13UsoEntityNodeEPKNS4_16OntologyEdgeNameE, 
                       __ZN4uaap15DateTimeHandler29resolveRecurringDateTimeGraphEPNS_16UPDDDateTimeSpanERKNSt3__113unordered_mapImNS3_6vectorINS3_10unique_ptrINS_8UPDDSpanENS3_14default_deleteIS7_EEEENS3_9allocatorISA_EEEENS3_4hashImEENS3_8equal_toImEENSB_INS3_4pairIKmSD_EEEEEERN4siri8ontology8UsoGraphE, 
                       __ZN4uaap15DateTimeHandler6handleEP10__DDResultRKNSt3__113unordered_mapImNS3_6vectorINS3_10unique_ptrINS_8UPDDSpanENS3_14default_deleteIS7_EEEENS3_9allocatorISA_EEEENS3_4hashImEENS3_8equal_toImEENSB_INS3_4pairIKmSD_EEEEEERNS5_INS6_IN4siri8ontology8UsoGraphENS8_ISR_EEEENSB_IST_EEEEb, 
                       __ZN4uaap15TimeSpanHandler15isRecurringTimeEPNS_12UPDDTimeSpanE, 
                       __ZN4uaap15TimeSpanHandler15resolveTimeSpanEPNS_12UPDDTimeSpanEPN4siri8ontology8UsoGraphEPNS4_13UsoEntityNodeEPKNS4_16OntologyEdgeNameE, 
                       __ZN4uaap15TimeSpanHandler20resolveTimeSpanGraphEPNS_12UPDDTimeSpanERN4siri8ontology8UsoGraphE, 
                       __ZN4uaap15TimeSpanHandler23resolveTimeSpanWithUnitEPNS_12UPDDTimeSpanEPN4siri8ontology8UsoGraphEPNS4_13UsoEntityNodeE, 
                       __ZN4uaap15TimeSpanHandler24resolveRecurringTimeSpanEPNS_12UPDDTimeSpanEPN4siri8ontology8UsoGraphEPNS4_13UsoEntityNodeEPKNS4_16OntologyEdgeNameE, 
                       __ZN4uaap15TimeSpanHandler29resolveDateTimeRangeSpanGraphEPNS_12UPDDTimeSpanERN4siri8ontology8UsoGraphE, 
                       __ZN4uaap15TimeSpanHandler29resolveRecurringTimeSpanGraphEPNS_12UPDDTimeSpanERN4siri8ontology8UsoGraphE, 
                       __ZN4uaap15TimeSpanHandler36resolveMinutesBeforeTimeSpanWithUnitEPNS_12UPDDTimeSpanEPN4siri8ontology8UsoGraphEPNS4_13UsoEntityNodeE, 
                       __ZN4uaap15TimeSpanHandler6handleEP10__DDResultRKNSt3__113unordered_mapImNS3_6vectorINS3_10unique_ptrINS_8UPDDSpanENS3_14default_deleteIS7_EEEENS3_9allocatorISA_EEEENS3_4hashImEENS3_8equal_toImEENSB_INS3_4pairIKmSD_EEEEEERNS5_INS6_IN4siri8ontology8UsoGraphENS8_ISR_EEEENSB_IST_EEEEb, 
                       __ZN4uaap16UPDDDateTimeSpanC1EP10__DDResult, __ZN4uaap16UPDDDateTimeSpanC2EP10__DDResult, 
                       __ZN4uaap16UPStructuredDataC1ENS_20UPStructuredDataNodeE, 
                       __ZN4uaap16UPStructuredDataC2ENS_20UPStructuredDataNodeE, 
                       __ZN4uaap18UPDDDateOffsetSpanC1EP10__DDResult, __ZN4uaap18UPDDDateOffsetSpanC2EP10__DDResult, 
                       __ZN4uaap18_buildTimeWithUnitEjPKN4siri8ontology16OntologyEdgeNameEPNS1_8UsoGraphEPNS1_13UsoEntityNodeE, 
                       __ZN4uaap18addSpecialDateUnitEPN4siri8ontology8UsoGraphEPKNS_8UPDDSpanE, 
                       __ZN4uaap19DateDurationHandler6handleEP10__DDResultRKNSt3__113unordered_mapImNS3_6vectorINS3_10unique_ptrINS_8UPDDSpanENS3_14default_deleteIS7_EEEENS3_9allocatorISA_EEEENS3_4hashImEENS3_8equal_toImEENSB_INS3_4pairIKmSD_EEEEEERNS5_INS6_IN4siri8ontology8UsoGraphENS8_ISR_EEEENSB_IST_EEEEb, 
                       __ZN4uaap19TimeDurationHandler20resolveDurationGraphEPNS_20UPDDTimeDurationSpanERN4siri8ontology8UsoGraphE, 
                       __ZN4uaap19TimeDurationHandler6handleEP10__DDResultRKNSt3__113unordered_mapImNS3_6vectorINS3_10unique_ptrINS_8UPDDSpanENS3_14default_deleteIS7_EEEENS3_9allocatorISA_EEEENS3_4hashImEENS3_8equal_toImEENSB_INS3_4pairIKmSD_EEEEEERNS5_INS6_IN4siri8ontology8UsoGraphENS8_ISR_EEEENSB_IST_EEEEb, 
                       __ZN4uaap19addUnitAndOccuranceEPN4siri8ontology13UsoEntityNodeEPKNS1_10UsoIntNodeEPNS1_8UsoGraphEPKS2_, 
                       __ZN4uaap20UPDDAbsoluteDateSpanC1EP10__DDResult, __ZN4uaap20UPDDAbsoluteDateSpanC2EP10__DDResult, 
                       __ZN4uaap20UPDDDateTimeBaseSpanC1EP10__DDResult, __ZN4uaap20UPDDDateTimeBaseSpanC2EP10__DDResult, 
                       __ZN4uaap20UPDDTimeDurationSpanC1EP10__DDResult, __ZN4uaap20UPDDTimeDurationSpanC2EP10__DDResult, 
                       __ZN4uaap20lookupStructuredDataERKNSt3__16vectorINS_14UPDetectedSpanENS0_9allocatorIS2_EEEERKNS0_13unordered_mapINS0_12basic_stringIDsNS0_11char_traitsIDsEENS3_IDsEEEESD_NS0_4hashISD_EENS0_8equal_toISD_EENS3_INS0_4pairIKSD_SD_EEEEEEN16nl_featurization14postprocessing12LabelledSpanE, 
                       __ZN4uaap20searchDDTreeWithTypeEP10__DDResultPK10__CFString, 
                       __ZN4uaap21extractStructuredDataEP10__DDResult, __ZN4uaap22resolveOffsetDirectionEPNS_18UPDDDateOffsetSpanEPN4siri8ontology8UsoGraphEPNS3_13UsoEntityNodeE, 
                       __ZN4uaap22resolveOffsetReferenceEPNS_12UPDDDateSpanEPN4siri8ontology8UsoGraphEPNS3_13UsoEntityNodeE, 
                       __ZN4uaap23AbstractDateTimeHandler14addIfPopulatedERNSt3__110unique_ptrIN4siri8ontology8UsoGraphENS1_14default_deleteIS5_EEEERNS1_6vectorIS8_NS1_9allocatorIS8_EEEE, 
                       __ZN4uaap23AbstractDateTimeHandler32appendUtteranceAlignmentToEntityERN4siri8ontology13UsoEntityNodeERKNSt3__16vectorIPNS_8UPDDSpanENS5_9allocatorIS8_EEEE, 
                       __ZN4uaap24getDayOfWeekDefinedValueEPK10__CFString, __ZN4uaap25UPDDSpecialDatePeriodSpanC1EP10__DDResult, 
                       __ZN4uaap25UPDDSpecialDatePeriodSpanC2EP10__DDResult, __ZN4uaap25mapDateTimeToItemizedUsosERKNSt3__113unordered_mapImNS0_6vectorINS0_10unique_ptrINS_8UPDDSpanENS0_14default_deleteIS4_EEEENS0_9allocatorIS7_EEEENS0_4hashImEENS0_8equal_toImEENS8_INS0_4pairIKmSA_EEEEEERNS2_INS3_IN4siri8ontology8UsoGraphENS5_ISO_EEEENS8_ISQ_EEEE, 
                       __ZN4uaap25mapDurationToItemizedUsosERKNSt3__113unordered_mapImNS0_6vectorINS0_10unique_ptrINS_8UPDDSpanENS0_14default_deleteIS4_EEEENS0_9allocatorIS7_EEEENS0_4hashImEENS0_8equal_toImEENS8_INS0_4pairIKmSA_EEEEEERNS2_INS3_IN4siri8ontology8UsoGraphENS5_ISO_EEEENS8_ISQ_EEEE, 
                       __ZN4uaap25mapTimeSpanToItemizedUsosERKNSt3__113unordered_mapImNS0_6vectorINS0_10unique_ptrINS_8UPDDSpanENS0_14default_deleteIS4_EEEENS0_9allocatorIS7_EEEENS0_4hashImEENS0_8equal_toImEENS8_INS0_4pairIKmSA_EEEEEERNS2_INS3_IN4siri8ontology8UsoGraphENS5_ISO_EEEENS8_ISQ_EEEE, 
                       __ZN4uaap26extractStructuredDataInnerEP10__DDResult, __ZN4uaap26getMonthOfYearDefinedValueEPK10__CFString, 
                       __ZN4uaap26getRelativeDayDefinedValueEPK10__CFString, __ZN4uaap26mapTimeSpansToItemizedUsosERKNSt3__113unordered_mapImNS0_6vectorINS0_10unique_ptrINS_8UPDDSpanENS0_14default_deleteIS4_EEEENS0_9allocatorIS7_EEEENS0_4hashImEENS0_8equal_toImEENS8_INS0_4pairIKmSA_EEEEEERNS2_INS3_IN4siri8ontology8UsoGraphENS5_ISO_EEEENS8_ISQ_EEEE, 
                       __ZN4uaap27mapTimeOffsetToItemizedUsosEPNS_12UPDDTimeSpanERNSt3__16vectorINS2_10unique_ptrIN4siri8ontology8UsoGraphENS2_14default_deleteIS7_EEEENS2_9allocatorISA_EEEE, 
                       __ZN4uaap29getResultValueOrMatchedStringEP10__DDResult, __ZN4uaap29mapDateDurationToItemizedUsosERKNSt3__113unordered_mapImNS0_6vectorINS0_10unique_ptrINS_8UPDDSpanENS0_14default_deleteIS4_EEEENS0_9allocatorIS7_EEEENS0_4hashImEENS0_8equal_toImEENS8_INS0_4pairIKmSA_EEEEEERNS2_INS3_IN4siri8ontology8UsoGraphENS5_ISO_EEEENS8_ISQ_EEEE, 
                       __ZN4uaap30mapMinutesBeforeToItemizedUsosEPNS_12UPDDTimeSpanERNSt3__16vectorINS2_10unique_ptrIN4siri8ontology8UsoGraphENS2_14default_deleteIS7_EEEENS2_9allocatorISA_EEEE, 
                       __ZN4uaap30mapTimeSpanSpansToItemizedUsosERKNSt3__113unordered_mapImNS0_6vectorINS0_10unique_ptrINS_8UPDDSpanENS0_14default_deleteIS4_EEEENS0_9allocatorIS7_EEEENS0_4hashImEENS0_8equal_toImEENS8_INS0_4pairIKmSA_EEEEEERNS2_INS3_IN4siri8ontology8UsoGraphENS5_ISO_EEEENS8_ISQ_EEEE, 
                       __ZN4uaap34resolveDateTimeRangeQualifierValueEv, __ZN4uaap35resolveDateTimeOffsetQualifierValueEv, 
                       __ZN4uaap39_buildDurationComponentWithValueAndUnitEPK10__CFStringPKN4siri8ontology16OntologyNodeNameEPNS4_8UsoGraphEPNS4_13UsoEntityNodeE, 
                       __ZN4uaap44matchingStructuredDataFromStructuredDataNodeERKNS_20UPStructuredDataNodeERKN16nl_featurization14postprocessing12LabelledSpanE, 
                       __ZN4uaap8UPDDSpan27extractIntValueFromDDResultEP10__DDResult, 
                       __ZN4uaap8UPDDSpan30extractIntValueFromCFStringRefEPK10__CFString, 
                       __ZNK10global_ner11beam_search10BeamSearch6searchERKNS_15data_structures15InferenceTensorERKNSt3__16vectorImNS6_9allocatorImEEEEm, 
                       __ZNK10global_ner12post_process12NumberEntity21generateUsoEntityNodeERN4siri8ontology8UsoGraphE, 
                       __ZNK10global_ner12post_process12NumberEntity8getValueEv, 
                       __ZNK10global_ner12post_process13AppNameEntity21generateUsoEntityNodeERN4siri8ontology8UsoGraphE, 
                       __ZNK10global_ner12post_process14CurrencyEntity21generateUsoEntityNodeERN4siri8ontology8UsoGraphE, 
                       __ZNK10global_ner12post_process17MeasurementEntity21generateUsoEntityNodeERN4siri8ontology8UsoGraphE, 
                       __ZNK10global_ner12post_process17OtherPersonEntity21generateUsoEntityNodeERN4siri8ontology8UsoGraphE, 
                       __ZNK10global_ner12post_process17PhoneNumberEntity21generateUsoEntityNodeERN4siri8ontology8UsoGraphE, 
                       __ZNK10global_ner12post_process18BusinessNameEntity21generateUsoEntityNodeERN4siri8ontology8UsoGraphE, 
                       __ZNK10global_ner12post_process18EmailAddressEntity21generateUsoEntityNodeERN4siri8ontology8UsoGraphE, 
                       __ZNK10global_ner12post_process20GeographicAreaEntity21generateUsoEntityNodeERN4siri8ontology8UsoGraphE, 
                       __ZNK10global_ner12post_process21MeasurementUnitEntity21generateUsoEntityNodeERN4siri8ontology8UsoGraphE, 
                       __ZNK10global_ner12post_process22PersonalLocationEntity21generateUsoEntityNodeERN4siri8ontology8UsoGraphE, 
                       __ZNK10global_ner12post_process26MeasurementComponentEntity21generateUsoEntityNodeERN4siri8ontology8UsoGraphE, 
                       __ZNK10global_ner14crf_normalizer13CrfNormalizer24computeMentionConfidenceENSt3__14pairImmEERKNS2_12basic_stringIcNS2_11char_traitsIcEENS2_9allocatorIcEEEEmRKNS2_6vectorImNS8_ImEEEERKNSD_INSD_IfNS8_IfEEEENS8_ISJ_EEEERKNS0_17NormalizerFactorsE, 
                       __ZNK10global_ner14crf_normalizer13CrfNormalizer26calculateNormalizerFactorsEmRKNSt3__16vectorINS3_IfNS2_9allocatorIfEEEENS4_IS6_EEEE, 
                       __ZNK10global_ner14crf_normalizer13CrfNormalizer27computeRawMentionConfidenceENSt3__14pairImmEERKNS2_6vectorImNS2_9allocatorImEEEERKNS5_INS5_IfNS6_IfEEEENS6_ISC_EEEERKNS0_17NormalizerFactorsE, 
                       __ZNK10global_ner14crf_normalizer13CrfNormalizer28calculateZNormalizationScoreERKNS0_17NormalizerFactorsE, 
                       __ZNK10global_ner14crf_normalizer13CrfNormalizer9normalizeERNSt3__16vectorINS3_INS_15data_structures24NerAlternativePredictionENS2_9allocatorIS5_EEEENS6_IS8_EEEERKNS4_15InferenceTensorERKNS3_ImNS6_ImEEEE, 
                       __ZNK10global_ner16GlobalNerHandler20lookupCharIndicesMapERKNSt3__112basic_stringIDsNS1_11char_traitsIDsEENS1_9allocatorIDsEEEE, 
                       __ZNK10global_ner16GlobalNerHandler24generateNerFactoryParamsERKNS_9interface16GlobalNerRequestE, 
                       __ZNK10global_ner16GlobalNerHandler25generateGlobalNerResponseERKNS_9interface16GlobalNerRequestERKNSt3__16vectorINS6_INS_15data_structures24NerAlternativePredictionENS5_9allocatorIS8_EEEENS9_ISB_EEEE, 
                       __ZNK10global_ner16GlobalNerHandler6handleERKNS_9interface16GlobalNerRequestE, 
                       __ZNK10global_ner7factory10NerFactory14getPredictionsERKNSt3__16vectorINS3_INS3_IfNS2_9allocatorIfEEEENS4_IS6_EEEENS4_IS8_EEEERKNS3_ImNS4_ImEEEERKNS3_INS3_ISE_NS4_ISE_EEEENS4_ISI_EEEERKSI_m, 
                       __ZNK10global_ner9inference13EspressoModel11executePlanEv, 
                       __ZNK10global_ner9inference13EspressoModel8setInputERKNSt3__112basic_stringIcNS2_11char_traitsIcEENS2_9allocatorIcEEEERNS_15data_structures15InferenceTensorE, 
                       __ZNK10global_ner9inference13EspressoModel9buildPlanEv, __ZNK10global_ner9inference13EspressoModel9cleanPlanEv, 
                       __ZNK10global_ner9inference13EspressoModel9getOutputERKNSt3__112basic_stringIcNS2_11char_traitsIcEENS2_9allocatorIcEEEE, 
                       __ZNK10global_ner9inference16NerEspressoModel15getLogitsTensorEv, 
                       __ZNK10global_ner9inference16NerEspressoModel19getWordLengthTensorERKNSt3__16vectorINS3_ImNS2_9allocatorImEEEENS4_IS6_EEEE, 
                       __ZNK10global_ner9inference16NerEspressoModel20bindWordLengthTensorERNS_15data_structures15InferenceTensorE, 
                       __ZNK10global_ner9inference16NerEspressoModel22getWordEmbeddingTensorERKNSt3__16vectorINS3_INS3_IfNS2_9allocatorIfEEEENS4_IS6_EEEENS4_IS8_EEEE, 
                       __ZNK10global_ner9inference16NerEspressoModel23bindWordEmbeddingTensorERNS_15data_structures15InferenceTensorE, 
                       __ZNK10global_ner9inference16NerEspressoModel23getSequenceLengthTensorERKNSt3__16vectorImNS2_9allocatorImEEEE, 
                       __ZNK10global_ner9inference16NerEspressoModel23getWordCharactersTensorERKNSt3__16vectorINS3_INS3_ImNS2_9allocatorImEEEENS4_IS6_EEEENS4_IS8_EEEE, 
                       __ZNK10global_ner9inference16NerEspressoModel24bindSequenceLengthTensorERNS_15data_structures15InferenceTensorE, 
                       __ZNK10global_ner9inference16NerEspressoModel24bindWordCharactersTensorERNS_15data_structures15InferenceTensorE, 
                       __ZNK10global_ner9inference16NerEspressoModel9getLogitsERKNSt3__16vectorINS3_INS3_IfNS2_9allocatorIfEEEENS4_IS6_EEEENS4_IS8_EEEERKNS3_ImNS4_ImEEEERKNS3_INS3_ISE_NS4_ISE_EEEENS4_ISI_EEEERKSI_, 
                       __ZNK10global_ner9inference16NerEspressoModel9getLogitsERNS_15data_structures15InferenceTensorES4_S4_S4_, 
                       __ZNK16nl_featurization10vocabulary10Vocabulary13getPadTokenIdEv, 
                       __ZNK16nl_featurization10vocabulary10Vocabulary17getUnknownTokenIdEv, 
                       __ZNK16nl_featurization10vocabulary10Vocabulary17numericalizeTokenERKNSt3__112basic_stringIDsNS2_11char_traitsIDsEENS2_9allocatorIDsEEEE, 
                       __ZNK16nl_featurization10vocabulary10Vocabulary19denumericalizeTokenEm, 
                       __ZNK16nl_featurization10vocabulary10Vocabulary4sizeEv, __ZNK16nl_featurization11beam_search12BeamSequence8toStringEv, 
                       __ZNK16nl_featurization12pattern_trie11PatternTrie6searchERKNSt3__112basic_stringIDsNS2_11char_traitsIDsEENS2_9allocatorIDsEEEE, 
                       __ZNK16nl_featurization13span_matching14span_processor13SpanProcessor10matchSpansERKNSt3__16vectorINS_5TokenENS3_9allocatorIS5_EEEERKNS2_12MatchOptionsE, 
                       __ZNK16nl_featurization13span_matching14span_processor13SpanProcessor15findAndAddSpansERKNSt3__16vectorINS_5TokenENS3_9allocatorIS5_EEEERNS3_13unordered_mapINS3_12basic_stringIDsNS3_11char_traitsIDsEENS6_IDsEEEENS4_INS2_7IndicesENS6_ISH_EEEENS3_4hashISG_EENS3_8equal_toISG_EENS6_INS3_4pairIKSG_SJ_EEEEEE, 
                       __ZNK16nl_featurization13span_matching14span_processor13SpanProcessor17appendMatchedSpanERKNSt3__112basic_stringIDsNS3_11char_traitsIDsEENS3_9allocatorIDsEEEERKNS2_7IndicesERNS3_13unordered_mapIS9_NS3_6vectorISC_NS7_ISC_EEEENS3_4hashIS9_EENS3_8equal_toIS9_EENS7_INS3_4pairISA_SI_EEEEEE, 
                       __ZNK16nl_featurization13span_matching14span_processor13SpanProcessor21addSpansFromSubTokensERKNSt3__112basic_stringIDsNS3_11char_traitsIDsEENS3_9allocatorIDsEEEERKNS2_7IndicesERKNS3_10unique_ptrI18URegularExpressionPFvPSG_EEERNS3_13unordered_mapIS9_NS3_6vectorISC_NS7_ISC_EEEENS3_4hashIS9_EENS3_8equal_toIS9_EENS7_INS3_4pairISA_SQ_EEEEEE, 
                       __ZNK16nl_featurization13span_matching14span_processor13SpanProcessor24matchCharacterBasedSpansERKNSt3__16vectorINS_5TokenENS3_9allocatorIS5_EEEERKNS2_12MatchOptionsE, 
                       __ZNK16nl_featurization13span_matching14span_processor13SpanProcessor26selectSpansMatchingOptionsERKNSt3__113unordered_mapINS3_12basic_stringIDsNS3_11char_traitsIDsEENS3_9allocatorIDsEEEENS3_6vectorINS2_7IndicesENS8_ISC_EEEENS3_4hashISA_EENS3_8equal_toISA_EENS8_INS3_4pairIKSA_SE_EEEEEERKNS2_12MatchOptionsERNSB_INS3_5tupleIJSC_SA_EEENS8_ISU_EEEE, 
                       __ZNK16nl_featurization13span_matching14span_processor13SpanProcessor33buildReverseMappingAndPatternTrieERKNSt3__16vectorINS_18SpanMatcherPatternENS3_9allocatorIS5_EEEE, 
                       __ZNK16nl_featurization13span_matching22MatchedSpansFeaturizer18validateVocabularyEv, 
                       __ZNK16nl_featurization13span_matching22MatchedSpansFeaturizer9featurizeERKNSt3__16vectorINS_10nlv4_types11MatchedSpanENS2_9allocatorIS5_EEEERKNS3_INS4_5TokenENS6_ISB_EEEE, 
                       __ZNK16nl_featurization13span_matching22MatchedSpansFeaturizer9tensoriseERKNSt3__16vectorINS_10nlv4_types5TokenENS2_9allocatorIS5_EEEE, 
                       __ZNK16nl_featurization14FeaturizerImpl9featurizeERKNS_15FeaturizerInputE, 
                       __ZNK16nl_featurization16FeaturizerConfig18getBioTagDelimiterEv, 
                       __ZNK16nl_featurization16FeaturizerConfig22getSpanMatcherPatternsEv, 
                       __ZNK16nl_featurization16FeaturizerConfig29getSpanVocabularyDataFilePathEv, 
                       __ZNK16nl_featurization16FeaturizerConfig8getFlagsEv, __ZNK16nl_featurization16FeaturizerOutput19getSpanLabelsTensorEv, 
                       __ZNK16nl_featurization16FeaturizerOutput9getTokensEv, __ZNK16nl_featurization3bio12BilouEncoder6encodeERKNSt3__16vectorINS_10nlv4_types11MatchedSpanENS2_9allocatorIS5_EEEERKNS3_INS4_5TokenENS6_ISB_EEEE, 
                       __ZNK16nl_featurization3bio13BioTagPayload16getSemanticValueEv, 
                       __ZNK16nl_featurization3bio13BioTagPayload8getLabelEv, __ZNK16nl_featurization3bio13TagBucketList14getBucketListsEv, 
                       __ZNK16nl_featurization3bio13TagBucketList8addBIOULERKNSt3__112basic_stringIDsNS2_11char_traitsIDsEENS2_9allocatorIDsEEEEmm, 
                       __ZNK16nl_featurization3bio6BioTag10getPayloadEv, __ZNK16nl_featurization3bio6BioTag9getPrefixEv, 
                       __ZNK16nl_featurization9Embedding12getDimensionEv, __ZNK16nl_featurization9Embedding14getCoordinatesEv, 
                       __ZNK18uaap_orchestration10resolution22InverseResolutionTable19lookupSemanticValueERKNSt3__112basic_stringIDsNS2_11char_traitsIDsEENS2_9allocatorIDsEEEE, 
                       __ZNK18uaap_orchestration10resolution22InverseResolutionTable27buildMapFromResolutionTableERKNS_7grammar15ResolutionTableE, 
                       __ZNK18uaap_orchestration10resolution8Resolver27lookupSemanticValueForLabelERKNSt3__112basic_stringIDsNS2_11char_traitsIDsEENS2_9allocatorIDsEEEESA_, 
                       __ZNK18uaap_orchestration10resolution8Resolver32buildResolutionTablesFromGrammarERKNS_7grammar11UaapGrammarE, 
                       __ZNK18uaap_orchestration10resolution8Resolver33getInverseResolutionTableForLabelERKNSt3__112basic_stringIDsNS2_11char_traitsIDsEENS2_9allocatorIDsEEEE, 
                       __ZNK18uaap_orchestration7grammar11UaapGrammar15getRuleForLabelERKNSt3__112basic_stringIDsNS2_11char_traitsIDsEENS2_9allocatorIDsEEEE, 
                       __ZNK18uaap_orchestration7grammar11UaapGrammar16getAllLeftLabelsEv, 
                       __ZNK18uaap_orchestration7grammar11UaapGrammar21getChildrenPathsInnerERKNS0_4PathERNSt3__16vectorIS2_NS5_9allocatorIS2_EEEE, 
                       __ZNK18uaap_orchestration7grammar11UaapGrammar22getEnumChoicesForLabelERKNSt3__112basic_stringIDsNS2_11char_traitsIDsEENS2_9allocatorIDsEEEE, 
                       __ZNK18uaap_orchestration7grammar11UaapGrammar22getRightLabelsForLabelERKNSt3__112basic_stringIDsNS2_11char_traitsIDsEENS2_9allocatorIDsEEEE, 
                       __ZNK18uaap_orchestration7grammar11UaapGrammar24getAllSpanValuesForLabelERKNSt3__112basic_stringIDsNS2_11char_traitsIDsEENS2_9allocatorIDsEEEE, 
                       __ZNK18uaap_orchestration7grammar11UaapGrammar24getChildrenPathsForLabelERKNSt3__112basic_stringIDsNS2_11char_traitsIDsEENS2_9allocatorIDsEEEE, 
                       __ZNK18uaap_orchestration7grammar11UaapGrammar8getRulesEv, 
                       __ZNK18uaap_orchestration7grammar15ResolutionTable11getSynonymsERKNSt3__112basic_stringIDsNS2_11char_traitsIDsEENS2_9allocatorIDsEEEE, 
                       __ZNK18uaap_orchestration7grammar15ResolutionTable17getSemanticValuesEv, 
                       __ZNK18uaap_orchestration7grammar15ResolutionTable27loadSemanticValueToSynonymsERKN9rapidjson12GenericValueINS2_4UTF8IcEENS2_19MemoryPoolAllocatorINS2_12CrtAllocatorEEEEE, 
                       __ZNK18uaap_orchestration7grammar16ValueConstraints12getValueTypeEv, 
                       __ZNK18uaap_orchestration7grammar16ValueConstraints13loadValueTypeERKN9rapidjson12GenericValueINS2_4UTF8IcEENS2_19MemoryPoolAllocatorINS2_12CrtAllocatorEEEEE, 
                       __ZNK18uaap_orchestration7grammar16ValueConstraints14getEnumChoicesEv, 
                       __ZNK18uaap_orchestration7grammar16ValueConstraints15loadEnumChoicesERKN9rapidjson12GenericValueINS2_4UTF8IcEENS2_19MemoryPoolAllocatorINS2_12CrtAllocatorEEEEE, 
                       __ZNK18uaap_orchestration7grammar16ValueConstraints18getOpenListChoicesEv, 
                       __ZNK18uaap_orchestration7grammar16ValueConstraints18getResolutionTableEv, 
                       __ZNK18uaap_orchestration7grammar16ValueConstraints19loadOpenListChoicesERKN9rapidjson12GenericValueINS2_4UTF8IcEENS2_19MemoryPoolAllocatorINS2_12CrtAllocatorEEEEE, 
                       __ZNK18uaap_orchestration7grammar16ValueConstraints19loadResolutionTableERKN9rapidjson12GenericValueINS2_4UTF8IcEENS2_19MemoryPoolAllocatorINS2_12CrtAllocatorEEEEE, 
                       __ZNK18uaap_orchestration7grammar4Path16getLastComponentEv, 
                       __ZNK18uaap_orchestration7grammar4Path17getFirstComponentEv, 
                       __ZNK18uaap_orchestration7grammar4Path19extendWithComponentERKNSt3__112basic_stringIDsNS2_11char_traitsIDsEENS2_9allocatorIDsEEEE, 
                       __ZNK18uaap_orchestration7grammar4Path4sizeEv, __ZNK18uaap_orchestration7grammar4Path8toStringEv, 
                       __ZNK18uaap_orchestration7grammar4Rule12getLeftLabelEv, __ZNK18uaap_orchestration7grammar4Rule14getRightLabelsEv, 
                       __ZNK18uaap_orchestration7grammar4Rule18getRightLabelNamesEv, 
                       __ZNK18uaap_orchestration7grammar4Rule19getValueConstraintsEv, 
                       __ZNK27nlv4_inference_orchestrator10vocabulary10Vocabulary10getTokenIdERKNSt3__112basic_stringIcNS2_11char_traitsIcEENS2_9allocatorIcEEEE, 
                       __ZNK27nlv4_inference_orchestrator10vocabulary10Vocabulary13getPadTokenIdEv, 
                       __ZNK27nlv4_inference_orchestrator10vocabulary10Vocabulary17getUnknownTokenIdEv, 
                       __ZNK27nlv4_inference_orchestrator10vocabulary10Vocabulary17numericalizeTokenERKNSt3__112basic_stringIcNS2_11char_traitsIcEENS2_9allocatorIcEEEE, 
                       __ZNK27nlv4_inference_orchestrator10vocabulary10Vocabulary19denumericalizeTokenEm, 
                       __ZNK27nlv4_inference_orchestrator11placeholder13VerbExtractor20getVerbFromNLContextERKN15sirinluexternal9NLContextE, 
                       __ZNK27nlv4_inference_orchestrator11placeholder13VerbExtractor23extractVerbFromUsoGraphERKN4siri8ontology8UsoGraphE, 
                       __ZNK27nlv4_inference_orchestrator11placeholder13VerbExtractor24getVerbFromUserDialogActERKN15sirinluexternal13UserDialogActE, 
                       __ZNK27nlv4_inference_orchestrator13orchestration12IndexedToken10getPbTokenEv, 
                       __ZNK27nlv4_inference_orchestrator13orchestration12IndexedToken14getUtf8IndicesEv, 
                       __ZNK27nlv4_inference_orchestrator13orchestration12IndexedToken15getUtf16IndicesEv, 
                       __ZNK27nlv4_inference_orchestrator13orchestration12IndexedToken16getScalarIndicesEv, 
                       __ZNK27nlv4_inference_orchestrator13orchestration20EmbedderOrchestrator13getEmbeddingsERKNS0_15EmbedderRequestE, 
                       __ZNK27nlv4_inference_orchestrator13orchestration25NLv4InferenceOrchestrator12logAssetInfoEv, 
                       __ZNK27nlv4_inference_orchestrator13orchestration25NLv4InferenceOrchestrator14logModelOutputERKNS_5trees8TreeNodeERKNSt3__16vectorINS6_12basic_stringIcNS6_11char_traitsIcEENS6_9allocatorIcEEEENSB_ISD_EEEEm, 
                       __ZNK27nlv4_inference_orchestrator13orchestration25NLv4InferenceOrchestrator19isMajorVersionValidEv, 
                       __ZNK27nlv4_inference_orchestrator13orchestration25NLv4InferenceOrchestrator20getAssetVersionMajorEv, 
                       __ZNK27nlv4_inference_orchestrator13orchestration25NLv4InferenceOrchestrator30supportedMajorVersionsAsStringEv, 
                       __ZNK27nlv4_inference_orchestrator13orchestration25NLv4InferenceOrchestrator33removeUserAcceptedOnlyHackAppliesERKNS_5trees8TreeNodeERKNSt3__112basic_stringIcNS6_11char_traitsIcEENS6_9allocatorIcEEEE, 
                       __ZNK27nlv4_inference_orchestrator13orchestration25NLv4InferenceOrchestrator35runSystemPromptedMessageContentHackERKN26sirinluinternalnlv4_parser17NLv4ParserRequestERKNSt3__16vectorIN15sirinluinternal12MatchingSpanENS6_9allocatorIS9_EEEE, 
                       __ZNK27nlv4_inference_orchestrator13orchestration25NLv4InferenceOrchestrator8pbhandleENSt3__110unique_ptrIN26sirinluinternalnlv4_parser17NLv4ParserRequestENS2_14default_deleteIS5_EEEE, 
                       __ZNK27nlv4_inference_orchestrator13span_matching22MatchedSpansFeaturizer15legacyFeaturizeERNS_16inference_engine15InferenceTensorERKNSt3__16vectorIN15sirinluinternal12MatchingSpanENS5_9allocatorIS8_EEEERKNS6_INS_13orchestration12IndexedTokenENS9_ISF_EEEE, 
                       __ZNK27nlv4_inference_orchestrator13span_matching22MatchedSpansFeaturizer15logSpanCoverageERKNSt3__16vectorIN15sirinluinternal12MatchingSpanENS2_9allocatorIS5_EEEE, 
                       __ZNK27nlv4_inference_orchestrator13span_matching22MatchedSpansFeaturizer15logSpanEncodingENSt3__16vectorINS2_4pairINS_13orchestration12IndexedTokenENS3_INS2_12basic_stringIcNS2_11char_traitsIcEENS2_9allocatorIcEEEENSA_ISC_EEEEEENSA_ISF_EEEE, 
                       __ZNK27nlv4_inference_orchestrator13span_matching22MatchedSpansFeaturizer15tensoriseTokensERKNSt3__16vectorINS2_4pairINS_13orchestration12IndexedTokenENS3_INS2_12basic_stringIcNS2_11char_traitsIcEENS2_9allocatorIcEEEENSA_ISC_EEEEEENSA_ISF_EEEE, 
                       __ZNK27nlv4_inference_orchestrator13span_matching22MatchedSpansFeaturizer16logFeatureTensorERKNS_16inference_engine15InferenceTensorE, 
                       __ZNK27nlv4_inference_orchestrator13span_matching22MatchedSpansFeaturizer20removeDuplicateSpansERNSt3__16vectorIN15sirinluinternal12MatchingSpanENS2_9allocatorIS5_EEEE, 
                       __ZNK27nlv4_inference_orchestrator13span_matching22MatchedSpansFeaturizer35copyMatchingSpanWithCorrectedLabelsERNSt3__16vectorIN15sirinluinternal12MatchingSpanENS2_9allocatorIS5_EEEERKS5_, 
                       __ZNK27nlv4_inference_orchestrator13span_matching22MatchedSpansFeaturizer39copyAllMatchingSpansWithCorrectedLabelsERKNSt3__16vectorIN15sirinluinternal12MatchingSpanENS2_9allocatorIS5_EEEE, 
                       __ZNK27nlv4_inference_orchestrator13span_matching22MatchedSpansFeaturizer41copyMatchingSpanWithLegacyCorrectedLabelsERNSt3__16vectorIN15sirinluinternal12MatchingSpanENS2_9allocatorIS5_EEEERKS5_, 
                       __ZNK27nlv4_inference_orchestrator13span_matching22MatchedSpansFeaturizer45copyAllMatchingSpansWithLegacyCorrectedLabelsERKNSt3__16vectorIN15sirinluinternal12MatchingSpanENS2_9allocatorIS5_EEEE, 
                       __ZNK27nlv4_inference_orchestrator13span_matching22MatchedSpansFeaturizer9featurizeERNS_16inference_engine15InferenceTensorERKNSt3__16vectorIN15sirinluinternal12MatchingSpanENS5_9allocatorIS8_EEEERKNS6_INS_13orchestration12IndexedTokenENS9_ISF_EEEE, 
                       __ZNK27nlv4_inference_orchestrator13span_matching36RelativeThresholdMatchingSpansFilter19filterMatchingSpansERKNSt3__16vectorIN15sirinluinternal12MatchingSpanENS2_9allocatorIS5_EEEE, 
                       __ZNK27nlv4_inference_orchestrator14pre_processing12Reformulator25applyReformulationToTokenERKNS_13orchestration5TokenE, 
                       __ZNK27nlv4_inference_orchestrator15post_processing18tree_manipulations16ContactTypeSplit17splitContactTypesERNS_5trees8TreeNodeE, 
                       __ZNK27nlv4_inference_orchestrator15post_processing18tree_manipulations16ContactTypeSplit21hasMatchingSpanPersonEmm, 
                       __ZNK27nlv4_inference_orchestrator15post_processing18tree_manipulations16ContactTypeSplit22findMatchingSpansSplitEmm, 
                       __ZNK27nlv4_inference_orchestrator15post_processing18tree_manipulations16ContactTypeSplit22splitCommonPersonNodesERNSt3__16vectorINS_5trees8TreeNodeENS3_9allocatorIS6_EEEERKS6_, 
                       __ZNK27nlv4_inference_orchestrator15post_processing18tree_manipulations16ContactTypeSplit24generateCommonPersonNodeERKN15sirinluinternal12MatchingSpanES6_NSt3__117basic_string_viewIcNS7_11char_traitsIcEEEESB_m, 
                       __ZNK27nlv4_inference_orchestrator15post_processing18tree_manipulations16ContactTypeSplit25handleCommonPersonSubtreeERKNS_5trees8TreeNodeE, 
                       __ZNK27nlv4_inference_orchestrator15post_processing18tree_manipulations16ContactTypeSplit31findMatchingSpansSplitWithOrderEmmRKNSt3__113unordered_mapImNS3_6vectorIN15sirinluinternal12MatchingSpanENS3_9allocatorIS7_EEEENS3_4hashImEENS3_8equal_toImEENS8_INS3_4pairIKmSA_EEEEEESL_, 
                       __ZNK27nlv4_inference_orchestrator15post_processing18tree_manipulations17TreeManipulations22applyManipulationStepsERNS_5trees8TreeNodeE, 
                       __ZNK27nlv4_inference_orchestrator15post_processing18tree_manipulations18GroupNameTransform17transformTreeNodeERNS_5trees8TreeNodeE, 
                       __ZNK27nlv4_inference_orchestrator15post_processing18tree_manipulations18GroupNameTransform23doesCharacterRangeMatchERKN15sirinluinternal12MatchingSpanERKNS_5trees8TreeNodeE, 
                       __ZNK27nlv4_inference_orchestrator15post_processing18tree_manipulations18GroupNameTransform9transformERNS_5trees8TreeNodeE, 
                       __ZNK27nlv4_inference_orchestrator15post_processing18tree_manipulations19PersonNameSplitHack14handleTreeNodeERNS_5trees8TreeNodeE, 
                       __ZNK27nlv4_inference_orchestrator15post_processing18tree_manipulations19PersonNameSplitHack16splitPersonNamesERNS_5trees8TreeNodeE, 
                       __ZNK27nlv4_inference_orchestrator15post_processing18tree_manipulations19PersonNameSplitHack24generateCommonPersonNodeERKN15sirinluinternal12MatchingSpanENSt3__117basic_string_viewIcNS7_11char_traitsIcEEEESB_m, 
                       __ZNK27nlv4_inference_orchestrator15post_processing18tree_manipulations19PersonNameSplitHack25handleCommonPersonSubtreeERKNS_5trees8TreeNodeE, 
                       __ZNK27nlv4_inference_orchestrator15post_processing18tree_manipulations19PersonNameSplitHack29findAllMatchingSpanPartitionsERKNSt3__16vectorIN15sirinluinternal12MatchingSpanENS3_9allocatorIS6_EEEEmm, 
                       __ZNK27nlv4_inference_orchestrator15post_processing18tree_manipulations19PersonNameSplitHack39findPersonMatchingSpansMinimalPartitionEmm, 
                       __ZNK27nlv4_inference_orchestrator15post_processing18tree_manipulations21SetNumberVerbReplacer19replaceTreeNodeVerbERNS_5trees8TreeNodeE, 
                       __ZNK27nlv4_inference_orchestrator15post_processing18tree_manipulations21SetNumberVerbReplacer5applyERNS_5trees8TreeNodeE, 
                       __ZNK27nlv4_inference_orchestrator15post_processing18tree_manipulations22MinimumMaximumLabeller14handleTreeNodeERNS_5trees8TreeNodeE, 
                       __ZNK27nlv4_inference_orchestrator15post_processing18tree_manipulations22MinimumMaximumLabeller5labelERNS_5trees8TreeNodeE, 
                       __ZNK27nlv4_inference_orchestrator15post_processing18tree_manipulations22OneShotReplyRemodeller26pruneUserAcceptedDialogActERNS_5trees8TreeNodeE, 
                       __ZNK27nlv4_inference_orchestrator15post_processing18tree_manipulations22OneShotReplyRemodeller42parseContainsUserAcceptedAndUserStatedTaskERKNS_5trees8TreeNodeE, 
                       __ZNK27nlv4_inference_orchestrator15post_processing18tree_manipulations22OneShotReplyRemodeller5applyERNS_5trees8TreeNodeE, 
                       __ZNK27nlv4_inference_orchestrator15post_processing18tree_manipulations24ContactAddressDowncaster14handleTreeNodeERNS_5trees8TreeNodeE, 
                       __ZNK27nlv4_inference_orchestrator15post_processing18tree_manipulations24ContactAddressDowncaster26hasMatchingSpanWithIndicesERKNSt3__16vectorIN15sirinluinternal12MatchingSpanENS3_9allocatorIS6_EEEEmm, 
                       __ZNK27nlv4_inference_orchestrator15post_processing18tree_manipulations24ContactAddressDowncaster32findTokenIndicesOfUngroundedNodeERNS_5trees8TreeNodeE, 
                       __ZNK27nlv4_inference_orchestrator15post_processing18tree_manipulations24ContactAddressDowncaster8downcastERNS_5trees8TreeNodeE, 
                       __ZNK27nlv4_inference_orchestrator16inference_engine10BeamSearch15applyLogSoftmaxERKNSt3__16vectorIfNS2_9allocatorIfEEEE, 
                       __ZNK27nlv4_inference_orchestrator16inference_engine10BeamSearch15findBorderScoreERKNSt3__16vectorIfNS2_9allocatorIfEEEE, 
                       __ZNK27nlv4_inference_orchestrator16inference_engine10BeamSearch28getTopKTokenIndicesAndScoresERKNSt3__16vectorIfNS2_9allocatorIfEEEE, 
                       __ZNK27nlv4_inference_orchestrator16inference_engine10BeamSearch9logsumexpERKNSt3__16vectorIfNS2_9allocatorIfEEEE, 
                       __ZNK27nlv4_inference_orchestrator16inference_engine10BertModule13getEmbeddingsEv, 
                       __ZNK27nlv4_inference_orchestrator16inference_engine10BertModule16getNetworkConfigERKNSt3__112basic_stringIcNS2_11char_traitsIcEENS2_9allocatorIcEEEE, 
                       __ZNK27nlv4_inference_orchestrator16inference_engine10BertModule18setUtteranceTokensERNS0_15InferenceTensorE, 
                       __ZNK27nlv4_inference_orchestrator16inference_engine10BertModule22setUtteranceTokensMaskERNS0_15InferenceTensorE, 
                       __ZNK27nlv4_inference_orchestrator16inference_engine10BertModule7forwardERKNS0_19BertModuleInputTypeE, 
                       __ZNK27nlv4_inference_orchestrator16inference_engine14EspressoModule11executePlanEv, 
                       __ZNK27nlv4_inference_orchestrator16inference_engine14EspressoModule16getNetworkConfigERKNSt3__112basic_stringIcNS2_11char_traitsIcEENS2_9allocatorIcEEEE, 
                       __ZNK27nlv4_inference_orchestrator16inference_engine14EspressoModule8setInputERKNSt3__112basic_stringIcNS2_11char_traitsIcEENS2_9allocatorIcEEEERNS0_15InferenceTensorE, 
                       __ZNK27nlv4_inference_orchestrator16inference_engine14EspressoModule9buildPlanEv, 
                       __ZNK27nlv4_inference_orchestrator16inference_engine14EspressoModule9cleanPlanEv, 
                       __ZNK27nlv4_inference_orchestrator16inference_engine14EspressoModule9getOutputERKNSt3__112basic_stringIcNS2_11char_traitsIcEENS2_9allocatorIcEEEE, 
                       __ZNK27nlv4_inference_orchestrator16inference_engine17EspressoBertModel7forwardERKNS0_26EspressoBertModelInputTypeE, 
                       __ZNK27nlv4_inference_orchestrator16inference_engine24EspressoTransformerModel10padContextERKNS0_15InferenceTensorE, 
                       __ZNK27nlv4_inference_orchestrator16inference_engine24EspressoTransformerModel13padEmbeddingsERKNS0_15InferenceTensorE, 
                       __ZNK27nlv4_inference_orchestrator16inference_engine24EspressoTransformerModel13padSpanTokensERKNS0_15InferenceTensorE, 
                       __ZNK27nlv4_inference_orchestrator16inference_engine24EspressoTransformerModel14getPaddingMaskERKNS0_33EspressoTransformerModelInputTypeE, 
                       __ZNK27nlv4_inference_orchestrator16inference_engine24EspressoTransformerModel14getPositionIdsEv, 
                       __ZNK27nlv4_inference_orchestrator16inference_engine24EspressoTransformerModel7forwardERKNS0_33EspressoTransformerModelInputTypeE, 
                       __ZNK27nlv4_inference_orchestrator16inference_engine24TransformerDecoderModule12setEncodingsERNS0_15InferenceTensorE, 
                       __ZNK27nlv4_inference_orchestrator16inference_engine24TransformerDecoderModule13getPredictionEv, 
                       __ZNK27nlv4_inference_orchestrator16inference_engine24TransformerDecoderModule17getAttentionIndexEv, 
                       __ZNK27nlv4_inference_orchestrator16inference_engine24TransformerDecoderModule17setAttentionIndexERNS0_15InferenceTensorE, 
                       __ZNK27nlv4_inference_orchestrator16inference_engine24TransformerDecoderModule17setLastPredictionERNS0_15InferenceTensorE, 
                       __ZNK27nlv4_inference_orchestrator16inference_engine24TransformerDecoderModule18setEncodingsLengthERNS0_15InferenceTensorE, 
                       __ZNK27nlv4_inference_orchestrator16inference_engine24TransformerDecoderModule7forwardERKNS0_27TransformerDecoderInputTypeE, 
                       __ZNK27nlv4_inference_orchestrator16inference_engine24TransformerDecoderModule9getHiddenEv, 
                       __ZNK27nlv4_inference_orchestrator16inference_engine24TransformerDecoderModule9getMemoryEv, 
                       __ZNK27nlv4_inference_orchestrator16inference_engine24TransformerDecoderModule9setHiddenERNS0_15InferenceTensorE, 
                       __ZNK27nlv4_inference_orchestrator16inference_engine24TransformerDecoderModule9setMemoryERNS0_15InferenceTensorE, 
                       __ZNK27nlv4_inference_orchestrator16inference_engine24TransformerEncoderModule10setContextERNS0_15InferenceTensorE, 
                       __ZNK27nlv4_inference_orchestrator16inference_engine24TransformerEncoderModule12getEncodingsEv, 
                       __ZNK27nlv4_inference_orchestrator16inference_engine24TransformerEncoderModule13setSpanTokensERNS0_15InferenceTensorE, 
                       __ZNK27nlv4_inference_orchestrator16inference_engine24TransformerEncoderModule14getFinalHiddenEv, 
                       __ZNK27nlv4_inference_orchestrator16inference_engine24TransformerEncoderModule14setPositionIdsERNS0_15InferenceTensorE, 
                       __ZNK27nlv4_inference_orchestrator16inference_engine24TransformerEncoderModule23setUtterancePaddingMaskERNS0_15InferenceTensorE, 
                       __ZNK27nlv4_inference_orchestrator16inference_engine24TransformerEncoderModule28setUtteranceTokensEmbeddingsERNS0_15InferenceTensorE, 
                       __ZNK27nlv4_inference_orchestrator16inference_engine24TransformerEncoderModule7forwardERKNS0_33TransformerEncoderModuleInputTypeE, 
                       __ZNK27nlv4_inference_orchestrator16inference_engine5Trail15getTokenHistoryEv, 
                       __ZNK27nlv4_inference_orchestrator16inference_engine5Trail17getAttentionIndexEv, 
                       __ZNK27nlv4_inference_orchestrator16inference_engine5Trail17getLastPredictionEv, 
                       __ZNK27nlv4_inference_orchestrator16inference_engine5Trail7isFinalEv, 
                       __ZNK27nlv4_inference_orchestrator16inference_engine5Trail8getScoreEv, 
                       __ZNK27nlv4_inference_orchestrator16inference_engine5Trail8setFinalEv, 
                       __ZNK27nlv4_inference_orchestrator16inference_engine5Trail9getHiddenEv, 
                       __ZNK27nlv4_inference_orchestrator16inference_engine5Trail9getMemoryEv, 
                       __ZNK27nlv4_inference_orchestrator3bio11SpanEncoder13applyEncodingERKNSt3__16vectorIN15sirinluinternal12MatchingSpanENS2_9allocatorIS5_EEEERKNS3_INS_13orchestration12IndexedTokenENS6_ISC_EEEERKNS0_11LabelSchemeE, 
                       __ZNK27nlv4_inference_orchestrator3bio11SpanEncoder15getNoSpansLabelEv, 
                       __ZNK27nlv4_inference_orchestrator3bio11SpanEncoder26attachUniqueLabelsToTokensERKNS0_13TagBucketListERKNSt3__16vectorINS_13orchestration12IndexedTokenENS5_9allocatorIS8_EEEE, 
                       __ZNK27nlv4_inference_orchestrator3bio11SpanEncoder40getTopLevelUsoEntityFromDataDetectorSpanERKN15sirinluinternal12MatchingSpanE, 
                       __ZNK27nlv4_inference_orchestrator3bio11SpanEncoder6encodeERKNSt3__16vectorIN15sirinluinternal12MatchingSpanENS2_9allocatorIS5_EEEERKNS3_INS_13orchestration12IndexedTokenENS6_ISC_EEEERKNS0_11LabelSchemeE, 
                       __ZNK27nlv4_inference_orchestrator3bio13TagBucketList10addBIOTagsERKNSt3__112basic_stringIcNS2_11char_traitsIcEENS2_9allocatorIcEEEEmm, 
                       __ZNK27nlv4_inference_orchestrator3bio13TagBucketList12addBILOUTagsERKNSt3__112basic_stringIcNS2_11char_traitsIcEENS2_9allocatorIcEEEEmm, 
                       __ZNK27nlv4_inference_orchestrator3bio13TagBucketList14getBucketListsEv, 
                       __ZNK27nlv4_inference_orchestrator3bio13TagBucketList6addTagERKNSt3__112basic_stringIcNS2_11char_traitsIcEENS2_9allocatorIcEEEEmm, 
                       __ZNK27nlv4_inference_orchestrator5trees14PlyTreeCreator13constructTreeERNS0_8TreeNodeERKNSt3__16vectorINS4_12basic_stringIcNS4_11char_traitsIcEENS4_9allocatorIcEEEENS9_ISB_EEEERKNS5_INS_13orchestration12IndexedTokenENS9_ISH_EEEERKSB_, 
                       __ZNK27nlv4_inference_orchestrator5trees15SpanUsoInserter14findSpanEntityERKNS0_8TreeNodeERKNSt3__16vectorIN15sirinluinternal12MatchingSpanENS5_9allocatorIS8_EEEERKNS5_12basic_stringIcNS5_11char_traitsIcEENS9_IcEEEENS5_10shared_ptrIN4siri8ontology15UsoVocabManagerEEES4_, 
                       __ZNK27nlv4_inference_orchestrator5trees15SpanUsoInserter15checkLabelMatchERKN4siri8ontology8UsoGraphERKNSt3__112basic_stringIcNS7_11char_traitsIcEENS7_9allocatorIcEEEE, 
                       __ZNK27nlv4_inference_orchestrator5trees15SpanUsoInserter15findClosestSpanERKNSt3__16vectorIN15sirinluinternal12MatchingSpanENS2_9allocatorIS5_EEEERKNS0_8TreeNodeERKNS2_12basic_stringIcNS2_11char_traitsIcEENS6_IcEEEENS2_10shared_ptrIN4siri8ontology15UsoVocabManagerEEESD_, 
                       __ZNK27nlv4_inference_orchestrator5trees15SpanUsoInserter19checkTimeLabelMatchERKNSt3__112basic_stringIcNS2_11char_traitsIcEENS2_9allocatorIcEEEESA_, 
                       __ZNK27nlv4_inference_orchestrator5trees15SpanUsoInserter21getSpanLabelFromGraphERKN4siri8ontology8UsoGraphE, 
                       __ZNK27nlv4_inference_orchestrator5trees15SpanUsoInserter22getInsertionPointLabelEv, 
                       __ZNK27nlv4_inference_orchestrator5trees15SpanUsoInserter23findUtteranceAlignmentsERKN4siri8ontology8UsoGraphERKN15sirinluexternal8UsoGraphE, 
                       __ZNK27nlv4_inference_orchestrator5trees15SpanUsoInserter24checkTimerDateLabelMatchERKNSt3__112basic_stringIcNS2_11char_traitsIcEENS2_9allocatorIcEEEESA_, 
                       __ZNK27nlv4_inference_orchestrator5trees15UsoGraphBuilder11addTaskNodeERKN4siri8ontology16OntologyEdgeNameERKNS3_16OntologyNodeNameERKNSt3__112basic_stringIcNSA_11char_traitsIcEENSA_9allocatorIcEEEENSA_10shared_ptrINS3_15UsoVocabManagerEEERNSA_5queueINSA_5tupleIJNS0_8TreeNodeEPNS3_12UsoGraphNodeEEEENSA_5dequeISR_NSE_ISR_EEEEEERNS3_8UsoGraphE, 
                       __ZNK27nlv4_inference_orchestrator5trees15UsoGraphBuilder13addEntityNodeERKN4siri8ontology16OntologyEdgeNameERKNS3_16OntologyNodeNameERNSt3__15queueINSA_5tupleIJNS0_8TreeNodeEPNS3_12UsoGraphNodeEEEENSA_5dequeISG_NSA_9allocatorISG_EEEEEERNS3_8UsoGraphE, 
                       __ZNK27nlv4_inference_orchestrator5trees15UsoGraphBuilder14addPayloadNodeERKN4siri8ontology16OntologyEdgeNameENSt3__110shared_ptrINS3_15UsoVocabManagerEEERNS7_5queueINS7_5tupleIJNS0_8TreeNodeEPNS3_12UsoGraphNodeEEEENS7_5dequeISG_NS7_9allocatorISG_EEEEEERNS3_8UsoGraphE, 
                       __ZNK27nlv4_inference_orchestrator5trees15UsoGraphBuilder17reinsertUsoEntityERNSt3__15queueINS2_5tupleIJNS0_8TreeNodeEPN4siri8ontology12UsoGraphNodeEEEENS2_5dequeISA_NS2_9allocatorISA_EEEEEERNS7_8UsoGraphENS2_10shared_ptrINS7_15UsoVocabManagerEEERKNS2_6vectorIN15sirinluinternal12MatchingSpanENSC_ISO_EEEERKS5_, 
                       __ZNK27nlv4_inference_orchestrator5trees15UsoGraphBuilder20addStringPayloadNodeERKN4siri8ontology16OntologyEdgeNameERNSt3__15queueINS7_5tupleIJNS0_8TreeNodeEPNS3_12UsoGraphNodeEEEENS7_5dequeISD_NS7_9allocatorISD_EEEEEERNS3_8UsoGraphE, 
                       __ZNK27nlv4_inference_orchestrator5trees15UsoGraphBuilder21addIntegerPayloadNodeERKN4siri8ontology16OntologyEdgeNameERNSt3__15queueINS7_5tupleIJNS0_8TreeNodeEPNS3_12UsoGraphNodeEEEENS7_5dequeISD_NS7_9allocatorISD_EEEEEERNS3_8UsoGraphE, 
                       __ZNK27nlv4_inference_orchestrator5trees15UsoGraphBuilder25buildUsoGraphFromTreeNodeERKNS0_8TreeNodeENSt3__110shared_ptrIN4siri8ontology15UsoVocabManagerEEERKNS5_6vectorIN15sirinluinternal12MatchingSpanENS5_9allocatorISD_EEEE, 
                       __ZNK27nlv4_inference_orchestrator5trees15UsoGraphBuilder26addDefinedValuePayloadNodeERKN4siri8ontology16OntologyEdgeNameERKNS3_16OntologyNodeNameERNSt3__15queueINSA_5tupleIJNS0_8TreeNodeEPNS3_12UsoGraphNodeEEEENSA_5dequeISG_NSA_9allocatorISG_EEEEEERNS3_8UsoGraphE, 
                       __ZNK27nlv4_inference_orchestrator5trees15UsoGraphBuilder28checkTimeDateReplacementHackERKN4siri8ontology12UsoGraphNodeERKNS3_16OntologyEdgeNameE, 
                       __ZNK27nlv4_inference_orchestrator5trees16TreeDecompressor10decompressERNS0_8TreeNodeE, 
                       __ZNK27nlv4_inference_orchestrator5trees16TreeDecompressor14decompressNodeERKNS0_8TreeNodeES4_, 
                       __ZNK27nlv4_inference_orchestrator5trees8TreeNode10isLeafNodeEv, 
                       __ZNK27nlv4_inference_orchestrator7context17ContextFeaturizer33checkSystemPromptedMessageContentEv, 
                       __ZNK27nlv4_inference_orchestrator7context17ContextFeaturizer9featurizeERKN26sirinluinternalnlv4_parser17NLv4ParserRequestE, 
                       __ZNK27nlv4_inference_orchestrator7context17ContextFeaturizer9featurizeERNS_16inference_engine15InferenceTensorERKN15sirinluexternal15SystemDialogActE, 
                       __ZNK27nlv4_inference_orchestrator7context17ContextFeaturizer9featurizeERNS_16inference_engine15InferenceTensorERKN15sirinluexternal9NLContextE, 
                       __ZNK27nlv4_inference_orchestrator7context22ContextLabelsExtractor20extractContextLabelsERKN15sirinluexternal15SystemDialogActE, 
                       __ZNK27nlv4_inference_orchestrator7context22ContextLabelsExtractor20extractContextLabelsERKN15sirinluexternal9NLContextE, 
                       __ZNK27nlv4_inference_orchestrator7context22ContextLabelsExtractor29extractContextLabelsFromGraphERKNSt3__112basic_stringIcNS2_11char_traitsIcEENS2_9allocatorIcEEEESA_RKN15sirinluexternal8UsoGraphE, 
                       __ZNK27nlv4_inference_orchestrator7context22ContextLabelsExtractor29extractGraphFromUserDialogActERKN15sirinluexternal13UserDialogActE, 
                       __ZNK27nlv4_inference_orchestrator7context22ContextLabelsExtractor36extractLimitedContextLabelsFromGraphERKNSt3__112basic_stringIcNS2_11char_traitsIcEENS2_9allocatorIcEEEERKN15sirinluexternal8UsoGraphE, 
                       __ZNK27nlv4_inference_orchestrator7context22ContextLabelsExtractor37extractContextLabelsFromUserDialogActERKNSt3__112basic_stringIcNS2_11char_traitsIcEENS2_9allocatorIcEEEESA_RKN15sirinluexternal13UserDialogActE, 
                       __ZNK27nlv4_inference_orchestrator7context22ContextLabelsExtractor39extractContextLabelsFromSystemDialogActERKN15sirinluexternal15SystemDialogActE, 
                       __ZNK27nlv4_inference_orchestrator7context22ContextLabelsExtractor44extractLimitedContextLabelsFromUserDialogActERKNSt3__112basic_stringIcNS2_11char_traitsIcEENS2_9allocatorIcEEEERKN15sirinluexternal13UserDialogActE, 
                       __ZNK27nlv4_inference_orchestrator7context22ContextLabelsExtractor47extractContextLabelsFromSpecificSystemDialogActERKN15sirinluexternal13SystemOfferedE, 
                       __ZNK27nlv4_inference_orchestrator7context22ContextLabelsExtractor47extractContextLabelsFromSpecificSystemDialogActERKN15sirinluexternal14SystemInformedE, 
                       __ZNK27nlv4_inference_orchestrator7context22ContextLabelsExtractor47extractContextLabelsFromSpecificSystemDialogActERKN15sirinluexternal14SystemPromptedE, 
                       __ZNK27nlv4_inference_orchestrator7context22ContextLabelsExtractor47extractContextLabelsFromSpecificSystemDialogActERKN15sirinluexternal17SystemGaveOptionsE, 
                       __ZNK27nlv4_inference_orchestrator7context22ContextLabelsExtractor47extractContextLabelsFromSpecificSystemDialogActERKN15sirinluexternal21SystemReportedFailureE, 
                       __ZNK27nlv4_inference_orchestrator7context22ContextLabelsExtractor47extractContextLabelsFromSpecificSystemDialogActERKN15sirinluexternal21SystemReportedSuccessE, 
                       __ZNK27nlv4_inference_orchestrator7context8Embedder15setEmptyContextEv, 
                       __ZNK27nlv4_inference_orchestrator7context8Embedder16logFeatureTensorERKNS_16inference_engine15InferenceTensorE, 
                       __ZNK27nlv4_inference_orchestrator7context8Embedder5embedERKNSt3__113unordered_setINS2_12basic_stringIcNS2_11char_traitsIcEENS2_9allocatorIcEEEENS2_4hashIS9_EENS2_8equal_toIS9_EENS7_IS9_EEEE, 
                       __ZNK27snlc_inference_orchestrator10vocabulary10Vocabulary10getTokenIdERKNSt3__112basic_stringIcNS2_11char_traitsIcEENS2_9allocatorIcEEEE, 
                       __ZNK27snlc_inference_orchestrator10vocabulary10Vocabulary13getPadTokenIdEv, 
                       __ZNK27snlc_inference_orchestrator10vocabulary10Vocabulary17getUnknownTokenIdEv, 
                       __ZNK27snlc_inference_orchestrator10vocabulary10Vocabulary17numericalizeTokenERKNSt3__112basic_stringIcNS2_11char_traitsIcEENS2_9allocatorIcEEEE, 
                       __ZNK27snlc_inference_orchestrator10vocabulary10Vocabulary19denumericalizeTokenEm, 
                       __ZNK27snlc_inference_orchestrator13orchestration16SNLCOrchestrator15validateRequestERKN19sirinluinternalsnlc17SNLCParserRequestE, 
                       __ZNK27snlc_inference_orchestrator13orchestration16SNLCOrchestrator19isMajorVersionValidEv, 
                       __ZNK27snlc_inference_orchestrator13orchestration16SNLCOrchestrator30supportedMajorVersionsAsStringEv, 
                       __ZNK27snlc_inference_orchestrator13orchestration16SNLCOrchestrator7runSNLCENSt3__110unique_ptrIKN19sirinluinternalsnlc17SNLCParserRequestENS2_14default_deleteIS6_EEEE, 
                       __ZNK27snlc_inference_orchestrator13orchestration21SNLCOverrideGenerator24generateOverrideResponseERKN19sirinluinternalsnlc17SNLCParserRequestE, 
                       __ZNK27snlc_inference_orchestrator16inference_engine10SNLCModule12setMaskInputERN27nlv4_inference_orchestrator16inference_engine15InferenceTensorE, 
                       __ZNK27snlc_inference_orchestrator16inference_engine10SNLCModule13getSNLCOutputEv, 
                       __ZNK27snlc_inference_orchestrator16inference_engine10SNLCModule17setEmbeddingInputERN27nlv4_inference_orchestrator16inference_engine15InferenceTensorE, 
                       __ZNK27snlc_inference_orchestrator16inference_engine10SNLCModule21setSpansFeaturesInputERN27nlv4_inference_orchestrator16inference_engine15InferenceTensorE, 
                       __ZNK27snlc_inference_orchestrator16inference_engine10SNLCModule23setContextFeaturesInputERN27nlv4_inference_orchestrator16inference_engine15InferenceTensorE, 
                       __ZNK27snlc_inference_orchestrator16inference_engine10SNLCModule7forwardERKNS0_19SNLCModuleInputTypeE, 
                       __ZNK27snlc_inference_orchestrator16inference_engine17EspressoSNLCModel12getBatchSizeEv, 
                       __ZNK27snlc_inference_orchestrator16inference_engine17EspressoSNLCModel20getMaxNumSpansTokensEv, 
                       __ZNK27snlc_inference_orchestrator16inference_engine17EspressoSNLCModel22getMaxNumContextTokensEv, 
                       __ZNK27snlc_inference_orchestrator16inference_engine17EspressoSNLCModel26getUtteranceEmbeddingsSizeEv, 
                       __ZNK27snlc_inference_orchestrator16inference_engine17EspressoSNLCModel28getMaxNumUtteranceEmbeddingsEv, 
                       __ZNK27snlc_inference_orchestrator16inference_engine17EspressoSNLCModel7forwardERKNS0_26EspressoSNLCModelInputTypeE, 
                       __ZNK27snlc_inference_orchestrator7context17ContextFeaturizer20extractContextLabelsERKNSt3__18optionalIN15sirinluexternal9NLContextEEERKNS3_INS4_15LegacyNLContextEEE, 
                       __ZNK27snlc_inference_orchestrator7context17ContextFeaturizer39extractContextLabelsFromLegacyNlContextERKN15sirinluexternal15LegacyNLContextE, 
                       __ZNK27snlc_inference_orchestrator7context17ContextFeaturizer9featurizeERNS_16inference_engine15InferenceTensorERKNSt3__18optionalIN15sirinluexternal9NLContextEEERKNS6_INS7_15LegacyNLContextEEE, 
                       __ZNK27snlc_inference_orchestrator7context8Embedder5embedERKNSt3__16vectorINS2_12basic_stringIcNS2_11char_traitsIcEENS2_9allocatorIcEEEENS7_IS9_EEEE, 
                       __ZNK4snlp6common12asset_logger15SNLPAssetLogger14toStringStreamEv, 
                       __ZNK4snlp6common12asset_logger15SNLPAssetLogger8toStringEv, 
                       __ZNK4snlp6common14text_uso_graph16ActionListParser10getActionsEv, 
                       __ZNK4snlp6common14text_uso_graph17UDATextTreeParser11getAliasMapEv, 
                       __ZNK4snlp6common14text_uso_graph19SpacedTextTreeLexer15getErrorMessageEv, 
                       __ZNK4snlp6common14text_uso_graph19UsoGraphWithAliases13protobufGraphEv, 
                       __ZNK4snlp6common14text_uso_graph20ExactMatchComparator14showDifferenceERKN15sirinluexternal13UserDialogActES6_NSt3__110shared_ptrIN4siri8ontology15UsoVocabManagerEEE, 
                       __ZNK4snlp6common14text_uso_graph20ExactMatchComparator14showDifferenceERKN4siri8ontology8UsoGraphES7_, 
                       __ZNK4snlp6common14text_uso_graph20ExactMatchComparator7isMatchERKN15sirinluexternal13UserDialogActES6_NSt3__110shared_ptrIN4siri8ontology15UsoVocabManagerEEE, 
                       __ZNK4snlp6common14text_uso_graph20ExactMatchComparator7isMatchERKN4siri8ontology8UsoGraphES7_, 
                       __ZNK4snlp6common14text_uso_graph22UsoGraphTextTreeParser11getAliasMapEv, 
                       __ZNK4uaap11DDUsoMapper14toItemizedUsosEP10__DDResultRNSt3__16vectorINS3_10unique_ptrIN4siri8ontology8UsoGraphENS3_14default_deleteIS8_EEEENS3_9allocatorISB_EEEE, 
                       __ZNK4uaap11DDUsoMapper14toItemizedUsosEPK9__CFArrayRNSt3__16vectorINS4_10unique_ptrIN4siri8ontology8UsoGraphENS4_14default_deleteIS9_EEEENS4_9allocatorISC_EEEE, 
                       __ZNK4uaap11DDUsoMapper16flattenToDDSpansEP10__DDResultRNSt3__113unordered_mapImNS3_6vectorINS3_10unique_ptrINS_8UPDDSpanENS3_14default_deleteIS7_EEEENS3_9allocatorISA_EEEENS3_4hashImEENS3_8equal_toImEENSB_INS3_4pairIKmSD_EEEEEE, 
                       __ZNK4uaap11DDUsoMapper21mapDateTimeByHandlersEP10__DDResultRNSt3__113unordered_mapImNS3_6vectorINS3_10unique_ptrINS_8UPDDSpanENS3_14default_deleteIS7_EEEENS3_9allocatorISA_EEEENS3_4hashImEENS3_8equal_toImEENSB_INS3_4pairIKmSD_EEEEEERNS5_INS6_IN4siri8ontology8UsoGraphENS8_ISQ_EEEENSB_ISS_EEEEb, 
                       __ZNK4uaap11DDUsoMapper5toUsoEP10__DDResultRN4siri8ontology8UsoGraphE, 
                       __ZNK4uaap14UPDataDetector10matchSpansERKNSt3__112basic_stringIcNS1_11char_traitsIcEENS1_9allocatorIcEEEE, 
                       __ZNK4uaap14UPDataDetector13createScannerERKNSt3__14__fs10filesystem4pathE, 
                       __ZNK4uaap14UPDataDetector15matchSpansInnerERNSt3__16vectorINS_20UPDataDetectorResultENS1_9allocatorIS3_EEEEP11__DDScannerNS1_12basic_stringIDsNS1_11char_traitsIDsEENS4_IDsEEEEPK10__CFString, 
                       __ZNK4uaap16UPStructuredData26printUPStructuredDataInnerERNSt3__118basic_stringstreamIcNS1_11char_traitsIcEENS1_9allocatorIcEEEEmRKNS_20UPStructuredDataNodeE, 
                       __ZNK4uaap16UPStructuredData7getRootEv, __ZNK4uaap16UPStructuredData8toStringEv, 
                       __ZTIN10global_ner12post_process12NumberEntityE, __ZTIN10global_ner12post_process13AppNameEntityE, 
                       __ZTIN10global_ner12post_process14CurrencyEntityE, __ZTIN10global_ner12post_process17MeasurementEntityE, 
                       __ZTIN10global_ner12post_process17OtherPersonEntityE, __ZTIN10global_ner12post_process17PhoneNumberEntityE, 
                       __ZTIN10global_ner12post_process18BusinessNameEntityE, __ZTIN10global_ner12post_process18EmailAddressEntityE, 
                       __ZTIN10global_ner12post_process20GeographicAreaEntityE, __ZTIN10global_ner12post_process21MeasurementUnitEntityE, 
                       __ZTIN10global_ner12post_process22PersonalLocationEntityE, 
                       __ZTIN10global_ner12post_process26MeasurementComponentEntityE, 
                       __ZTIN10global_ner9inference16NerEspressoModelE, __ZTIN16nl_featurization14FeaturizerImplE, 
                       __ZTIN27nlv4_inference_orchestrator13span_matching36RelativeThresholdMatchingSpansFilterE, 
                       __ZTIN4snlp6common14text_uso_graph16ActionListParserE, __ZTIN4snlp6common14text_uso_graph17UDATextTreeParserE, 
                       __ZTIN4snlp6common14text_uso_graph19SpacedTextTreeLexerE, 
                       __ZTIN4snlp6common14text_uso_graph20ExactMatchComparatorE, 
                       __ZTIN4snlp6common14text_uso_graph22UsoGraphTextTreeParserE, 
                       __ZTIN4uaap11DateHandlerE, __ZTIN4uaap11TimeHandlerE, __ZTIN4uaap15DateSpanHandlerE, 
                       __ZTIN4uaap15DateTimeHandlerE, __ZTIN4uaap15TimeSpanHandlerE, 
                       __ZTIN4uaap19DateDurationHandlerE, __ZTIN4uaap19TimeDurationHandlerE, 
                       __ZTSN10global_ner12post_process12NumberEntityE, __ZTSN10global_ner12post_process13AppNameEntityE, 
                       __ZTSN10global_ner12post_process14CurrencyEntityE, __ZTSN10global_ner12post_process17MeasurementEntityE, 
                       __ZTSN10global_ner12post_process17OtherPersonEntityE, __ZTSN10global_ner12post_process17PhoneNumberEntityE, 
                       __ZTSN10global_ner12post_process18BusinessNameEntityE, __ZTSN10global_ner12post_process18EmailAddressEntityE, 
                       __ZTSN10global_ner12post_process20GeographicAreaEntityE, __ZTSN10global_ner12post_process21MeasurementUnitEntityE, 
                       __ZTSN10global_ner12post_process22PersonalLocationEntityE, 
                       __ZTSN10global_ner12post_process26MeasurementComponentEntityE, 
                       __ZTSN10global_ner9inference16NerEspressoModelE, __ZTSN16nl_featurization14FeaturizerImplE, 
                       __ZTSN27nlv4_inference_orchestrator13span_matching36RelativeThresholdMatchingSpansFilterE, 
                       __ZTSN4snlp6common14text_uso_graph16ActionListParserE, __ZTSN4snlp6common14text_uso_graph17UDATextTreeParserE, 
                       __ZTSN4snlp6common14text_uso_graph19SpacedTextTreeLexerE, 
                       __ZTSN4snlp6common14text_uso_graph20ExactMatchComparatorE, 
                       __ZTSN4snlp6common14text_uso_graph22UsoGraphTextTreeParserE, 
                       __ZTSN4uaap11DateHandlerE, __ZTSN4uaap11TimeHandlerE, __ZTSN4uaap15DateSpanHandlerE, 
                       __ZTSN4uaap15DateTimeHandlerE, __ZTSN4uaap15TimeSpanHandlerE, 
                       __ZTSN4uaap19DateDurationHandlerE, __ZTSN4uaap19TimeDurationHandlerE, 
                       __ZTVN10global_ner12post_process12NumberEntityE, __ZTVN10global_ner12post_process13AppNameEntityE, 
                       __ZTVN10global_ner12post_process14CurrencyEntityE, __ZTVN10global_ner12post_process17MeasurementEntityE, 
                       __ZTVN10global_ner12post_process17OtherPersonEntityE, __ZTVN10global_ner12post_process17PhoneNumberEntityE, 
                       __ZTVN10global_ner12post_process18BusinessNameEntityE, __ZTVN10global_ner12post_process18EmailAddressEntityE, 
                       __ZTVN10global_ner12post_process20GeographicAreaEntityE, __ZTVN10global_ner12post_process21MeasurementUnitEntityE, 
                       __ZTVN10global_ner12post_process22PersonalLocationEntityE, 
                       __ZTVN10global_ner12post_process26MeasurementComponentEntityE, 
                       __ZTVN10global_ner9inference16NerEspressoModelE, __ZTVN16nl_featurization14FeaturizerImplE, 
                       __ZTVN27nlv4_inference_orchestrator13span_matching36RelativeThresholdMatchingSpansFilterE, 
                       __ZTVN4snlp6common14text_uso_graph16ActionListParserE, __ZTVN4snlp6common14text_uso_graph17UDATextTreeParserE, 
                       __ZTVN4snlp6common14text_uso_graph19SpacedTextTreeLexerE, 
                       __ZTVN4snlp6common14text_uso_graph20ExactMatchComparatorE, 
                       __ZTVN4snlp6common14text_uso_graph22UsoGraphTextTreeParserE, 
                       __ZTVN4uaap11DateHandlerE, __ZTVN4uaap11TimeHandlerE, __ZTVN4uaap15DateSpanHandlerE, 
                       __ZTVN4uaap15DateTimeHandlerE, __ZTVN4uaap15TimeSpanHandlerE, 
                       __ZTVN4uaap19DateDurationHandlerE, __ZTVN4uaap19TimeDurationHandlerE, 
                       _analyzer, _analyzerFactory, _configFilename, _kHigherLevelEntitySeparator, 
                       _kIndexMarker, _kUPErrorDomain, _matchingSpansFilter, _morphunLocale, 
                       _versionFilename ]
    objc-classes:    [ SNLPNaturalLanguageParser, SNLPServerNLClassifier, UPCalibration, 
                       UPCalibrationModel, UPContextualizer, UPContextualizerInput, 
                       UPContextualizerStrategyCancel, UPContextualizerStrategyOffer, 
                       UPContextualizerStrategyOptions, UPContextualizerStrategyPrompt, 
                       UPContextualizerUtilities, UPDataDetectorSpan, UPDataDetectors, 
                       UPDetectedData, UPDialogActConverter, UPDialogActOffer, UPDialogActOptions, 
                       UPDialogActPrompt, UPEmbedding, UPEntityWithValue, UPIntentWithSingleEntity, 
                       UPLoadedModelConfiguration, UPModelBundle, UPModelConfiguration, 
                       UPModelIdentifier, UPPLAlternativePrediction, UPPLChunkPrediction, 
                       UPPLEmbeddingTensor, UPPLMatchedSpan, UPPLNerHandler, UPPLNerRequest, 
                       UPPLNerResponse, UPPLPostProcessor, UPPLToken, UPPLTokenization, 
                       UPParserModel, UPPlumSpan, UPPreprocessor, UPPreprocessorOutput, 
                       UPQuery, UPQueryRunner, UPResult, UPResultCandidate, UPResultCandidateEntity, 
                       UPResultIntermediateNode, UPResultLeafNode, UPResultNode, 
                       UPResultRootNode, UPResultStructuredDataNode, UPSpan, UPSystemConfiguration, 
                       UPToken, UPTokenizer, UPUsoSerializer, UPUtilities ]
    weak-symbols:    [ __ZGVZN27nlv4_inference_orchestrator5trees18buildUserDialogActERKNS0_8TreeNodeENSt3__110shared_ptrIN4siri8ontology15UsoVocabManagerEEERKNS4_6vectorIN15sirinluinternal12MatchingSpanENS4_9allocatorISC_EEEEE21usoGraphMessageWriter, 
                       __ZN10global_ner15data_structures24NerAlternativePrediction11smallerThanERKS1_S3_, 
                       __ZN10global_ner16GlobalNerHandler34PADDING_TOKEN_WORD_EMBEDDING_VALUEE, 
                       __ZN10global_ner5utils11NerTagUtils5O_TAGE, __ZN5boost6random23mersenne_twister_engineIjLm32ELm624ELm397ELm31ELj2567483615ELm11ELj4294967295ELm7ELj2636928640ELm15ELj4022730752ELm18ELj1812433253EE12default_seedE, 
                       __ZN9rapidjson16GenericStringRefIcE11emptyStringE, __ZNK9rapidjson11ParseResult7IsErrorEv, 
                       __ZNSt3__116__variant_detail12__visitation6__base12__dispatcherIJLm0ELm0EEE10__dispatchIOZNS0_12__assignmentINS0_8__traitsIJijfbNS_12basic_stringIcNS_11char_traitsIcEENS_9allocatorIcEEEEEEEE16__generic_assignIRKNS0_17__copy_assignmentISE_LNS0_6_TraitE1EEEEEvOT_EUlRSM_OT0_E_JRNS0_6__baseILSI_1EJijfbSD_EEERKSU_EEEDcSM_DpT0_, 
                       __ZNSt3__116__variant_detail12__visitation6__base12__dispatcherIJLm0ELm0EEE10__dispatchIOZNS0_6__ctorINS0_8__traitsIJijfbNS_12basic_stringIcNS_11char_traitsIcEENS_9allocatorIcEEEEEEEE19__generic_constructINS0_18__move_constructorISE_LNS0_6_TraitE1EEEEEvRSF_OT_EUlRSL_OT0_E_JRNS0_6__baseILSI_1EJijfbSD_EEEOST_EEEDcSL_DpT0_, 
                       __ZNSt3__116__variant_detail12__visitation6__base12__dispatcherIJLm0ELm0EEE10__dispatchIOZNS0_6__ctorINS0_8__traitsIJijfbNS_12basic_stringIcNS_11char_traitsIcEENS_9allocatorIcEEEEEEEE19__generic_constructIRKNS0_18__copy_constructorISE_LNS0_6_TraitE1EEEEEvRSF_OT_EUlRSN_OT0_E_JRNS0_6__baseILSI_1EJijfbSD_EEERKSV_EEEDcSN_DpT0_, 
                       __ZNSt3__116__variant_detail12__visitation6__base12__dispatcherIJLm1ELm1EEE10__dispatchIOZNS0_12__assignmentINS0_8__traitsIJijfbNS_12basic_stringIcNS_11char_traitsIcEENS_9allocatorIcEEEEEEEE16__generic_assignIRKNS0_17__copy_assignmentISE_LNS0_6_TraitE1EEEEEvOT_EUlRSM_OT0_E_JRNS0_6__baseILSI_1EJijfbSD_EEERKSU_EEEDcSM_DpT0_, 
                       __ZNSt3__116__variant_detail12__visitation6__base12__dispatcherIJLm1ELm1EEE10__dispatchIOZNS0_6__ctorINS0_8__traitsIJijfbNS_12basic_stringIcNS_11char_traitsIcEENS_9allocatorIcEEEEEEEE19__generic_constructINS0_18__move_constructorISE_LNS0_6_TraitE1EEEEEvRSF_OT_EUlRSL_OT0_E_JRNS0_6__baseILSI_1EJijfbSD_EEEOST_EEEDcSL_DpT0_, 
                       __ZNSt3__116__variant_detail12__visitation6__base12__dispatcherIJLm1ELm1EEE10__dispatchIOZNS0_6__ctorINS0_8__traitsIJijfbNS_12basic_stringIcNS_11char_traitsIcEENS_9allocatorIcEEEEEEEE19__generic_constructIRKNS0_18__copy_constructorISE_LNS0_6_TraitE1EEEEEvRSF_OT_EUlRSN_OT0_E_JRNS0_6__baseILSI_1EJijfbSD_EEERKSV_EEEDcSN_DpT0_, 
                       __ZNSt3__116__variant_detail12__visitation6__base12__dispatcherIJLm2ELm2EEE10__dispatchIOZNS0_12__assignmentINS0_8__traitsIJijfbNS_12basic_stringIcNS_11char_traitsIcEENS_9allocatorIcEEEEEEEE16__generic_assignIRKNS0_17__copy_assignmentISE_LNS0_6_TraitE1EEEEEvOT_EUlRSM_OT0_E_JRNS0_6__baseILSI_1EJijfbSD_EEERKSU_EEEDcSM_DpT0_, 
                       __ZNSt3__116__variant_detail12__visitation6__base12__dispatcherIJLm2ELm2EEE10__dispatchIOZNS0_6__ctorINS0_8__traitsIJijfbNS_12basic_stringIcNS_11char_traitsIcEENS_9allocatorIcEEEEEEEE19__generic_constructINS0_18__move_constructorISE_LNS0_6_TraitE1EEEEEvRSF_OT_EUlRSL_OT0_E_JRNS0_6__baseILSI_1EJijfbSD_EEEOST_EEEDcSL_DpT0_, 
                       __ZNSt3__116__variant_detail12__visitation6__base12__dispatcherIJLm2ELm2EEE10__dispatchIOZNS0_6__ctorINS0_8__traitsIJijfbNS_12basic_stringIcNS_11char_traitsIcEENS_9allocatorIcEEEEEEEE19__generic_constructIRKNS0_18__copy_constructorISE_LNS0_6_TraitE1EEEEEvRSF_OT_EUlRSN_OT0_E_JRNS0_6__baseILSI_1EJijfbSD_EEERKSV_EEEDcSN_DpT0_, 
                       __ZNSt3__116__variant_detail12__visitation6__base12__dispatcherIJLm3ELm3EEE10__dispatchIOZNS0_12__assignmentINS0_8__traitsIJijfbNS_12basic_stringIcNS_11char_traitsIcEENS_9allocatorIcEEEEEEEE16__generic_assignIRKNS0_17__copy_assignmentISE_LNS0_6_TraitE1EEEEEvOT_EUlRSM_OT0_E_JRNS0_6__baseILSI_1EJijfbSD_EEERKSU_EEEDcSM_DpT0_, 
                       __ZNSt3__116__variant_detail12__visitation6__base12__dispatcherIJLm3ELm3EEE10__dispatchIOZNS0_6__ctorINS0_8__traitsIJijfbNS_12basic_stringIcNS_11char_traitsIcEENS_9allocatorIcEEEEEEEE19__generic_constructINS0_18__move_constructorISE_LNS0_6_TraitE1EEEEEvRSF_OT_EUlRSL_OT0_E_JRNS0_6__baseILSI_1EJijfbSD_EEEOST_EEEDcSL_DpT0_, 
                       __ZNSt3__116__variant_detail12__visitation6__base12__dispatcherIJLm3ELm3EEE10__dispatchIOZNS0_6__ctorINS0_8__traitsIJijfbNS_12basic_stringIcNS_11char_traitsIcEENS_9allocatorIcEEEEEEEE19__generic_constructIRKNS0_18__copy_constructorISE_LNS0_6_TraitE1EEEEEvRSF_OT_EUlRSN_OT0_E_JRNS0_6__baseILSI_1EJijfbSD_EEERKSV_EEEDcSN_DpT0_, 
                       __ZNSt3__116__variant_detail12__visitation6__base12__dispatcherIJLm4ELm4EEE10__dispatchIOZNS0_12__assignmentINS0_8__traitsIJijfbNS_12basic_stringIcNS_11char_traitsIcEENS_9allocatorIcEEEEEEEE16__generic_assignIRKNS0_17__copy_assignmentISE_LNS0_6_TraitE1EEEEEvOT_EUlRSM_OT0_E_JRNS0_6__baseILSI_1EJijfbSD_EEERKSU_EEEDcSM_DpT0_, 
                       __ZNSt3__116__variant_detail12__visitation6__base12__dispatcherIJLm4ELm4EEE10__dispatchIOZNS0_6__ctorINS0_8__traitsIJijfbNS_12basic_stringIcNS_11char_traitsIcEENS_9allocatorIcEEEEEEEE19__generic_constructINS0_18__move_constructorISE_LNS0_6_TraitE1EEEEEvRSF_OT_EUlRSL_OT0_E_JRNS0_6__baseILSI_1EJijfbSD_EEEOST_EEEDcSL_DpT0_, 
                       __ZNSt3__116__variant_detail12__visitation6__base12__dispatcherIJLm4ELm4EEE10__dispatchIOZNS0_6__ctorINS0_8__traitsIJijfbNS_12basic_stringIcNS_11char_traitsIcEENS_9allocatorIcEEEEEEEE19__generic_constructIRKNS0_18__copy_constructorISE_LNS0_6_TraitE1EEEEEvRSF_OT_EUlRSN_OT0_E_JRNS0_6__baseILSI_1EJijfbSD_EEERKSV_EEEDcSN_DpT0_, 
                       __ZZN27nlv4_inference_orchestrator5trees18buildUserDialogActERKNS0_8TreeNodeENSt3__110shared_ptrIN4siri8ontology15UsoVocabManagerEEERKNS4_6vectorIN15sirinluinternal12MatchingSpanENS4_9allocatorISC_EEEEE21usoGraphMessageWriter, 
                       __ZZN5boost5uuids6detail8seed_rng25sha1_random_digest_state_EvE5state ]
  - targets:         [ arm64e-macos, arm64-macos ]
    weak-symbols:    [ __ZNSt3__111char_traitsIcE2eqEcc ]
...
