---
archs:           [ x86_64 ]
platform:        macosx
install-name:    /System/Library/PrivateFrameworks/PhysicsKit.framework/Versions/A/PhysicsKit
exports:         
  - archs:           [ x86_64 ]
    symbols:         [ _PKArrayFromB2ChainShape, _PKArrayFromB2PolygonShape, 
                       _PKArrayFromCGPath, _PKArrayFromPKPath, _PKCGPathCreateFromArray, 
                       _PKGet_INV_PTM_RATIO, _PKGet_PTM_RATIO, _PKPathCreateFromCGPath, 
                       _PKPathCreateFromCGPathWithOptions, _PKPathCreateFromSimplifiedCGPath, 
                       _PKSet_PTM_Ratio, __ZN10PKCLineSeg11clipAgainstERKS_, 
                       __ZN10PKCLineSeg13mergeColinearERKS_, __ZN10PKCLineSeg19updateRelativeThetaEdd, 
                       __ZN10PKCLineSeg5splitERS_RPS_S2_, __ZN10PKCLineSeg9intersectERKS_, 
                       __ZN12QuadTreeNode3addEffa, __ZN12QuadTreeNode4findEffRPS_, 
                       __ZN12QuadTreeNode7addLineEffffa, __ZN12QuadTreeNodeC1Efffff, 
                       __ZN12QuadTreeNodeC2Efffff, __ZN12QuadTreeNodeD1Ev, 
                       __ZN12QuadTreeNodeD2Ev, __ZN6PKPath10createPathEv, 
                       __ZN6PKPath13computeLengthEv, __ZN6PKPathC1EPK6CGPath, 
                       __ZN6PKPathC2EPK6CGPath, __ZN7PKCGrid11setGridSizeEiii, 
                       __ZN7PKCGrid12calcLevelSetEi, __ZN7PKCGrid12calcQuadTreeERK6CGRect, 
                       __ZN7PKCGrid12tagPixelDataEfPKhii, __ZN7PKCGrid13setVectorDataEPKhii, 
                       __ZN7PKCGrid20isGridRegionOccupiedEffff, __ZN7PKCGrid28physicsBodyFromMarchingCubesERK6CGRect, 
                       __ZN7PKCGrid30physicsBodyFromSmoothedOutlineEfRK6CGSize, 
                       __ZN7PKCGrid37pathFromOutlineWithSmoothingThresholdEfffff, 
                       __ZN7PKCGrid7setDataEPKhij, __ZN7PKCGrid8traverseERiS0_i, 
                       __ZN7PKCGrid9labelGridEv, __ZN7PKCGrid9printGridEv, 
                       __ZN7PKCGridC1Ev, __ZN7PKCGridC2Ev, __ZN8QuadTree12intersectRayEffffRP12QuadTreeNode, 
                       __ZN8QuadTree14intersectPointEffRP12QuadTreeNode, 
                       __ZN8QuadTree15intersectVectorEffffRP12QuadTreeNode, 
                       __ZN8QuadTree3addEffa, __ZN8QuadTree4findEffRP12QuadTreeNode, 
                       __ZN8QuadTree6boundsERfS0_S0_S0_, __ZN8QuadTree7addLineEffffa, 
                       __ZN8QuadTreeC1Efffff, __ZN8QuadTreeC2Efffff, __ZN8QuadTreeD1Ev, 
                       __ZN8QuadTreeD2Ev, __ZN9PKCAether15removeAllFieldsEv, 
                       __ZN9PKCAether9EvaluatorC1EPKS_, __ZN9PKCAether9EvaluatorC2EPKS_, 
                       __ZN9PKCAetherC1Ev, __ZN9PKCAetherC2Ev, __ZN9PKCAetherD1Ev, 
                       __ZN9PKCAetherD2Ev, __ZNK12QuadTreeNode19intersectVectorSelfEffff, 
                       __ZNK12QuadTreeNode9leafCountEv, __ZNK8QuadTree9leafCountEv, 
                       __ZNK9PKCAether10fieldCountEv, __ZNK9PKCAether9Evaluator12evalVelocityEjDv3_fS1_ffd, 
                       __ZNK9PKCAether9Evaluator14evalFieldsVec2EP17PKFieldSampleVec2i, 
                       __ZNK9PKCAether9Evaluator9evalForceEjfDv3_fS1_ffd, 
                       _fieldRepresentedObject, _getRegionOnField, _setRegionOnField, 
                       _setRepresentedObjectOnField, _snoise1, _snoise2, 
                       _snoise3, _snoise4, _srdnoise2, _srdnoise2_sincos, 
                       _srdnoise3, _srdnoise3_sincos, _srdnoise3_sincos_vector ]
    objc-classes:    [ _PKPhysicsBody, _PKPhysicsContact, _PKPhysicsField, 
                       _PKPhysicsFieldCustomBlock, _PKPhysicsFieldDrag, 
                       _PKPhysicsFieldElectric, _PKPhysicsFieldLinearGravity, 
                       _PKPhysicsFieldMagnetic, _PKPhysicsFieldNoise, _PKPhysicsFieldRadialGravity, 
                       _PKPhysicsFieldSpring, _PKPhysicsFieldTurbulence, 
                       _PKPhysicsFieldVelocity, _PKPhysicsFieldVortex, 
                       _PKPhysicsGrid, _PKPhysicsJoint, _PKPhysicsJointDistance, 
                       _PKPhysicsJointPrismatic, _PKPhysicsJointRevolute, 
                       _PKPhysicsJointRope, _PKPhysicsJointWeld, _PKPhysicsWorld, 
                       _PKRegion ]
    objc-ivars:      [ _PKPhysicsBody._edgeRadius, _PKPhysicsBody._mask, 
                       _PKPhysicsBody._p0, _PKPhysicsBody._p1, _PKPhysicsBody._pathPtr, 
                       _PKPhysicsBody._quadTree, _PKPhysicsBody._radius, 
                       _PKPhysicsBody._shapeType, _PKPhysicsBody._size, 
                       _PKPhysicsField._field, _PKPhysicsField._position, 
                       _PKPhysicsField._region, _PKPhysicsField._rotation, 
                       _PKPhysicsField._scale, _PKPhysicsFieldCustomBlock._batchBlock, 
                       _PKPhysicsFieldCustomBlock._block, _PKPhysicsWorld._accumulatedDt, 
                       _PKPhysicsWorld._bodies, _PKPhysicsWorld._contactListener, 
                       _PKPhysicsWorld._doSleep, _PKPhysicsWorld._gravity, 
                       _PKPhysicsWorld._joints, _PKPhysicsWorld._postStepBlocks, 
                       _PKPhysicsWorld._speed, _PKPhysicsWorld._world, 
                       _PKPhysicsWorld.drawPacket ]
...
