--- !tapi-tbd
tbd-version:     4
targets:         [ x86_64-macos, x86_64-maccatalyst, arm64-macos, arm64-maccatalyst, 
                   arm64e-macos, arm64e-maccatalyst ]
uuids:
  - target:          x86_64-macos
    value:           09D991D4-E1CC-3E84-8497-7FD8F2ED3114
  - target:          x86_64-maccatalyst
    value:           09D991D4-E1CC-3E84-8497-7FD8F2ED3114
  - target:          arm64-macos
    value:           00000000-0000-0000-0000-000000000000
  - target:          arm64-maccatalyst
    value:           00000000-0000-0000-0000-000000000000
  - target:          arm64e-macos
    value:           6D3EC3C4-107E-3999-94D1-D92A3A752C8C
  - target:          arm64e-maccatalyst
    value:           6D3EC3C4-107E-3999-94D1-D92A3A752C8C
install-name:    '/System/Library/PrivateFrameworks/VoiceTrigger.framework/Versions/A/VoiceTrigger'
exports:
  - targets:         [ x86_64-maccatalyst, x86_64-macos ]
    symbols:         [ __ZN7NString7vprintfEPKcP13__va_list_tag ]
    weak-symbols:    [ __ZTI10NAutoArrayI9NPhoneHMME, __ZTI10NAutoArrayIjE, __ZTI10NAutoArrayItE, 
                       __ZTI10NBaseLayer, __ZTI10NClipLayer, __ZTI10NLSTMLayer, __ZTI11NDEPhoneHMM, 
                       __ZTI11NLinkedListI6NArrayIN14NResizingQueueI6NFrameE8NElementEEE, 
                       __ZTI11NLinkedListI6NArrayIfEE, __ZTI11NLinkedListI7NStringE, 
                       __ZTI11NLinkedListIN4NMapI7NString14NConfigSectionE8HashItemEE, 
                       __ZTI11NLinkedListIN4NMapI7NStringS1_E8HashItemEE, __ZTI11NLinkedListIN4NMapI7NStringjE8HashItemEE, 
                       __ZTI11NStringHashIjE, __ZTI12NMatrixLayer, __ZTI12NOffsetLayer, 
                       __ZTI13NDistribution, __ZTI13NSmartPointerI10NBaseLayerE, 
                       __ZTI13NSmartPointerI9NBaseFileE, __ZTI14N8BitLSTMLayer, __ZTI14NResizingQueueI6NFrameE, 
                       __ZTI15NSigmoidalLayer, __ZTI16N8BitMatrixLayer, __ZTI16NDEPhoneHMMArray, 
                       __ZTI16NLogSoftmaxLayer, __ZTI17NSigmoidOnlyLayer, __ZTI17NVectorScaleLayer, 
                       __ZTI18NDummyDistribution, __ZTI18NFixSigmoidalLayer, __ZTI19N8BitSigmoidalLayer, 
                       __ZTI19NBlockDiagonalLayer, __ZTI19NFixLogSoftmaxLayer, __ZTI19NFixMatrixBaseLayer, 
                       __ZTI19NNormalizationLayer, __ZTI19NShiftRegisterLayer, __ZTI20N8BitLogSoftmaxLayer, 
                       __ZTI20NLogSoftmaxOnlyLayer, __ZTI21NSubVectorSelectLayer, 
                       __ZTI22NFastFixedDistributionIaijhE, __ZTI22NFastFixedDistributionIaijtE, 
                       __ZTI22NFastFixedDistributionIaithE, __ZTI22NFastFixedDistributionIaittE, 
                       __ZTI22NFastFixedDistributionIsijhE, __ZTI22NFastFixedDistributionIsithE, 
                       __ZTI22NSigned8BitMatrixLayer, __ZTI23NFixedDummyDistribution, 
                       __ZTI24NSigned8BitQuantizeLayer, __ZTI27NSigned8BitInput1DConvLayer, 
                       __ZTI4NMapI7NString14NConfigSectionE, __ZTI4NMapI7NStringS0_E, 
                       __ZTI4NMapI7NStringjE, __ZTI5NHashIN4NMapI7NString14NConfigSectionE8HashItemEE, 
                       __ZTI5NHashIN4NMapI7NStringS1_E8HashItemEE, __ZTI5NHashIN4NMapI7NStringjE8HashItemEE, 
                       __ZTI6NArrayI11NDEHMMStateE, __ZTI6NArrayI11NDEPhoneHMME, 
                       __ZTI6NArrayI11NLRHMMModelE, __ZTI6NArrayI11NLinkedListIN4NMapI7NString14NConfigSectionE8HashItemEEE, 
                       __ZTI6NArrayI11NLinkedListIN4NMapI7NStringS2_E8HashItemEEE, 
                       __ZTI6NArrayI11NLinkedListIN4NMapI7NStringjE8HashItemEEE, 
                       __ZTI6NArrayI16NGaussianMixtureE, __ZTI6NArrayI17NLRHMMStateTokensE, 
                       __ZTI6NArrayI6NFrameE, __ZTI6NArrayI6NLayerE, __ZTI6NArrayI7NStringE, 
                       __ZTI6NArrayI9NGaussianE, __ZTI6NArrayI9NHMMStateE, __ZTI6NArrayI9NPhoneHMME, 
                       __ZTI6NArrayIN14NResizingQueueI6NFrameE8NElementEE, __ZTI6NArrayIPKjE, 
                       __ZTI6NArrayIPKtE, __ZTI6NArrayIPvE, __ZTI6NArrayIS_IbEE, 
                       __ZTI6NArrayIS_IfEE, __ZTI6NArrayIbE, __ZTI6NArrayIfE, __ZTI6NArrayIiE, 
                       __ZTI6NArrayIjE, __ZTI6NArrayIsE, __ZTI6NArrayItE, __ZTI6NFrame, 
                       __ZTI6NLayer, __ZTI8N2DArrayIbE, __ZTI8N2DArrayIfE, __ZTI8NFilePtr, 
                       __ZTI9NBaseFile, __ZTI9NPhoneHMM, __ZTIN11NLinkedListI6NArrayIN14NResizingQueueI6NFrameE8NElementEEE8NElementE, 
                       __ZTIN11NLinkedListI6NArrayIfEE8NElementE, __ZTIN11NLinkedListI7NStringE8NElementE, 
                       __ZTIN11NLinkedListIN4NMapI7NString14NConfigSectionE8HashItemEE8NElementE, 
                       __ZTIN11NLinkedListIN4NMapI7NStringS1_E8HashItemEE8NElementE, 
                       __ZTIN11NLinkedListIN4NMapI7NStringjE8HashItemEE8NElementE, 
                       __ZTIN14NResizingQueueI6NFrameE8NElementE, __ZTINSt3__113basic_filebufIcNS_11char_traitsIcEEEE, 
                       __ZTINSt3__113basic_fstreamIcNS_11char_traitsIcEEEE, __ZTS10NAutoArrayI9NPhoneHMME, 
                       __ZTS10NAutoArrayIjE, __ZTS10NAutoArrayItE, __ZTS10NBaseLayer, 
                       __ZTS10NClipLayer, __ZTS10NLSTMLayer, __ZTS11NDEPhoneHMM, 
                       __ZTS11NLinkedListI6NArrayIN14NResizingQueueI6NFrameE8NElementEEE, 
                       __ZTS11NLinkedListI6NArrayIfEE, __ZTS11NLinkedListI7NStringE, 
                       __ZTS11NLinkedListIN4NMapI7NString14NConfigSectionE8HashItemEE, 
                       __ZTS11NLinkedListIN4NMapI7NStringS1_E8HashItemEE, __ZTS11NLinkedListIN4NMapI7NStringjE8HashItemEE, 
                       __ZTS11NStringHashIjE, __ZTS12NMatrixLayer, __ZTS12NOffsetLayer, 
                       __ZTS13NDistribution, __ZTS13NSmartPointerI10NBaseLayerE, 
                       __ZTS13NSmartPointerI9NBaseFileE, __ZTS14N8BitLSTMLayer, __ZTS14NResizingQueueI6NFrameE, 
                       __ZTS15NSigmoidalLayer, __ZTS16N8BitMatrixLayer, __ZTS16NDEPhoneHMMArray, 
                       __ZTS16NLogSoftmaxLayer, __ZTS17NSigmoidOnlyLayer, __ZTS17NVectorScaleLayer, 
                       __ZTS18NDummyDistribution, __ZTS18NFixSigmoidalLayer, __ZTS19N8BitSigmoidalLayer, 
                       __ZTS19NBlockDiagonalLayer, __ZTS19NFixLogSoftmaxLayer, __ZTS19NFixMatrixBaseLayer, 
                       __ZTS19NNormalizationLayer, __ZTS19NShiftRegisterLayer, __ZTS20N8BitLogSoftmaxLayer, 
                       __ZTS20NLogSoftmaxOnlyLayer, __ZTS21NSubVectorSelectLayer, 
                       __ZTS22NFastFixedDistributionIaijhE, __ZTS22NFastFixedDistributionIaijtE, 
                       __ZTS22NFastFixedDistributionIaithE, __ZTS22NFastFixedDistributionIaittE, 
                       __ZTS22NFastFixedDistributionIsijhE, __ZTS22NFastFixedDistributionIsithE, 
                       __ZTS22NSigned8BitMatrixLayer, __ZTS23NFixedDummyDistribution, 
                       __ZTS24NSigned8BitQuantizeLayer, __ZTS27NSigned8BitInput1DConvLayer, 
                       __ZTS4NMapI7NString14NConfigSectionE, __ZTS4NMapI7NStringS0_E, 
                       __ZTS4NMapI7NStringjE, __ZTS5NHashIN4NMapI7NString14NConfigSectionE8HashItemEE, 
                       __ZTS5NHashIN4NMapI7NStringS1_E8HashItemEE, __ZTS5NHashIN4NMapI7NStringjE8HashItemEE, 
                       __ZTS6NArrayI11NDEHMMStateE, __ZTS6NArrayI11NDEPhoneHMME, 
                       __ZTS6NArrayI11NLRHMMModelE, __ZTS6NArrayI11NLinkedListIN4NMapI7NString14NConfigSectionE8HashItemEEE, 
                       __ZTS6NArrayI11NLinkedListIN4NMapI7NStringS2_E8HashItemEEE, 
                       __ZTS6NArrayI11NLinkedListIN4NMapI7NStringjE8HashItemEEE, 
                       __ZTS6NArrayI16NGaussianMixtureE, __ZTS6NArrayI17NLRHMMStateTokensE, 
                       __ZTS6NArrayI6NFrameE, __ZTS6NArrayI6NLayerE, __ZTS6NArrayI7NStringE, 
                       __ZTS6NArrayI9NGaussianE, __ZTS6NArrayI9NHMMStateE, __ZTS6NArrayI9NPhoneHMME, 
                       __ZTS6NArrayIN14NResizingQueueI6NFrameE8NElementEE, __ZTS6NArrayIPKjE, 
                       __ZTS6NArrayIPKtE, __ZTS6NArrayIPvE, __ZTS6NArrayIS_IbEE, 
                       __ZTS6NArrayIS_IfEE, __ZTS6NArrayIbE, __ZTS6NArrayIfE, __ZTS6NArrayIiE, 
                       __ZTS6NArrayIjE, __ZTS6NArrayIsE, __ZTS6NArrayItE, __ZTS6NFrame, 
                       __ZTS6NLayer, __ZTS8N2DArrayIbE, __ZTS8N2DArrayIfE, __ZTS8NFilePtr, 
                       __ZTS9NBaseFile, __ZTS9NPhoneHMM, __ZTSN11NLinkedListI6NArrayIN14NResizingQueueI6NFrameE8NElementEEE8NElementE, 
                       __ZTSN11NLinkedListI6NArrayIfEE8NElementE, __ZTSN11NLinkedListI7NStringE8NElementE, 
                       __ZTSN11NLinkedListIN4NMapI7NString14NConfigSectionE8HashItemEE8NElementE, 
                       __ZTSN11NLinkedListIN4NMapI7NStringS1_E8HashItemEE8NElementE, 
                       __ZTSN11NLinkedListIN4NMapI7NStringjE8HashItemEE8NElementE, 
                       __ZTSN14NResizingQueueI6NFrameE8NElementE, __ZTSNSt3__113basic_filebufIcNS_11char_traitsIcEEEE, 
                       __ZTSNSt3__113basic_fstreamIcNS_11char_traitsIcEEEE ]
  - targets:         [ x86_64-maccatalyst, x86_64-macos, arm64e-maccatalyst, arm64e-macos, 
                       arm64-macos, arm64-maccatalyst ]
    symbols:         [ _NDBlobBuildBlob, _NDBlobBuildDefaultBlob, _NDBlobGetBlobSize, 
                       _NDBlobGetDefaultBlobSize, _VTAudioLogDirectory, _VTInternalPreferencesSynchronize, 
                       _VTLogContextFacilityVoiceTrigger, _VTLogDirectory, _VTLogInitIfNeeded, 
                       _VTLoggingSubsystem, _VTMakeTimestampedAudioLogFilenameWithPrefixAndSuffix, 
                       __VTNotBackedupPreferencesSetValueForKey, __VTNotBackedupPreferencesSynchronize, 
                       __VTNotBackedupPreferencesValueForKey, __VTPreferencesSetValueForKey, 
                       __VTPreferencesValueForKey, __VTReloadVoiceTrigger, __Z10gNextPrimeRKj, 
                       __Z11_nde_createPKvm, __Z12nextPowerOf2RKi, __Z13base64_decodeRK7NStringb, 
                       __Z13base64_encodeRK7NString, __Z18sanity_check_modelPK15NDEConfigHeaderm, 
                       __Z20read_gaussian_modelsRK7NString, __Z8gIsPrimeRKj, __Z9initndlibv, 
                       __ZN10NScrambler10unscrambleERK7NString, __ZN10NScrambler7convertERK7NString, 
                       __ZN10NScrambler8scrambleERK7NString, __ZN10NScrambler9keystreamEv, 
                       __ZN10NScramblerC1E7NString, __ZN10NScramblerC2E7NString, 
                       __ZN11AccelCosine10lifterCoefEv, __ZN11AccelCosine4initERKjS1_S1_, 
                       __ZN11AccelCosine7dctCoefEv, __ZN11AccelWindow11initHammingEv, 
                       __ZN11AccelWindow4initERKjRKbS3_, __ZN11AccelWindow5applyER6NArrayIfE, 
                       __ZN11AccelWindow7rescaleER6NArrayIfE, __ZN11BlobBuilder13buildDistBlobERK14NConfigSection, 
                       __ZN11BlobBuilder13serializeHeapER7NString, __ZN11BlobBuilder15buildNormConfigERK14NConfigSection, 
                       __ZN11BlobBuilder15getHmmArraySizeEv, __ZN11BlobBuilder16buildConfgHeaderEv, 
                       __ZN11BlobBuilder16serializePaddingEjR7NString, __ZN11BlobBuilder17buildAcAnalConfigERK14NConfigSection, 
                       __ZN11BlobBuilder17buildDetectConfigERK14NConfigSectionS2_S2_, 
                       __ZN11BlobBuilder17getNormConfigSizeEv, __ZN11BlobBuilder17serializeDistBlobER7NString, 
                       __ZN11BlobBuilder17serializeHmmArrayER7NString, __ZN11BlobBuilder18analysisTargetKindERK14NConfigSectionR15NDEAcAnalConfig, 
                       __ZN11BlobBuilder18buildPhoneHmmArrayERK14NConfigSection, 
                       __ZN11BlobBuilder19getAcAnalConfigSizeEv, __ZN11BlobBuilder19getConfigHeaderSizeEv, 
                       __ZN11BlobBuilder19getDistributionSizeEv, __ZN11BlobBuilder19serializeNormConfigER7NString, 
                       __ZN11BlobBuilder21getActualHmmArraySizeEv, __ZN11BlobBuilder21getDetectorConfigSizeEv, 
                       __ZN11BlobBuilder21serializeAcAnalConfigER7NString, __ZN11BlobBuilder21serializeConfigHeaderER7NString, 
                       __ZN11BlobBuilder21serializeDetectConfigER7NString, __ZN11BlobBuilder23sanityCheckAcAnalOptionERK14NConfigSection, 
                       __ZN11BlobBuilder25getActualDistributionSizeEv, __ZN11BlobBuilder5buildERK7NConfigR7NStringb, 
                       __ZN11BlobBuilder9buildBlobERK7NConfigR7NStringb, __ZN11NAutoString8appendToEPKvRKj, 
                       __ZN11NAutoString8assignToEPKvRKj, __ZN11NAutoStringC1ERK7NString, 
                       __ZN11NAutoStringC1ERKS_, __ZN11NAutoStringC1ERKjS1_, __ZN11NAutoStringC1Ev, 
                       __ZN11NAutoStringC2ERK7NString, __ZN11NAutoStringC2ERKS_, 
                       __ZN11NAutoStringC2ERKjS1_, __ZN11NAutoStringC2Ev, __ZN11NAutoStringD0Ev, 
                       __ZN11NAutoStringD1Ev, __ZN11NAutoStringD2Ev, __ZN11NAutoStringaSEPKc, 
                       __ZN11NAutoStringaSERK7NString, __ZN11NAutoStringpLERK7NString, 
                       __ZN11NLRHMMModel4initERK9NPhoneHMMRKiRKf, __ZN11NOffsetFile10readStringEv, 
                       __ZN11NOffsetFile11getPositionEv, __ZN11NOffsetFile11setPositionERKj, 
                       __ZN11NOffsetFile4openERK7NStringS2_RKjS4_, __ZN11NOffsetFile4readERKj, 
                       __ZN11NOffsetFile4readERKjR7NString, __ZN11NOffsetFile4readEv, 
                       __ZN11NOffsetFile8readLineERKcR7NString, __ZN11NOffsetFileC1ERK7NStringS2_RKjS4_, 
                       __ZN11NOffsetFileC1Ev, __ZN11NOffsetFileC2ERK7NStringS2_RKjS4_, 
                       __ZN11NOffsetFileC2Ev, __ZN11NOffsetFileD0Ev, __ZN11NOffsetFileD1Ev, 
                       __ZN11NOffsetFileD2Ev, __ZN11NSATSpeaker10loadOrInitEv, __ZN11NSATSpeaker15writeIfModifiedEv, 
                       __ZN11NSATSpeaker4readEv, __ZN11NSATSpeaker5resetEv, __ZN11NSATSpeaker6insertERK6NArrayIfE, 
                       __ZN11NSATSpeaker6removeERKj, __ZN11NSATSpeaker9configureERKjS1_RKbS3_S3_RKfS1_RK7NStringS8_, 
                       __ZN11NSATSpeakerC1Ev, __ZN11NSATSpeakerC2Ev, __ZN11NSATSpeakerD0Ev, 
                       __ZN11NSATSpeakerD1Ev, __ZN11NSATSpeakerD2Ev, __ZN11TSSATScorer12deleteVectorERKj, 
                       __ZN11TSSATScorer12setModelFileERK7NString, __ZN11TSSATScorer16scoreTransformedEv, 
                       __ZN11TSSATScorer18scoreSpeakerVectorEPKfj, __ZN11TSSATScorer4initERK7NStringS2_RKjRKbS6_S6_RKfS4_S4_S4_, 
                       __ZN11TSSATScorer5resetEv, __ZN11TSSATScorer5scoreEPKfj, __ZN11TSSATScorer6updateEv, 
                       __ZN11TSSATScorerC1Ev, __ZN11TSSATScorerC2Ev, __ZN11TSSATScorerD0Ev, 
                       __ZN11TSSATScorerD1Ev, __ZN11TSSATScorerD2Ev, __ZN12IntNovDetect10clearErrorEv, 
                       __ZN12IntNovDetect10getresultsEv, __ZN12IntNovDetect10initializeEPKcS1_, 
                       __ZN12IntNovDetect10sat_updateEv, __ZN12IntNovDetect11phrasecountEv, 
                       __ZN12IntNovDetect11rescoreInitEv, __ZN12IntNovDetect11sat_analyzeEPKfj, 
                       __ZN12IntNovDetect13getresultsstrEv, __ZN12IntNovDetect13zeroWavePrimeEv, 
                       __ZN12IntNovDetect14getsupervectorEj, __ZN12IntNovDetect14sat_initializeEPKc, 
                       __ZN12IntNovDetect15feedFrameToNormERK6NFrame, __ZN12IntNovDetect15sat_vectorcountEv, 
                       __ZN12IntNovDetect16advanceDetectionEv, __ZN12IntNovDetect16getphraseresultsEj, 
                       __ZN12IntNovDetect16sat_deletevectorEi, __ZN12IntNovDetect16scoresupervectorEPKfj, 
                       __ZN12IntNovDetect19feedFrameToDetectorERK6NFrame, __ZN12IntNovDetect19nextFrameFromAcanalEv, 
                       __ZN12IntNovDetect20sat_getspeakervectorEi, __ZN12IntNovDetect22handleWavedataOverflowEPKvRiRKb, 
                       __ZN12IntNovDetect22sat_analyzetransformedEPKfj, __ZN12IntNovDetect23resetMultiphraseResultsEv, 
                       __ZN12IntNovDetect24updateMultiphraseResultsERK13TSHMMDetectorRKfS4_, 
                       __ZN12IntNovDetect5resetEv, __ZN12IntNovDetect8setErrorERK7NString, 
                       __ZN12IntNovDetect8wavedataEPKsi, __ZN12IntNovDetect9getoptionEPKc, 
                       __ZN12IntNovDetect9resetbestEv, __ZN12IntNovDetect9sat_resetEv, 
                       __ZN12IntNovDetect9wavedatafEPKfi, __ZN12IntNovDetectC1Ev, 
                       __ZN12IntNovDetectC2Ev, __ZN12IntNovDetectD1Ev, __ZN12IntNovDetectD2Ev, 
                       __ZN12NDEFrameProc4initERKjRKfS3_RKb, __ZN12NDEFrameProc5applyEPKfRKj, 
                       __ZN12NDEFrameProcC1Ev, __ZN12NDEFrameProcC2Ev, __ZN12NDynamicMFCC4initERKjS1_S1_, 
                       __ZN12NDynamicMFCC5resetEv, __ZN12NDynamicMFCC6finishEv, __ZN12NDynamicMFCC7isFrameERK6NArrayIfE, 
                       __ZN12NDynamicMFCC8getFrameEv, __ZN12NDynamicMFCC9makeFrameERK6NArrayIfE, 
                       __ZN12NFrameWindow10frameReadyEv, __ZN12NFrameWindow11copyInFrameEPKf, 
                       __ZN12NFrameWindow14endPadOneFrameEv, __ZN12NFrameWindow20setOutputFrameWindowEPf, 
                       __ZN12NFrameWindow20setOutputFrameWindowER6NFrame, __ZN12NFrameWindow5resetEv, 
                       __ZN12NFrameWindow9configureERKjS1_S1_S1_S1_S1_S1_, __ZN12NFrameWindow9endFramesEv, 
                       __ZN12NFrameWindow9pushFrameEPKf, __ZN12NFrameWindow9pushFrameERK6NFrame, 
                       __ZN12NFrameWindowC1Ev, __ZN12NFrameWindowC2Ev, __ZN12NSATImpostor10dotproductERK6NArrayIfEPKfRKj, 
                       __ZN12NSATImpostor12matrixvectorEPKfRK6NArrayIfEPfRKjS8_S8_, 
                       __ZN12NSATImpostor4loadERK7NString, __ZN12NSATImpostor5scoreERK6NArrayIfERfS4_, 
                       __ZN12NSATImpostorC1Ev, __ZN12NSATImpostorC2Ev, __ZN12NSATImpostorD0Ev, 
                       __ZN12NSATImpostorD1Ev, __ZN12NSATImpostorD2Ev, __ZN13AccelWin2MFCC3runER6NArrayIfE, 
                       __ZN13AccelWin2MFCC4initERKjS1_RKbS3_S3_S3_S1_RKfS5_S1_S1_S5_S5_S5_S5_, 
                       __ZN13AccelWin2MFCC8initDataEv, __ZN13AccelWin2MFCC8initProcEv, 
                       __ZN13AccelWin2MFCCC1Ev, __ZN13AccelWin2MFCCC2Ev, __ZN13AccelWin2MFCCD1Ev, 
                       __ZN13AccelWin2MFCCD2Ev, __ZN13IntNovDetectE12processframeEPKfiPbS2_P9NDEResult, 
                       __ZN13IntNovDetectE15feedFrameToNormERK6NFrame, __ZN13IntNovDetectE16setTriggerSignalEPbS0_RKj, 
                       __ZN13IntNovDetectE19feedFrameToDetectorERK6NFrame, __ZN13IntNovDetectE22handleWavedataOverflowEPKsRKi, 
                       __ZN13IntNovDetectE25advanceDetectionAfterFeedEv, __ZN13IntNovDetectE4initEPK20NDEHMMDetectorConfigPK15NDEAcAnalConfigPK19NLocalCepNormConfigPKcRKjSA_SC_, 
                       __ZN13IntNovDetectE5resetEv, __ZN13IntNovDetectE7processEPKsiPbS2_P9NDEResult, 
                       __ZN13IntNovDetectE8wavedataEPKsi, __ZN13IntNovDetectE9framedataEPKfi, 
                       __ZN13IntNovDetectE9getResultEP9NDEResult, __ZN13IntNovDetectE9resetbestEv, 
                       __ZN13IntNovDetectEC1Ev, __ZN13IntNovDetectEC2Ev, __ZN13IntNovDetectED1Ev, 
                       __ZN13IntNovDetectED2Ev, __ZN13NLocalCepNorm10frameReadyEv, 
                       __ZN13NLocalCepNorm14setOutputFrameER6NFrame, __ZN13NLocalCepNorm5resetEv, 
                       __ZN13NLocalCepNorm6resyncEv, __ZN13NLocalCepNorm8getFrameEv, 
                       __ZN13NLocalCepNorm9configureERKjS1_RKf, __ZN13NLocalCepNorm9endFramesEv, 
                       __ZN13NLocalCepNorm9pushFrameERK6NFrame, __ZN13NLocalCepNormC1Ev, 
                       __ZN13NLocalCepNormC2Ev, __ZN13TSHMMDetector14disablePrimingEv, 
                       __ZN13TSHMMDetector16updateStateProbsERK11NLRHMMModelR17NLRHMMStateTokensRKfRKb, 
                       __ZN13TSHMMDetector19skipUntilInitializeERK6NFrame, __ZN13TSHMMDetector23skipUntilProcessedFrameEv, 
                       __ZN13TSHMMDetector4initERK7NStringS2_S2_S2_S2_fjjjji, __ZN13TSHMMDetector5resetEv, 
                       __ZN13TSHMMDetector8maxScoreERK6NArrayIfE, __ZN13TSHMMDetector9feedFrameERK6NFrame, 
                       __ZN13TSHMMDetector9stepFrameERK6NFrame, __ZN13TSHMMDetectorC1Ev, 
                       __ZN13TSHMMDetectorC2Ev, __ZN13TSHMMDetectorD0Ev, __ZN13TSHMMDetectorD1Ev, 
                       __ZN13TSHMMDetectorD2Ev, __ZN14AccelMelFilter10setFiltersERK6NArrayIfES3_S3_, 
                       __ZN14AccelMelFilter3runEPf, __ZN14AccelMelFilter4initERKjS1_S1_RKfS3_S3_S3_, 
                       __ZN14AccelMelFilter9setPointsERKfS1_S1_S1_R6NArrayIfES4_S4_, 
                       __ZN14NConfigSection6setOptERK7NStringS2_, __ZN14NConfigSection9appendOptERK7NStringS2_, 
                       __ZN14NConfigSectionC1ERK7NString, __ZN14NConfigSectionC2ERK7NString, 
                       __ZN14NDEHMMDetector23skipUntilProcessedFrameEv, __ZN14NDEHMMDetector4initEPK20NDEHMMDetectorConfigPKcRKjS4_S6_fj, 
                       __ZN14NDEHMMDetector5resetEv, __ZN14NDEHMMDetector7initHMMEPKcRKjS3_, 
                       __ZN14NDEHMMDetector8maxScoreERK6NArrayIfE, __ZN14NDEHMMDetector9feedFrameERK6NFrame, 
                       __ZN14NDEHMMDetector9stepFrameERK6NFrame, __ZN14NDEHMMDetectorC1Ev, 
                       __ZN14NDEHMMDetectorC2Ev, __ZN14NDEHMMDetectorD0Ev, __ZN14NDEHMMDetectorD1Ev, 
                       __ZN14NDEHMMDetectorD2Ev, __ZN14NPhoneHMMArray16endReverseLookupEv, 
                       __ZN14NPhoneHMMArray17initReverseLookupEv, __ZN14NPhoneHMMArray4readERK7NStringRKj, 
                       __ZN14NPhoneHMMArrayC1Ev, __ZN14NPhoneHMMArrayC2Ev, __ZN14NPhoneHMMArrayD0Ev, 
                       __ZN14NPhoneHMMArrayD1Ev, __ZN14NPhoneHMMArrayD2Ev, __ZN15AccelStaticMFCC4initERKjS1_S1_RKbRKfS3_S3_S3_S1_S5_S5_S1_S1_S5_S5_S5_S5_, 
                       __ZN15AccelStaticMFCC5resetEv, __ZN15AccelStaticMFCC5startEPKvRKjRK11NSampleType, 
                       __ZN15AccelStaticMFCC7isFrameEv, __ZN15AccelStaticMFCC7preemphEv, 
                       __ZN15NLRHMMTraceback4dropERK6NArrayIbE, __ZN15NLRHMMTraceback5resetEv, 
                       __ZN15NLRHMMTraceback6resizeERKjS1_, __ZN15NLRHMMTracebackC1ERKjS1_, 
                       __ZN15NLRHMMTracebackC2ERKjS1_, __ZN15NRingDropBuffer5resetEv, 
                       __ZN15NRingDropBuffer6resizeERKj, __ZN15NRingDropBuffer9pushFrameERK6NFrame, 
                       __ZN15NRingDropBufferC1ERKj, __ZN15NRingDropBufferC2ERKj, 
                       __ZN17NFixedPointScales10initializeERKiRK6NArrayIiE, __ZN17NFixedPointScales15makeParamScalesEv, 
                       __ZN17NFixedPointScales4readER8NFilePtrRKjRKb, __ZN17NFixedPointScales5setUpEv, 
                       __ZN17NFixedPointScalesC1Ev, __ZN17NFixedPointScalesC2Ev, 
                       __ZN17NFixedPointScalesD0Ev, __ZN17NFixedPointScalesD1Ev, 
                       __ZN17NFixedPointScalesD2Ev, __ZN17NLRHMMStateTokens4initERKj, 
                       __ZN17NLRHMMStateTokens5resetEv, __ZN18NFloatDistribution4readERK7NString, 
                       __ZN18NFloatDistributionC1Ev, __ZN18NFloatDistributionC2Ev, 
                       __ZN18NFloatDistributionD0Ev, __ZN18NFloatDistributionD1Ev, 
                       __ZN18NFloatDistributionD2Ev, __ZN19NDistributionLoader4readERK7NString, 
                       __ZN19NDistributionLoaderC1Ev, __ZN19NDistributionLoaderC2Ev, 
                       __ZN19NDistributionLoaderD0Ev, __ZN19NDistributionLoaderD1Ev, 
                       __ZN19NDistributionLoaderD2Ev, __ZN19NWavChunk2HTKFrames10initStaticEv, 
                       __ZN19NWavChunk2HTKFrames13changeSamRateERKj, __ZN19NWavChunk2HTKFrames3runEPKvRKjRK11NSampleTypeR14NResizingQueueI6NFrameE, 
                       __ZN19NWavChunk2HTKFrames4initERK7NStringRKjRKbS6_, __ZN19NWavChunk2HTKFrames5resetEv, 
                       __ZN19NWavChunk2HTKFrames6finishER14NResizingQueueI6NFrameE, 
                       __ZN19NWavChunk2HTKFrames7initDynEv, __ZN19NWavChunk2HTKFrames7loadCfgERK7NStringRKb, 
                       __ZN19NWavChunk2HTKFrames8c0InvertEv, __ZN19NWavChunk2HTKFrames8resetOptEv, 
                       __ZN19NWavChunk2HTKFrames9toOutTypeERK6NArrayIfE, __ZN19TSSupervectorScorer4initERK7NStringj, 
                       __ZN19TSSupervectorScorer5scoreEPKfj, __ZN19TSSupervectorScorerC1Ev, 
                       __ZN19TSSupervectorScorerC2Ev, __ZN19TSSupervectorScorerD0Ev, 
                       __ZN19TSSupervectorScorerD1Ev, __ZN19TSSupervectorScorerD2Ev, 
                       __ZN20NDeepnetDistribution13mapFromMemoryEPKcRKjS1_, __ZN20NDeepnetDistribution4initEPKcRKj, 
                       __ZN20NDeepnetDistribution4readERK7NString, __ZN20NDeepnetDistribution5resetEv, 
                       __ZN20NDeepnetDistribution7mapFileERK7NString, __ZN20NDeepnetDistributionC1Ev, 
                       __ZN20NDeepnetDistributionC2Ev, __ZN20NDeepnetDistributionD0Ev, 
                       __ZN20NDeepnetDistributionD1Ev, __ZN20NDeepnetDistributionD2Ev, 
                       __ZN22NGaussianMixtureModels14refreshOffsetsEv, __ZN22NGaussianMixtureModels2idEv, 
                       __ZN22NGaussianMixtureModels4readERK7NString, __ZN22NGaussianMixtureModelsC1Ev, 
                       __ZN22NGaussianMixtureModelsC2Ev, __ZN22NGaussianMixtureModelsD0Ev, 
                       __ZN22NGaussianMixtureModelsD1Ev, __ZN22NGaussianMixtureModelsD2Ev, 
                       __ZN25NGaussianFixedPointScales10initializeERKiS1_S1_RK6NArrayIiES5_, 
                       __ZN25NGaussianFixedPointScales13setDimenShiftERK6NArrayIiE, 
                       __ZN25NGaussianFixedPointScales15makeLogAddTableERKj, __ZN25NGaussianFixedPointScales4readER8NFilePtrRKjRKb, 
                       __ZN25NGaussianFixedPointScales5setUpEv, __ZN25NGaussianFixedPointScalesC1Ev, 
                       __ZN25NGaussianFixedPointScalesC2Ev, __ZN25NGaussianFixedPointScalesD0Ev, 
                       __ZN25NGaussianFixedPointScalesD1Ev, __ZN25NGaussianFixedPointScalesD2Ev, 
                       __ZN33NChunkGaussianMixtureModelsHeader4readERK7NStringR8NFilePtrS2_RKb, 
                       __ZN33NChunkGaussianMixtureModelsHeader9readFieldERK7NStringR8NFilePtrS2_RS0_, 
                       __ZN33NChunkGaussianMixtureModelsHeaderC1Ev, __ZN33NChunkGaussianMixtureModelsHeaderC2Ev, 
                       __ZN33NChunkGaussianMixtureModelsHeaderD1Ev, __ZN33NChunkGaussianMixtureModelsHeaderD2Ev, 
                       __ZN5Error5chuckEPKcz, __ZN5Error5errorEPKcz, __ZN5Error6headerEPKcl, 
                       __ZN5Error7warningEPKcz, __ZN5NFile10readStringEv, __ZN5NFile11getPositionEv, 
                       __ZN5NFile11setPositionERKj, __ZN5NFile11writeStringERK7NString, 
                       __ZN5NFile4openERK7NStringS2_, __ZN5NFile4readERKj, __ZN5NFile4readERKjR7NString, 
                       __ZN5NFile4readEv, __ZN5NFile5closeEv, __ZN5NFile5flushEv, 
                       __ZN5NFile5printERK7NString, __ZN5NFile5writeERK7NString, 
                       __ZN5NFile6printfEPKcz, __ZN5NFile8readLineERKc, __ZN5NFile8readLineERKcR7NString, 
                       __ZN5NFileC1ERK7NStringS2_, __ZN5NFileC1Ev, __ZN5NFileC2ERK7NStringS2_, 
                       __ZN5NFileC2Ev, __ZN5NFileD0Ev, __ZN5NFileD1Ev, __ZN5NFileD2Ev, 
                       __ZN6NDelta4initERKjS1_, __ZN6NDelta7isFrameERK11NLinkedListI6NArrayIfEE, 
                       __ZN6NTimer4stopEv, __ZN6NTimer5startEv, __ZN6NTimerC1Ev, 
                       __ZN6NTimerC2Ev, __ZN6NTimerD0Ev, __ZN6NTimerD1Ev, __ZN6NTimerD2Ev, 
                       __ZN6NZFile10readStringEv, __ZN6NZFile11getPositionEv, __ZN6NZFile11setPositionERKj, 
                       __ZN6NZFile11writeStringERK7NString, __ZN6NZFile4openERK7NStringS2_, 
                       __ZN6NZFile4openERK7NStringS2_RKj, __ZN6NZFile4readERKj, __ZN6NZFile4readERKjR7NString, 
                       __ZN6NZFile4readEv, __ZN6NZFile5closeEv, __ZN6NZFile5writeERK7NString, 
                       __ZN6NZFile8readLineERKc, __ZN6NZFileC1ERK7NStringS2_RKj, 
                       __ZN6NZFileC1Ev, __ZN6NZFileC2ERK7NStringS2_RKj, __ZN6NZFileC2Ev, 
                       __ZN6NZFileD0Ev, __ZN6NZFileD1Ev, __ZN6NZFileD2Ev, __ZN7NConfig10loadStringERK7NStringS2_S2_, 
                       __ZN7NConfig4loadERK7NStringS2_, __ZN7NConfigC1ERKb, __ZN7NConfigC2ERKb, 
                       __ZN7NString13newAllocationERKj, __ZN7NString13stripCommentsEc, 
                       __ZN7NString5chompEv, __ZN7NString6printfEPKcz, __ZN7NString7replaceERKS_S1_, 
                       __ZN7NString8appendToEPKvRKj, __ZN7NString8assignToEPKvRKj, 
                       __ZN7NStringC1EPKc, __ZN7NStringC1EPKcRKj, __ZN7NStringC1ERKS_, 
                       __ZN7NStringC1ERKcRKj, __ZN7NStringC1ERKd, __ZN7NStringC1ERKi, 
                       __ZN7NStringC1ERKj, __ZN7NStringC1Ev, __ZN7NStringC2EPKc, 
                       __ZN7NStringC2EPKcRKj, __ZN7NStringC2ERKS_, __ZN7NStringC2ERKcRKj, 
                       __ZN7NStringC2ERKd, __ZN7NStringC2ERKi, __ZN7NStringC2ERKj, 
                       __ZN7NStringC2Ev, __ZN7NStringD0Ev, __ZN7NStringD1Ev, __ZN7NStringD2Ev, 
                       __ZN7NStringaSEPKc, __ZN7NStringaSERKS_, __ZN7NStringixERKj, 
                       __ZN7NStringpLERKS_, __ZN8AccelFFT11zeroPadDataERK6NArrayIfE, 
                       __ZN8AccelFFT3runER6NArrayIfER15DSPSplitComplex, __ZN8AccelFFT4initERKjS1_S1_, 
                       __ZN8AccelFFTD1Ev, __ZN8AccelFFTD2Ev, __ZN8AccelPSD4initERKjRKb, 
                       __ZN8NFidFile10getSubFileERK7NStringR8NFilePtr, __ZN8NFidFile10readHeaderEv, 
                       __ZN8NFidFile4openERK7NString, __ZN8NFidFile5closeEv, __ZN8NFidFileC1ERK7NString, 
                       __ZN8NFidFileC1Ev, __ZN8NFidFileC2ERK7NString, __ZN8NFidFileC2Ev, 
                       __ZN8NFidFileD0Ev, __ZN8NFidFileD1Ev, __ZN8NFidFileD2Ev, __ZN8NFilePtr4openERK7NStringS2_, 
                       __ZN8NMemPool13m_iAlignBytesE, __ZN8NMemPool14getAlignedSizeEj, 
                       __ZN8NMemPool4initEPcjj, __ZN8NMemPool4lockEb, __ZN8NMemPool6getMemEj, 
                       __ZN8NMemPool6m_iPosE, __ZN8NMemPool6reportEv, __ZN8NMemPool7m_iSizeE, 
                       __ZN8NMemPool7m_pDataE, __ZN8NMemPool8isLockedEv, __ZN8NMemPool9m_bLockedE, 
                       __ZN8NVersion11releaseDateEv, __ZN8NVersion12buildMachineEv, 
                       __ZN8NVersion12compileFlagsEv, __ZN8NVersion14versionMessageEv, 
                       __ZN8NVersion15compilerVersionEv, __ZN8NVersion7releaseEv, 
                       __ZN8NVersion9buildDateEv, __ZN8NVersion9buildTypeEv, __ZN8NZipFile10getSubFileERK7NStringR8NFilePtr, 
                       __ZN8NZipFile10nextHeaderEv, __ZN8NZipFile17getCurrentSubFileER8NFilePtr, 
                       __ZN8NZipFile4openERK7NString, __ZN8NZipFile5closeEv, __ZN8NZipFile5startEv, 
                       __ZN8NZipFileC1ERK7NString, __ZN8NZipFileC1Ev, __ZN8NZipFileC2ERK7NString, 
                       __ZN8NZipFileC2Ev, __ZN8NZipFileD0Ev, __ZN8NZipFileD1Ev, __ZN8NZipFileD2Ev, 
                       __ZN8NZipFileppEi, __ZN8TSAcAnal11feedFromIntEPKsRKj, __ZN8TSAcAnal13feedFromFloatEPKfRKj, 
                       __ZN8TSAcAnal13getFrameByRefEv, __ZN8TSAcAnal4feedERK7NString, 
                       __ZN8TSAcAnal4initERK7NStringjS2_bb, __ZN8TSAcAnal5resetEv, 
                       __ZN8TSAcAnal7endfeedEv, __ZN8TSAcAnal8getframeEv, __ZN9AccelLoga4initERKjf, 
                       __ZN9NDEAcAnal10initStaticEv, __ZN9NDEAcAnal10setSamRateERKj, 
                       __ZN9NDEAcAnal11feedFromIntEPKsRKj, __ZN9NDEAcAnal4initEPK15NDEAcAnalConfigRKj, 
                       __ZN9NDEAcAnal5resetEv, __ZN9NDEAcAnal8c0InvertEv, __ZN9NDEAcAnal9toOutTypeERK6NArrayIfE, 
                       __ZN9NGaussian13refreshOffsetEv, __ZN9NPipeFile10readStringEv, 
                       __ZN9NPipeFile11getPositionEv, __ZN9NPipeFile11setPositionERKj, 
                       __ZN9NPipeFile11writeStringERK7NString, __ZN9NPipeFile4openERK7NStringS2_, 
                       __ZN9NPipeFile4readERKj, __ZN9NPipeFile4readERKjR7NString, 
                       __ZN9NPipeFile4readEv, __ZN9NPipeFile5closeEv, __ZN9NPipeFile5writeERK7NString, 
                       __ZN9NPipeFile8readLineERKc, __ZN9NPipeFileC1ERK7NStringS2_, 
                       __ZN9NPipeFileC1Ev, __ZN9NPipeFileC2ERK7NStringS2_, __ZN9NPipeFileC2Ev, 
                       __ZN9NPipeFileD0Ev, __ZN9NPipeFileD1Ev, __ZN9NPipeFileD2Ev, 
                       __ZNK11AccelCosine3runEPKfR6NArrayIfE, __ZNK11AccelWindow10getHammingEv, 
                       __ZNK11AccelWindow12applyHammingER6NArrayIfE, __ZNK11AccelWindow16getScalingFactorEv, 
                       __ZNK11AccelWindow9getOffsetER6NArrayIfE, __ZNK11NOffsetFile3eofEv, 
                       __ZNK11NOffsetFile4goodEv, __ZNK11NSATSpeaker10bubbleSortEPKfPfRKj, 
                       __ZNK11NSATSpeaker11numInsertedEv, __ZNK11NSATSpeaker12matrixvectorEPKfRK6NArrayIfEPfRKjS8_S8_, 
                       __ZNK11NSATSpeaker14findPercentileEPKfRKjRS0_, __ZNK11NSATSpeaker15findTopNAverageEPKfRKjS3_RKbRS0_, 
                       __ZNK11NSATSpeaker18calcModelNormScaleEv, __ZNK11NSATSpeaker5scoreERK6NArrayIfERKfS5_, 
                       __ZNK11NSATSpeaker5writeEv, __ZNK11NSATSpeaker8findMeanEPKfRKj, 
                       __ZNK11NSATSpeaker9getVectorER6NArrayIfERKj, __ZNK11TSSATScorer11vectorCountEv, 
                       __ZNK11TSSATScorer14applyTransformERK6NFrameR6NArrayIfE, __ZNK11TSSATScorer15normaliseVectorER6NArrayIfE, 
                       __ZNK11TSSATScorer16getSpeakerVectorER6NArrayIfERKj, __ZNK11TSSATScorer21getSpeakerVectorDimenEv, 
                       __ZNK12IntNovDetect5errorEv, __ZNK12NDEFrameProc13getFrameByRefEv, 
                       __ZNK12NDEFrameProc13get_framerateEv, __ZNK12NDEFrameProc9frameSizeEv, 
                       __ZNK12NSATImpostor5dimenEv, __ZNK13AccelWin2MFCC16getScalingFactorEv, 
                       __ZNK13TSHMMDetector10bestLengthEv, __ZNK13TSHMMDetector10bestPhraseEv, 
                       __ZNK13TSHMMDetector10numPhrasesEv, __ZNK13TSHMMDetector11scorePhraseERKj, 
                       __ZNK13TSHMMDetector12frameLatencyEv, __ZNK13TSHMMDetector12partialScoreEv, 
                       __ZNK13TSHMMDetector13partialLengthEv, __ZNK13TSHMMDetector14stateAlignmentER6NArrayIjEj, 
                       __ZNK13TSHMMDetector16bestLengthPhraseERKj, __ZNK13TSHMMDetector5scoreEv, 
                       __ZNK13TSHMMDetector9frameSizeEv, __ZNK13TSHMMDetector9numStatesEv, 
                       __ZNK14AccelMelFilter16getScalingFactorEv, __ZNK14AccelMelFilter8freq2melERKf, 
                       __ZNK14AccelMelFilter8mel2freqERKf, __ZNK14NConfigSection4bOptERK7NString, 
                       __ZNK14NConfigSection4fOptERK7NString, __ZNK14NConfigSection4iOptERK7NString, 
                       __ZNK14NConfigSection4sOptERK7NString, __ZNK14NConfigSection6hasOptERK7NString, 
                       __ZNK14NDEHMMDetector10bestLengthEv, __ZNK14NDEHMMDetector12frameLatencyEv, 
                       __ZNK14NDEHMMDetector12partialScoreEv, __ZNK14NDEHMMDetector13partialLengthEv, 
                       __ZNK14NDEHMMDetector5scoreEv, __ZNK14NPhoneHMMArray5writeERK7NString, 
                       __ZNK14NPhoneHMMArrayclERK7NString, __ZNK15AccelStaticMFCC16getScalingFactorEv, 
                       __ZNK15AccelStaticMFCC8getFrameEv, __ZNK15AccelStaticMFCC9getWindowEv, 
                       __ZNK15NLRHMMTraceback14stateAlignmentER6NArrayIjERKj, __ZNK15NRingDropBuffer4sizeEv, 
                       __ZNK15NRingDropBuffer7maxSizeEv, __ZNK15NRingDropBufferixERKj, 
                       __ZNK17NConfigSectionExt4bOptERK7NStringRKb, __ZNK17NConfigSectionExt4fOptERK7NStringRKf, 
                       __ZNK17NConfigSectionExt4iOptERK7NStringRKi, __ZNK17NConfigSectionExt4sOptERK7NStringS2_, 
                       __ZNK17NFixedPointScales10paramLimitEv, __ZNK17NFixedPointScales10readIntVecER8NFilePtrRKbRK7NStringRKjR6NArrayIiE, 
                       __ZNK17NFixedPointScales10toFloatVecE6NArrayIsE, __ZNK17NFixedPointScales5writeER8NFilePtrRKb, 
                       __ZNK17NFixedPointScales7readIntER8NFilePtrRKbRK7NString, 
                       __ZNK17NFixedPointScales8toFixVecE6NArrayIfE, __ZNK18NFloatDistribution13numComponentsEv, 
                       __ZNK18NFloatDistribution14componentScoreERKjRK6NArrayIfE, 
                       __ZNK18NFloatDistribution15scoreUsingCacheERKjRK6NArrayIbERKS2_IfE, 
                       __ZNK18NFloatDistribution16firstComponentIdERKj, __ZNK18NFloatDistribution16setComponentMaskERKjR6NArrayIbE, 
                       __ZNK18NFloatDistribution17fixedPointScalesPEv, __ZNK18NFloatDistribution21posteriorWeightedMeanERKjRK6NArrayIfERS3_, 
                       __ZNK18NFloatDistribution4sizeEv, __ZNK18NFloatDistribution5dimenEv, 
                       __ZNK18NFloatDistribution5scoreERKjRK6NArrayIfE, __ZNK18NFloatDistribution7baseGMMEv, 
                       __ZNK19NFastFixedGaussiansIaihE5scoreERKjRK6NArrayIsE, __ZNK19NFastFixedGaussiansIaitE5scoreERKjRK6NArrayIsE, 
                       __ZNK19NFastFixedGaussiansIsihE5scoreERKjRK6NArrayIsE, __ZNK19NWavChunk2HTKFrames10isTypeInt4Ev, 
                       __ZNK19NWavChunk2HTKFrames12getFrameRateEv, __ZNK19NWavChunk2HTKFrames8parmCodeEv, 
                       __ZNK19NWavChunk2HTKFrames9frameSizeEv, __ZNK19NWavChunk2HTKFrames9numStaticEv, 
                       __ZNK20N16ByteAlignedString10deallocateEPc, __ZNK20N16ByteAlignedString8allocateERKj, 
                       __ZNK20NDeepnetDistribution10resetStateEPv, __ZNK20NDeepnetDistribution13numComponentsEv, 
                       __ZNK20NDeepnetDistribution14allocateStatePEv, __ZNK20NDeepnetDistribution14componentScoreERKjRK6NArrayIfE, 
                       __ZNK20NDeepnetDistribution15deallocateStateEPv, __ZNK20NDeepnetDistribution15scoreCacheTypesEv, 
                       __ZNK20NDeepnetDistribution15scoreUsingCacheERKjRK6NArrayIbERKS2_IfE, 
                       __ZNK20NDeepnetDistribution16firstComponentIdERKj, __ZNK20NDeepnetDistribution16setComponentMaskERKjR6NArrayIbE, 
                       __ZNK20NDeepnetDistribution17fixedPointScalesPEv, __ZNK20NDeepnetDistribution19forwardComputeFixedERK6NArrayIfERS1_, 
                       __ZNK20NDeepnetDistribution19forwardComputeFloatERK6NArrayIfERS1_Pv, 
                       __ZNK20NDeepnetDistribution19loadFixedInputLayerERK6NArrayIfEPi, 
                       __ZNK20NDeepnetDistribution21posteriorWeightedMeanERKjRK6NArrayIfERS3_, 
                       __ZNK20NDeepnetDistribution23extractFixedOutputLayerEPKiR6NArrayIfE, 
                       __ZNK20NDeepnetDistribution4sizeEv, __ZNK20NDeepnetDistribution5dimenEv, 
                       __ZNK20NDeepnetDistribution5scoreERKjRK6NArrayIfE, __ZNK20NDeepnetDistribution7baseGMMEv, 
                       __ZNK20NDeepnetDistribution8scoreAllERK6NArrayIfERS1_Pv, __ZNK20NDeepnetDistribution9frameSizeEv, 
                       __ZNK20NDeepnetDistribution9numFramesEv, __ZNK22NGaussianMixtureModels10expWeightsERK6NArrayIfE, 
                       __ZNK22NGaussianMixtureModels10invertVarsERK6NArrayIfE, __ZNK22NGaussianMixtureModels10logWeightsERK6NArrayIfE, 
                       __ZNK22NGaussianMixtureModels10posteriorsERKjRK6NArrayIfERS3_, 
                       __ZNK22NGaussianMixtureModels11writeBinaryERK7NString, __ZNK22NGaussianMixtureModels12validateVarsERK6NArrayIfE, 
                       __ZNK22NGaussianMixtureModels14invertSqrtVarsERK6NArrayIfE, 
                       __ZNK22NGaussianMixtureModels15scoreUsingCacheERKjRK6NArrayIbERKS2_IfE, 
                       __ZNK22NGaussianMixtureModels15validateWeightsERK6NArrayIfE, 
                       __ZNK22NGaussianMixtureModels16invertSquareVarsERK6NArrayIfE, 
                       __ZNK22NGaussianMixtureModels21posteriorWeightedMeanERKjRK6NArrayIfERS3_, 
                       __ZNK22NGaussianMixtureModels2idEv, __ZNK22NGaussianMixtureModels5dimenEv, 
                       __ZNK22NGaussianMixtureModels5scoreERKjRK6NArrayIfE, __ZNK22NGaussianMixtureModels5writeERK7NStringRK8NVarTypeRK11NWeightType, 
                       __ZNK22NGaussianMixtureModels6score2ERKjRK6NArrayIfE, __ZNK22NGaussianMixtureModels6weightERKjS1_, 
                       __ZNK22NGaussianMixtureModels8gaussianERKjS1_, __ZNK22NGaussianMixtureModels9gaussiansEv, 
                       __ZNK25NGaussianFixedPointScales10paramLimitEv, __ZNK25NGaussianFixedPointScales5writeER8NFilePtrRKb, 
                       __ZNK25NGaussianFixedPointScales6logaddEii, __ZNK33NChunkGaussianMixtureModelsHeader11writeBinaryER8NFilePtr, 
                       __ZNK33NChunkGaussianMixtureModelsHeader14encodingStringEv, 
                       __ZNK33NChunkGaussianMixtureModelsHeader5writeER8NFilePtr, 
                       __ZNK5NFile3eofEv, __ZNK5NFile4goodEv, __ZNK5NFile6isOpenEv, 
                       __ZNK6NDelta8getFrameEv, __ZNK6NTimer7elapsedE10NTimerType, 
                       __ZNK6NTimer7runningEv, __ZNK6NZFile3eofEv, __ZNK6NZFile4goodEv, 
                       __ZNK6NZFile6isOpenEv, __ZNK7NConfig10hasSectionERK7NString, 
                       __ZNK7NConfig7sectionERK7NString, __ZNK7NString10checkFloatEv, 
                       __ZNK7NString10deallocateEPc, __ZNK7NString10hexdecodedEv, 
                       __ZNK7NString10startswithEPKc, __ZNK7NString10startswithERKS_, 
                       __ZNK7NString13containsafterERKS_RKj, __ZNK7NString13prefixDirnameEv, 
                       __ZNK7NString4headERKj, __ZNK7NString4tailERKj, __ZNK7NString5sliceERKjS1_, 
                       __ZNK7NString5splitER11NLinkedListIS_ERKS_RKj, __ZNK7NString5splitER6NArrayIS_ERKS_RKj, 
                       __ZNK7NString5splitER6NArrayIS_EcRKj, __ZNK7NString5splitERKS_RKj, 
                       __ZNK7NString5stripERKS_, __ZNK7NString5tointERKj, __ZNK7NString6lengthEv, 
                       __ZNK7NString6toboolEv, __ZNK7NString6touintERKj, __ZNK7NString7cuttailERKj, 
                       __ZNK7NString7dirnameEv, __ZNK7NString7pointerEv, __ZNK7NString7tofloatEv, 
                       __ZNK7NString8allocateERKj, __ZNK7NString8basenameERKS_, __ZNK7NString8basenameEv, 
                       __ZNK7NString8checkIntERKj, __ZNK7NString8containsEPKc, __ZNK7NString8containsERKS_, 
                       __ZNK7NString8containsERKc, __ZNK7NString8creplaceERKS_S1_, 
                       __ZNK7NString8endswithEPKc, __ZNK7NString8endswithERKS_, __ZNK7NString8hexcodedEv, 
                       __ZNK7NString9checkUintERKj, __ZNK7NString9hashValueEv, __ZNK7NString9lowercaseEv, 
                       __ZNK7NString9uppercaseEv, __ZNK7NStringeqEPKc, __ZNK7NStringeqERKS_, 
                       __ZNK7NStringgeERKS_, __ZNK7NStringgtERKS_, __ZNK7NStringixERKj, 
                       __ZNK7NStringleERKS_, __ZNK7NStringltERKS_, __ZNK7NStringneERKS_, 
                       __ZNK7NStringplERKS_, __ZNK8AccelPSD15fixp_sqrt_rangeERKiS1_ii, 
                       __ZNK8AccelPSD16getScalingFactorEv, __ZNK8AccelPSD3runER15DSPSplitComplex, 
                       __ZNK8AccelPSD9fixp_sqrtEi, __ZNK8NZipFile5validEv, __ZNK8NZipFiledeEv, 
                       __ZNK8TSAcAnal10isTypeInt4Ev, __ZNK8TSAcAnal12framesQueuedEv, 
                       __ZNK8TSAcAnal13get_framerateEv, __ZNK8TSAcAnal14getStringFrameEv, 
                       __ZNK8TSAcAnal15framesAvailableEv, __ZNK8TSAcAnal3eosEv, __ZNK8TSAcAnal8parmCodeEv, 
                       __ZNK8TSAcAnal9frameSizeEv, __ZNK8TSAcAnal9numStaticEv, __ZNK9AccelLoga16getScalingFactorEv, 
                       __ZNK9AccelLoga3runEPf, __ZNK9AccelLoga7findMaxERK6NArrayIfE, 
                       __ZNK9NDEAcAnal13getFrameByRefEv, __ZNK9NDEAcAnal13get_framerateEv, 
                       __ZNK9NDEAcAnal14frameAvailableEv, __ZNK9NDEAcAnal9frameSizeEv, 
                       __ZNK9NGaussian5scoreERK6NArrayIfE, __ZNK9NPipeFile3eofEv, 
                       __ZNK9NPipeFile4goodEv, __ZNK9NPipeFile6isOpenEv, __ZTI11NAutoString, 
                       __ZTI11NOffsetFile, __ZTI11NSATSpeaker, __ZTI11TSSATScorer, 
                       __ZTI12NSATImpostor, __ZTI13TSHMMDetector, __ZTI14NDEHMMDetector, 
                       __ZTI14NPhoneHMMArray, __ZTI17NFixedPointScales, __ZTI18NFloatDistribution, 
                       __ZTI19NDistributionLoader, __ZTI19TSSupervectorScorer, __ZTI20N16ByteAlignedString, 
                       __ZTI20NDeepnetDistribution, __ZTI22NGaussianMixtureModels, 
                       __ZTI25NGaussianFixedPointScales, __ZTI5NFile, __ZTI6NTimer, 
                       __ZTI6NZFile, __ZTI7NString, __ZTI8NFidFile, __ZTI8NZipFile, 
                       __ZTI9NPipeFile, __ZTS11NAutoString, __ZTS11NOffsetFile, __ZTS11NSATSpeaker, 
                       __ZTS11TSSATScorer, __ZTS12NSATImpostor, __ZTS13TSHMMDetector, 
                       __ZTS14NDEHMMDetector, __ZTS14NPhoneHMMArray, __ZTS17NFixedPointScales, 
                       __ZTS18NFloatDistribution, __ZTS19NDistributionLoader, __ZTS19TSSupervectorScorer, 
                       __ZTS20N16ByteAlignedString, __ZTS20NDeepnetDistribution, 
                       __ZTS22NGaussianMixtureModels, __ZTS25NGaussianFixedPointScales, 
                       __ZTS5NFile, __ZTS6NTimer, __ZTS6NZFile, __ZTS7NString, __ZTS8NFidFile, 
                       __ZTS8NZipFile, __ZTS9NPipeFile, __ZTV11NAutoString, __ZTV11NOffsetFile, 
                       __ZTV11NSATSpeaker, __ZTV11TSSATScorer, __ZTV12NSATImpostor, 
                       __ZTV13TSHMMDetector, __ZTV14NDEHMMDetector, __ZTV14NPhoneHMMArray, 
                       __ZTV17NFixedPointScales, __ZTV18NFloatDistribution, __ZTV19NDistributionLoader, 
                       __ZTV19TSSupervectorScorer, __ZTV20N16ByteAlignedString, __ZTV20NDeepnetDistribution, 
                       __ZTV22NGaussianMixtureModels, __ZTV25NGaussianFixedPointScales, 
                       __ZTV5NFile, __ZTV6NTimer, __ZTV6NZFile, __ZTV7NString, __ZTV8NFidFile, 
                       __ZTV8NZipFile, __ZTV9NPipeFile, __ZlsR7NStringRKS_, __ZlsR7NStringRKd, 
                       __ZlsR7NStringRKf, __ZlsR7NStringRKi, __ZlsR7NStringRKj, __ZlsRNSt3__113basic_ostreamIcNS_11char_traitsIcEEEERK7NString, 
                       __baseDir, _gVTRTModelData, _kCurrVTMetaVersion, _kNDEConfigDataMaxSizeBytes, 
                       _kNDEStateBufferSizeBytes, _kVTAudioRecordContextKey, _kVTAudioRecordDeviceInfoKey, 
                       _kVTContainsPayload, _kVTExplicitTrainingType, _kVTFarField, 
                       _kVTImplicitTrainingType, _kVTKeywordDetectorAssetPathContextKey, 
                       _kVTKeywordDetectorAudioOptionKey, _kVTKeywordDetectorCategoryContextKey, 
                       _kVTKeywordDetectorEnableMultiPhraseVTKey, _kVTKeywordDetectorLocaleContextKey, 
                       _kVTLoggingContextFramework, _kVTMetaHandheldKey, _kVTMetaProductTypeKey, 
                       _kVTMetaProductVersionKey, _kVTMetaTrainingTypeKey, _kVTMetaUtteranceWavKey, 
                       _kVTMetaVersionFileName, _kVTMetaVersionKey, _kVTNearField, 
                       _kVTNotBackedupPreferencesDomain, _kVTOtherBiometricResultKey, 
                       _kVTPreferencesDomain, _kVTPreferencesPhraseSpotterEnabledDidChangeDarwinNotification, 
                       _kVTPreferencesVoiceTriggerEnabledDidChangeDarwinNotification, 
                       _kVTRecordingTimeStampKey, _nd_close, _nd_create, _nd_error, 
                       _nd_getoption, _nd_getphraseresults, _nd_getresults, _nd_getresultsstr, 
                       _nd_getsupervector, _nd_initialize, _nd_initlog, _nd_logcontrol, 
                       _nd_phrasecount, _nd_reset, _nd_resetbest, _nd_sat_analyze, 
                       _nd_sat_analyzetransformed, _nd_sat_deletevector, _nd_sat_getspeakervector, 
                       _nd_sat_initialize, _nd_sat_reset, _nd_sat_update, _nd_sat_vectorcount, 
                       _nd_scoresupervector, _nd_wavedata, _nd_wavedataf, _nde_create, 
                       _nde_destroy, _nde_enable_multiinstance, _nde_process, _nde_process_v2, 
                       _nde_processframe, _nde_processframe_v2, _nde_reset ]
    objc-classes:    [ VTBlobBuilder, VTBuiltInRTModel, VTKeywordAnalyzerNDAPI, VTKeywordAnalyzerNDEAPI, 
                       VTKeywordAnalyzerPhraseScore, VTKeywordAnalyzerQuasar, VTKeywordAnalyzerResults, 
                       VTKeywordDetector, VTKeywordDetectorAssets, VTKeywordDetectorContext, 
                       VTKeywordDetectorPhraseScore, VTKeywordDetectorResults, VTNovDetector, 
                       VTNovDetectorResult, VTPreferences, VTSpeakerIdUtilities, 
                       VTStateManager, VTUtilities, VTUtteranceMetadataManager, VTVoiceProfileMigration ]
  - targets:         [ arm64e-maccatalyst, arm64e-macos, arm64-macos, arm64-maccatalyst ]
    symbols:         [ __ZN7NString7vprintfEPKcPc ]
...
