---
archs:           [ x86_64 ]
platform:        macosx
install-name:    /usr/lib/libATCommandStudioDynamic.dylib
exports:         
  - archs:           [ x86_64 ]
    symbols:         [ _ATCSThreadJoin, _ATCSThreadKill, _ATCSThreadSpawn, 
                       _DEFAULT_XPC_CLIENT_SERVICE, __ZN10ATCSLogger10fsInstanceE, 
                       __ZN10ATCSLogger10logCommandE12ATCSLogGroupPKcS2_jPKNS_16CommandFormatterE, 
                       __ZN10ATCSLogger11getInstanceEv, __ZN10ATCSLogger11instantiateEPS_, 
                       __ZN10ATCSLogger16CommandFormatterD0Ev, __ZN10ATCSLogger16CommandFormatterD1Ev, 
                       __ZN10ATCSLogger16CommandFormatterD2Ev, __ZN10ATCSLoggerC2Ev, 
                       __ZN10ATCSLoggerD0Ev, __ZN10ATCSLoggerD1Ev, __ZN10ATCSLoggerD2Ev, 
                       __ZN10ATResponse20stripCarriageReturnsEv, __ZN10ATResponse5clearEv, 
                       __ZN10ATResponse6appendEPKc, __ZN10ATResponse6appendEPKci, 
                       __ZN10ATResponseC1ENS_15FinalResultTypeEi, __ZN10ATResponseC1EPKc, 
                       __ZN10ATResponseC1EPKciNS_15FinalResultTypeEi, __ZN10ATResponseC1ERKS_, 
                       __ZN10ATResponseC1Ev, __ZN10ATResponseC2ENS_15FinalResultTypeEi, 
                       __ZN10ATResponseC2EPKc, __ZN10ATResponseC2EPKciNS_15FinalResultTypeEi, 
                       __ZN10ATResponseC2ERKS_, __ZN10ATResponseC2Ev, __ZN10ATResponseaSERKS_, 
                       __ZN10QMIControl10flush_syncEP16dispatch_group_s, 
                       __ZN10QMIControl10stall_syncEP16dispatch_group_s, 
                       __ZN10QMIControl10start_syncEbP16dispatch_group_s, 
                       __ZN10QMIControl11remove_syncENSt3__110shared_ptrIN3qmi15QMuxClientIfaceEEE, 
                       __ZN10QMIControl13handleTimeoutEtt, __ZN10QMIControl13sendSync_syncEv, 
                       __ZN10QMIControl14enterPowerModeEP16dispatch_group_sN3qmi12PowerProfileE, 
                       __ZN10QMIControl14handleInd_syncERKN3ctl14RevokeClientId10IndicationE, 
                       __ZN10QMIControl14handleInd_syncERKN3ctl4Sync10IndicationE, 
                       __ZN10QMIControl14handleSentDataEt, __ZN10QMIControl15releaseClientIdEN3qmi11ServiceTypeEh, 
                       __ZN10QMIControl16ClientIdRequests10addRequestERKNSt3__110shared_ptrIN3qmi15QMuxClientIfaceEEE, 
                       __ZN10QMIControl16ClientIdRequests16popFailedRequestEv, 
                       __ZN10QMIControl16ClientIdRequests19popClientForSvcTypeEN3qmi11ServiceTypeE, 
                       __ZN10QMIControl16ClientIdRequests23removeRequestsForClientERKNSt3__110shared_ptrIN3qmi15QMuxClientIfaceEEE, 
                       __ZN10QMIControl16ClientIdRequests26addFailedRequestForSvcTypeEN3qmi11ServiceTypeE, 
                       __ZN10QMIControl16ClientIdRequestsC1Ev, __ZN10QMIControl16ClientIdRequestsC2Ev, 
                       __ZN10QMIControl16ClientIdRequestsD1Ev, __ZN10QMIControl16ClientIdRequestsD2Ev, 
                       __ZN10QMIControl16notifyRegisteredEv, __ZN10QMIControl17QMI_CTL_CLIENT_IDE, 
                       __ZN10QMIControl17setPowerMode_syncEN3qmi12PowerProfileE, 
                       __ZN10QMIControl18handleReceivedDataEtRK13QMIServiceMsg, 
                       __ZN10QMIControl18revokeRegistrationEv, __ZN10QMIControl18setDataFormat_syncEb, 
                       __ZN10QMIControl19enterPowerMode_syncEP16dispatch_group_sN3qmi12PowerProfileE, 
                       __ZN10QMIControl19handleSentData_syncEt, __ZN10QMIControl20releaseClientId_syncEN3qmi11ServiceTypeEh, 
                       __ZN10QMIControl20requestClientId_syncEN3qmi11ServiceTypeE, 
                       __ZN10QMIControl20startRetryTimer_syncEU13block_pointerFvvE, 
                       __ZN10QMIControl21notifyRegisterFailureEN3qmi5ErrorE, 
                       __ZN10QMIControl23configurePowerMode_syncEN3qmi12PowerProfileENS0_11ServiceTypeERKNSt3__13setItNS3_4lessItEENS3_9allocatorItEEEE, 
                       __ZN10QMIControl23getPowerModeForMsg_syncEN3qmi11ServiceTypeEt, 
                       __ZN10QMIControl23handleReceivedData_syncEtRK13QMIServiceMsg, 
                       __ZN10QMIControl23handleSyncResponse_syncERKN3ctl4Sync8ResponseE, 
                       __ZN10QMIControl23revokeRegistration_syncEv, __ZN10QMIControl24handleReceivedIndicationERK13QMIServiceMsg, 
                       __ZN10QMIControl26handleClientIdRequest_syncEN3qmi11ServiceTypeERKN3ctl11GetClientId8ResponseE, 
                       __ZN10QMIControl29handleReceivedIndication_syncERK13QMIServiceMsg, 
                       __ZN10QMIControl4joinEP16dispatch_group_s, __ZN10QMIControl5flushEP16dispatch_group_s, 
                       __ZN10QMIControl6createERK4QMux, __ZN10QMIControl7DeleterclEPS_, 
                       __ZN10QMIControl8add_syncENSt3__110shared_ptrIN3qmi15QMuxClientIfaceEEE, 
                       __ZN10QMIControl9init_syncERK4QMux, __ZN10QMIControl9join_syncEP16dispatch_group_s, 
                       __ZN10QMIControlC1ERK4QMux, __ZN10QMIControlC2ERK4QMux, 
                       __ZN10QMIControlD0Ev, __ZN10QMIControlD1Ev, __ZN10QMIControlD2Ev, 
                       __ZN11ATCSCounted6decRefEv, __ZN11ATCSCounted6incRefEv, 
                       __ZN11ATCSCountedC1Ev, __ZN11ATCSCountedC2Ev, __ZN11ATCSCountedD0Ev, 
                       __ZN11ATCSCountedD1Ev, __ZN11ATCSCountedD2Ev, __ZN12ATCSDPCQueue10startTimerEj, 
                       __ZN12ATCSDPCQueue11handleTimerEv, __ZN12ATCSDPCQueue6cancelEv, 
                       __ZN12ATCSDPCQueue7enqueueEPNS_8CallbackE, __ZN12ATCSDPCQueue8CallbackC2Ev, 
                       __ZN12ATCSDPCQueue8CallbackD0Ev, __ZN12ATCSDPCQueue8CallbackD1Ev, 
                       __ZN12ATCSDPCQueue8CallbackD2Ev, __ZN12ATCSDPCQueueC1Ev, 
                       __ZN12ATCSDPCQueueC2Ev, __ZN12ATCSDPCQueueD1Ev, 
                       __ZN12ATCSDPCQueueD2Ev, __ZN12ATDispatcher13sendMultiLineEPKcS1_z, 
                       __ZN12ATDispatcher14fsBootstrappedE, __ZN12ATDispatcher18handleSendBlockingERK10ATResponsePv, 
                       __ZN12ATDispatcher18setDriverAndCookieEP13ATCSIPCDriverPv, 
                       __ZN12ATDispatcher20sendBlockingInternalEjPKcP13__va_list_tag, 
                       __ZN12ATDispatcher4initEP13ATCSIPCDriverPvRKNSt3__112basic_stringIcNS3_11char_traitsIcEENS3_9allocatorIcEEEE, 
                       __ZN12ATDispatcher4sendEPKcz, __ZN12ATDispatcher4sendEiPKcz, 
                       __ZN12ATDispatcher6createEP13ATCSIPCDriverPvRKNSt3__112basic_stringIcNS3_11char_traitsIcEENS3_9allocatorIcEEEEP16ATCSResetInvokerbb, 
                       __ZN12ATDispatcher8sendBulkEPKcz, __ZN12ATDispatcher8tearDownEv, 
                       __ZN12ATDispatcher9bootstrapEv, __ZN12ATDispatcherC2Ev, 
                       __ZN12ATDispatcherD0Ev, __ZN12ATDispatcherD1Ev, 
                       __ZN12ATDispatcherD2Ev, __ZN13ATCSCondition4waitEP9ATCSMutexi, 
                       __ZN13ATCSCondition6signalEv, __ZN13ATCSCondition9broadcastEv, 
                       __ZN13ATCSConditionC1EPKc, __ZN13ATCSConditionC2EPKc, 
                       __ZN13ATCSConditionD1Ev, __ZN13ATCSConditionD2Ev, 
                       __ZN13ATCSIPCDriver12exitLowPowerEv, __ZN13ATCSIPCDriver13enterLowPowerEv, 
                       __ZN13ATCSIPCDriver17bootstrapInternalEv, __ZN13ATCSIPCDriver9bootstrapEv, 
                       __ZN13ATCSIPCDriverC2Ev, __ZN13ATCSIPCDriverD0Ev, 
                       __ZN13ATCSIPCDriverD1Ev, __ZN13ATCSIPCDriverD2Ev, 
                       __ZN13QMIServiceMsg10decodeByteEPKv, __ZN13QMIServiceMsg10decodeWordEPKv, 
                       __ZN13QMIServiceMsg10encodeByteEPPch, __ZN13QMIServiceMsg10encodeWordEPPct, 
                       __ZN13QMIServiceMsg13createRequestEPKvt, __ZN13QMIServiceMsg14setErrorValuesEv, 
                       __ZN13QMIServiceMsg17createFromRawDataEPKhth, __ZN13QMIServiceMsg17createFromRawDataERKNSt3__16vectorIhNS0_9allocatorIhEEEEh, 
                       __ZN13QMIServiceMsg6addTlvEP3Tlv, __ZN13QMIServiceMsg6createEPKvt, 
                       __ZN13QMIServiceMsg6createERKN3qmi18MutableMessageBaseE, 
                       __ZN13QMIServiceMsg6createEt, __ZN13QMIServiceMsg6createEtNS_10ResultTypeENS_17InternalErrorTypeE, 
                       __ZN13QMIServiceMsg6getTlvEh, __ZN13QMIServiceMsg6getTlvEv, 
                       __ZN13QMIServiceMsg9createTlvEht, __ZN13QMIServiceMsgC1EPKvtb, 
                       __ZN13QMIServiceMsgC1ERKNSt3__16vectorIhNS0_9allocatorIhEEEEh, 
                       __ZN13QMIServiceMsgC1Et, __ZN13QMIServiceMsgC1EtNS_10ResultTypeENS_17InternalErrorTypeE, 
                       __ZN13QMIServiceMsgC2EPKvtb, __ZN13QMIServiceMsgC2ERKNSt3__16vectorIhNS0_9allocatorIhEEEEh, 
                       __ZN13QMIServiceMsgC2Et, __ZN13QMIServiceMsgC2EtNS_10ResultTypeENS_17InternalErrorTypeE, 
                       __ZN13QMIServiceMsgD0Ev, __ZN13QMIServiceMsgD1Ev, 
                       __ZN13QMIServiceMsgD2Ev, __ZN13QMIWakeReason3setEPKvjy, 
                       __ZN13QMIWakeReason5resetEv, __ZN13QMIWakeReasonC1Ev, 
                       __ZN13QMIWakeReasonC2Ev, __ZN13QMuxQueueItem9serializeEPvtt, 
                       __ZN13QMuxQueueItemC1EN3qmi11ServiceTypeEhtRK13QMIServiceMsg, 
                       __ZN13QMuxQueueItemC2EN3qmi11ServiceTypeEhtRK13QMIServiceMsg, 
                       __ZN13QMuxQueueItemD1Ev, __ZN13QMuxQueueItemD2Ev, 
                       __ZN14_ATCSException15constructCommonEPKcjS1_P13__va_list_tag, 
                       __ZN14_ATCSException16triggerAssertionEPKcjS1_S1_S1_, 
                       __ZN14_ATCSException16triggerAssertionEPKcjS1_S1_S1_S1_z, 
                       __ZN14_ATCSException16triggerAssertionEPKcjS1_S1_S1_mm, 
                       __ZN14_ATCSException16triggerAssertionEPKcjS1_S1_S1_mmS1_z, 
                       __ZN14_ATCSException19setExceptionHandlerEPFvRS_E, 
                       __ZN14_ATCSException6appendEPKcP13__va_list_tag, 
                       __ZN14_ATCSExceptionC1EPKcjS1_z, __ZN14_ATCSExceptionC1ERKS_, 
                       __ZN14_ATCSExceptionC2EPKcjS1_z, __ZN14_ATCSExceptionC2ERKS_, 
                       __ZN15ATCSTimerDriver14setNextTimeoutEi, __ZN15ATCSTimerDriver15timerDispatcherEv, 
                       __ZN15ATCSTimerDriver24startATCSTimerDispatcherEPv, 
                       __ZN15ATCSTimerDriver6createEv, __ZN15ATCSTimerDriverC1Ev, 
                       __ZN15ATCSTimerDriverC2Ev, __ZN15ATCSTimerDriverD0Ev, 
                       __ZN15ATCSTimerDriverD1Ev, __ZN15ATCSTimerDriverD2Ev, 
                       __ZN17ATCSTextConverter13popConversionEv, __ZN17ATCSTextConverter14pushConversionENS_10ConversionEiii, 
                       __ZN17ATCSTextConverter15decodeHexStringEPKci, __ZN17ATCSTextConverter17exceptionOccurredEv, 
                       __ZN17ATCSTextConverter18getGsm7EncodedSizeEiNS_16Ucs2ToGsm7TablesE, 
                       __ZN17ATCSTextConverter21countSeptetsInMessageEPKciNS_16Ucs2ToGsm7TablesE, 
                       __ZN17ATCSTextConverter25decodeCbsDataCodingSchemeEiRNS_12MessageClassERNS_15MessageEncodingERb, 
                       __ZN17ATCSTextConverter25decodeSmsDataCodingSchemeEiRNS_12MessageClassERNS_15MessageEncodingERbS4_S4_S4_S4_, 
                       __ZN17ATCSTextConverter28countCharactersInUtf8MessageEPKci, 
                       __ZN17ATCSTextConverter8nextCodeEv, __ZN17ATCSTextConverter9readCharsEi, 
                       __ZN17ATCSTextConverter9setSourceEPKci, __ZN17ATCSTextConverterC1Ev, 
                       __ZN17ATCSTextConverterC2Ev, __ZN17ATCSTextConverterD1Ev, 
                       __ZN17ATCSTextConverterD2Ev, __ZN17QMIClientCallback13exitPowerModeEP9QMIClient, 
                       __ZN17QMIClientCallback14enterPowerModeEP9QMIClientP16dispatch_group_sN3qmi12PowerProfileE, 
                       __ZN21ATCSThreadedIPCDriver10readWorkerEv, __ZN21ATCSThreadedIPCDriver11writeWorkerEv, 
                       __ZN21ATCSThreadedIPCDriver16readWorkerStaticEPv, 
                       __ZN21ATCSThreadedIPCDriver16tearDownInternalEv, 
                       __ZN21ATCSThreadedIPCDriver17bootstrapInternalEb, 
                       __ZN21ATCSThreadedIPCDriver17writeWorkerStaticEPv, 
                       __ZN21ATCSThreadedIPCDriver19stopWorkersInternalEv, 
                       __ZN21ATCSThreadedIPCDriver20startWorkersInternalEv, 
                       __ZN21ATCSThreadedIPCDriver21startRemainingWorkersEv, 
                       __ZN21ATCSThreadedIPCDriver24startRemainingWorkers_nlEv, 
                       __ZN21ATCSThreadedIPCDriverC2Ev, __ZN22ATCSCommPortConfigurer9configureEv, 
                       __ZN22ATCSCommPortConfigurerC1Eijjjb, __ZN22ATCSCommPortConfigurerC2Eijjjb, 
                       __ZN27ATCSFileDescriptorIPCDriver6createEbjj, __ZN27ATCSFileDescriptorIPCDriverC2Ev, 
                       __ZN27ATCSFileDescriptorIPCDriverD0Ev, __ZN27ATCSFileDescriptorIPCDriverD1Ev, 
                       __ZN27ATCSFileDescriptorIPCDriverD2Ev, __ZN3Tlv10getDWordAtEt, 
                       __ZN3Tlv10getQWordAtEt, __ZN3Tlv10putDWordAtEjt, 
                       __ZN3Tlv10putQWordAtERKyt, __ZN3Tlv14getStringFieldEv, 
                       __ZN3Tlv14putStringFieldERKNSt3__112basic_stringIcNS0_11char_traitsIcEENS0_9allocatorIcEEEE, 
                       __ZN3Tlv16getStringFieldAtEt, __ZN3Tlv6Reader14getStringFieldEv, 
                       __ZN3Tlv6Reader7getByteEv, __ZN3Tlv6Reader7getDataEt, 
                       __ZN3Tlv6Reader7getWordEv, __ZN3Tlv6Reader8getDWordEv, 
                       __ZN3Tlv6Reader8getFloatEv, __ZN3Tlv6Reader8getQWordEv, 
                       __ZN3Tlv6Reader9getDoubleEv, __ZN3Tlv6Writer10putDWordAtEjt, 
                       __ZN3Tlv6Writer10putFloatAtEft, __ZN3Tlv6Writer10putQWordAtEyt, 
                       __ZN3Tlv6Writer11putDoubleAtEdt, __ZN3Tlv6Writer14putStringFieldERKNSt3__112basic_stringIcNS1_11char_traitsIcEENS1_9allocatorIcEEEE, 
                       __ZN3Tlv6Writer7putByteEh, __ZN3Tlv6Writer7putDataEPKvt, 
                       __ZN3Tlv6Writer7putWordEt, __ZN3Tlv6Writer8putDWordEj, 
                       __ZN3Tlv6Writer8putFloatEf, __ZN3Tlv6Writer8putQWordEy, 
                       __ZN3Tlv6Writer9putByteAtEht, __ZN3Tlv6Writer9putDoubleEd, 
                       __ZN3Tlv6Writer9putWordAtEtt, __ZN3Tlv6createERKS_, 
                       __ZN3Tlv6createEht, __ZN3Tlv6createEhtPKv, __ZN3Tlv7getByteEv, 
                       __ZN3Tlv7getDataEt, __ZN3Tlv7getWordEv, __ZN3Tlv7putByteEh, 
                       __ZN3Tlv7putDataEPKvt, __ZN3Tlv7putWordEt, __ZN3Tlv8getDWordEv, 
                       __ZN3Tlv8getQWordEv, __ZN3Tlv8putDWordEj, __ZN3Tlv8putQWordERKy, 
                       __ZN3Tlv9getByteAtEt, __ZN3Tlv9getDataAtEtt, __ZN3Tlv9getWordAtEt, 
                       __ZN3Tlv9putByteAtEht, __ZN3Tlv9putWordAtEtt, __ZN3TlvC1ERKS_, 
                       __ZN3TlvC1Eht, __ZN3TlvC1EhtPKv, __ZN3TlvC2ERKS_, 
                       __ZN3TlvC2Eht, __ZN3TlvC2EhtPKv, __ZN3TlvD1Ev, __ZN3TlvD2Ev, 
                       __ZN3qmi11ClientProxy14sendIndicationENSt3__16vectorIhNS1_9allocatorIhEEEE, 
                       __ZN3qmi11ClientProxy16registerResponseEtNSt3__16vectorIhNS1_9allocatorIhEEEE, 
                       __ZN3qmi11ClientProxy18deregisterResponseEt, __ZN3qmi11ClientProxy5State11Transaction10startTimerEU13block_pointerFvvE, 
                       __ZN3qmi11ClientProxy5State11TransactionC1EPK13QMIServiceMsgtj, 
                       __ZN3qmi11ClientProxy5State11TransactionC1ERKS2_, 
                       __ZN3qmi11ClientProxy5State11TransactionC2EPK13QMIServiceMsgtj, 
                       __ZN3qmi11ClientProxy5State11TransactionC2ERKS2_, 
                       __ZN3qmi11ClientProxy5State11TransactionD1Ev, __ZN3qmi11ClientProxy5State11TransactionD2Ev, 
                       __ZN3qmi11ClientProxy5State11TransactionaSES2_, 
                       __ZN3qmi11ClientProxy5State14sendIndicationENSt3__16vectorIhNS2_9allocatorIhEEEE, 
                       __ZN3qmi11ClientProxy5State15handleSend_syncERKN3xpc4dictERKNS2_6objectE, 
                       __ZN3qmi11ClientProxy5State16registerResponseEtNSt3__16vectorIhNS2_9allocatorIhEEEE, 
                       __ZN3qmi11ClientProxy5State17handleStatus_syncENS_12ClientStatusE, 
                       __ZN3qmi11ClientProxy5State17setConnected_syncEv, 
                       __ZN3qmi11ClientProxy5State18deregisterResponseEt, 
                       __ZN3qmi11ClientProxy5State19handleResponse_syncEPK13QMIServiceMsgt, 
                       __ZN3qmi11ClientProxy5State19sendIfPossible_syncEv, 
                       __ZN3qmi11ClientProxy5State19updateTrackedConfigEN3ctu8LogLevelE, 
                       __ZN3qmi11ClientProxy5State20checkIfLowPower_syncEv, 
                       __ZN3qmi11ClientProxy5State20setDisconnected_syncEb, 
                       __ZN3qmi11ClientProxy5State20triggerLowPower_syncERKN8dispatch5groupE, 
                       __ZN3qmi11ClientProxy5State21handleIndication_syncEPK13QMIServiceMsg, 
                       __ZN3qmi11ClientProxy5State22cancelAllMessages_syncEv, 
                       __ZN3qmi11ClientProxy5State22cleanUpDisconnect_syncEv, 
                       __ZN3qmi11ClientProxy5State22handleClientEvent_syncERKN3xpc4dictE, 
                       __ZN3qmi11ClientProxy5State22handleSentMessage_syncEt, 
                       __ZN3qmi11ClientProxy5State23handleSendNotReady_syncERKN3xpc4dictE, 
                       __ZN3qmi11ClientProxy5State24handleIndWakeChange_syncERKN3xpc4dictE, 
                       __ZN3qmi11ClientProxy5State24triggerExitLowPower_syncEv, 
                       __ZN3qmi11ClientProxy5State26sendDisconnectMessage_syncEb, 
                       __ZN3qmi11ClientProxy5State27createCallBacksHandler_syncEv, 
                       __ZN3qmi11ClientProxy5State37sendInternalErrorResponseForTxId_syncEti, 
                       __ZN3qmi11ClientProxy5State41sendInternalErrorResponseForRemoteId_syncERKN3xpc6objectEi, 
                       __ZN3qmi11ClientProxy5State4initEv, __ZN3qmi11ClientProxy5State9init_syncEv, 
                       __ZN3qmi11ClientProxy5StateC2ERKNSt3__112basic_stringIcNS2_11char_traitsIcEENS2_9allocatorIcEEEERKN8dispatch5queueERKN3xpc10connectionENS_11ServiceTypeE, 
                       __ZN3qmi11ClientProxy5StateD0Ev, __ZN3qmi11ClientProxy5StateD1Ev, 
                       __ZN3qmi11ClientProxy5StateD2Ev, __ZN3qmi11ClientProxyC1ERKNSt3__110shared_ptrINS0_5StateEEE, 
                       __ZN3qmi11ClientProxyC2ERKNSt3__110shared_ptrINS0_5StateEEE, 
                       __ZN3qmi11ClientProxyD1Ev, __ZN3qmi11ClientProxyD2Ev, 
                       __ZN3qmi11Transaction10startTimerEU13block_pointerFvtE, 
                       __ZN3qmi11Transaction11cancelTimerEv, __ZN3qmi11Transaction6invokeEP16dispatch_queue_sRK13QMIServiceMsg, 
                       __ZN3qmi11TransactionC1ERK13QMIServiceMsgjP9QCallbackt, 
                       __ZN3qmi11TransactionC2ERK13QMIServiceMsgjP9QCallbackt, 
                       __ZN3qmi11TransactionD1Ev, __ZN3qmi11TransactionD2Ev, 
                       __ZN3qmi11kClientNameE, __ZN3qmi12kClientMsgIdE, 
                       __ZN3qmi13kClientStatusE, __ZN3qmi14kClientConnectE, 
                       __ZN3qmi14kClientSendQmiE, __ZN3qmi14kClientSvcTypeE, 
                       __ZN3qmi15QMuxClientIface11setLogLevelENS_8LogLevelE, 
                       __ZN3qmi15QMuxClientIface14setMaxLogBytesEj, __ZN3qmi15QMuxClientIface23setShouldResetOnTimeoutEb, 
                       __ZN3qmi15QMuxClientIface24MAX_CLIENT_MESSAGES_SENTE, 
                       __ZN3qmi15QMuxClientIfaceC2ERKNSt3__112basic_stringIcNS1_11char_traitsIcEENS1_9allocatorIcEEEENS_11ServiceTypeE, 
                       __ZN3qmi16TransactionQueue10flush_syncEP16dispatch_group_s, 
                       __ZN3qmi16TransactionQueue10stall_syncEP16dispatch_group_s, 
                       __ZN3qmi16TransactionQueue10stall_syncEv, __ZN3qmi16TransactionQueue10start_syncEv, 
                       __ZN3qmi16TransactionQueue14forceSend_syncERK13QMIServiceMsgjP9QCallback, 
                       __ZN3qmi16TransactionQueue15startTimer_syncEt, __ZN3qmi16TransactionQueue23setSendWindowWidth_syncEj, 
                       __ZN3qmi16TransactionQueue28sendTransactionResponse_syncEtRK13QMIServiceMsg, 
                       __ZN3qmi16TransactionQueue4swapERS0_, __ZN3qmi16TransactionQueue5State10flush_syncEP16dispatch_group_s, 
                       __ZN3qmi16TransactionQueue5State10stall_syncEP16dispatch_group_s, 
                       __ZN3qmi16TransactionQueue5State10stall_syncEv, 
                       __ZN3qmi16TransactionQueue5State10start_syncEv, 
                       __ZN3qmi16TransactionQueue5State12sendNow_syncEv, 
                       __ZN3qmi16TransactionQueue5State14forceSend_syncERK13QMIServiceMsgjP9QCallback, 
                       __ZN3qmi16TransactionQueue5State15startTimer_syncEt, 
                       __ZN3qmi16TransactionQueue5State16sendTimeout_syncEt, 
                       __ZN3qmi16TransactionQueue5State19sendIfPossible_syncEv, 
                       __ZN3qmi16TransactionQueue5State22createTransaction_syncERN5boost9ptr_dequeINS_11TransactionENS2_20heap_clone_allocatorENSt3__19allocatorIPvEEEERK13QMIServiceMsgjP9QCallback, 
                       __ZN3qmi16TransactionQueue5State23setSendWindowWidth_syncEj, 
                       __ZN3qmi16TransactionQueue5State24checkFlushNotifiers_syncEv, 
                       __ZN3qmi16TransactionQueue5State24findSentTransaction_syncEt, 
                       __ZN3qmi16TransactionQueue5State28sendTransactionResponse_syncEtRK13QMIServiceMsg, 
                       __ZN3qmi16TransactionQueue5State6createEP16dispatch_queue_sS3_RK4QMuxRKNSt3__110shared_ptrINS_15QMuxClientIfaceEEENS1_9QueueTypeE, 
                       __ZN3qmi16TransactionQueue5State7DeleterclEPS1_, 
                       __ZN3qmi16TransactionQueue5State9push_syncERK13QMIServiceMsgjP9QCallback, 
                       __ZN3qmi16TransactionQueue5State9stop_syncEv, __ZN3qmi16TransactionQueue5StateC1EP16dispatch_queue_sS3_RK4QMuxRKNSt3__110shared_ptrINS_15QMuxClientIfaceEEENS1_9QueueTypeE, 
                       __ZN3qmi16TransactionQueue5StateC2EP16dispatch_queue_sS3_RK4QMuxRKNSt3__110shared_ptrINS_15QMuxClientIfaceEEENS1_9QueueTypeE, 
                       __ZN3qmi16TransactionQueue5StateD1Ev, __ZN3qmi16TransactionQueue5StateD2Ev, 
                       __ZN3qmi16TransactionQueue9send_syncERK13QMIServiceMsgjP9QCallback, 
                       __ZN3qmi16TransactionQueue9stop_syncEv, __ZN3qmi16TransactionQueueC1EP16dispatch_queue_sS2_RK4QMuxRKNSt3__110shared_ptrINS_15QMuxClientIfaceEEEb, 
                       __ZN3qmi16TransactionQueueC1ERKS0_, __ZN3qmi16TransactionQueueC1Ev, 
                       __ZN3qmi16TransactionQueueC2EP16dispatch_queue_sS2_RK4QMuxRKNSt3__110shared_ptrINS_15QMuxClientIfaceEEEb, 
                       __ZN3qmi16TransactionQueueC2ERKS0_, __ZN3qmi16TransactionQueueC2Ev, 
                       __ZN3qmi16TransactionQueueD1Ev, __ZN3qmi16TransactionQueueD2Ev, 
                       __ZN3qmi16TransactionQueueaSERKS0_, __ZN3qmi16kClientTempErrorE, 
                       __ZN3qmi17kClientIndWakeAddE, __ZN3qmi17kClientRawRequestE, 
                       __ZN3qmi17kClientSendWindowE, __ZN3qmi18QMuxServerAccepter14sendIndicationENSt3__112basic_stringIcNS1_11char_traitsIcEENS1_9allocatorIcEEEENS1_6vectorIhNS5_IhEEEE, 
                       __ZN3qmi18QMuxServerAccepter16registerResponseENSt3__112basic_stringIcNS1_11char_traitsIcEENS1_9allocatorIcEEEEtNS1_6vectorIhNS5_IhEEEE, 
                       __ZN3qmi18QMuxServerAccepter18deregisterResponseENSt3__112basic_stringIcNS1_11char_traitsIcEENS1_9allocatorIcEEEEt, 
                       __ZN3qmi18QMuxServerAccepter21setValidationStrategyENSt3__18functionIFbPvEEE, 
                       __ZN3qmi18QMuxServerAccepter5State11tidyUp_syncEv, 
                       __ZN3qmi18QMuxServerAccepter5State14sendIndicationENSt3__112basic_stringIcNS2_11char_traitsIcEENS2_9allocatorIcEEEENS2_6vectorIhNS6_IhEEEE, 
                       __ZN3qmi18QMuxServerAccepter5State16registerResponseENSt3__112basic_stringIcNS2_11char_traitsIcEENS2_9allocatorIcEEEEtNS2_6vectorIhNS6_IhEEEE, 
                       __ZN3qmi18QMuxServerAccepter5State18deregisterResponseENSt3__112basic_stringIcNS2_11char_traitsIcEENS2_9allocatorIcEEEEt, 
                       __ZN3qmi18QMuxServerAccepter5State21setValidationStrategyENSt3__18functionIFbPvEEE, 
                       __ZN3qmi18QMuxServerAccepter5State6acceptERKN3xpc10connectionERKNS2_4dictERKN8dispatch5queueE, 
                       __ZN3qmi18QMuxServerAccepter5State6createERK4QMuxRKN8dispatch5queueERKNSt3__112basic_stringIcNS9_11char_traitsIcEENS9_9allocatorIcEEEE, 
                       __ZN3qmi18QMuxServerAccepter5StateC1ERK4QMuxRKN8dispatch5queueENSt3__112basic_stringIcNS9_11char_traitsIcEENS9_9allocatorIcEEEE, 
                       __ZN3qmi18QMuxServerAccepter5StateC2ERK4QMuxRKN8dispatch5queueENSt3__112basic_stringIcNS9_11char_traitsIcEENS9_9allocatorIcEEEE, 
                       __ZN3qmi18QMuxServerAccepter5StateD0Ev, __ZN3qmi18QMuxServerAccepter5StateD1Ev, 
                       __ZN3qmi18QMuxServerAccepter5StateD2Ev, __ZN3qmi18QMuxServerAccepter6listenERNS_6ServerE, 
                       __ZN3qmi18QMuxServerAccepterC1ERK4QMuxRKP16dispatch_queue_s, 
                       __ZN3qmi18QMuxServerAccepterC1ERK4QMuxRKP16dispatch_queue_sRKNSt3__112basic_stringIcNS8_11char_traitsIcEENS8_9allocatorIcEEEE, 
                       __ZN3qmi18QMuxServerAccepterC1Ev, __ZN3qmi18QMuxServerAccepterC2ERK4QMuxRKP16dispatch_queue_s, 
                       __ZN3qmi18QMuxServerAccepterC2ERK4QMuxRKP16dispatch_queue_sRKNSt3__112basic_stringIcNS8_11char_traitsIcEENS8_9allocatorIcEEEE, 
                       __ZN3qmi18QMuxServerAccepterC2Ev, __ZN3qmi18QMuxServerAccepterD1Ev, 
                       __ZN3qmi18QMuxServerAccepterD2Ev, __ZN3qmi18kClientResponseQmiE, 
                       __ZN3qmi20kClientIndWakeRemoveE, __ZN3qmi20kClientIndicationQmiE, 
                       __ZN3qmi20kClientRawHeaderSizeE, __ZN3qmi20kClientSendTimeoutMsE, 
                       __ZN3qmi21kClientRemoteLogBytesE, __ZN3qmi21kClientRemoteLogLevelE, 
                       __ZN3qmi23kClientOldInternalErrorE, __ZN3qmi25kClientLowPowerExitNotifyE, 
                       __ZN3qmi26kClientLowPowerEnterNotifyE, __ZN3qmi6Client15setClientHandleERKNSt3__18weak_ptrIvEE, 
                       __ZN3qmi6Client3setEPKci, __ZN3qmi6Client3setEPKcj, 
                       __ZN3qmi6Client5State10setHandlerENS0_5EventEN8dispatch5blockIU13block_pointerFvP16dispatch_group_sEEE, 
                       __ZN3qmi6Client5State10setHandlerENS0_5EventEN8dispatch5blockIU13block_pointerFvPvEEE, 
                       __ZN3qmi6Client5State13setIndHandlerEtN8dispatch5blockIU13block_pointerFvRK13QMIServiceMsgEEE, 
                       __ZN3qmi6Client5State15setClientHandleERKNSt3__18weak_ptrIvEE, 
                       __ZN3qmi6Client5State16handleEvent_syncEPv, __ZN3qmi6Client5State16setIndShouldWakeEtb, 
                       __ZN3qmi6Client5State17handleStatus_syncEN3xpc4dictENS_12ClientStatusE, 
                       __ZN3qmi6Client5State18pickNextMsgId_syncEv, __ZN3qmi6Client5State19handleResponse_syncEPvS2_, 
                       __ZN3qmi6Client5State21handleIndication_syncEPvS2_, 
                       __ZN3qmi6Client5State23handleExitLowPower_syncEPv, 
                       __ZN3qmi6Client5State24handleEnterLowPower_syncEPv, 
                       __ZN3qmi6Client5State4initERKNSt3__112basic_stringIcNS2_11char_traitsIcEENS2_9allocatorIcEEEE, 
                       __ZN3qmi6Client5State4sendEN3xpc4dictE, __ZN3qmi6Client5State4sendERNS0_9SendProxyE, 
                       __ZN3qmi6Client5State4stopEv, __ZN3qmi6Client5State5startEv, 
                       __ZN3qmi6Client5State6createERKNSt3__112basic_stringIcNS2_11char_traitsIcEENS2_9allocatorIcEEEERKN3xpc10connectionENS_11ServiceTypeERKN8dispatch5queueE, 
                       __ZN3qmi6Client5State9send_syncERKN3xpc4dictERK13QMIServiceMsgRKN8dispatch5blockIU13block_pointerFvS8_EEE, 
                       __ZN3qmi6Client5StateC1ERKNSt3__112basic_stringIcNS2_11char_traitsIcEENS2_9allocatorIcEEEERKN3xpc10connectionENS_11ServiceTypeERKN8dispatch5queueE, 
                       __ZN3qmi6Client5StateC2ERKNSt3__112basic_stringIcNS2_11char_traitsIcEENS2_9allocatorIcEEEERKN3xpc10connectionENS_11ServiceTypeERKN8dispatch5queueE, 
                       __ZN3qmi6Client5StateD0Ev, __ZN3qmi6Client5StateD1Ev, 
                       __ZN3qmi6Client5StateD2Ev, __ZN3qmi6Client6createERKNSt3__112basic_stringIcNS1_11char_traitsIcEENS1_9allocatorIcEEEENS_11ServiceTypeEP16dispatch_queue_sS9_P17_xpc_connection_s, 
                       __ZN3qmi6Client7releaseEv, __ZN3qmi6ClientC1ERKNSt3__112basic_stringIcNS1_11char_traitsIcEENS1_9allocatorIcEEEENS_11ServiceTypeEP16dispatch_queue_sS9_P17_xpc_connection_s, 
                       __ZN3qmi6ClientC1ERKNSt3__18weak_ptrINS0_5StateEEE, 
                       __ZN3qmi6ClientC2ERKNSt3__112basic_stringIcNS1_11char_traitsIcEENS1_9allocatorIcEEEENS_11ServiceTypeEP16dispatch_queue_sS9_P17_xpc_connection_s, 
                       __ZN3qmi6ClientC2ERKNSt3__18weak_ptrINS0_5StateEEE, 
                       __ZN3qmi6ClientD1Ev, __ZN3qmi6ClientD2Ev, __ZN3qmi6Server5State16registerAccepterENSt3__18weak_ptrINS0_8AccepterEEE, 
                       __ZN3qmi6Server5State18handleNewConn_syncEN3xpc10connectionE, 
                       __ZN3qmi6Server5State20handleConnError_syncEPv, 
                       __ZN3qmi6Server5State25handleConnectRequest_syncERKN3xpc4dictEN8dispatch5queueE, 
                       __ZN3qmi6Server5State6createERKN3xpc10connectionE, 
                       __ZN3qmi6Server5State9init_syncEv, __ZN3qmi6Server5StateC1ERKN3xpc10connectionE, 
                       __ZN3qmi6Server5StateC2ERKN3xpc10connectionE, __ZN3qmi6Server5StateD0Ev, 
                       __ZN3qmi6Server5StateD1Ev, __ZN3qmi6Server5StateD2Ev, 
                       __ZN3qmi6Server6createERKN3xpc10connectionE, __ZN3qmi6ServerC1ERKN3xpc10connectionE, 
                       __ZN3qmi6ServerC2ERKN3xpc10connectionE, __ZN3qmi6ServerD1Ev, 
                       __ZN3qmi6ServerD2Ev, __ZN3qmi8asStringENS_12ClientStatusE, 
                       __ZN4QMux11invokeResetERKNSt3__112basic_stringIcNS0_11char_traitsIcEENS0_9allocatorIcEEEEb, 
                       __ZN4QMux11joinControlEv, __ZN4QMux14enterPowerModeEP16dispatch_group_sN3qmi12PowerProfileE, 
                       __ZN4QMux18setDriverAndCookieEP13ATCSIPCDriverPv, 
                       __ZN4QMux23getQMIPowerDownMessagesEv, __ZN4QMux3addENSt3__110shared_ptrIN3qmi15QMuxClientIfaceEEE, 
                       __ZN4QMux4joinEv, __ZN4QMux4sendENSt3__110shared_ptrIN3qmi15QMuxClientIfaceEEEtRK13QMIServiceMsg, 
                       __ZN4QMux4stopEv, __ZN4QMux5State10check_syncEv, 
                       __ZN4QMux5State10flush_syncEP16dispatch_group_s, 
                       __ZN4QMux5State10start_syncEv, __ZN4QMux5State11invokeResetENSt3__112basic_stringIcNS1_11char_traitsIcEENS1_9allocatorIcEEEE, 
                       __ZN4QMux5State11joinControlEv, __ZN4QMux5State11remove_syncERKNSt3__110shared_ptrIN3qmi15QMuxClientIfaceEEE, 
                       __ZN4QMux5State12getWriteDataEPhj, __ZN4QMux5State12powerUp_syncEv, 
                       __ZN4QMux5State12restart_syncEv, __ZN4QMux5State12setMainStateENS0_9MainStateE, 
                       __ZN4QMux5State13tearDown_syncEv, __ZN4QMux5State14handleReadDataEPKhj, 
                       __ZN4QMux5State14powerDown_syncEv, __ZN4QMux5State14setLogger_syncERKNSt3__110shared_ptrI10ATCSLoggerEE, 
                       __ZN4QMux5State16clearQueues_syncEv, __ZN4QMux5State16invokeReset_syncERKNSt3__112basic_stringIcNS1_11char_traitsIcEENS1_9allocatorIcEEEE, 
                       __ZN4QMux5State17getWriteData_syncEPhj, __ZN4QMux5State17revokeClient_syncEN3qmi11ServiceTypeEh, 
                       __ZN4QMux5State18handleMessage_syncERKN3qmi10QMuxHeaderEPKvjS6_j, 
                       __ZN4QMux5State18setDriverAndCookieEP13ATCSIPCDriverPv, 
                       __ZN4QMux5State19enterPowerMode_syncEP16dispatch_group_sN3qmi12PowerProfileE, 
                       __ZN4QMux5State19handleReadData_syncEPKhj, __ZN4QMux5State21powerDown_finish_syncEv, 
                       __ZN4QMux5State22notifyClientAdded_syncERKNSt3__110shared_ptrIN3qmi15QMuxClientIfaceEEEh, 
                       __ZN4QMux5State22notifySyncFailure_syncEv, __ZN4QMux5State22notifySyncSuccess_syncEv, 
                       __ZN4QMux5State23getQMIPowerDownMessagesEv, __ZN4QMux5State25getWriteDataInternal_syncEPhj, 
                       __ZN4QMux5State26powerUp_signalClients_syncEv, __ZN4QMux5State27clearPowerDownWatchdog_syncEv, 
                       __ZN4QMux5State27notifyClientAddFailure_syncENSt3__110shared_ptrIN3qmi15QMuxClientIfaceEEENS3_5ErrorE, 
                       __ZN4QMux5State27powerDown_configIndSet_syncEv, 
                       __ZN4QMux5State27startPowerDownWatchdog_syncEv, 
                       __ZN4QMux5State30getClientPowerDownSession_syncERKN3qmi15QMuxClientIfaceE, 
                       __ZN4QMux5State6createERKNSt3__112basic_stringIcNS1_11char_traitsIcEENS1_9allocatorIcEEEEP16ATCSResetInvokerN3qmi8LogLevelEb, 
                       __ZN4QMux5State7DeleterclEPS0_, __ZN4QMux5State8add_syncERKNSt3__110shared_ptrIN3qmi15QMuxClientIfaceEEE, 
                       __ZN4QMux5State9init_syncEv, __ZN4QMux5State9send_syncERKNSt3__110shared_ptrIN3qmi15QMuxClientIfaceEEEtRK13QMIServiceMsg, 
                       __ZN4QMux5State9stop_syncEv, __ZN4QMux5StateC1ERKNSt3__112basic_stringIcNS1_11char_traitsIcEENS1_9allocatorIcEEEEP16ATCSResetInvokerN3qmi8LogLevelEb, 
                       __ZN4QMux5StateC2ERKNSt3__112basic_stringIcNS1_11char_traitsIcEENS1_9allocatorIcEEEEP16ATCSResetInvokerN3qmi8LogLevelEb, 
                       __ZN4QMux5StateD0Ev, __ZN4QMux5StateD1Ev, __ZN4QMux5StateD2Ev, 
                       __ZN4QMux5flushEP16dispatch_group_s, __ZN4QMux5startEv, 
                       __ZN4QMux6removeENSt3__110shared_ptrIN3qmi15QMuxClientIfaceEEE, 
                       __ZN4QMux7restartEv, __ZN4QMux9resetQMuxEv, __ZN4QMuxC1EP13ATCSIPCDriverPvRKNSt3__112basic_stringIcNS3_11char_traitsIcEENS3_9allocatorIcEEEEP16ATCSResetInvokerN3qmi8LogLevelEb, 
                       __ZN4QMuxC1EP13ATCSIPCDriverPvRKNSt3__112basic_stringIcNS3_11char_traitsIcEENS3_9allocatorIcEEEEP16ATCSResetInvokerbb, 
                       __ZN4QMuxC1EP13ATCSIPCDriverPvRKNSt3__112basic_stringIcNS3_11char_traitsIcEENS3_9allocatorIcEEEEP16ATCSResetInvokerbbb, 
                       __ZN4QMuxC1ERKNSt3__18weak_ptrINS_5StateEEE, __ZN4QMuxC1Ev, 
                       __ZN4QMuxC2EP13ATCSIPCDriverPvRKNSt3__112basic_stringIcNS3_11char_traitsIcEENS3_9allocatorIcEEEEP16ATCSResetInvokerN3qmi8LogLevelEb, 
                       __ZN4QMuxC2EP13ATCSIPCDriverPvRKNSt3__112basic_stringIcNS3_11char_traitsIcEENS3_9allocatorIcEEEEP16ATCSResetInvokerbb, 
                       __ZN4QMuxC2EP13ATCSIPCDriverPvRKNSt3__112basic_stringIcNS3_11char_traitsIcEENS3_9allocatorIcEEEEP16ATCSResetInvokerbbb, 
                       __ZN4QMuxC2ERKNSt3__18weak_ptrINS_5StateEEE, __ZN4QMuxC2Ev, 
                       __ZN4QMuxD1Ev, __ZN4QMuxD2Ev, __ZN9ATCSMutex10isUnlockedEv, 
                       __ZN9ATCSMutex4lockEv, __ZN9ATCSMutex6unlockEv, 
                       __ZN9ATCSMutex8isLockedEv, __ZN9ATCSMutexC1EPKc, 
                       __ZN9ATCSMutexC2EPKc, __ZN9ATCSMutexD1Ev, __ZN9ATCSMutexD2Ev, 
                       __ZN9ATCSTimer14fATCSTimerListE, __ZN9ATCSTimer14timerBootstrapEP15ATCSTimerDriver, 
                       __ZN9ATCSTimer15printTimerQueueEv, __ZN9ATCSTimer21dispatchExpiredTimersEv, 
                       __ZN9ATCSTimer3setEiPNS_8CallbackE, __ZN9ATCSTimer6cancelEv, 
                       __ZN9ATCSTimer7fLoggerE, __ZN9ATCSTimer8fsDriverE, 
                       __ZN9ATCSTimer9cancel_nlEv, __ZN9ATCSTimerC1Ev, 
                       __ZN9ATCSTimerC2Ev, __ZN9ATCSTimerD1Ev, __ZN9ATCSTimerD2Ev, 
                       __ZN9ATCSUtils9pingModemEP12ATDispatcherPNS_8CallbackEjjji, 
                       __ZN9QMIClient11resetClientEv, __ZN9QMIClient12sendInternalERK13QMIServiceMsgjP9QCallback, 
                       __ZN9QMIClient13releaseClientEv, __ZN9QMIClient13requestClientERKNSt3__112basic_stringIcNS0_11char_traitsIcEENS0_9allocatorIcEEEEN3qmi11ServiceTypeERK4QMuxP17QMIClientCallbackbb, 
                       __ZN9QMIClient14addToPowerModeEtN3qmi12PowerProfileEb, 
                       __ZN9QMIClient16syncSendInternalERK13QMIServiceMsgjP9QCallback, 
                       __ZN9QMIClient18setSendWindowWidthEj, __ZN9QMIClient23setShouldResetOnTimeoutEb, 
                       __ZN9QMIClient24MAX_CLIENT_MESSAGES_SENTE, __ZN9QMIClient34registerUnsolicitedHandlerInternalEtP9QCallback, 
                       __ZN9QMIClient4joinEv, __ZN9QMIClient4stopEv, __ZN9QMIClient5State10start_syncEb, 
                       __ZN9QMIClient5State13handleTimeoutEtt, __ZN9QMIClient5State13setState_syncENS0_11ClientStateE, 
                       __ZN9QMIClient5State14enterPowerModeEP16dispatch_group_sN3qmi12PowerProfileE, 
                       __ZN9QMIClient5State14handleSentDataEt, __ZN9QMIClient5State16notifyRegisteredEv, 
                       __ZN9QMIClient5State18handleReceivedDataEtRK13QMIServiceMsg, 
                       __ZN9QMIClient5State18revokeRegistrationEv, __ZN9QMIClient5State19addToPowerMode_syncEtN3qmi12PowerProfileEb, 
                       __ZN9QMIClient5State19enterPowerMode_syncERKN8dispatch13group_sessionEN3qmi12PowerProfileE, 
                       __ZN9QMIClient5State20setDeregistered_syncEv, __ZN9QMIClient5State21notifyRegisterFailureEN3qmi5ErrorE, 
                       __ZN9QMIClient5State21notifyRegistered_syncEv, __ZN9QMIClient5State23setSendWindowWidth_syncEj, 
                       __ZN9QMIClient5State24handleReceivedIndicationERK13QMIServiceMsg, 
                       __ZN9QMIClient5State26notifyRegisterFailure_syncEN3qmi5ErrorE, 
                       __ZN9QMIClient5State29handleReceivedIndication_syncERK13QMIServiceMsg, 
                       __ZN9QMIClient5State31registerUnsolicitedHandler_syncEtP9QCallback, 
                       __ZN9QMIClient5State4joinEP16dispatch_group_s, __ZN9QMIClient5State4joinEv, 
                       __ZN9QMIClient5State5flushEP16dispatch_group_s, 
                       __ZN9QMIClient5State6createEPS_RKNSt3__112basic_stringIcNS2_11char_traitsIcEENS2_9allocatorIcEEEEN3qmi11ServiceTypeERK4QMuxP17QMIClientCallbackbb, 
                       __ZN9QMIClient5State7DeleterclEPS0_, __ZN9QMIClient5State9init_syncERK4QMux, 
                       __ZN9QMIClient5State9send_syncERK13QMIServiceMsgjP9QCallback, 
                       __ZN9QMIClient5State9stop_syncEv, __ZN9QMIClient5StateC1EPS_RKNSt3__112basic_stringIcNS2_11char_traitsIcEENS2_9allocatorIcEEEEN3qmi11ServiceTypeERK4QMuxP17QMIClientCallbackbb, 
                       __ZN9QMIClient5StateC2EPS_RKNSt3__112basic_stringIcNS2_11char_traitsIcEENS2_9allocatorIcEEEEN3qmi11ServiceTypeERK4QMuxP17QMIClientCallbackbb, 
                       __ZN9QMIClient5StateD0Ev, __ZN9QMIClient5StateD1Ev, 
                       __ZN9QMIClient5StateD2Ev, __ZN9QMIClient5flushEP16dispatch_group_s, 
                       __ZN9QMIClient5resetEv, __ZN9QMIClient5startEv, 
                       __ZN9QMIClientC1ERKNSt3__112basic_stringIcNS0_11char_traitsIcEENS0_9allocatorIcEEEEN3qmi11ServiceTypeE4QMuxP17QMIClientCallbackbb, 
                       __ZN9QMIClientC1ERKNSt3__18weak_ptrINS_5StateEEE, 
                       __ZN9QMIClientC1Ev, __ZN9QMIClientC2ERKNSt3__112basic_stringIcNS0_11char_traitsIcEENS0_9allocatorIcEEEEN3qmi11ServiceTypeE4QMuxP17QMIClientCallbackbb, 
                       __ZN9QMIClientC2ERKNSt3__18weak_ptrINS_5StateEEE, 
                       __ZN9QMIClientC2Ev, __ZN9QMIClientD1Ev, __ZN9QMIClientD2Ev, 
                       __ZNK10ATResponse10countLinesEv, __ZNK10ATResponse11getIntFieldEiii, 
                       __ZNK10ATResponse13getFloatFieldEii, __ZNK10ATResponse14getBinaryFieldEPviii, 
                       __ZNK10ATResponse14getRawResponseEv, __ZNK10ATResponse14isFieldPresentEiib, 
                       __ZNK10ATResponse18getFinalResultCodeEv, __ZNK10ATResponse18getFinalResultTypeEv, 
                       __ZNK10ATResponse19getUnsignedIntFieldEiii, __ZNK10ATResponse20getCbsDcsStringFieldEjii, 
                       __ZNK10ATResponse20getSmsDcsStringFieldEjii, __ZNK10ATResponse22getStringFieldInternalENS_11FieldFormatEiii, 
                       __ZNK10ATResponse6getTagEi, __ZNK10ATResponse7isErrorEv, 
                       __ZNK10ATResponse8getFieldEiiPPKcPiS3_Pb, __ZNK10QMIControl14dumpState_syncEv, 
                       __ZNK10QMIControl16ClientIdRequests5countEv, __ZNK10QMIControl18appendPowerModeSetERNSt3__13setItNS0_4lessItEENS0_9allocatorItEEEEN3qmi12PowerProfileE, 
                       __ZNK10QMIControl9dumpStateEv, __ZNK11ATCSCounted6decRefEv, 
                       __ZNK11ATCSCounted6incRefEv, __ZNK13QMIServiceMsg11getNewErrorEv, 
                       __ZNK13QMIServiceMsg14getErrorStringEv, __ZNK13QMIServiceMsg6getTlvEh, 
                       __ZNK13QMIServiceMsg7isErrorEv, __ZNK13QMIServiceMsg9serializeEPvm, 
                       __ZNK13QMIServiceMsg9serializeEv, __ZNK13QMIWakeReason12copyWakeDataEv, 
                       __ZNK13QMIWakeReason14getCaptureTimeEv, __ZNK13QMIWakeReason5isSetEv, 
                       __ZNK13QMuxQueueItem9getLengthEv, __ZNK14_ATCSException4whatEv, 
                       __ZNK15ATCSTimerDriver14getCurrentTimeEv, __ZNK17ATCSTextConverter14getSourceCountEv, 
                       __ZNK17ATCSTextConverter23getSourceAvailableCountEv, 
                       __ZNK3Tlv6Reader10getDWordAtEt, __ZNK3Tlv6Reader10getFloatAtEt, 
                       __ZNK3Tlv6Reader10getQWordAtEt, __ZNK3Tlv6Reader11getDoubleAtEt, 
                       __ZNK3Tlv6Reader16getStringFieldAtEt, __ZNK3Tlv6Reader9getByteAtEt, 
                       __ZNK3Tlv6Reader9getDataAtEtt, __ZNK3Tlv6Reader9getWordAtEt, 
                       __ZNK3qmi11ClientProxy10getSvcTypeEv, __ZNK3qmi11ClientProxy5State14dumpState_syncEv, 
                       __ZNK3qmi11ClientProxy5State18getIndWakeSet_syncEv, 
                       __ZNK3qmi11ClientProxy5State19getStateString_syncEv, 
                       __ZNK3qmi11ClientProxy5State20getTxQueueState_syncEv, 
                       __ZNK3qmi11ClientProxy5State7isValidEv, __ZNK3qmi11ClientProxy7getNameEv, 
                       __ZNK3qmi11ClientProxy7isValidEv, __ZNK3qmi11ClientProxycvbEv, 
                       __ZNK3qmi16TransactionQueue14dumpState_syncEv, __ZNK3qmi16TransactionQueue22debugGetQueueSize_syncEv, 
                       __ZNK3qmi16TransactionQueue23getSendWindowWidth_syncEv, 
                       __ZNK3qmi16TransactionQueue31debugGetQueueSendableCount_syncEv, 
                       __ZNK3qmi16TransactionQueue5State14dumpState_syncEv, 
                       __ZNK3qmi16TransactionQueue5State16getSendable_syncEv, 
                       __ZNK3qmi16TransactionQueue5State17getQueueSize_syncEv, 
                       __ZNK3qmi16TransactionQueue5State23getSendWindowWidth_syncEv, 
                       __ZNK3qmi18QMuxServerAccepter13getAllClientsEv, 
                       __ZNK3qmi18QMuxServerAccepter5State13getAllClientsEv, 
                       __ZNK3qmi6Client10getSvcTypeEv, __ZNK3qmi6Client10setHandlerENS0_5EventEU13block_pointerFvP16dispatch_group_sE, 
                       __ZNK3qmi6Client10setHandlerENS0_5EventEU13block_pointerFvPvE, 
                       __ZNK3qmi6Client10setHandlerENS0_5EventEU13block_pointerFvvE, 
                       __ZNK3qmi6Client13setIndHandlerEtU13block_pointerFvRK13QMIServiceMsgE, 
                       __ZNK3qmi6Client15pushSendBarrierEv, __ZNK3qmi6Client16setIndShouldWakeEtb, 
                       __ZNK3qmi6Client4sendERNS0_9SendProxyE, __ZNK3qmi6Client4stopEv, 
                       __ZNK3qmi6Client5State21sendStartMessage_syncEv, 
                       __ZNK3qmi6Client5State23sendConnectMessage_syncEv, 
                       __ZNK3qmi6Client5State9send_syncERKN3xpc4dictE, 
                       __ZNK3qmi6Client5startEv, __ZNK3qmi6Client7getNameEv, 
                       __ZNK3qmi6ClientcvNSt3__18weak_ptrINS0_5StateEEEEv, 
                       __ZNK3qmi6Server11getEndpointEv, __ZNK3qmi6Server16registerAccepterERKNSt3__110shared_ptrINS0_8AccepterEEE, 
                       __ZNK3qmi6Server5State11getEndpointEv, __ZNK4QMux13isPoweredDownEv, 
                       __ZNK4QMux16getQMIWakeReasonEv, __ZNK4QMux5State12getDebugNameEv, 
                       __ZNK4QMux5State14dumpState_syncEv, __ZNK4QMux5State14getPrivateDataEv, 
                       __ZNK4QMux5State14isRunning_syncEv, __ZNK4QMux5State16getQMIWakeReasonEv, 
                       __ZNK4QMux5State16stateString_syncEv, __ZNK4QMux5State18isPoweredDown_syncEv, 
                       __ZNK4QMux5State20dumpClientState_syncEv, __ZNK4QMux5State21powerStateString_syncEv, 
                       __ZNK4QMux5State23dumpPowerDownState_syncEv, __ZNK4QMux5State27dumpClientSummaryState_syncEv, 
                       __ZNK4QMux5State4joinEv, __ZNK4QMux7getNameEv, __ZNK4QMux9dumpStateEv, 
                       __ZNK4QMux9isRunningEv, __ZNK4QMux9setLoggerENSt3__110shared_ptrI10ATCSLoggerEE, 
                       __ZNK9QMIClient11getClientIDEv, __ZNK9QMIClient11getLogLevelEv, 
                       __ZNK9QMIClient11setLogLevelEN3qmi8LogLevelE, __ZNK9QMIClient14getServiceTypeEv, 
                       __ZNK9QMIClient14setMaxLogBytesEi, __ZNK9QMIClient17debugGetQueueSizeEv, 
                       __ZNK9QMIClient18getSendWindowWidthEv, __ZNK9QMIClient20shouldResetOnTimeoutEv, 
                       __ZNK9QMIClient22getServiceTypeAsStringEv, __ZNK9QMIClient26debugGetQueueSendableCountEv, 
                       __ZNK9QMIClient5State12isReady_syncEv, __ZNK9QMIClient5State14dumpState_syncEv, 
                       __ZNK9QMIClient5State14getStateStringEv, __ZNK9QMIClient5State18appendPowerModeSetERNSt3__13setItNS1_4lessItEENS1_9allocatorItEEEEN3qmi12PowerProfileE, 
                       __ZNK9QMIClient5State22debugGetQueueSize_syncEv, 
                       __ZNK9QMIClient5State23appendPowerModeSet_syncERNSt3__13setItNS1_4lessItEENS1_9allocatorItEEEEN3qmi12PowerProfileE, 
                       __ZNK9QMIClient5State23getSendWindowWidth_syncEv, 
                       __ZNK9QMIClient5State31debugGetQueueSendableCount_syncEv, 
                       __ZNK9QMIClient5State9dumpStateEv, __ZNK9QMIClient7getNameEv, 
                       __ZNK9QMIClient7isValidEv, __ZNK9QMIClient9dumpStateEv, 
                       __ZNK9QMIClientcvNSt3__18weak_ptrINS_5StateEEEEv, 
                       __ZTI10ATCSLogger, __ZTI10QMIControl, __ZTI11ATCSCounted, 
                       __ZTI12ATDispatcher, __ZTI13ATCSIPCDriver, __ZTI13QMIServiceMsg, 
                       __ZTI14_ATCSException, __ZTI15ATCSTimerDriver, __ZTI17QMIClientCallback, 
                       __ZTI21ATCSThreadedIPCDriver, __ZTI27ATCSFileDescriptorIPCDriver, 
                       __ZTIN10ATCSLogger16CommandFormatterE, __ZTIN12ATCSDPCQueue8CallbackE, 
                       __ZTIN3qmi11ClientProxy5StateE, __ZTIN3qmi18QMuxServerAccepter5StateE, 
                       __ZTIN3qmi6Client5StateE, __ZTIN3qmi6Server5StateE, 
                       __ZTIN4QMux5StateE, __ZTIN9QMIClient5StateE, __ZTS10ATCSLogger, 
                       __ZTS10QMIControl, __ZTS11ATCSCounted, __ZTS12ATDispatcher, 
                       __ZTS13ATCSIPCDriver, __ZTS13QMIServiceMsg, __ZTS14_ATCSException, 
                       __ZTS15ATCSTimerDriver, __ZTS17QMIClientCallback, 
                       __ZTS21ATCSThreadedIPCDriver, __ZTS27ATCSFileDescriptorIPCDriver, 
                       __ZTSN10ATCSLogger16CommandFormatterE, __ZTSN12ATCSDPCQueue8CallbackE, 
                       __ZTSN3qmi11ClientProxy5StateE, __ZTSN3qmi18QMuxServerAccepter5StateE, 
                       __ZTSN3qmi6Client5StateE, __ZTSN3qmi6Server5StateE, 
                       __ZTSN4QMux5StateE, __ZTSN9QMIClient5StateE, __ZTV10ATCSLogger, 
                       __ZTV10QMIControl, __ZTV11ATCSCounted, __ZTV12ATDispatcher, 
                       __ZTV13ATCSIPCDriver, __ZTV13QMIServiceMsg, __ZTV14_ATCSException, 
                       __ZTV15ATCSTimerDriver, __ZTV17QMIClientCallback, 
                       __ZTV21ATCSThreadedIPCDriver, __ZTV27ATCSFileDescriptorIPCDriver, 
                       __ZTVN10ATCSLogger16CommandFormatterE, __ZTVN12ATCSDPCQueue8CallbackE, 
                       __ZTVN3qmi11ClientProxy5StateE, __ZTVN3qmi18QMuxServerAccepter5StateE, 
                       __ZTVN3qmi6Client5StateE, __ZTVN3qmi6Server5StateE, 
                       __ZTVN4QMux5StateE, __ZTVN9QMIClient5StateE, __ZThn80_N3qmi18QMuxServerAccepter5State6acceptERKN3xpc10connectionERKNS2_4dictERKN8dispatch5queueE, 
                       __ZThn80_N3qmi18QMuxServerAccepter5StateD0Ev, __ZThn80_N3qmi18QMuxServerAccepter5StateD1Ev, 
                       _asLongString, _asShortString, _asString, _serviceTypeFromString ]
    weak-def-symbols: [ __ZGVN3ctu9SingletonINS_9LogServerEN4atcs9LogServerENS_23PthreadMutexGuardPolicyIS1_EEE9sInstanceE, 
                        __ZN3ctu9SingletonINS_9LogServerEN4atcs9LogServerENS_23PthreadMutexGuardPolicyIS1_EEE9sInstanceE, 
                        __ZTIN3qmi15QMuxClientIfaceE, __ZTIN3qmi18MutableMessageBase14TlvWrapperBaseE, 
                        __ZTIN3qmi6Server8AccepterE, __ZTINSt3__115basic_stringbufIcNS_11char_traitsIcEENS_9allocatorIcEEEE, 
                        __ZTINSt3__117bad_function_callE, __ZTINSt3__119basic_ostringstreamIcNS_11char_traitsIcEENS_9allocatorIcEEEE, 
                        __ZTINSt3__123enable_shared_from_thisI10QMIControlEE, 
                        __ZTINSt3__123enable_shared_from_thisIN3qmi11ClientProxy5StateEEE, 
                        __ZTINSt3__123enable_shared_from_thisIN3qmi18QMuxServerAccepter5StateEEE, 
                        __ZTINSt3__123enable_shared_from_thisIN3qmi6Client5StateEEE, 
                        __ZTINSt3__123enable_shared_from_thisIN3qmi6Server5StateEEE, 
                        __ZTINSt3__123enable_shared_from_thisIN4QMux5StateEEE, 
                        __ZTINSt3__123enable_shared_from_thisIN9QMIClient5StateEEE, 
                        __ZTSN10QMIControl7DeleterE, __ZTSN3qmi15QMuxClientIfaceE, 
                        __ZTSN3qmi16TransactionQueue5State7DeleterE, __ZTSN3qmi18MutableMessageBase14TlvWrapperBaseE, 
                        __ZTSN3qmi6Server8AccepterE, __ZTSN4QMux5State7DeleterE, 
                        __ZTSN9QMIClient5State7DeleterE, __ZTSNSt3__115basic_stringbufIcNS_11char_traitsIcEENS_9allocatorIcEEEE, 
                        __ZTSNSt3__117bad_function_callE, __ZTSNSt3__119basic_ostringstreamIcNS_11char_traitsIcEENS_9allocatorIcEEEE, 
                        __ZTSNSt3__123enable_shared_from_thisI10QMIControlEE, 
                        __ZTSNSt3__123enable_shared_from_thisIN3qmi11ClientProxy5StateEEE, 
                        __ZTSNSt3__123enable_shared_from_thisIN3qmi18QMuxServerAccepter5StateEEE, 
                        __ZTSNSt3__123enable_shared_from_thisIN3qmi6Client5StateEEE, 
                        __ZTSNSt3__123enable_shared_from_thisIN3qmi6Server5StateEEE, 
                        __ZTSNSt3__123enable_shared_from_thisIN4QMux5StateEEE, 
                        __ZTSNSt3__123enable_shared_from_thisIN9QMIClient5StateEEE ]
...
