---
archs:           [ x86_64 ]
platform:        macosx
install-name:    /System/Library/PrivateFrameworks/CorePrediction.framework/Versions/A/CorePrediction
exports:         
  - archs:           [ x86_64 ]
    symbols:         [ _CPMLAnalysisClassify, _CPMLAnalysisRegressionPrediction, 
                       _CPMLBetweenssKMeansAnalysis, _CPMLCentersKMeansAnalysis, 
                       _CPMLClusterKMeansAnalysis, _CPMLCreateGMMAnalysis, 
                       _CPMLCreateKMEANSAnalysis, _CPMLCreateLIBSVMAnalysis, 
                       _CPMLCreateLINEARSVMAnalysis, _CPMLDestroyGMMAnalysis, 
                       _CPMLDestroyKMEANSAnalysis, _CPMLDestroyLIBSVMAnalysis, 
                       _CPMLDestroyLINEARSVMAnalysis, _CPMLIterKMeansAnalysis, 
                       _CPMLSizeKMeansAnalysis, _CPMLTotalWithinssKMeansAnalysis, 
                       _CPMLTotssKMeansAnalysis, _CPMLTrainAndSaveDataFrom, 
                       _CPMLTrainAndSaveDataFromDict, _CPMLTrainAndSaveDataWith, 
                       _CPMLTrainAndSaveDataWithDict, _CPMLTrainAndSaveOBJDataFrom, 
                       _CPMLTrainAndSaveOBJDataWith, _CPMLTrainDataFrom, 
                       _CPMLTrainDataFromDict, _CPMLTrainDataWith, _CPMLTrainDataWithDict, 
                       _CPMLTrainOBJDataFrom, _CPMLTrainOBJDataWith, _CPMLWithinssKMeansAnalysis, 
                       _CPML_LOG_CRIT, _CPML_LOG_DEBUG, _CPML_LOG_EMERGENCY, 
                       _CPML_LOG_ERR, _CPML_LOG_INFO, _CPML_LOG_NOTICE, 
                       _CPML_LOG_WARNING, __Z11CPModelOpenPcS_, __Z12CPLogCTypesVPvS_z, 
                       __Z12CPModelClosePv, __Z12CPRTgrowTreejjjPFdPdS_jjPjS_S0_dEjjS_S_j, 
                       __Z13CPRTprintTreeP6Vertex, __Z15CPModelPredictAPvPPc, 
                       __Z15CPModelPredictVPvPcz, __Z15CPRTdestroyTreeP6Vertex, 
                       __Z16CPOpenDBWithFilePcS_S_i, __Z16CPRTcostTargetSDPdS_jjPjS_S0_d, 
                       __Z19CPMLconvertFV2ArrayP17CPMLFeatureVector, __Z19CPMLsql_createTableP7sqlite3PcS1_b, 
                       __Z20CPModelResultReleasePv, __Z22CPRTpredictRegressTreeP6VertexPdjj, 
                       __Z23CPMLsql_insertIntoTableP7sqlite3PcS1_S1_, __Z23CPMLsql_stepAndFinalizeP12sqlite3_stmt, 
                       __Z24CPMLsql_beginTransactionP7sqlite3i, __Z24CPMLsql_cardinalityCountP7sqlite3PcS1_, 
                       __Z24CPMLsql_dropTableCommandP7sqlite3Pc, __Z25CPMLsql_commitTransactionP7sqlite3, 
                       __Z26CPMLsql_callbackDBResponsePviPPcS1_, __Z27CPMLsql_getRowCountForTableP7sqlite3Pc, 
                       __Z27CPMLsql_insertBlobIntoTableP7sqlite3PcS1_S1_iPvi, 
                       __Z8CPOpenDBPcS_i, __Z9CPCloseDBPv, __ZN10CPMLKMeans16initializeKMeansEv, 
                       __ZN10CPMLKMeans19findNearestCentroidEPd, __ZN10CPMLKMeans4evalEP17CPMLFeatureVectorPNSt3__16vectorIiNS2_9allocatorIiEEEE, 
                       __ZN10CPMLKMeans5trainEv, __ZN10CPMLKMeans6updateEP7CPMLCDBP17CPMLSerializationP15CPMLTunableData, 
                       __ZN10CPMLKMeans9findTotssEPd, __ZN10CPMLKMeans9serializeEv, 
                       __ZN10CPMLKMeansC1EP17CPMLSerializationP15CPMLTunableData, 
                       __ZN10CPMLKMeansC1EP7CPMLCDBP17CPMLSerializationP15CPMLTunableData, 
                       __ZN10CPMLKMeansC1EiiPPdiidiPv, __ZN10CPMLKMeansC2EP17CPMLSerializationP15CPMLTunableData, 
                       __ZN10CPMLKMeansC2EP7CPMLCDBP17CPMLSerializationP15CPMLTunableData, 
                       __ZN10CPMLKMeansC2EiiPPdiidiPv, __ZN10CPMLKMeansD0Ev, 
                       __ZN10CPMLKMeansD1Ev, __ZN10CPMLKMeansD2Ev, __ZN10CPMLLibSVM5Cache10lru_deleteEPNS0_6head_tE, 
                       __ZN10CPMLLibSVM5Cache10lru_insertEPNS0_6head_tE, 
                       __ZN10CPMLLibSVM5Cache10swap_indexEii, __ZN10CPMLLibSVM5Cache8get_dataEiPPfi, 
                       __ZN10CPMLLibSVM5CacheC1Eil, __ZN10CPMLLibSVM5CacheC2Eil, 
                       __ZN10CPMLLibSVM5CacheD1Ev, __ZN10CPMLLibSVM5CacheD2Ev, 
                       __ZN10CPMLLibSVM6Kernel10k_functionEPK8svm_nodeS3_RK13svm_parameter, 
                       __ZN10CPMLLibSVM6Kernel3dotEPK8svm_nodeS3_, __ZN10CPMLLibSVM6KernelC2EiPKP8svm_nodeRK13svm_parameter, 
                       __ZN10CPMLLibSVM6KernelD0Ev, __ZN10CPMLLibSVM6KernelD1Ev, 
                       __ZN10CPMLLibSVM6KernelD2Ev, __ZN10CPMLLibSVM6Solver10swap_indexEii, 
                       __ZN10CPMLLibSVM6Solver12do_shrinkingEv, __ZN10CPMLLibSVM6Solver13calculate_rhoEv, 
                       __ZN10CPMLLibSVM6Solver18select_working_setERiS1_, 
                       __ZN10CPMLLibSVM6Solver20reconstruct_gradientEv, 
                       __ZN10CPMLLibSVM6Solver5SolveEiRKNS_7QMatrixEPKdPKaPddddPNS0_12SolutionInfoEi, 
                       __ZN10CPMLLibSVM6Solver9be_shrunkEidd, __ZN10CPMLLibSVM9Solver_NU12do_shrinkingEv, 
                       __ZN10CPMLLibSVM9Solver_NU13calculate_rhoEv, __ZN10CPMLLibSVM9Solver_NU18select_working_setERiS1_, 
                       __ZN10CPMLLibSVM9Solver_NU9be_shrunkEidddd, __ZN10CPMLLogger7cpmlLogENSt3__112basic_stringIcNS0_11char_traitsIcEENS0_9allocatorIcEEEE, 
                       __ZN10CPMLLogger7cpmlLogEPKcm, __ZN10CPMLLoggerC1ENSt3__112basic_stringIcNS0_11char_traitsIcEENS0_9allocatorIcEEEEb, 
                       __ZN10CPMLLoggerC1EPcb, __ZN10CPMLLoggerC2ENSt3__112basic_stringIcNS0_11char_traitsIcEENS0_9allocatorIcEEEEb, 
                       __ZN10CPMLLoggerC2EPcb, __ZN10CPMLLoggerD1Ev, __ZN10CPMLLoggerD2Ev, 
                       __ZN12CPMLDelegate18trainCPMLAlgorithmEP17CPMLFeatureVector, 
                       __ZN12CPMLDelegate19updateCPMLAlgorithmEP17CPMLFeatureVector, 
                       __ZN12CPMLDelegate21evaluateCPMLAlgorithmEP17CPMLFeatureVectorPNSt3__16vectorIiNS2_9allocatorIiEEEEPd, 
                       __ZN12CPMLDelegate22serializeCPMLAlgorithmEv, __ZN12CPMLDelegate24deSerializeCPMLAlgorithmEv, 
                       __ZN12CPMLDelegateC1EPvS0_, __ZN12CPMLDelegateC2EPvS0_, 
                       __ZN12CPMLIterator10iterateAllEv, __ZN12CPMLIterator11iterateNextEv, 
                       __ZN12CPMLIterator12iterateFirstEv, __ZN12CPMLIterator12iterateResetEv, 
                       __ZN12CPMLIteratorC1EP7sqlite3S1_PcP14CPMLStatisticsP12CPMLRemapper8CPMLModeP15CPMLTunableData, 
                       __ZN12CPMLIteratorC1Ev, __ZN12CPMLIteratorC2EP7sqlite3S1_PcP14CPMLStatisticsP12CPMLRemapper8CPMLModeP15CPMLTunableData, 
                       __ZN12CPMLIteratorC2Ev, __ZN12CPMLIteratorD0Ev, 
                       __ZN12CPMLIteratorD1Ev, __ZN12CPMLIteratorD2Ev, 
                       __ZN12CPMLRemapper12saveRemapperEv, __ZN12CPMLRemapper15normalizeColumnEdi, 
                       __ZN12CPMLRemapper5remapEPci, __ZN12CPMLRemapper5unmapEii, 
                       __ZN12CPMLRemapperC1EP7sqlite3P14CPMLStatisticsb, 
                       __ZN12CPMLRemapperC2EP7sqlite3P14CPMLStatisticsb, 
                       __ZN12CPMLRemapperD1Ev, __ZN12CPMLRemapperD2Ev, 
                       __ZN13CPMLAlgorithm11setDelegateEP12CPMLDelegate, 
                       __ZN13CPMLAlgorithm17setDelegateEngineEP18CPMLDelegateEngine, 
                       __ZN13CPMLAlgorithm6updateEP7CPMLCDBP17CPMLSerializationP15CPMLTunableData, 
                       __ZN13CPMLAlgorithmC2EP7CPMLCDBP17CPMLSerializationP15CPMLTunableData, 
                       __ZN13CPMLAlgorithmD0Ev, __ZN13CPMLAlgorithmD1Ev, 
                       __ZN13CPMLAlgorithmD2Ev, __ZN13CPMLOnlineSvm10PrintParamEv, 
                       __ZN13CPMLOnlineSvm11DenseKernelERKNSt3__18valarrayIdEES4_, 
                       __ZN13CPMLOnlineSvm11DeserializeERKNSt3__112basic_stringIcNS0_11char_traitsIcEENS0_9allocatorIcEEEE, 
                       __ZN13CPMLOnlineSvm12SparseKernelERKNSt3__18valarrayIcEES4_, 
                       __ZN13CPMLOnlineSvm13ChooseArgmaxIEv, __ZN13CPMLOnlineSvm13ChooseArgminJEv, 
                       __ZN13CPMLOnlineSvm14RbfDenseKernelERKNSt3__18valarrayIdEES4_, 
                       __ZN13CPMLOnlineSvm15OnlineIterationEv, __ZN13CPMLOnlineSvm15PolyDenseKernelERKNSt3__18valarrayIdEES4_, 
                       __ZN13CPMLOnlineSvm15RbfSparseKernelERKNSt3__18valarrayIcEES4_, 
                       __ZN13CPMLOnlineSvm16PolySparseKernelERKNSt3__18valarrayIcEES4_, 
                       __ZN13CPMLOnlineSvm17ConditionalUpdateEmm, __ZN13CPMLOnlineSvm17LinearDenseKernelERKNSt3__18valarrayIdEES4_, 
                       __ZN13CPMLOnlineSvm18CompressPredictorsEi, __ZN13CPMLOnlineSvm18LinearSparseKernelERKNSt3__18valarrayIcEES4_, 
                       __ZN13CPMLOnlineSvm18SigmoidDenseKernelERKNSt3__18valarrayIdEES4_, 
                       __ZN13CPMLOnlineSvm19SigmoidSparseKernelERKNSt3__18valarrayIcEES4_, 
                       __ZN13CPMLOnlineSvm4InitEv, __ZN13CPMLOnlineSvm5TrainEv, 
                       __ZN13CPMLOnlineSvm6UpdateEmmddd, __ZN13CPMLOnlineSvm7ProcessEdRKNSt3__18valarrayIdEE, 
                       __ZN13CPMLOnlineSvm8AddNewSvENSt3__18valarrayIdEEddd, 
                       __ZN13CPMLOnlineSvm8EvaluateERKNSt3__18valarrayIdEE, 
                       __ZN13CPMLOnlineSvm9ReprocessEv, __ZN13CPMLOnlineSvm9SerializeERKNSt3__112basic_stringIcNS0_11char_traitsIcEENS0_9allocatorIcEEEE, 
                       __ZN13CPMLOnlineSvm9serializeEv, __ZN13CPMLlinearSVM10l2r_lr_fun15get_nr_variableEv, 
                       __ZN13CPMLlinearSVM10l2r_lr_fun2HvEPdS1_, __ZN13CPMLlinearSVM10l2r_lr_fun2XvEPdS1_, 
                       __ZN13CPMLlinearSVM10l2r_lr_fun3XTvEPdS1_, __ZN13CPMLlinearSVM10l2r_lr_fun3funEPd, 
                       __ZN13CPMLlinearSVM10l2r_lr_fun4gradEPdS1_, __ZN13CPMLlinearSVM10l2r_lr_funC1EPK7problemPd, 
                       __ZN13CPMLlinearSVM10l2r_lr_funC2EPK7problemPd, 
                       __ZN13CPMLlinearSVM10l2r_lr_funD0Ev, __ZN13CPMLlinearSVM10l2r_lr_funD1Ev, 
                       __ZN13CPMLlinearSVM10l2r_lr_funD2Ev, __ZN13CPMLlinearSVM14l2r_l2_svc_fun15get_nr_variableEv, 
                       __ZN13CPMLlinearSVM14l2r_l2_svc_fun2HvEPdS1_, __ZN13CPMLlinearSVM14l2r_l2_svc_fun2XvEPdS1_, 
                       __ZN13CPMLlinearSVM14l2r_l2_svc_fun3funEPd, __ZN13CPMLlinearSVM14l2r_l2_svc_fun4gradEPdS1_, 
                       __ZN13CPMLlinearSVM14l2r_l2_svc_fun5subXvEPdS1_, 
                       __ZN13CPMLlinearSVM14l2r_l2_svc_fun6subXTvEPdS1_, 
                       __ZN13CPMLlinearSVM14l2r_l2_svc_funC1EPK7problemPd, 
                       __ZN13CPMLlinearSVM14l2r_l2_svc_funC2EPK7problemPd, 
                       __ZN13CPMLlinearSVM14l2r_l2_svc_funD0Ev, __ZN13CPMLlinearSVM14l2r_l2_svc_funD1Ev, 
                       __ZN13CPMLlinearSVM14l2r_l2_svc_funD2Ev, __ZN13CPMLlinearSVM14l2r_l2_svr_fun3funEPd, 
                       __ZN13CPMLlinearSVM14l2r_l2_svr_fun4gradEPdS1_, 
                       __ZN13CPMLlinearSVM14l2r_l2_svr_funC1EPK7problemPdd, 
                       __ZN13CPMLlinearSVM14l2r_l2_svr_funC2EPK7problemPdd, 
                       __ZN13CPMLlinearSVM15Solver_MCSVM_CS17solve_sub_problemEdidiPd, 
                       __ZN13CPMLlinearSVM15Solver_MCSVM_CS5SolveEPd, __ZN13CPMLlinearSVM15Solver_MCSVM_CS9be_shrunkEiiidd, 
                       __ZN13CPMLlinearSVM15Solver_MCSVM_CSC1EPK7problemiPddi, 
                       __ZN13CPMLlinearSVM15Solver_MCSVM_CSC2EPK7problemiPddi, 
                       __ZN13CPMLlinearSVM15Solver_MCSVM_CSD1Ev, __ZN13CPMLlinearSVM15Solver_MCSVM_CSD2Ev, 
                       __ZN13CPMLlinearSVM4TRON16set_print_stringEPFvPKcE, 
                       __ZN13CPMLlinearSVM4TRON4infoEPKcz, __ZN13CPMLlinearSVM4TRON4trcgEdPdS1_S1_, 
                       __ZN13CPMLlinearSVM4TRON4tronEPd, __ZN13CPMLlinearSVM4TRON8norm_infEiPd, 
                       __ZN13CPMLlinearSVM4TRONC1EPKNS_8functionEdi, __ZN13CPMLlinearSVM4TRONC2EPKNS_8functionEdi, 
                       __ZN13CPMLlinearSVM4TROND1Ev, __ZN13CPMLlinearSVM4TROND2Ev, 
                       __ZN14CPGMMClassfier19initializeGMMMemoryEv, __ZN14CPGMMClassfier4evalEP17CPMLFeatureVectorPNSt3__16vectorIiNS2_9allocatorIiEEEE, 
                       __ZN14CPGMMClassfier5trainEv, __ZN14CPGMMClassfier9serializeEv, 
                       __ZN14CPGMMClassfierC1EP17CPMLSerializationP15CPMLTunableData, 
                       __ZN14CPGMMClassfierC1EP7CPMLCDBP17CPMLSerializationP15CPMLTunableData, 
                       __ZN14CPGMMClassfierC1EiiPiPdS1_S1_S1_S1_Pv, __ZN14CPGMMClassfierC2EP17CPMLSerializationP15CPMLTunableData, 
                       __ZN14CPGMMClassfierC2EP7CPMLCDBP17CPMLSerializationP15CPMLTunableData, 
                       __ZN14CPGMMClassfierC2EiiPiPdS1_S1_S1_S1_Pv, __ZN14CPGMMClassfierD0Ev, 
                       __ZN14CPGMMClassfierD1Ev, __ZN14CPGMMClassfierD2Ev, 
                       __ZN14CPKNNClassfier24initializeNaiveKNNMemoryEv, 
                       __ZN14CPKNNClassfier4evalEP17CPMLFeatureVectorPNSt3__16vectorIiNS2_9allocatorIiEEEE, 
                       __ZN14CPKNNClassfier5trainEv, __ZN14CPKNNClassfier6updateEP7CPMLCDBP17CPMLSerializationP15CPMLTunableData, 
                       __ZN14CPKNNClassfier9serializeEv, __ZN14CPKNNClassfierC1EP17CPMLSerializationP15CPMLTunableData, 
                       __ZN14CPKNNClassfierC1EP7CPMLCDBP17CPMLSerializationP15CPMLTunableData, 
                       __ZN14CPKNNClassfierC2EP17CPMLSerializationP15CPMLTunableData, 
                       __ZN14CPKNNClassfierC2EP7CPMLCDBP17CPMLSerializationP15CPMLTunableData, 
                       __ZN14CPKNNClassfierD0Ev, __ZN14CPKNNClassfierD1Ev, 
                       __ZN14CPKNNClassfierD2Ev, __ZN14CPMLNaiveBayes10set_engineEP18CPMLDelegateEngine, 
                       __ZN14CPMLNaiveBayes14predict_sortedERKNSt3__16vectorINS1_IiNS0_9allocatorIiEEEENS2_IS4_EEEERKNS1_I9ProbIndexNS2_IS9_EEEEiRSB_, 
                       __ZN14CPMLNaiveBayes14set_candidatesERKNSt3__16vectorIiNS0_9allocatorIiEEEE, 
                       __ZN14CPMLNaiveBayes14set_decay_rateEd, __ZN14CPMLNaiveBayes15set_smooth_modeEi, 
                       __ZN14CPMLNaiveBayes15set_smooth_rateEd, __ZN14CPMLNaiveBayes15sort_candidatesERKNSt3__16vectorIiNS0_9allocatorIiEEEERNS1_I9ProbIndexNS2_IS7_EEEE, 
                       __ZN14CPMLNaiveBayes16set_epsilon_rateEd, __ZN14CPMLNaiveBayes18get_nb_probabilityERKNSt3__16vectorINS1_IiNS0_9allocatorIiEEEENS2_IS4_EEEEiddd, 
                       __ZN14CPMLNaiveBayes6updateERKNSt3__16vectorINS1_IiNS0_9allocatorIiEEEENS2_IS4_EEEEi, 
                       __ZN14CPMLNaiveBayes7predictERKNSt3__16vectorINS1_IiNS0_9allocatorIiEEEENS2_IS4_EEEERKS4_iRNS1_I9ProbIndexNS2_ISB_EEEE, 
                       __ZN14CPMLNaiveBayes7predictERKNSt3__16vectorINS1_IiNS0_9allocatorIiEEEENS2_IS4_EEEEiRNS1_I9ProbIndexNS2_IS9_EEEE, 
                       __ZN14CPMLNaiveBayesC1EP23CPMLNaiveBayesDBAdaptor, 
                       __ZN14CPMLNaiveBayesC1Ev, __ZN14CPMLNaiveBayesC2EP23CPMLNaiveBayesDBAdaptor, 
                       __ZN14CPMLNaiveBayesC2Ev, __ZN14CPMLNaiveBayesD1Ev, 
                       __ZN14CPMLNaiveBayesD2Ev, __ZN14CPMLStatistics14allocateMemoryEv, 
                       __ZN14CPMLStatistics25updateAllColumnTypeToRealEv, 
                       __ZN14CPMLStatisticsC1EPv11MapFunction, __ZN14CPMLStatisticsC1Ei11MapFunction, 
                       __ZN14CPMLStatisticsC2EPv11MapFunction, __ZN14CPMLStatisticsC2Ei11MapFunction, 
                       __ZN14CPMLStatisticsD1Ev, __ZN14CPMLStatisticsD2Ev, 
                       __ZN15CPMLTunableData11tDataGetIntEPKcPi, __ZN15CPMLTunableData12getNSNumFromEPKc, 
                       __ZN15CPMLTunableData12tDataGetBoolEPKcPb, __ZN15CPMLTunableData12tDataGetUIntEPKcPj, 
                       __ZN15CPMLTunableData14tDataGetDoubleEPKcPd, __ZN15CPMLTunableData14tDataGetStringEPKcPcm, 
                       __ZN15CPMLTunableData14tDataGetUInt64EPKcPy, __ZN15CPMLTunableData17isOptionAvailableEi, 
                       __ZN15CPMLTunableDataC1EPvS0_, __ZN15CPMLTunableDataC2EPvS0_, 
                       __ZN17CPMLFeatureVector12getIntVectorEv, __ZN17CPMLFeatureVector13getRealVectorEv, 
                       __ZN17CPMLFeatureVector15dumpVectorClassEP11VectorClass, 
                       __ZN17CPMLFeatureVector15insertIntVClassEi, __ZN17CPMLFeatureVector15setYHatProbListERNSt3__16vectorI9ProbIndexNS0_9allocatorIS2_EEEE, 
                       __ZN17CPMLFeatureVector16getXVectorVectorEv, __ZN17CPMLFeatureVector16getYVectorVectorEv, 
                       __ZN17CPMLFeatureVector16insertRealVClassEd, __ZN17CPMLFeatureVector16insertRealVClassEdi, 
                       __ZN17CPMLFeatureVector16insertYIntVClassEi, __ZN17CPMLFeatureVector16resizeRealVectorEi, 
                       __ZN17CPMLFeatureVector17insertYRealVClassEd, __ZN17CPMLFeatureVector18getIntVectorVectorEv, 
                       __ZN17CPMLFeatureVector19getRealVectorVectorEv, 
                       __ZN17CPMLFeatureVector21setYHatVectorPositionEi, 
                       __ZN17CPMLFeatureVector22insertIntToLastVVClassEi, 
                       __ZN17CPMLFeatureVector22insertNewVCIntoVVClassEv, 
                       __ZN17CPMLFeatureVector23insertRealToLastVVClassEd, 
                       __ZN17CPMLFeatureVector24insertIntVectorToVVClassEPNSt3__16vectorIiNS0_9allocatorIiEEEE, 
                       __ZN17CPMLFeatureVector25insertRealVectorToVVClassEPNSt3__16vectorIdNS0_9allocatorIdEEEE, 
                       __ZN17CPMLFeatureVector7dumpAllEv, __ZN17CPMLFeatureVector7getYHatEv, 
                       __ZN17CPMLFeatureVector7setYHatEd, __ZN17CPMLFeatureVector8resetAllEv, 
                       __ZN17CPMLFeatureVectorC1Em, __ZN17CPMLFeatureVectorC1Ev, 
                       __ZN17CPMLFeatureVectorC2Em, __ZN17CPMLFeatureVectorC2Ev, 
                       __ZN17CPMLFeatureVectorD1Ev, __ZN17CPMLFeatureVectorD2Ev, 
                       __ZN17CPMLSerialization12cp_loadCacheEPcPPvi, __ZN17CPMLSerialization12cp_saveCacheEPcPvi, 
                       __ZN17CPMLSerialization13cp_update_intEiPcS0_i, 
                       __ZN17CPMLSerialization14cp_createTableEPcS0_, __ZN17CPMLSerialization15cp_query_doubleEPdmPcS1_i, 
                       __ZN17CPMLSerialization16cp_update_doubleEdPcS0_i, 
                       __ZN17CPMLSerialization17cp_endTransactionEv, __ZN17CPMLSerialization17cp_multiQuery_intEPimPKc, 
                       __ZN17CPMLSerialization17cp_query_uint64_tEPymPcS1_i, 
                       __ZN17CPMLSerialization18cp_doSerializationEv, __ZN17CPMLSerialization18cp_insertIntoTableEPcS0_S0_, 
                       __ZN17CPMLSerialization18cp_update_uint64_tEyPcS0_i, 
                       __ZN17CPMLSerialization19cp_beginTransactionEv, 
                       __ZN17CPMLSerialization20cp_multiQuery_doubleEPdmPKc, 
                       __ZN17CPMLSerialization21cp_singleQuery_doubleEPdPc, 
                       __ZN17CPMLSerialization21cp_singleQuery_stringEPcmS0_, 
                       __ZN17CPMLSerialization22cp_multiQuery_uint64_tEPymPKc, 
                       __ZN17CPMLSerialization23cp_singleQuery_uint64_tEPyPc, 
                       __ZN17CPMLSerialization5resetEv, __ZN17CPMLSerialization7cp_readEPcPKcmm, 
                       __ZN17CPMLSerialization7cp_readEPdPKcmm, __ZN17CPMLSerialization7cp_readEPfPKcmm, 
                       __ZN17CPMLSerialization7cp_readEPiPKcmm, __ZN17CPMLSerialization7cp_readEPjPKcmm, 
                       __ZN17CPMLSerialization7cp_readEPyPKcmm, __ZN17CPMLSerialization8cp_writeEPcPKcmS2_, 
                       __ZN17CPMLSerialization8cp_writeEPdPKcmS2_, __ZN17CPMLSerialization8cp_writeEPfPKcmS2_, 
                       __ZN17CPMLSerialization8cp_writeEPiPKcmS2_, __ZN17CPMLSerialization8cp_writeEPjPKcmS2_, 
                       __ZN17CPMLSerialization8cp_writeEPyPKcmS2_, __ZN17CPMLSerializationC1EP7sqlite3b, 
                       __ZN17CPMLSerializationC2EP7sqlite3b, __ZN17CPMLSerializationD0Ev, 
                       __ZN17CPMLSerializationD1Ev, __ZN17CPMLSerializationD2Ev, 
                       __ZN18CPMLDelegateEngineC1EPvS0_, __ZN18CPMLDelegateEngineC2EPvS0_, 
                       __ZN18CPMLMemoryIterator10iterateAllEv, __ZN18CPMLMemoryIterator11iterateNextEv, 
                       __ZN18CPMLMemoryIterator12iterateFirstEv, __ZN18CPMLMemoryIterator12iterateResetEv, 
                       __ZN18CPMLMemoryIteratorC1EiiPPdP15CPMLTunableData, 
                       __ZN18CPMLMemoryIteratorC2EiiPPdP15CPMLTunableData, 
                       __ZN18CPMLMemoryIteratorD0Ev, __ZN18CPMLMemoryIteratorD1Ev, 
                       __ZN18CPMLMemoryIteratorD2Ev, __ZN19CPMLAnalysisHandlerC2Ev, 
                       __ZN19CPMLAnalysisHandlerD1Ev, __ZN19CPMLAnalysisHandlerD2Ev, 
                       __ZN19CPMLDBSerialization10do_cp_readEPdmPc, __ZN19CPMLDBSerialization10do_cp_readEPimPc, 
                       __ZN19CPMLDBSerialization10do_cp_readEPymPc, __ZN19CPMLDBSerialization13cp_update_intEiPcS0_i, 
                       __ZN19CPMLDBSerialization14cp_createTableEPKcPc, 
                       __ZN19CPMLDBSerialization15cp_query_doubleEPdmPcS1_i, 
                       __ZN19CPMLDBSerialization16cp_update_doubleEdPcS0_i, 
                       __ZN19CPMLDBSerialization17cp_multiQuery_intEPimPKc, 
                       __ZN19CPMLDBSerialization17cp_query_uint64_tEPymPcS1_i, 
                       __ZN19CPMLDBSerialization18cp_doSerializationEv, 
                       __ZN19CPMLDBSerialization18cp_insertIntoTableEPcS0_S0_, 
                       __ZN19CPMLDBSerialization18cp_update_uint64_tEyPcS0_i, 
                       __ZN19CPMLDBSerialization20cp_multiQuery_doubleEPdmPKc, 
                       __ZN19CPMLDBSerialization21cp_singleQuery_doubleEPdPc, 
                       __ZN19CPMLDBSerialization21cp_singleQuery_stringEPcmS0_, 
                       __ZN19CPMLDBSerialization22cp_multiQuery_uint64_tEPymPKc, 
                       __ZN19CPMLDBSerialization23cp_singleQuery_uint64_tEPyPc, 
                       __ZN19CPMLDBSerialization5resetEv, __ZN19CPMLDBSerialization7cp_readEPcPKcmm, 
                       __ZN19CPMLDBSerialization7cp_readEPdPKcmm, __ZN19CPMLDBSerialization7cp_readEPfPKcmm, 
                       __ZN19CPMLDBSerialization7cp_readEPiPKcmm, __ZN19CPMLDBSerialization7cp_readEPjPKcmm, 
                       __ZN19CPMLDBSerialization7cp_readEPyPKcmm, __ZN19CPMLDBSerialization8cp_writeEPcPKcmS2_, 
                       __ZN19CPMLDBSerialization8cp_writeEPdPKcmS2_, __ZN19CPMLDBSerialization8cp_writeEPfPKcmS2_, 
                       __ZN19CPMLDBSerialization8cp_writeEPiPKcmS2_, __ZN19CPMLDBSerialization8cp_writeEPjPKcmS2_, 
                       __ZN19CPMLDBSerialization8cp_writeEPyPKcmS2_, __ZN19CPMLDBSerializationC1EP7sqlite3b, 
                       __ZN19CPMLDBSerializationC2EP7sqlite3b, __ZN19CPMLDBSerializationD0Ev, 
                       __ZN19CPMLDBSerializationD1Ev, __ZN19CPMLDBSerializationD2Ev, 
                       __ZN20CPMLLIBSVMClassifier14establishParamEP15CPMLTunableData, 
                       __ZN20CPMLLIBSVMClassifier4evalEP17CPMLFeatureVectorPNSt3__16vectorIiNS2_9allocatorIiEEEE, 
                       __ZN20CPMLLIBSVMClassifier5trainEv, __ZN20CPMLLIBSVMClassifier6updateEP7CPMLCDBP17CPMLSerializationP15CPMLTunableData, 
                       __ZN20CPMLLIBSVMClassifier9serializeEv, __ZN20CPMLLIBSVMClassifierC1EP17CPMLSerializationP15CPMLTunableData, 
                       __ZN20CPMLLIBSVMClassifierC1EP7CPMLCDBP17CPMLSerializationP15CPMLTunableData, 
                       __ZN20CPMLLIBSVMClassifierC1EPvS0_, __ZN20CPMLLIBSVMClassifierC2EP17CPMLSerializationP15CPMLTunableData, 
                       __ZN20CPMLLIBSVMClassifierC2EP7CPMLCDBP17CPMLSerializationP15CPMLTunableData, 
                       __ZN20CPMLLIBSVMClassifierC2EPvS0_, __ZN20CPMLLIBSVMClassifierD0Ev, 
                       __ZN20CPMLLIBSVMClassifierD1Ev, __ZN20CPMLLIBSVMClassifierD2Ev, 
                       __ZN21CPMLNaiveBayesAdaptor10set_engineEP18CPMLDelegateEngine, 
                       __ZN21CPMLNaiveBayesAdaptor12setCacheSizeEii, __ZN21CPMLNaiveBayesAdaptor14get_cx_given_yEiiiRd, 
                       __ZN21CPMLNaiveBayesAdaptor14set_cx_given_yEiiid, 
                       __ZN21CPMLNaiveBayesAdaptor24set_cardinalityx_given_yEiid, 
                       __ZN21CPMLNaiveBayesAdaptor6get_cyEi, __ZN21CPMLNaiveBayesAdaptor6set_cyEid, 
                       __ZN21CPMLNaiveBayesAdaptor9get_countERd, __ZN21CPMLNaiveBayesAdaptor9set_countEd, 
                       __ZN21CPMLNaiveBayesAdaptorC1EP17CPMLSerialization, 
                       __ZN21CPMLNaiveBayesAdaptorC2EP17CPMLSerialization, 
                       __ZN21CPMLNaiveBayesAdaptorD1Ev, __ZN21CPMLNaiveBayesAdaptorD2Ev, 
                       __ZN22CPMLGMMAnalysisHandler10regressionEiPd, __ZN22CPMLGMMAnalysisHandler8classifyEiPd, 
                       __ZN22CPMLGMMAnalysisHandlerC1EP13CPMLAlgorithm, 
                       __ZN22CPMLGMMAnalysisHandlerC2EP13CPMLAlgorithm, 
                       __ZN22CPMLGMMAnalysisHandlerD1Ev, __ZN22CPMLGMMAnalysisHandlerD2Ev, 
                       __ZN22CPNaiveBayesClassifier26initializeNaiveBayesMemoryEv, 
                       __ZN22CPNaiveBayesClassifier4evalEP17CPMLFeatureVectorPNSt3__16vectorIiNS2_9allocatorIiEEEE, 
                       __ZN22CPNaiveBayesClassifier5trainEv, __ZN22CPNaiveBayesClassifier9serializeEv, 
                       __ZN22CPNaiveBayesClassifierC1EP17CPMLSerializationP15CPMLTunableData, 
                       __ZN22CPNaiveBayesClassifierC1EP7CPMLCDBP17CPMLSerializationP15CPMLTunableData, 
                       __ZN22CPNaiveBayesClassifierC2EP17CPMLSerializationP15CPMLTunableData, 
                       __ZN22CPNaiveBayesClassifierC2EP7CPMLCDBP17CPMLSerializationP15CPMLTunableData, 
                       __ZN22CPNaiveBayesClassifierD0Ev, __ZN22CPNaiveBayesClassifierD1Ev, 
                       __ZN22CPNaiveBayesClassifierD2Ev, __ZN23CPMLLINEARSVMClassifier14establishParamEP15CPMLTunableData, 
                       __ZN23CPMLLINEARSVMClassifier4evalEP17CPMLFeatureVectorPNSt3__16vectorIiNS2_9allocatorIiEEEE, 
                       __ZN23CPMLLINEARSVMClassifier5trainEv, __ZN23CPMLLINEARSVMClassifier6updateEP7CPMLCDBP17CPMLSerializationP15CPMLTunableData, 
                       __ZN23CPMLLINEARSVMClassifier9serializeEv, __ZN23CPMLLINEARSVMClassifierC1EP17CPMLSerializationP15CPMLTunableData, 
                       __ZN23CPMLLINEARSVMClassifierC1EP7CPMLCDBP17CPMLSerializationP15CPMLTunableData, 
                       __ZN23CPMLLINEARSVMClassifierC1EPvS0_, __ZN23CPMLLINEARSVMClassifierC2EP17CPMLSerializationP15CPMLTunableData, 
                       __ZN23CPMLLINEARSVMClassifierC2EP7CPMLCDBP17CPMLSerializationP15CPMLTunableData, 
                       __ZN23CPMLLINEARSVMClassifierC2EPvS0_, __ZN23CPMLLINEARSVMClassifierD0Ev, 
                       __ZN23CPMLLINEARSVMClassifierD1Ev, __ZN23CPMLLINEARSVMClassifierD2Ev, 
                       __ZN24CPMLNaiveBayesClassifier14setTunableDataEP15CPMLTunableData, 
                       __ZN24CPMLNaiveBayesClassifier4evalEP17CPMLFeatureVectorPNSt3__16vectorIiNS2_9allocatorIiEEEE, 
                       __ZN24CPMLNaiveBayesClassifier5trainEv, __ZN24CPMLNaiveBayesClassifier6updateEP7CPMLCDBP17CPMLSerializationP15CPMLTunableData, 
                       __ZN24CPMLNaiveBayesClassifier9serializeEv, __ZN24CPMLNaiveBayesClassifierC1EP14CPMLStatisticsP17CPMLSerializationP15CPMLTunableData, 
                       __ZN24CPMLNaiveBayesClassifierC1EP7CPMLCDBP17CPMLSerializationP15CPMLTunableData, 
                       __ZN24CPMLNaiveBayesClassifierC2EP14CPMLStatisticsP17CPMLSerializationP15CPMLTunableData, 
                       __ZN24CPMLNaiveBayesClassifierC2EP7CPMLCDBP17CPMLSerializationP15CPMLTunableData, 
                       __ZN24CPMLNaiveBayesClassifierD0Ev, __ZN24CPMLNaiveBayesClassifierD1Ev, 
                       __ZN24CPMLNaiveBayesClassifierD2Ev, __ZN24CPMLUserDefinedAlgorithm4evalEP17CPMLFeatureVectorPNSt3__16vectorIiNS2_9allocatorIiEEEE, 
                       __ZN24CPMLUserDefinedAlgorithm5trainEv, __ZN24CPMLUserDefinedAlgorithm6updateEP7CPMLCDBP17CPMLSerializationP15CPMLTunableData, 
                       __ZN24CPMLUserDefinedAlgorithm9serializeEv, __ZN24CPMLUserDefinedAlgorithmC1EP17CPMLSerializationP15CPMLTunableData, 
                       __ZN24CPMLUserDefinedAlgorithmC1EP7CPMLCDBP17CPMLSerializationP15CPMLTunableData, 
                       __ZN24CPMLUserDefinedAlgorithmC2EP17CPMLSerializationP15CPMLTunableData, 
                       __ZN24CPMLUserDefinedAlgorithmC2EP7CPMLCDBP17CPMLSerializationP15CPMLTunableData, 
                       __ZN24CPMLUserDefinedAlgorithmD0Ev, __ZN24CPMLUserDefinedAlgorithmD1Ev, 
                       __ZN24CPMLUserDefinedAlgorithmD2Ev, __ZN24CPNaiveBayesV2Classifier12updateMeanV2Ev, 
                       __ZN24CPNaiveBayesV2Classifier16updateVarianceV2Ev, 
                       __ZN24CPNaiveBayesV2Classifier28initializeNaiveBayesV2MemoryEv, 
                       __ZN24CPNaiveBayesV2Classifier4evalEP17CPMLFeatureVectorPNSt3__16vectorIiNS2_9allocatorIiEEEE, 
                       __ZN24CPNaiveBayesV2Classifier5trainEv, __ZN24CPNaiveBayesV2Classifier9serializeEv, 
                       __ZN24CPNaiveBayesV2ClassifierC1EP17CPMLSerializationP15CPMLTunableData, 
                       __ZN24CPNaiveBayesV2ClassifierC1EP7CPMLCDBP17CPMLSerializationP15CPMLTunableData, 
                       __ZN24CPNaiveBayesV2ClassifierC2EP17CPMLSerializationP15CPMLTunableData, 
                       __ZN24CPNaiveBayesV2ClassifierC2EP7CPMLCDBP17CPMLSerializationP15CPMLTunableData, 
                       __ZN24CPNaiveBayesV2ClassifierD0Ev, __ZN24CPNaiveBayesV2ClassifierD1Ev, 
                       __ZN24CPNaiveBayesV2ClassifierD2Ev, __ZN25CPMLKMeansAnalysisHandler10regressionEiPd, 
                       __ZN25CPMLKMeansAnalysisHandler13totalWithinssEv, 
                       __ZN25CPMLKMeansAnalysisHandler4iterEv, __ZN25CPMLKMeansAnalysisHandler4sizeEPPi, 
                       __ZN25CPMLKMeansAnalysisHandler5totssEv, __ZN25CPMLKMeansAnalysisHandler7centersEPPd, 
                       __ZN25CPMLKMeansAnalysisHandler7clusterEPPi, __ZN25CPMLKMeansAnalysisHandler8classifyEiPd, 
                       __ZN25CPMLKMeansAnalysisHandler8withinssEPPd, __ZN25CPMLKMeansAnalysisHandler9betweenssEv, 
                       __ZN25CPMLKMeansAnalysisHandlerC1EP13CPMLAlgorithm, 
                       __ZN25CPMLKMeansAnalysisHandlerC2EP13CPMLAlgorithm, 
                       __ZN25CPMLKMeansAnalysisHandlerD1Ev, __ZN25CPMLKMeansAnalysisHandlerD2Ev, 
                       __ZN25CPMLLIBSVMAnalysisHandler10regressionEiPd, 
                       __ZN25CPMLLIBSVMAnalysisHandler8classifyEiPd, __ZN25CPMLLIBSVMAnalysisHandlerC1EP13CPMLAlgorithm, 
                       __ZN25CPMLLIBSVMAnalysisHandlerC2EP13CPMLAlgorithm, 
                       __ZN25CPMLLIBSVMAnalysisHandlerD1Ev, __ZN25CPMLLIBSVMAnalysisHandlerD2Ev, 
                       __ZN25CPMLNaiveBayesSuggestions14predict_sortedERKNSt3__16vectorINS1_IiNS0_9allocatorIiEEEENS2_IS4_EEEERKNS1_I9ProbIndexNS2_IS9_EEEEiRSB_, 
                       __ZN27CPLinearRegressionClassfier32initializeLinearRegressionMemoryEv, 
                       __ZN27CPLinearRegressionClassfier4evalEP17CPMLFeatureVectorPNSt3__16vectorIiNS2_9allocatorIiEEEE, 
                       __ZN27CPLinearRegressionClassfier5trainEv, __ZN27CPLinearRegressionClassfier9serializeEv, 
                       __ZN27CPLinearRegressionClassfierC1EP17CPMLSerializationP15CPMLTunableData, 
                       __ZN27CPLinearRegressionClassfierC1EP7CPMLCDBP17CPMLSerializationP15CPMLTunableData, 
                       __ZN27CPLinearRegressionClassfierC2EP17CPMLSerializationP15CPMLTunableData, 
                       __ZN27CPLinearRegressionClassfierC2EP7CPMLCDBP17CPMLSerializationP15CPMLTunableData, 
                       __ZN27CPLinearRegressionClassfierD0Ev, __ZN27CPLinearRegressionClassfierD1Ev, 
                       __ZN27CPLinearRegressionClassfierD2Ev, __ZN27CPRegressionForestClassfier13serializeTreeEP6Vertex, 
                       __ZN27CPRegressionForestClassfier4evalEP17CPMLFeatureVectorPNSt3__16vectorIiNS2_9allocatorIiEEEE, 
                       __ZN27CPRegressionForestClassfier5trainEv, __ZN27CPRegressionForestClassfier9serializeEv, 
                       __ZN27CPRegressionForestClassfierC1EP17CPMLSerializationP15CPMLTunableData, 
                       __ZN27CPRegressionForestClassfierC1EP7CPMLCDBP17CPMLSerializationP15CPMLTunableData, 
                       __ZN27CPRegressionForestClassfierC2EP17CPMLSerializationP15CPMLTunableData, 
                       __ZN27CPRegressionForestClassfierC2EP7CPMLCDBP17CPMLSerializationP15CPMLTunableData, 
                       __ZN27CPRegressionForestClassfierD0Ev, __ZN27CPRegressionForestClassfierD1Ev, 
                       __ZN27CPRegressionForestClassfierD2Ev, __ZN28CPMLDelegateEngineNaiveBayes18preProcessSetCountEd, 
                       __ZN28CPMLDelegateEngineNaiveBayes19preProcessGetCountYEPdi, 
                       __ZN28CPMLDelegateEngineNaiveBayes19preProcessSetCountYEid, 
                       __ZN28CPMLDelegateEngineNaiveBayes23preProcessPredictSortedERKNSt3__16vectorINS1_IiNS0_9allocatorIiEEEENS2_IS4_EEEERS6_, 
                       __ZN28CPMLDelegateEngineNaiveBayes25preProcessSetCountXGivenYEiiid, 
                       __ZN28CPMLDelegateEngineNaiveBayes26preProcessUpdateNaiveBayesERKNSt3__16vectorINS1_IiNS0_9allocatorIiEEEENS2_IS4_EEEEi, 
                       __ZN28CPMLDelegateEngineNaiveBayes31preProcessSetCardinalityXGivenYEiid, 
                       __ZN28CPMLDelegateEngineNaiveBayes33preProcessGetCountAndYCardinalityEPdS0_, 
                       __ZN28CPMLDelegateEngineNaiveBayes43preProcessGetCountXGivenYAndSetXCardinalityEPdiiiS0_, 
                       __ZN28CPMLDelegateEngineNaiveBayesC1EPvS0_, __ZN28CPMLDelegateEngineNaiveBayesC2EPvS0_, 
                       __ZN28CPMLLINEARSVMAnalysisHandler10regressionEiPd, 
                       __ZN28CPMLLINEARSVMAnalysisHandler8classifyEiPd, 
                       __ZN28CPMLLINEARSVMAnalysisHandlerC1EP13CPMLAlgorithm, 
                       __ZN28CPMLLINEARSVMAnalysisHandlerC2EP13CPMLAlgorithm, 
                       __ZN28CPMLLINEARSVMAnalysisHandlerD1Ev, __ZN28CPMLLINEARSVMAnalysisHandlerD2Ev, 
                       __ZN28CPMLNaiveBayesClassifierBase10updateMeanEv, 
                       __ZN28CPMLNaiveBayesClassifierBase14setTunableDataEP15CPMLTunableData, 
                       __ZN28CPMLNaiveBayesClassifierBase14updateVarianceEv, 
                       __ZN28CPMLNaiveBayesClassifierBase17getResponseValuesERNSt3__16vectorIiNS0_9allocatorIiEEEEP17CPMLFeatureVector, 
                       __ZN28CPMLNaiveBayesClassifierBase17setDelegateEngineEP18CPMLDelegateEngine, 
                       __ZN28CPMLNaiveBayesClassifierBase18normalDistributionEddd, 
                       __ZN28CPMLNaiveBayesClassifierBase20processVectorDataSetEPNSt3__16vectorI11VectorClassNS0_9allocatorIS2_EEEEii, 
                       __ZN28CPMLNaiveBayesClassifierBase22processDataSetVarianceEPNSt3__16vectorIdNS0_9allocatorIdEEEEii, 
                       __ZN28CPMLNaiveBayesClassifierBase22processDiscreteDataSetEPNSt3__16vectorIiNS0_9allocatorIiEEEEiib, 
                       __ZN28CPMLNaiveBayesClassifierBase23processContinousDataSetEPNSt3__16vectorIdNS0_9allocatorIdEEEEiib, 
                       __ZN28CPMLNaiveBayesClassifierBase4evalEP17CPMLFeatureVectorPNSt3__16vectorIiNS2_9allocatorIiEEEE, 
                       __ZN28CPMLNaiveBayesClassifierBase5trainEv, __ZN28CPMLNaiveBayesClassifierBase6updateEP7CPMLCDBP17CPMLSerializationP15CPMLTunableData, 
                       __ZN28CPMLNaiveBayesClassifierBase9serializeEv, 
                       __ZN28CPMLNaiveBayesClassifierBaseC1EP14CPMLStatisticsP17CPMLSerializationP15CPMLTunableData, 
                       __ZN28CPMLNaiveBayesClassifierBaseC1EP7CPMLCDBP17CPMLSerializationP15CPMLTunableData, 
                       __ZN28CPMLNaiveBayesClassifierBaseC2EP14CPMLStatisticsP17CPMLSerializationP15CPMLTunableData, 
                       __ZN28CPMLNaiveBayesClassifierBaseC2EP7CPMLCDBP17CPMLSerializationP15CPMLTunableData, 
                       __ZN28CPMLNaiveBayesClassifierBaseD0Ev, __ZN28CPMLNaiveBayesClassifierBaseD1Ev, 
                       __ZN28CPMLNaiveBayesClassifierBaseD2Ev, __ZN29CPLogisticRegressionClassfier11DeserializeERKNSt3__112basic_stringIcNS0_11char_traitsIcEENS0_9allocatorIcEEEE, 
                       __ZN29CPLogisticRegressionClassfier12findGradientEPd, 
                       __ZN29CPLogisticRegressionClassfier15gradientDescentEv, 
                       __ZN29CPLogisticRegressionClassfier17ObjectiveFunctionERKNSt3__18valarrayIdEEPKv, 
                       __ZN29CPLogisticRegressionClassfier18ObjectiveFunction0ERKNSt3__18valarrayIdEEPKv, 
                       __ZN29CPLogisticRegressionClassfier20ComputeSingleHessianERK13data_record_tRKNSt3__18valarrayIdEEiiRS5_, 
                       __ZN29CPLogisticRegressionClassfier20ComputeSingleLogProbERK13data_record_tRKNSt3__18valarrayIdEEiii, 
                       __ZN29CPLogisticRegressionClassfier21ComputeSingleGradientERK13data_record_tRKNSt3__18valarrayIdEEiiiRS5_, 
                       __ZN29CPLogisticRegressionClassfier24ObjectiveFunctionHessianERKNSt3__18valarrayIdEEPKvRN16CoreOptimization9hessian_tE, 
                       __ZN29CPLogisticRegressionClassfier25ObjectiveFunctionGradientERKNSt3__18valarrayIdEEPKvRN16CoreOptimization10gradient_tE, 
                       __ZN29CPLogisticRegressionClassfier25ObjectiveFunctionHessian0ERKNSt3__18valarrayIdEEPKvRN16CoreOptimization9hessian_tE, 
                       __ZN29CPLogisticRegressionClassfier26ObjectiveFunctionGradient0ERKNSt3__18valarrayIdEEPKvRN16CoreOptimization10gradient_tE, 
                       __ZN29CPLogisticRegressionClassfier34initializeLogisticRegressionMemoryEv, 
                       __ZN29CPLogisticRegressionClassfier4InitENSt3__16vectorINS1_I13data_record_tNS0_9allocatorIS2_EEEENS3_IS5_EEEEiiii, 
                       __ZN29CPLogisticRegressionClassfier4evalEP17CPMLFeatureVectorPNSt3__16vectorIiNS2_9allocatorIiEEEE, 
                       __ZN29CPLogisticRegressionClassfier5TrainEv, __ZN29CPLogisticRegressionClassfier5trainEv, 
                       __ZN29CPLogisticRegressionClassfier8EvaluateERKNSt3__18valarrayIdEE, 
                       __ZN29CPLogisticRegressionClassfier9NormalizeERNSt3__16vectorINS0_8valarrayIdEENS0_9allocatorIS3_EEEE, 
                       __ZN29CPLogisticRegressionClassfier9SerializeERKNSt3__112basic_stringIcNS0_11char_traitsIcEENS0_9allocatorIcEEEE, 
                       __ZN29CPLogisticRegressionClassfier9serializeEv, 
                       __ZN29CPLogisticRegressionClassfierC1EP17CPMLSerializationP15CPMLTunableData, 
                       __ZN29CPLogisticRegressionClassfierC1EP7CPMLCDBP17CPMLSerializationP15CPMLTunableData, 
                       __ZN29CPLogisticRegressionClassfierC2EP17CPMLSerializationP15CPMLTunableData, 
                       __ZN29CPLogisticRegressionClassfierC2EP7CPMLCDBP17CPMLSerializationP15CPMLTunableData, 
                       __ZN29CPLogisticRegressionClassfierD0Ev, __ZN29CPLogisticRegressionClassfierD1Ev, 
                       __ZN29CPLogisticRegressionClassfierD2Ev, __ZN30CPMLNaiveBayesSpotLightAdaptor12setCacheSizeEii, 
                       __ZN30CPMLNaiveBayesSpotLightAdaptor14get_cx_given_yEiiiRd, 
                       __ZN30CPMLNaiveBayesSpotLightAdaptor14set_cx_given_yEiiid, 
                       __ZN30CPMLNaiveBayesSpotLightAdaptor24set_cardinalityx_given_yEiid, 
                       __ZN30CPMLNaiveBayesSpotLightAdaptorC1EP17CPMLSerialization, 
                       __ZN30CPMLNaiveBayesSpotLightAdaptorC2EP17CPMLSerialization, 
                       __ZN32CPMLNaiveBayesSuggestionsAdaptor12setCacheSizeEii, 
                       __ZN32CPMLNaiveBayesSuggestionsAdaptor14get_cx_given_yEiiiRd, 
                       __ZN32CPMLNaiveBayesSuggestionsAdaptor14set_cx_given_yEiiid, 
                       __ZN32CPMLNaiveBayesSuggestionsAdaptor24set_cardinalityx_given_yEiid, 
                       __ZN32CPMLNaiveBayesSuggestionsAdaptorC1EP17CPMLSerialization, 
                       __ZN32CPMLNaiveBayesSuggestionsAdaptorC2EP17CPMLSerialization, 
                       __ZN35CPMLNaiveBayesSuggestionsClassifier14setTunableDataEP15CPMLTunableData, 
                       __ZN35CPMLNaiveBayesSuggestionsClassifier4evalEP17CPMLFeatureVectorPNSt3__16vectorIiNS2_9allocatorIiEEEE, 
                       __ZN35CPMLNaiveBayesSuggestionsClassifier5trainEv, 
                       __ZN35CPMLNaiveBayesSuggestionsClassifier6updateEP7CPMLCDBP17CPMLSerializationP15CPMLTunableData, 
                       __ZN35CPMLNaiveBayesSuggestionsClassifier9serializeEv, 
                       __ZN35CPMLNaiveBayesSuggestionsClassifierC1EP14CPMLStatisticsP17CPMLSerializationP15CPMLTunableData, 
                       __ZN35CPMLNaiveBayesSuggestionsClassifierC1EP7CPMLCDBP17CPMLSerializationP15CPMLTunableData, 
                       __ZN35CPMLNaiveBayesSuggestionsClassifierC2EP14CPMLStatisticsP17CPMLSerializationP15CPMLTunableData, 
                       __ZN35CPMLNaiveBayesSuggestionsClassifierC2EP7CPMLCDBP17CPMLSerializationP15CPMLTunableData, 
                       __ZN35CPMLNaiveBayesSuggestionsClassifierD0Ev, __ZN35CPMLNaiveBayesSuggestionsClassifierD1Ev, 
                       __ZN35CPMLNaiveBayesSuggestionsClassifierD2Ev, __ZN7CPMLCDB11getIteratorE18CPMLQueryConditionPc8CPMLMode, 
                       __ZN7CPMLCDB12saveRemapperEv, __ZN7CPMLCDBC1EP7sqlite3S1_P12CPMLRemapperP15CPMLTunableData, 
                       __ZN7CPMLCDBC1EP7sqlite3S1_P15CPMLTunableData, __ZN7CPMLCDBC2EP7sqlite3S1_P12CPMLRemapperP15CPMLTunableData, 
                       __ZN7CPMLCDBC2EP7sqlite3S1_P15CPMLTunableData, __ZN7CPMLCDBD1Ev, 
                       __ZN7CPMLCDBD2Ev, __ZN7CPMLLog3logEiPKcS1_z, __ZN7CPMLLogC1Ev, 
                       __ZN7CPMLLogC2Ev, __ZN7CPMLLogD1Ev, __ZN7CPMLLogD2Ev, 
                       __ZNK10CPMLKMeans11errorStringEi, __ZNK10CPMLKMeans12getModelDataEv, 
                       __ZNK14CPGMMClassfier11errorStringEi, __ZNK14CPKNNClassfier11errorStringEi, 
                       __ZNK15CPMLTunableData16getNumberOfItemsEv, __ZNK20CPMLLIBSVMClassifier11errorStringEi, 
                       __ZNK22CPNaiveBayesClassifier10updateMeanEv, __ZNK22CPNaiveBayesClassifier11errorStringEi, 
                       __ZNK22CPNaiveBayesClassifier14updateVarianceEv, 
                       __ZNK23CPMLLINEARSVMClassifier11errorStringEi, __ZNK24CPMLNaiveBayesClassifier11errorStringEi, 
                       __ZNK24CPMLUserDefinedAlgorithm11errorStringEi, 
                       __ZNK24CPNaiveBayesV2Classifier11errorStringEi, 
                       __ZNK27CPLinearRegressionClassfier11errorStringEi, 
                       __ZNK27CPRegressionForestClassfier11errorStringEi, 
                       __ZNK28CPMLNaiveBayesClassifierBase11errorStringEi, 
                       __ZNK29CPLogisticRegressionClassfier11errorStringEi, 
                       __ZNK35CPMLNaiveBayesSuggestionsClassifier11errorStringEi, 
                       __ZTI10CPMLKMeans, __ZTI12CPMLIterator, __ZTI13CPMLAlgorithm, 
                       __ZTI13CPMLOnlineSvm, __ZTI14CPGMMClassfier, __ZTI14CPKNNClassfier, 
                       __ZTI14CPMLNaiveBayes, __ZTI17CPMLSerialization, 
                       __ZTI18CPMLMemoryIterator, __ZTI19CPMLDBSerialization, 
                       __ZTI20CPMLLIBSVMClassifier, __ZTI21CPMLNaiveBayesAdaptor, 
                       __ZTI22CPMLGMMAnalysisHandler, __ZTI22CPNaiveBayesClassifier, 
                       __ZTI23CPMLLINEARSVMClassifier, __ZTI24CPMLNaiveBayesClassifier, 
                       __ZTI24CPMLUserDefinedAlgorithm, __ZTI24CPNaiveBayesV2Classifier, 
                       __ZTI25CPMLKMeansAnalysisHandler, __ZTI25CPMLLIBSVMAnalysisHandler, 
                       __ZTI25CPMLNaiveBayesSuggestions, __ZTI27CPLinearRegressionClassfier, 
                       __ZTI27CPRegressionForestClassfier, __ZTI28CPMLLINEARSVMAnalysisHandler, 
                       __ZTI28CPMLNaiveBayesClassifierBase, __ZTI29CPLogisticRegressionClassfier, 
                       __ZTI30CPMLNaiveBayesSpotLightAdaptor, __ZTI32CPMLNaiveBayesSuggestionsAdaptor, 
                       __ZTI35CPMLNaiveBayesSuggestionsClassifier, __ZTIN10CPMLLibSVM6KernelE, 
                       __ZTIN10CPMLLibSVM6SolverE, __ZTIN10CPMLLibSVM9Solver_NUE, 
                       __ZTIN13CPMLlinearSVM10l2r_lr_funE, __ZTIN13CPMLlinearSVM14l2r_l2_svc_funE, 
                       __ZTIN13CPMLlinearSVM14l2r_l2_svr_funE, __ZTS10CPMLKMeans, 
                       __ZTS12CPMLIterator, __ZTS13CPMLAlgorithm, __ZTS13CPMLOnlineSvm, 
                       __ZTS14CPGMMClassfier, __ZTS14CPKNNClassfier, __ZTS14CPMLNaiveBayes, 
                       __ZTS17CPMLSerialization, __ZTS18CPMLMemoryIterator, 
                       __ZTS19CPMLDBSerialization, __ZTS20CPMLLIBSVMClassifier, 
                       __ZTS21CPMLNaiveBayesAdaptor, __ZTS22CPMLGMMAnalysisHandler, 
                       __ZTS22CPNaiveBayesClassifier, __ZTS23CPMLLINEARSVMClassifier, 
                       __ZTS24CPMLNaiveBayesClassifier, __ZTS24CPMLUserDefinedAlgorithm, 
                       __ZTS24CPNaiveBayesV2Classifier, __ZTS25CPMLKMeansAnalysisHandler, 
                       __ZTS25CPMLLIBSVMAnalysisHandler, __ZTS25CPMLNaiveBayesSuggestions, 
                       __ZTS27CPLinearRegressionClassfier, __ZTS27CPRegressionForestClassfier, 
                       __ZTS28CPMLLINEARSVMAnalysisHandler, __ZTS28CPMLNaiveBayesClassifierBase, 
                       __ZTS29CPLogisticRegressionClassfier, __ZTS30CPMLNaiveBayesSpotLightAdaptor, 
                       __ZTS32CPMLNaiveBayesSuggestionsAdaptor, __ZTS35CPMLNaiveBayesSuggestionsClassifier, 
                       __ZTSN10CPMLLibSVM6KernelE, __ZTSN10CPMLLibSVM6SolverE, 
                       __ZTSN10CPMLLibSVM9Solver_NUE, __ZTSN13CPMLlinearSVM10l2r_lr_funE, 
                       __ZTSN13CPMLlinearSVM14l2r_l2_svc_funE, __ZTSN13CPMLlinearSVM14l2r_l2_svr_funE, 
                       __ZTV10CPMLKMeans, __ZTV12CPMLIterator, __ZTV13CPMLAlgorithm, 
                       __ZTV13CPMLOnlineSvm, __ZTV14CPGMMClassfier, __ZTV14CPKNNClassfier, 
                       __ZTV14CPMLNaiveBayes, __ZTV17CPMLSerialization, 
                       __ZTV18CPMLMemoryIterator, __ZTV19CPMLDBSerialization, 
                       __ZTV20CPMLLIBSVMClassifier, __ZTV21CPMLNaiveBayesAdaptor, 
                       __ZTV22CPMLGMMAnalysisHandler, __ZTV22CPNaiveBayesClassifier, 
                       __ZTV23CPMLLINEARSVMClassifier, __ZTV24CPMLNaiveBayesClassifier, 
                       __ZTV24CPMLUserDefinedAlgorithm, __ZTV24CPNaiveBayesV2Classifier, 
                       __ZTV25CPMLKMeansAnalysisHandler, __ZTV25CPMLLIBSVMAnalysisHandler, 
                       __ZTV25CPMLNaiveBayesSuggestions, __ZTV27CPLinearRegressionClassfier, 
                       __ZTV27CPRegressionForestClassfier, __ZTV28CPMLLINEARSVMAnalysisHandler, 
                       __ZTV28CPMLNaiveBayesClassifierBase, __ZTV29CPLogisticRegressionClassfier, 
                       __ZTV30CPMLNaiveBayesSpotLightAdaptor, __ZTV32CPMLNaiveBayesSuggestionsAdaptor, 
                       __ZTV35CPMLNaiveBayesSuggestionsClassifier, __ZTVN10CPMLLibSVM6KernelE, 
                       __ZTVN10CPMLLibSVM6SolverE, __ZTVN10CPMLLibSVM9Solver_NUE, 
                       __ZTVN13CPMLlinearSVM10l2r_lr_funE, __ZTVN13CPMLlinearSVM14l2r_l2_svc_funE, 
                       __ZTVN13CPMLlinearSVM14l2r_l2_svr_funE, _check_parameter, 
                       _check_probability_model, _check_regression_model, 
                       _cross_validation, _destroy_param, _free_and_destroy_model, 
                       _free_model_content, _get_decfun_bias, _get_decfun_coef, 
                       _get_labels, _get_nr_class, _get_nr_feature, _kCPML_clearTrainingValueTrainingPhase, 
                       _kCPML_clearTrainingValueUpdatePhase, _kCPML_commitCountMax, 
                       _kCPML_csvType, _kCPML_defaultsDomain, _kCPML_fileprotection, 
                       _kCPML_loggingMode, _kCPML_machineLearningAlgorithm, 
                       _kCPML_mapFunction, _kCPML_modelOpenFileFlagOptions, 
                       _kCPML_schema, _kCPML_schema_categoricalData, _kCPML_schema_header, 
                       _kCPML_schema_headerDef, _kCPML_schema_predictedValue, 
                       _kCPML_schema_reMapTable, _kCPML_schema_shouldIndexDiscreteValue, 
                       _kCPML_schema_substituteValue, _kCPML_schema_substitutionMatch, 
                       _kCPML_schema_vectorType, _kCPML_seralizeFunction, 
                       _kCPML_tunable, _kCPML_versionMD, _libsvm_version, 
                       _load_model, _predict, _predict_probability, _predict_values, 
                       _predict_values_vn, _predict_vn, _save_model, _set_print_string_function, 
                       _svm_check_parameter, _svm_check_probability_model, 
                       _svm_cross_validation, _svm_destroy_param, _svm_free_and_destroy_model, 
                       _svm_free_model_content, _svm_get_labels, _svm_get_nr_class, 
                       _svm_get_nr_sv, _svm_get_sv_indices, _svm_get_svm_type, 
                       _svm_get_svr_probability, _svm_load_model, _svm_predict, 
                       _svm_predict_probability, _svm_predict_values, _svm_save_model, 
                       _svm_set_print_string_function, _svm_train, _train ]
    objc-classes:    [ _CPMLDB, _CPMLEvalutionResult, _CPMLKMeansModel, 
                       _CPMLModel, _CPMLModelEvaluate, _CPMLNaiveBayesStorageManager, 
                       _CPMLSchema, _CPMLStorageManager, _CPMLTrainer ]
    objc-ivars:      [ _CPMLModel._mData, _CPMLModel._realBase, _CPMLModel._totalBytesIntSection, 
                       _CPMLModel._totalBytesRealSection ]
    weak-def-symbols: [ __ZTI19CPMLAnalysisHandler, __ZTI23CPMLNaiveBayesDBAdaptor, 
                        __ZTIN10CPMLLibSVM11ONE_CLASS_QE, __ZTIN10CPMLLibSVM5SVC_QE, 
                        __ZTIN10CPMLLibSVM5SVR_QE, __ZTIN10CPMLLibSVM7QMatrixE, 
                        __ZTIN13CPMLlinearSVM8functionE, __ZTINSt3__113basic_filebufIcNS_11char_traitsIcEEEE, 
                        __ZTINSt3__114basic_ifstreamIcNS_11char_traitsIcEEEE, 
                        __ZTINSt3__114basic_ofstreamIcNS_11char_traitsIcEEEE, 
                        __ZTS19CPMLAnalysisHandler, __ZTS23CPMLNaiveBayesDBAdaptor, 
                        __ZTSN10CPMLLibSVM11ONE_CLASS_QE, __ZTSN10CPMLLibSVM5SVC_QE, 
                        __ZTSN10CPMLLibSVM5SVR_QE, __ZTSN10CPMLLibSVM7QMatrixE, 
                        __ZTSN13CPMLlinearSVM8functionE, __ZTSNSt3__113basic_filebufIcNS_11char_traitsIcEEEE, 
                        __ZTSNSt3__114basic_ifstreamIcNS_11char_traitsIcEEEE, 
                        __ZTSNSt3__114basic_ofstreamIcNS_11char_traitsIcEEEE ]
...
