--- !tapi-tbd
tbd-version:     4
targets:         [ x86_64-macos, arm64-macos, arm64e-macos ]
uuids:
  - target:          x86_64-macos
    value:           70D3643E-D374-3396-87A1-3E469411BC3F
  - target:          arm64-macos
    value:           00000000-0000-0000-0000-000000000000
  - target:          arm64e-macos
    value:           2F8CD932-F5F9-3EAE-A2AD-32447C04B41E
install-name:    '/System/Library/Frameworks/HIDDriverKit.framework/Versions/A/HIDDriverKit'
exports:
  - targets:         [ x86_64-macos ]
    symbols:         [ __ZN21IOHIDElementContainer14withDescriptorEPvj, __ZN21IOHIDElementContainer4initEPvj, 
                       __ZN30IOHIDInterfaceElementContainer14withDescriptorEPvjP14IOHIDInterface, 
                       __ZN30IOHIDInterfaceElementContainer4initEPvjP14IOHIDInterface, 
                       __ZThn48_N21IOHIDElementContainer4initEPvj, __ZThn64_N30IOHIDInterfaceElementContainer4initEPvjP14IOHIDInterface ]
  - targets:         [ arm64e-macos, x86_64-macos, arm64-macos ]
    symbols:         [ _HIDDriverKitVersionNumber, _HIDDriverKitVersionString, _IOHIDDevice_Class, 
                       _IOHIDDigitizerCollection_Class, _IOHIDElementContainer_Class, 
                       _IOHIDElementPrivate_Class, _IOHIDElement_Class, _IOHIDEventService_Class, 
                       _IOHIDEvent_Class, _IOHIDInterfaceElementContainer_Class, 
                       _IOHIDInterface_Class, _IOUserHIDDevice_Class, _IOUserHIDEventDriver_Class, 
                       _IOUserHIDEventService_Class, _IOUserUSBHostHIDDevice_Class, 
                       _OSAction_IOHIDDevice__CompleteReport_Class, _OSAction_IOUserHIDEventService_ReportAvailable_Class, 
                       _OSAction_IOUserUSBHostHIDDevice_CompleteInputReport_Class, 
                       _OSAction_IOUserUSBHostHIDDevice_CompleteOutputReport_Class, 
                       _OSAction_IOUserUSBHostHIDDevice_CompleteOutputRequest_Class, 
                       _OSAction_IOUserUSBHostHIDDevice_CompleteZLP_Class, _OSAction_IOUserUSBHostHIDDevice_TimerOccurred_Class, 
                       __Z11gHIDDKDebugv, __ZN10IOHIDEvent11appendBytesEPhj, __ZN10IOHIDEvent11appendChildEPS_, 
                       __ZN10IOHIDEvent12getDataValueEj, __ZN10IOHIDEvent12getTimestampEv, 
                       __ZN10IOHIDEvent12initWithTypeEjyjj, __ZN10IOHIDEvent13getFixedValueEj, 
                       __ZN10IOHIDEvent13setFixedValueEji, __ZN10IOHIDEvent15getIntegerValueEj, 
                       __ZN10IOHIDEvent15setIntegerValueEjy, __ZN10IOHIDEvent18vendorDefinedEventEyjjjPhjj, 
                       __ZN10IOHIDEvent4freeEv, __ZN10IOHIDEvent7getTypeEv, __ZN10IOHIDEvent8withTypeEjyjj, 
                       __ZN10IOHIDEvent9getLengthEPj, __ZN10IOHIDEvent9getLengthEv, 
                       __ZN10IOHIDEvent9readBytesEPvj, __ZN11IOHIDDevice11setPropertyEP8OSObjectS1_, 
                       __ZN11IOHIDDevice12_SetPropertyEP24IOBufferMemoryDescriptorPFiP15OSMetaClassBase5IORPCE, 
                       __ZN11IOHIDDevice12handleReportEyP18IOMemoryDescriptorj15IOHIDReportTypej, 
                       __ZN11IOHIDDevice13_HandleReportEyP18IOMemoryDescriptorj15IOHIDReportTypejPFiP15OSMetaClassBase5IORPCE, 
                       __ZN11IOHIDDevice13_Start_InvokeE5IORPCP15OSMetaClassBasePFiS2_P9IOServiceE, 
                       __ZN11IOHIDDevice14CompleteReportEP8OSActionijPFiP15OSMetaClassBase5IORPCE, 
                       __ZN11IOHIDDevice14_ProcessReportE20HIDReportCommandTypeP18IOMemoryDescriptor15IOHIDReportTypejjP8OSActionPFiP15OSMetaClassBase5IORPCE, 
                       __ZN11IOHIDDevice17_SetProperty_ImplEP24IOBufferMemoryDescriptor, 
                       __ZN11IOHIDDevice19_ProcessReport_ImplE20HIDReportCommandTypeP18IOMemoryDescriptor15IOHIDReportTypejjP8OSAction, 
                       __ZN11IOHIDDevice19_SetProperty_InvokeE5IORPCP15OSMetaClassBasePFvS2_P24IOBufferMemoryDescriptorE, 
                       __ZN11IOHIDDevice20_HandleReport_InvokeE5IORPCP15OSMetaClassBasePFiS2_yP18IOMemoryDescriptorj15IOHIDReportTypejE, 
                       __ZN11IOHIDDevice21CompleteReport_InvokeE5IORPCP15OSMetaClassBasePFvS2_P8OSActionijE, 
                       __ZN11IOHIDDevice21CompleteReport_InvokeE5IORPCP15OSMetaClassBasePFvS2_P8OSActionijEPK11OSMetaClass, 
                       __ZN11IOHIDDevice21_ProcessReport_InvokeE5IORPCP15OSMetaClassBasePFvS2_20HIDReportCommandTypeP18IOMemoryDescriptor15IOHIDReportTypejjP8OSActionE, 
                       __ZN11IOHIDDevice27CreateAction_CompleteReportEmPP8OSAction, 
                       __ZN11IOHIDDevice6_StartEP9IOServicePFiP15OSMetaClassBase5IORPCE, 
                       __ZN11IOHIDDevice8DispatchE5IORPC, __ZN11IOHIDDevice9_DispatchEPS_5IORPC, 
                       __ZN11IOHIDDevice9getReportEP18IOMemoryDescriptor15IOHIDReportTypejjP8OSAction, 
                       __ZN11IOHIDDevice9setReportEP18IOMemoryDescriptor15IOHIDReportTypejjP8OSAction, 
                       __ZN14IOHIDInterface11Open_InvokeE5IORPCP15OSMetaClassBasePFiS2_P9IOServicejP8OSActionE, 
                       __ZN14IOHIDInterface11getElementsEv, __ZN14IOHIDInterface12Close_InvokeE5IORPCP15OSMetaClassBasePFiS2_P9IOServicejE, 
                       __ZN14IOHIDInterface13processReportEyPhj15IOHIDReportTypej, 
                       __ZN14IOHIDInterface14commitElementsEP7OSArray27IOHIDElementCommitDirection, 
                       __ZN14IOHIDInterface14createElementsEv, __ZN14IOHIDInterface15AddReportToPoolEP24IOBufferMemoryDescriptorPFiP15OSMetaClassBase5IORPCE, 
                       __ZN14IOHIDInterface15ReportAvailableEyjj15IOHIDReportTypeP18IOMemoryDescriptorP8OSActionPFiP15OSMetaClassBase5IORPCE, 
                       __ZN14IOHIDInterface16GetElementValuesEjP18IOMemoryDescriptorPFiP15OSMetaClassBase5IORPCE, 
                       __ZN14IOHIDInterface16GetReport_InvokeE5IORPCP15OSMetaClassBasePFiS2_P18IOMemoryDescriptor15IOHIDReportTypejjE, 
                       __ZN14IOHIDInterface16SetElementValuesEjP18IOMemoryDescriptorPFiP15OSMetaClassBase5IORPCE, 
                       __ZN14IOHIDInterface16SetReport_InvokeE5IORPCP15OSMetaClassBasePFiS2_P18IOMemoryDescriptor15IOHIDReportTypejjE, 
                       __ZN14IOHIDInterface16getElementValuesEP7OSArray, __ZN14IOHIDInterface16setElementValuesEP7OSArray, 
                       __ZN14IOHIDInterface19GetSupportedCookiesEPP24IOBufferMemoryDescriptorPFiP15OSMetaClassBase5IORPCE, 
                       __ZN14IOHIDInterface22AddReportToPool_InvokeE5IORPCP15OSMetaClassBasePFiS2_P24IOBufferMemoryDescriptorE, 
                       __ZN14IOHIDInterface22ReportAvailable_InvokeE5IORPCP15OSMetaClassBasePFvS2_yjj15IOHIDReportTypeP18IOMemoryDescriptorP8OSActionE, 
                       __ZN14IOHIDInterface22ReportAvailable_InvokeE5IORPCP15OSMetaClassBasePFvS2_yjj15IOHIDReportTypeP18IOMemoryDescriptorP8OSActionEPK11OSMetaClass, 
                       __ZN14IOHIDInterface23GetElementValues_InvokeE5IORPCP15OSMetaClassBasePFiS2_jP18IOMemoryDescriptorE, 
                       __ZN14IOHIDInterface23SetElementValues_InvokeE5IORPCP15OSMetaClassBasePFiS2_jP18IOMemoryDescriptorE, 
                       __ZN14IOHIDInterface26GetSupportedCookies_InvokeE5IORPCP15OSMetaClassBasePFiS2_PP24IOBufferMemoryDescriptorE, 
                       __ZN14IOHIDInterface4OpenEP9IOServicejP8OSActionPFiP15OSMetaClassBase5IORPCE, 
                       __ZN14IOHIDInterface4freeEv, __ZN14IOHIDInterface4initEv, 
                       __ZN14IOHIDInterface5CloseEP9IOServicejPFiP15OSMetaClassBase5IORPCE, 
                       __ZN14IOHIDInterface8DispatchE5IORPC, __ZN14IOHIDInterface9GetReportEP18IOMemoryDescriptor15IOHIDReportTypejjPFiP15OSMetaClassBase5IORPCE, 
                       __ZN14IOHIDInterface9SetReportEP18IOMemoryDescriptor15IOHIDReportTypejjPFiP15OSMetaClassBase5IORPCE, 
                       __ZN14IOHIDInterface9_DispatchEPS_5IORPC, __ZN15IOUserHIDDevice10Start_ImplEP9IOService, 
                       __ZN15IOUserHIDDevice11handleStartEP9IOService, __ZN15IOUserHIDDevice19newReportDescriptorEv, 
                       __ZN15IOUserHIDDevice20newDeviceDescriptionEv, __ZN15IOUserHIDDevice8DispatchE5IORPC, 
                       __ZN15IOUserHIDDevice9_DispatchEPS_5IORPC, __ZN17IOHIDEventService11SetLED_ImplEjb, 
                       __ZN17IOHIDEventService13SetLED_InvokeE5IORPCP15OSMetaClassBasePFvS2_jbE, 
                       __ZN17IOHIDEventService13_Start_InvokeE5IORPCP15OSMetaClassBasePFiS2_P9IOServiceE, 
                       __ZN17IOHIDEventService13dispatchEventEP10IOHIDEvent, __ZN17IOHIDEventService14EventAvailableEjPFiP15OSMetaClassBase5IORPCE, 
                       __ZN17IOHIDEventService14SetEventMemoryEP24IOBufferMemoryDescriptorPFiP15OSMetaClassBase5IORPCE, 
                       __ZN17IOHIDEventService21EventAvailable_InvokeE5IORPCP15OSMetaClassBasePFiS2_jE, 
                       __ZN17IOHIDEventService21SetEventMemory_InvokeE5IORPCP15OSMetaClassBasePFiS2_P24IOBufferMemoryDescriptorE, 
                       __ZN17IOHIDEventService21dispatchKeyboardEventEyjjjjb, __ZN17IOHIDEventService22_DispatchKeyboardEventEyjjjjbPFiP15OSMetaClassBase5IORPCE, 
                       __ZN17IOHIDEventService27dispatchDigitizerTouchEventEyP23IOHIDDigitizerTouchDataj, 
                       __ZN17IOHIDEventService28dispatchAbsolutePointerEventEyiijjb, 
                       __ZN17IOHIDEventService28dispatchDigitizerStylusEventEyP24IOHIDDigitizerStylusData, 
                       __ZN17IOHIDEventService28dispatchRelativePointerEventEyiijjb, 
                       __ZN17IOHIDEventService29_DispatchAbsolutePointerEventEyiijjbPFiP15OSMetaClassBase5IORPCE, 
                       __ZN17IOHIDEventService29_DispatchKeyboardEvent_InvokeE5IORPCP15OSMetaClassBasePFiS2_yjjjjbE, 
                       __ZN17IOHIDEventService29_DispatchRelativePointerEventEyiijjbPFiP15OSMetaClassBase5IORPCE, 
                       __ZN17IOHIDEventService32dispatchRelativeScrollWheelEventEyiiijb, 
                       __ZN17IOHIDEventService33_DispatchRelativeScrollWheelEventEyiiijbPFiP15OSMetaClassBase5IORPCE, 
                       __ZN17IOHIDEventService36_DispatchAbsolutePointerEvent_InvokeE5IORPCP15OSMetaClassBasePFiS2_yiijjbE, 
                       __ZN17IOHIDEventService36_DispatchRelativePointerEvent_InvokeE5IORPCP15OSMetaClassBasePFiS2_yiijjbE, 
                       __ZN17IOHIDEventService40_DispatchRelativeScrollWheelEvent_InvokeE5IORPCP15OSMetaClassBasePFiS2_yiiijbE, 
                       __ZN17IOHIDEventService6SetLEDEjbPFiP15OSMetaClassBase5IORPCE, 
                       __ZN17IOHIDEventService6_StartEP9IOServicePFiP15OSMetaClassBase5IORPCE, 
                       __ZN17IOHIDEventService8DispatchE5IORPC, __ZN17IOHIDEventService9_DispatchEPS_5IORPC, 
                       __ZN19IOHIDElementPrivate11getReportIDEv, __ZN19IOHIDElementPrivate11nullElementEP21IOHIDElementContainerjPS_, 
                       __ZN19IOHIDElementPrivate11setDataBitsEP6OSData, __ZN19IOHIDElementPrivate12createReportEhPvPjPPS_, 
                       __ZN19IOHIDElementPrivate12getDataValueEj, __ZN19IOHIDElementPrivate12getDataValueEv, 
                       __ZN19IOHIDElementPrivate12getTimeStampEv, __ZN19IOHIDElementPrivate12getUsagePageEv, 
                       __ZN19IOHIDElementPrivate12setDataValueEP6OSData, __ZN19IOHIDElementPrivate12valueElementEP21IOHIDElementContainer16IOHIDElementTypeP20HIDValueCapabilitiesPS_, 
                       __ZN19IOHIDElementPrivate13buttonElementEP21IOHIDElementContainer16IOHIDElementTypeP21HIDButtonCapabilitiesPS_, 
                       __ZN19IOHIDElementPrivate13getLogicalMaxEv, __ZN19IOHIDElementPrivate13getLogicalMinEv, 
                       __ZN19IOHIDElementPrivate13getReportBitsEv, __ZN19IOHIDElementPrivate13getReportSizeEv, 
                       __ZN19IOHIDElementPrivate13processReportEhPvjyPPS_j, __ZN19IOHIDElementPrivate13setReportSizeEj, 
                       __ZN19IOHIDElementPrivate14getPhysicalMaxEv, __ZN19IOHIDElementPrivate14getPhysicalMinEv, 
                       __ZN19IOHIDElementPrivate14getReportCountEv, __ZN19IOHIDElementPrivate14getScaledValueEj, 
                       __ZN19IOHIDElementPrivate14isVariableSizeEv, __ZN19IOHIDElementPrivate14setCalibrationEjjjjjji, 
                       __ZN19IOHIDElementPrivate15addChildElementEPS_b, __ZN19IOHIDElementPrivate15getUnitExponentEv, 
                       __ZN19IOHIDElementPrivate16getChildElementsEv, __ZN19IOHIDElementPrivate16getParentElementEv, 
                       __ZN19IOHIDElementPrivate17collectionElementEP21IOHIDElementContainer16IOHIDElementTypeP25HIDCollectionExtendedNodePS_, 
                       __ZN19IOHIDElementPrivate17createArrayReportEhPvPj, __ZN19IOHIDElementPrivate17createSubElementsEv, 
                       __ZN19IOHIDElementPrivate17getCollectionTypeEv, __ZN19IOHIDElementPrivate18getCurrentByteSizeEv, 
                       __ZN19IOHIDElementPrivate18processArrayReportEhPvjy, __ZN19IOHIDElementPrivate19arrayHandlerElementEP21IOHIDElementContainer16IOHIDElementTypePS_S3_, 
                       __ZN19IOHIDElementPrivate19getScaledFixedValueEj, __ZN19IOHIDElementPrivate19getScaledFixedValueEjj, 
                       __ZN19IOHIDElementPrivate19getVariableSizeInfoEv, __ZN19IOHIDElementPrivate19setOutOfBoundsValueEv, 
                       __ZN19IOHIDElementPrivate19setTransactionStateEj, __ZN19IOHIDElementPrivate19setVariableSizeInfoEh, 
                       __ZN19IOHIDElementPrivate20reportHandlerElementEP21IOHIDElementContainer16IOHIDElementTypejj, 
                       __ZN19IOHIDElementPrivate20setArrayElementValueEjj, __ZN19IOHIDElementPrivate20setNextReportHandlerEPS_, 
                       __ZN19IOHIDElementPrivate21createDuplicateReportEhPvPj, __ZN19IOHIDElementPrivate21setRollOverElementPtrEPPS_, 
                       __ZN19IOHIDElementPrivate24setMemoryForElementValueEyPv, __ZN19IOHIDElementPrivate4freeEv, 
                       __ZN19IOHIDElementPrivate4initEP21IOHIDElementContainer16IOHIDElementType, 
                       __ZN19IOHIDElementPrivate6commitE27IOHIDElementCommitDirection, 
                       __ZN19IOHIDElementPrivate7getTypeEv, __ZN19IOHIDElementPrivate7getUnitEv, 
                       __ZN19IOHIDElementPrivate8getFlagsEv, __ZN19IOHIDElementPrivate8getUsageEv, 
                       __ZN19IOHIDElementPrivate8getValueEj, __ZN19IOHIDElementPrivate8getValueEv, 
                       __ZN19IOHIDElementPrivate8setValueEj, __ZN19IOHIDElementPrivate9getCookieEv, 
                       __ZN19IOHIDEventMetaClass3NewEP8OSObject, __ZN20IOHIDDeviceMetaClass3NewEP8OSObject, 
                       __ZN20IOHIDDeviceMetaClass8DispatchE5IORPC, __ZN20IOUserHIDEventDriver10Start_ImplEP9IOService, 
                       __ZN20IOUserHIDEventDriver11SetLED_ImplEjb, __ZN20IOUserHIDEventDriver12handleReportEyPhj15IOHIDReportTypej, 
                       __ZN20IOUserHIDEventDriver13parseElementsEP7OSArray, __ZN20IOUserHIDEventDriver15parseLEDElementEP12IOHIDElement, 
                       __ZN20IOUserHIDEventDriver15setTipThresholdEv, __ZN20IOUserHIDEventDriver18handleScrollReportEyj, 
                       __ZN20IOUserHIDEventDriver18parseScrollElementEP12IOHIDElement, 
                       __ZN20IOUserHIDEventDriver19parsePointerElementEP12IOHIDElement, 
                       __ZN20IOUserHIDEventDriver20handleKeyboardReportEyj, __ZN20IOUserHIDEventDriver20parseKeyboardElementEP12IOHIDElement, 
                       __ZN20IOUserHIDEventDriver20setSurfaceDimensionsEv, __ZN20IOUserHIDEventDriver21handleDigitizerReportEyj, 
                       __ZN20IOUserHIDEventDriver21handleProximityReportEyj, __ZN20IOUserHIDEventDriver21parseDigitizerElementEP12IOHIDElement, 
                       __ZN20IOUserHIDEventDriver21parseProximityElementEP12IOHIDElement, 
                       __ZN20IOUserHIDEventDriver25setAccelerationPropertiesEv, __ZN20IOUserHIDEventDriver27handleAbsolutePointerReportEyj, 
                       __ZN20IOUserHIDEventDriver27handleRelativePointerReportEyj, 
                       __ZN20IOUserHIDEventDriver33createEventForDigitizerCollectionEP24IOHIDDigitizerCollectionyj, 
                       __ZN20IOUserHIDEventDriver4freeEv, __ZN20IOUserHIDEventDriver4initEv, 
                       __ZN20IOUserHIDEventDriver8DispatchE5IORPC, __ZN20IOUserHIDEventDriver9_DispatchEPS_5IORPC, 
                       __ZN21IOHIDElementContainer11getElementsEv, __ZN21IOHIDElementContainer12createReportE15IOHIDReportTypehP24IOBufferMemoryDescriptor, 
                       __ZN21IOHIDElementContainer13processReportE15IOHIDReportTypehPvjyPbj, 
                       __ZN21IOHIDElementContainer13setReportSizeEh15IOHIDReportTypej, 
                       __ZN21IOHIDElementContainer14getReportCountEv, __ZN21IOHIDElementContainer15registerElementEP19IOHIDElementPrivatePj, 
                       __ZN21IOHIDElementContainer17postElementValuesEPjj, __ZN21IOHIDElementContainer18createNULLElementsEPvP19IOHIDElementPrivate, 
                       __ZN21IOHIDElementContainer19createValueElementsEPvP7OSArrayj16IOHIDElementTypej, 
                       __ZN21IOHIDElementContainer19getDataElementIndexEv, __ZN21IOHIDElementContainer19updateElementValuesEPjj, 
                       __ZN21IOHIDElementContainer20createButtonElementsEPvP7OSArrayj16IOHIDElementTypej, 
                       __ZN21IOHIDElementContainer20getFlattenedElementsEv, __ZN21IOHIDElementContainer21getMaxInputReportSizeEv, 
                       __ZN21IOHIDElementContainer22createElementHierarchyEPv, __ZN21IOHIDElementContainer22getInputReportElementsEv, 
                       __ZN21IOHIDElementContainer22getMaxOutputReportSizeEv, __ZN21IOHIDElementContainer22getReportCountAndSizesEPv, 
                       __ZN21IOHIDElementContainer23createFlattenedElementsEP19IOHIDElementPrivate, 
                       __ZN21IOHIDElementContainer23getFlattenedCollectionsEv, __ZN21IOHIDElementContainer23getMaxFeatureReportSizeEv, 
                       __ZN21IOHIDElementContainer24createCollectionElementsEPvP7OSArrayj, 
                       __ZN21IOHIDElementContainer25createElementValuesMemoryEv, 
                       __ZN21IOHIDElementContainer26createFlattenedCollectionsEP19IOHIDElementPrivate, 
                       __ZN21IOHIDElementContainer27createReportHandlerElementsEPv, 
                       __ZN21IOHIDElementContainer4freeEv, __ZN21IOHIDElementMetaClass3NewEP8OSObject, 
                       __ZN21IOUserHIDEventService10Start_ImplEP9IOService, __ZN21IOUserHIDEventService10conformsToEjj, 
                       __ZN21IOUserHIDEventService11getElementsEv, __ZN21IOUserHIDEventService11handleStartEP9IOService, 
                       __ZN21IOUserHIDEventService12handleReportEyPhj15IOHIDReportTypej, 
                       __ZN21IOUserHIDEventService13dispatchEventEP10IOHIDEvent, 
                       __ZN21IOUserHIDEventService16createReportPoolEv, __ZN21IOUserHIDEventService18SetProperties_ImplEP12OSDictionary, 
                       __ZN21IOUserHIDEventService20ReportAvailable_ImplEyjj15IOHIDReportTypeP18IOMemoryDescriptorP8OSAction, 
                       __ZN21IOUserHIDEventService27CreateActionReportAvailableEmPP8OSAction, 
                       __ZN21IOUserHIDEventService27dispatchDigitizerTouchEventEyP23IOHIDDigitizerTouchDataj, 
                       __ZN21IOUserHIDEventService28dispatchDigitizerStylusEventEyP24IOHIDDigitizerStylusData, 
                       __ZN21IOUserHIDEventService4freeEv, __ZN21IOUserHIDEventService4initEv, 
                       __ZN21IOUserHIDEventService8DispatchE5IORPC, __ZN21IOUserHIDEventService9Stop_ImplEP9IOService, 
                       __ZN21IOUserHIDEventService9_DispatchEPS_5IORPC, __ZN22IOUserUSBHostHIDDevice10Start_ImplEP9IOService, 
                       __ZN22IOUserUSBHostHIDDevice11handleStartEP9IOService, __ZN22IOUserUSBHostHIDDevice11setPropertyEP8OSObjectS1_, 
                       __ZN22IOUserUSBHostHIDDevice11setProtocolEt, __ZN22IOUserUSBHostHIDDevice12returnActionEP8OSAction, 
                       __ZN22IOUserUSBHostHIDDevice13setIdlePolicyE17USBIdlePolicyTypet, 
                       __ZN22IOUserUSBHostHIDDevice15initInputReportEv, __ZN22IOUserUSBHostHIDDevice16CompleteZLP_ImplEP8OSActionijy, 
                       __ZN22IOUserUSBHostHIDDevice17copyStringAtIndexEht, __ZN22IOUserUSBHostHIDDevice18TimerOccurred_ImplEP8OSActiony, 
                       __ZN22IOUserUSBHostHIDDevice19newReportDescriptorEv, __ZN22IOUserUSBHostHIDDevice20getHIDDescriptorInfoEhPPK26IOUSBHostHIDDescriptorInfoPh, 
                       __ZN22IOUserUSBHostHIDDevice20newDeviceDescriptionEv, __ZN22IOUserUSBHostHIDDevice22cancelInputReportRetryEv, 
                       __ZN22IOUserUSBHostHIDDevice23CreateActionCompleteZLPEmPP8OSAction, 
                       __ZN22IOUserUSBHostHIDDevice24CompleteInputReport_ImplEP8OSActionijy, 
                       __ZN22IOUserUSBHostHIDDevice24scheduleInputReportRetryEi, 
                       __ZN22IOUserUSBHostHIDDevice25CompleteOutputReport_ImplEP8OSActionijy, 
                       __ZN22IOUserUSBHostHIDDevice25CreateActionTimerOccurredEmPP8OSAction, 
                       __ZN22IOUserUSBHostHIDDevice26CompleteOutputRequest_ImplEP8OSActionij, 
                       __ZN22IOUserUSBHostHIDDevice31CreateActionCompleteInputReportEmPP8OSAction, 
                       __ZN22IOUserUSBHostHIDDevice32CreateActionCompleteOutputReportEmPP8OSAction, 
                       __ZN22IOUserUSBHostHIDDevice33CreateActionCompleteOutputRequestEmPP8OSAction, 
                       __ZN22IOUserUSBHostHIDDevice4freeEv, __ZN22IOUserUSBHostHIDDevice4initEv, 
                       __ZN22IOUserUSBHostHIDDevice5resetEv, __ZN22IOUserUSBHostHIDDevice7setIdleEt, 
                       __ZN22IOUserUSBHostHIDDevice8DispatchE5IORPC, __ZN22IOUserUSBHostHIDDevice9Stop_ImplEP9IOService, 
                       __ZN22IOUserUSBHostHIDDevice9_DispatchEPS_5IORPC, __ZN22IOUserUSBHostHIDDevice9getActionE13HIDActionType, 
                       __ZN22IOUserUSBHostHIDDevice9getReportEP18IOMemoryDescriptor15IOHIDReportTypejjP8OSAction, 
                       __ZN22IOUserUSBHostHIDDevice9getReportEP18IOMemoryDescriptor15IOHIDReportTypejjPj, 
                       __ZN22IOUserUSBHostHIDDevice9initPipesEv, __ZN22IOUserUSBHostHIDDevice9setReportEP18IOMemoryDescriptor15IOHIDReportTypejjP8OSAction, 
                       __ZN23IOHIDInterfaceMetaClass3NewEP8OSObject, __ZN23IOHIDInterfaceMetaClass8DispatchE5IORPC, 
                       __ZN24IOHIDDigitizerCollection10addElementEP12IOHIDElement, 
                       __ZN24IOHIDDigitizerCollection10getInRangeEv, __ZN24IOHIDDigitizerCollection10setInRangeEb, 
                       __ZN24IOHIDDigitizerCollection11getElementsEv, __ZN24IOHIDDigitizerCollection12initWithTypeE28IOHIDDigitizerCollectionTypeP12IOHIDElement, 
                       __ZN24IOHIDDigitizerCollection19getParentCollectionEv, __ZN24IOHIDDigitizerCollection4freeEv, 
                       __ZN24IOHIDDigitizerCollection4getXEv, __ZN24IOHIDDigitizerCollection4getYEv, 
                       __ZN24IOHIDDigitizerCollection4getZEv, __ZN24IOHIDDigitizerCollection4setXEi, 
                       __ZN24IOHIDDigitizerCollection4setYEi, __ZN24IOHIDDigitizerCollection4setZEi, 
                       __ZN24IOHIDDigitizerCollection7getTypeEv, __ZN24IOHIDDigitizerCollection8getTouchEv, 
                       __ZN24IOHIDDigitizerCollection8setTouchEb, __ZN24IOHIDDigitizerCollection8withTypeE28IOHIDDigitizerCollectionTypeP12IOHIDElement, 
                       __ZN24IOUserHIDDeviceMetaClass3NewEP8OSObject, __ZN24IOUserHIDDeviceMetaClass8DispatchE5IORPC, 
                       __ZN26IOHIDEventServiceMetaClass3NewEP8OSObject, __ZN26IOHIDEventServiceMetaClass8DispatchE5IORPC, 
                       __ZN28IOHIDElementPrivateMetaClass3NewEP8OSObject, __ZN29IOUserHIDEventDriverMetaClass3NewEP8OSObject, 
                       __ZN29IOUserHIDEventDriverMetaClass8DispatchE5IORPC, __ZN30IOHIDElementContainerMetaClass3NewEP8OSObject, 
                       __ZN30IOHIDInterfaceElementContainer17postElementValuesEPjj, 
                       __ZN30IOHIDInterfaceElementContainer19updateElementValuesEPjj, 
                       __ZN30IOHIDInterfaceElementContainer4freeEv, __ZN30IOUserHIDEventServiceMetaClass3NewEP8OSObject, 
                       __ZN30IOUserHIDEventServiceMetaClass8DispatchE5IORPC, __ZN31IOUserUSBHostHIDDeviceMetaClass3NewEP8OSObject, 
                       __ZN31IOUserUSBHostHIDDeviceMetaClass8DispatchE5IORPC, __ZN33IOHIDDigitizerCollectionMetaClass3NewEP8OSObject, 
                       __ZN36OSAction_IOHIDDevice__CompleteReport8DispatchE5IORPC, 
                       __ZN36OSAction_IOHIDDevice__CompleteReport9_DispatchEPS_5IORPC, 
                       __ZN39IOHIDInterfaceElementContainerMetaClass3NewEP8OSObject, 
                       __ZN43OSAction_IOUserUSBHostHIDDevice_CompleteZLP8DispatchE5IORPC, 
                       __ZN43OSAction_IOUserUSBHostHIDDevice_CompleteZLP9_DispatchEPS_5IORPC, 
                       __ZN45OSAction_IOHIDDevice__CompleteReportMetaClass3NewEP8OSObject, 
                       __ZN45OSAction_IOHIDDevice__CompleteReportMetaClass8DispatchE5IORPC, 
                       __ZN45OSAction_IOUserUSBHostHIDDevice_TimerOccurred8DispatchE5IORPC, 
                       __ZN45OSAction_IOUserUSBHostHIDDevice_TimerOccurred9_DispatchEPS_5IORPC, 
                       __ZN46OSAction_IOUserHIDEventService_ReportAvailable8DispatchE5IORPC, 
                       __ZN46OSAction_IOUserHIDEventService_ReportAvailable9_DispatchEPS_5IORPC, 
                       __ZN51OSAction_IOUserUSBHostHIDDevice_CompleteInputReport8DispatchE5IORPC, 
                       __ZN51OSAction_IOUserUSBHostHIDDevice_CompleteInputReport9_DispatchEPS_5IORPC, 
                       __ZN52OSAction_IOUserUSBHostHIDDevice_CompleteOutputReport8DispatchE5IORPC, 
                       __ZN52OSAction_IOUserUSBHostHIDDevice_CompleteOutputReport9_DispatchEPS_5IORPC, 
                       __ZN52OSAction_IOUserUSBHostHIDDevice_CompleteZLPMetaClass3NewEP8OSObject, 
                       __ZN52OSAction_IOUserUSBHostHIDDevice_CompleteZLPMetaClass8DispatchE5IORPC, 
                       __ZN53OSAction_IOUserUSBHostHIDDevice_CompleteOutputRequest8DispatchE5IORPC, 
                       __ZN53OSAction_IOUserUSBHostHIDDevice_CompleteOutputRequest9_DispatchEPS_5IORPC, 
                       __ZN54OSAction_IOUserUSBHostHIDDevice_TimerOccurredMetaClass3NewEP8OSObject, 
                       __ZN54OSAction_IOUserUSBHostHIDDevice_TimerOccurredMetaClass8DispatchE5IORPC, 
                       __ZN55OSAction_IOUserHIDEventService_ReportAvailableMetaClass3NewEP8OSObject, 
                       __ZN55OSAction_IOUserHIDEventService_ReportAvailableMetaClass8DispatchE5IORPC, 
                       __ZN60OSAction_IOUserUSBHostHIDDevice_CompleteInputReportMetaClass3NewEP8OSObject, 
                       __ZN60OSAction_IOUserUSBHostHIDDevice_CompleteInputReportMetaClass8DispatchE5IORPC, 
                       __ZN61OSAction_IOUserUSBHostHIDDevice_CompleteOutputReportMetaClass3NewEP8OSObject, 
                       __ZN61OSAction_IOUserUSBHostHIDDevice_CompleteOutputReportMetaClass8DispatchE5IORPC, 
                       __ZN62OSAction_IOUserUSBHostHIDDevice_CompleteOutputRequestMetaClass3NewEP8OSObject, 
                       __ZN62OSAction_IOUserUSBHostHIDDevice_CompleteOutputRequestMetaClass8DispatchE5IORPC, 
                       __ZNK19IOHIDElementPrivate11getByteSizeEv, __ZNK19IOHIDElementPrivate13getReportTypeEP15IOHIDReportType, 
                       __ZNK19IOHIDElementPrivate13newSubElementEt, __ZNK19IOHIDElementPrivate19getElementValueSizeEv, 
                       __ZNK19IOHIDElementPrivate19getTransactionStateEv, __ZNK19IOHIDElementPrivate20getNextReportHandlerEv, 
                       __ZNK19IOHIDElementPrivate20shouldTickleActivityEv, __ZTI10IOHIDEvent, 
                       __ZTI11IOHIDDevice, __ZTI14IOHIDInterface, __ZTI15IOUserHIDDevice, 
                       __ZTI17IOHIDEventService, __ZTI19IOHIDElementPrivate, __ZTI19IOHIDEventMetaClass, 
                       __ZTI20IOHIDDeviceMetaClass, __ZTI20IOUserHIDEventDriver, 
                       __ZTI21IOHIDElementContainer, __ZTI21IOHIDElementMetaClass, 
                       __ZTI21IOUserHIDEventService, __ZTI22IOUserUSBHostHIDDevice, 
                       __ZTI23IOHIDInterfaceMetaClass, __ZTI24IOHIDDigitizerCollection, 
                       __ZTI24IOUserHIDDeviceMetaClass, __ZTI26IOHIDEventServiceMetaClass, 
                       __ZTI28IOHIDElementPrivateMetaClass, __ZTI29IOUserHIDEventDriverMetaClass, 
                       __ZTI30IOHIDElementContainerMetaClass, __ZTI30IOHIDInterfaceElementContainer, 
                       __ZTI30IOUserHIDEventServiceMetaClass, __ZTI31IOUserUSBHostHIDDeviceMetaClass, 
                       __ZTI33IOHIDDigitizerCollectionMetaClass, __ZTI36OSAction_IOHIDDevice__CompleteReport, 
                       __ZTI39IOHIDInterfaceElementContainerMetaClass, __ZTI43OSAction_IOUserUSBHostHIDDevice_CompleteZLP, 
                       __ZTI45OSAction_IOHIDDevice__CompleteReportMetaClass, __ZTI45OSAction_IOUserUSBHostHIDDevice_TimerOccurred, 
                       __ZTI46OSAction_IOUserHIDEventService_ReportAvailable, __ZTI51OSAction_IOUserUSBHostHIDDevice_CompleteInputReport, 
                       __ZTI52OSAction_IOUserUSBHostHIDDevice_CompleteOutputReport, 
                       __ZTI52OSAction_IOUserUSBHostHIDDevice_CompleteZLPMetaClass, 
                       __ZTI53OSAction_IOUserUSBHostHIDDevice_CompleteOutputRequest, 
                       __ZTI54OSAction_IOUserUSBHostHIDDevice_TimerOccurredMetaClass, 
                       __ZTI55OSAction_IOUserHIDEventService_ReportAvailableMetaClass, 
                       __ZTI60OSAction_IOUserUSBHostHIDDevice_CompleteInputReportMetaClass, 
                       __ZTI61OSAction_IOUserUSBHostHIDDevice_CompleteOutputReportMetaClass, 
                       __ZTI62OSAction_IOUserUSBHostHIDDevice_CompleteOutputRequestMetaClass, 
                       __ZTS10IOHIDEvent, __ZTS11IOHIDDevice, __ZTS14IOHIDInterface, 
                       __ZTS15IOUserHIDDevice, __ZTS17IOHIDEventService, __ZTS19IOHIDElementPrivate, 
                       __ZTS19IOHIDEventMetaClass, __ZTS20IOHIDDeviceMetaClass, __ZTS20IOUserHIDEventDriver, 
                       __ZTS21IOHIDElementContainer, __ZTS21IOHIDElementMetaClass, 
                       __ZTS21IOUserHIDEventService, __ZTS22IOUserUSBHostHIDDevice, 
                       __ZTS23IOHIDInterfaceMetaClass, __ZTS24IOHIDDigitizerCollection, 
                       __ZTS24IOUserHIDDeviceMetaClass, __ZTS26IOHIDEventServiceMetaClass, 
                       __ZTS28IOHIDElementPrivateMetaClass, __ZTS29IOUserHIDEventDriverMetaClass, 
                       __ZTS30IOHIDElementContainerMetaClass, __ZTS30IOHIDInterfaceElementContainer, 
                       __ZTS30IOUserHIDEventServiceMetaClass, __ZTS31IOUserUSBHostHIDDeviceMetaClass, 
                       __ZTS33IOHIDDigitizerCollectionMetaClass, __ZTS36OSAction_IOHIDDevice__CompleteReport, 
                       __ZTS39IOHIDInterfaceElementContainerMetaClass, __ZTS43OSAction_IOUserUSBHostHIDDevice_CompleteZLP, 
                       __ZTS45OSAction_IOHIDDevice__CompleteReportMetaClass, __ZTS45OSAction_IOUserUSBHostHIDDevice_TimerOccurred, 
                       __ZTS46OSAction_IOUserHIDEventService_ReportAvailable, __ZTS51OSAction_IOUserUSBHostHIDDevice_CompleteInputReport, 
                       __ZTS52OSAction_IOUserUSBHostHIDDevice_CompleteOutputReport, 
                       __ZTS52OSAction_IOUserUSBHostHIDDevice_CompleteZLPMetaClass, 
                       __ZTS53OSAction_IOUserUSBHostHIDDevice_CompleteOutputRequest, 
                       __ZTS54OSAction_IOUserUSBHostHIDDevice_TimerOccurredMetaClass, 
                       __ZTS55OSAction_IOUserHIDEventService_ReportAvailableMetaClass, 
                       __ZTS60OSAction_IOUserUSBHostHIDDevice_CompleteInputReportMetaClass, 
                       __ZTS61OSAction_IOUserUSBHostHIDDevice_CompleteOutputReportMetaClass, 
                       __ZTS62OSAction_IOUserUSBHostHIDDevice_CompleteOutputRequestMetaClass, 
                       __ZTV10IOHIDEvent, __ZTV11IOHIDDevice, __ZTV14IOHIDInterface, 
                       __ZTV15IOUserHIDDevice, __ZTV17IOHIDEventService, __ZTV19IOHIDElementPrivate, 
                       __ZTV19IOHIDEventMetaClass, __ZTV20IOHIDDeviceMetaClass, __ZTV20IOUserHIDEventDriver, 
                       __ZTV21IOHIDElementContainer, __ZTV21IOHIDElementMetaClass, 
                       __ZTV21IOUserHIDEventService, __ZTV22IOUserUSBHostHIDDevice, 
                       __ZTV23IOHIDInterfaceMetaClass, __ZTV24IOHIDDigitizerCollection, 
                       __ZTV24IOUserHIDDeviceMetaClass, __ZTV26IOHIDEventServiceMetaClass, 
                       __ZTV28IOHIDElementPrivateMetaClass, __ZTV29IOUserHIDEventDriverMetaClass, 
                       __ZTV30IOHIDElementContainerMetaClass, __ZTV30IOHIDInterfaceElementContainer, 
                       __ZTV30IOUserHIDEventServiceMetaClass, __ZTV31IOUserUSBHostHIDDeviceMetaClass, 
                       __ZTV33IOHIDDigitizerCollectionMetaClass, __ZTV36OSAction_IOHIDDevice__CompleteReport, 
                       __ZTV39IOHIDInterfaceElementContainerMetaClass, __ZTV43OSAction_IOUserUSBHostHIDDevice_CompleteZLP, 
                       __ZTV45OSAction_IOHIDDevice__CompleteReportMetaClass, __ZTV45OSAction_IOUserUSBHostHIDDevice_TimerOccurred, 
                       __ZTV46OSAction_IOUserHIDEventService_ReportAvailable, __ZTV51OSAction_IOUserUSBHostHIDDevice_CompleteInputReport, 
                       __ZTV52OSAction_IOUserUSBHostHIDDevice_CompleteOutputReport, 
                       __ZTV52OSAction_IOUserUSBHostHIDDevice_CompleteZLPMetaClass, 
                       __ZTV53OSAction_IOUserUSBHostHIDDevice_CompleteOutputRequest, 
                       __ZTV54OSAction_IOUserUSBHostHIDDevice_TimerOccurredMetaClass, 
                       __ZTV55OSAction_IOUserHIDEventService_ReportAvailableMetaClass, 
                       __ZTV60OSAction_IOUserUSBHostHIDDevice_CompleteInputReportMetaClass, 
                       __ZTV61OSAction_IOUserUSBHostHIDDevice_CompleteOutputReportMetaClass, 
                       __ZTV62OSAction_IOUserUSBHostHIDDevice_CompleteOutputRequestMetaClass, 
                       __ZThn24_N10IOHIDEvent4freeEv, __ZThn24_N14IOHIDInterface4freeEv, 
                       __ZThn24_N14IOHIDInterface4initEv, __ZThn24_N19IOHIDElementPrivate4freeEv, 
                       __ZThn24_N20IOUserHIDEventDriver4freeEv, __ZThn24_N20IOUserHIDEventDriver4initEv, 
                       __ZThn24_N21IOHIDElementContainer4freeEv, __ZThn24_N21IOUserHIDEventService4freeEv, 
                       __ZThn24_N21IOUserHIDEventService4initEv, __ZThn24_N22IOUserUSBHostHIDDevice4freeEv, 
                       __ZThn24_N22IOUserUSBHostHIDDevice4initEv, __ZThn24_N24IOHIDDigitizerCollection4freeEv, 
                       __ZThn24_N30IOHIDInterfaceElementContainer4freeEv, __ZThn48_N11IOHIDDevice11setPropertyEP8OSObjectS1_, 
                       __ZThn48_N11IOHIDDevice12handleReportEyP18IOMemoryDescriptorj15IOHIDReportTypej, 
                       __ZThn48_N11IOHIDDevice9getReportEP18IOMemoryDescriptor15IOHIDReportTypejjP8OSAction, 
                       __ZThn48_N11IOHIDDevice9setReportEP18IOMemoryDescriptor15IOHIDReportTypejjP8OSAction, 
                       __ZThn48_N14IOHIDInterface11getElementsEv, __ZThn48_N14IOHIDInterface13processReportEyPhj15IOHIDReportTypej, 
                       __ZThn48_N14IOHIDInterface14commitElementsEP7OSArray27IOHIDElementCommitDirection, 
                       __ZThn48_N14IOHIDInterface16getElementValuesEP7OSArray, __ZThn48_N14IOHIDInterface16setElementValuesEP7OSArray, 
                       __ZThn48_N17IOHIDEventService13dispatchEventEP10IOHIDEvent, 
                       __ZThn48_N17IOHIDEventService21dispatchKeyboardEventEyjjjjb, 
                       __ZThn48_N17IOHIDEventService27dispatchDigitizerTouchEventEyP23IOHIDDigitizerTouchDataj, 
                       __ZThn48_N17IOHIDEventService28dispatchAbsolutePointerEventEyiijjb, 
                       __ZThn48_N17IOHIDEventService28dispatchDigitizerStylusEventEyP24IOHIDDigitizerStylusData, 
                       __ZThn48_N17IOHIDEventService28dispatchRelativePointerEventEyiijjb, 
                       __ZThn48_N17IOHIDEventService32dispatchRelativeScrollWheelEventEyiiijb, 
                       __ZThn48_N19IOHIDElementPrivate11getReportIDEv, __ZThn48_N19IOHIDElementPrivate12getDataValueEj, 
                       __ZThn48_N19IOHIDElementPrivate12getTimeStampEv, __ZThn48_N19IOHIDElementPrivate12getUsagePageEv, 
                       __ZThn48_N19IOHIDElementPrivate12setDataValueEP6OSData, __ZThn48_N19IOHIDElementPrivate13getLogicalMaxEv, 
                       __ZThn48_N19IOHIDElementPrivate13getLogicalMinEv, __ZThn48_N19IOHIDElementPrivate13getReportSizeEv, 
                       __ZThn48_N19IOHIDElementPrivate14getPhysicalMaxEv, __ZThn48_N19IOHIDElementPrivate14getPhysicalMinEv, 
                       __ZThn48_N19IOHIDElementPrivate14getReportCountEv, __ZThn48_N19IOHIDElementPrivate14getScaledValueEj, 
                       __ZThn48_N19IOHIDElementPrivate15getUnitExponentEv, __ZThn48_N19IOHIDElementPrivate16getChildElementsEv, 
                       __ZThn48_N19IOHIDElementPrivate16getParentElementEv, __ZThn48_N19IOHIDElementPrivate17getCollectionTypeEv, 
                       __ZThn48_N19IOHIDElementPrivate19getScaledFixedValueEj, __ZThn48_N19IOHIDElementPrivate6commitE27IOHIDElementCommitDirection, 
                       __ZThn48_N19IOHIDElementPrivate7getTypeEv, __ZThn48_N19IOHIDElementPrivate7getUnitEv, 
                       __ZThn48_N19IOHIDElementPrivate8getFlagsEv, __ZThn48_N19IOHIDElementPrivate8getUsageEv, 
                       __ZThn48_N19IOHIDElementPrivate8getValueEj, __ZThn48_N19IOHIDElementPrivate8setValueEj, 
                       __ZThn48_N19IOHIDElementPrivate9getCookieEv, __ZThn48_N21IOHIDElementContainer17postElementValuesEPjj, 
                       __ZThn48_N21IOHIDElementContainer19updateElementValuesEPjj, 
                       __ZThn48_N21IOUserHIDEventService13dispatchEventEP10IOHIDEvent, 
                       __ZThn48_N21IOUserHIDEventService27dispatchDigitizerTouchEventEyP23IOHIDDigitizerTouchDataj, 
                       __ZThn48_N21IOUserHIDEventService28dispatchDigitizerStylusEventEyP24IOHIDDigitizerStylusData, 
                       __ZThn48_N22IOUserUSBHostHIDDevice11setPropertyEP8OSObjectS1_, 
                       __ZThn48_N22IOUserUSBHostHIDDevice9getReportEP18IOMemoryDescriptor15IOHIDReportTypejjP8OSAction, 
                       __ZThn48_N22IOUserUSBHostHIDDevice9setReportEP18IOMemoryDescriptor15IOHIDReportTypejjP8OSAction, 
                       __ZThn48_N30IOHIDInterfaceElementContainer17postElementValuesEPjj, 
                       __ZThn48_N30IOHIDInterfaceElementContainer19updateElementValuesEPjj, 
                       __ZThn64_N15IOUserHIDDevice11handleStartEP9IOService, __ZThn64_N15IOUserHIDDevice19newReportDescriptorEv, 
                       __ZThn64_N15IOUserHIDDevice20newDeviceDescriptionEv, __ZThn64_N19IOHIDElementPrivate12createReportEhPvPjPPS_, 
                       __ZThn64_N19IOHIDElementPrivate12getDataValueEv, __ZThn64_N19IOHIDElementPrivate13getReportBitsEv, 
                       __ZThn64_N19IOHIDElementPrivate13processReportEhPvjyPPS_j, 
                       __ZThn64_N19IOHIDElementPrivate13setReportSizeEj, __ZThn64_N19IOHIDElementPrivate14isVariableSizeEv, 
                       __ZThn64_N19IOHIDElementPrivate14setCalibrationEjjjjjji, __ZThn64_N19IOHIDElementPrivate15addChildElementEPS_b, 
                       __ZThn64_N19IOHIDElementPrivate16getParentElementEv, __ZThn64_N19IOHIDElementPrivate17createArrayReportEhPvPj, 
                       __ZThn64_N19IOHIDElementPrivate17createSubElementsEv, __ZThn64_N19IOHIDElementPrivate18processArrayReportEhPvjy, 
                       __ZThn64_N19IOHIDElementPrivate19arrayHandlerElementEP21IOHIDElementContainer16IOHIDElementTypePS_S3_, 
                       __ZThn64_N19IOHIDElementPrivate19getScaledFixedValueEjj, __ZThn64_N19IOHIDElementPrivate19setOutOfBoundsValueEv, 
                       __ZThn64_N19IOHIDElementPrivate20setArrayElementValueEjj, 
                       __ZThn64_N19IOHIDElementPrivate20setNextReportHandlerEPS_, 
                       __ZThn64_N19IOHIDElementPrivate21createDuplicateReportEhPvPj, 
                       __ZThn64_N19IOHIDElementPrivate21setRollOverElementPtrEPPS_, 
                       __ZThn64_N19IOHIDElementPrivate24setMemoryForElementValueEyPv, 
                       __ZThn64_N19IOHIDElementPrivate4initEP21IOHIDElementContainer16IOHIDElementType, 
                       __ZThn64_N19IOHIDElementPrivate8getValueEv, __ZThn64_N20IOUserHIDEventDriver12handleReportEyPhj15IOHIDReportTypej, 
                       __ZThn64_N21IOUserHIDEventService10conformsToEjj, __ZThn64_N21IOUserHIDEventService11getElementsEv, 
                       __ZThn64_N21IOUserHIDEventService11handleStartEP9IOService, 
                       __ZThn64_N21IOUserHIDEventService12handleReportEyPhj15IOHIDReportTypej, 
                       __ZThn64_N22IOUserUSBHostHIDDevice11handleStartEP9IOService, 
                       __ZThn64_N22IOUserUSBHostHIDDevice19newReportDescriptorEv, 
                       __ZThn64_N22IOUserUSBHostHIDDevice20newDeviceDescriptionEv, 
                       __ZThn64_NK19IOHIDElementPrivate11getByteSizeEv, __ZThn64_NK19IOHIDElementPrivate13getReportTypeEP15IOHIDReportType, 
                       __ZThn64_NK19IOHIDElementPrivate13newSubElementEt, __ZThn64_NK19IOHIDElementPrivate19getElementValueSizeEv, 
                       __ZThn80_N20IOUserHIDEventDriver13parseElementsEP7OSArray, 
                       __ZThn80_N20IOUserHIDEventDriver15parseLEDElementEP12IOHIDElement, 
                       __ZThn80_N20IOUserHIDEventDriver18handleScrollReportEyj, __ZThn80_N20IOUserHIDEventDriver18parseScrollElementEP12IOHIDElement, 
                       __ZThn80_N20IOUserHIDEventDriver19parsePointerElementEP12IOHIDElement, 
                       __ZThn80_N20IOUserHIDEventDriver20handleKeyboardReportEyj, 
                       __ZThn80_N20IOUserHIDEventDriver20parseKeyboardElementEP12IOHIDElement, 
                       __ZThn80_N20IOUserHIDEventDriver21handleDigitizerReportEyj, 
                       __ZThn80_N20IOUserHIDEventDriver21handleProximityReportEyj, 
                       __ZThn80_N20IOUserHIDEventDriver21parseDigitizerElementEP12IOHIDElement, 
                       __ZThn80_N20IOUserHIDEventDriver21parseProximityElementEP12IOHIDElement, 
                       __ZThn80_N20IOUserHIDEventDriver27handleAbsolutePointerReportEyj, 
                       __ZThn80_N20IOUserHIDEventDriver27handleRelativePointerReportEyj, 
                       __ZThn80_N22IOUserUSBHostHIDDevice11setProtocolEt, __ZThn80_N22IOUserUSBHostHIDDevice13setIdlePolicyE17USBIdlePolicyTypet, 
                       __ZThn80_N22IOUserUSBHostHIDDevice15initInputReportEv, __ZThn80_N22IOUserUSBHostHIDDevice22cancelInputReportRetryEv, 
                       __ZThn80_N22IOUserUSBHostHIDDevice24scheduleInputReportRetryEi, 
                       __ZThn80_N22IOUserUSBHostHIDDevice5resetEv, __ZThn80_N22IOUserUSBHostHIDDevice7setIdleEt, 
                       _gIOHIDDeviceMetaClass, _gIOHIDDigitizerCollectionMetaClass, 
                       _gIOHIDElementContainerMetaClass, _gIOHIDElementMetaClass, 
                       _gIOHIDElementPrivateMetaClass, _gIOHIDEventMetaClass, _gIOHIDEventServiceMetaClass, 
                       _gIOHIDInterfaceElementContainerMetaClass, _gIOHIDInterfaceMetaClass, 
                       _gIOUserHIDDeviceMetaClass, _gIOUserHIDEventDriverMetaClass, 
                       _gIOUserHIDEventServiceMetaClass, _gIOUserUSBHostHIDDeviceMetaClass, 
                       _gOSAction_IOHIDDevice__CompleteReportMetaClass, _gOSAction_IOUserHIDEventService_ReportAvailableMetaClass, 
                       _gOSAction_IOUserUSBHostHIDDevice_CompleteInputReportMetaClass, 
                       _gOSAction_IOUserUSBHostHIDDevice_CompleteOutputReportMetaClass, 
                       _gOSAction_IOUserUSBHostHIDDevice_CompleteOutputRequestMetaClass, 
                       _gOSAction_IOUserUSBHostHIDDevice_CompleteZLPMetaClass, _gOSAction_IOUserUSBHostHIDDevice_TimerOccurredMetaClass ]
  - targets:         [ arm64e-macos, arm64-macos ]
    symbols:         [ __ZN21IOHIDElementContainer14withDescriptorEPvy, __ZN21IOHIDElementContainer4initEPvy, 
                       __ZN30IOHIDInterfaceElementContainer14withDescriptorEPvyP14IOHIDInterface, 
                       __ZN30IOHIDInterfaceElementContainer4initEPvyP14IOHIDInterface, 
                       __ZThn48_N21IOHIDElementContainer4initEPvy, __ZThn64_N30IOHIDInterfaceElementContainer4initEPvyP14IOHIDInterface ]
...
