--- !tapi-tbd
tbd-version:     4
targets:         [ x86_64-macos, x86_64-maccatalyst, arm64-macos, arm64-maccatalyst, 
                   arm64e-macos, arm64e-maccatalyst ]
uuids:
  - target:          x86_64-macos
    value:           1112E220-2503-3629-A8D9-E67076284994
  - target:          x86_64-maccatalyst
    value:           1112E220-2503-3629-A8D9-E67076284994
  - target:          arm64-macos
    value:           00000000-0000-0000-0000-000000000000
  - target:          arm64-maccatalyst
    value:           00000000-0000-0000-0000-000000000000
  - target:          arm64e-macos
    value:           01A5A644-F32B-3EAF-84AA-0FC97C76DB2A
  - target:          arm64e-maccatalyst
    value:           01A5A644-F32B-3EAF-84AA-0FC97C76DB2A
install-name:    '/System/Library/PrivateFrameworks/AVConference.framework/Versions/A/AVConference'
exports:
  - targets:         [ x86_64-maccatalyst, x86_64-macos ]
    symbols:         [ __ZN5CALog6log_vaEiPKNS_5ScopeEPKciS4_S4_PK10__CFStringP13__va_list_tag, 
                       __ZN5CALog7vprintfEiPKcP13__va_list_tag ]
    weak-symbols:    [ __ZTINSt3__117bad_function_callE, __ZTISt11logic_error, __ZTISt12length_error, 
                       __ZTISt9bad_alloc, __ZTISt9exception, __ZTSNSt3__117bad_function_callE, 
                       __ZTSSt11logic_error, __ZTSSt12length_error, __ZTSSt9bad_alloc, 
                       __ZTSSt9exception ]
  - targets:         [ x86_64-maccatalyst, x86_64-macos, arm64e-maccatalyst, arm64e-macos, 
                       arm64-macos, arm64-maccatalyst ]
    symbols:         [ _ACGKDecoderFactory, _ACGKEncoderFactory, _AVCKeyDaemonProcessInfoError, 
                       _AVCKeyDaemonProcessInfoUniquePID, _AVCMediaStreamNegotiatorHDRMode, 
                       _AVCMediaStreamNegotiatorVideoHeight, _AVCMediaStreamNegotiatorVideoResolution, 
                       _AVCMediaStreamNegotiatorVideoWidth, _AVCQoSReportChannelSequence, 
                       _AVCQoSReportDisplayedFrameCount, _AVCQoSReportExpectedFrameCount, 
                       _AVCQoSReportHIDEventLatencyAverage, _AVCQoSReportHIDEventLatencyMax, 
                       _AVCQoSReportHIDEventLatencyMin, _AVCQoSReportVideoJitterTarget, 
                       _AVCQoSReportVideoStallDuration, _AVCQoSReportVideoStallDurationMax, 
                       _AVCSessionParticipantMediaTypeKeyAudio, _AVCSessionParticipantMediaTypeKeyVideo, 
                       _AVC_VOLUME_MAX, _AVC_VOLUME_MIN, _AVConferenceAudioTierAudioBitrate, 
                       _AVConferenceAudioTierNetworkBitrate, _AVConferenceAudioTierPacketsPerBundle, 
                       _AVConferenceAudioTierPayload, _AVConferenceAudioTierRedNumPayloads, 
                       _AVConferenceBackCaptureTime, _AVConferenceBlockServiceCallID, 
                       _AVConferenceBlockServiceConference, _AVConferenceBlockServiceConnectionBlob, 
                       _AVConferenceConnectionType, _AVConferenceConnectionTypeP2P, 
                       _AVConferenceConnectionTypeRelay, _AVConferenceConnectionTypeRelayP2PUpgrade, 
                       _AVConferenceFrontCaptureTime, _AVConferenceInviteDataCallInfoBlob, 
                       _AVConferenceInviteDataConnectionBlob, _AVConferenceInviteDataMediaBlob, 
                       _AVConferenceInviteDataSKEBlob, _AVConferenceLocalBitRate, 
                       _AVConferenceLocalFrameHeight, _AVConferenceLocalFrameRate, 
                       _AVConferenceLocalFrameWidth, _AVConferenceLocalPacketLossRate, 
                       _AVConferenceRemoteBitRate, _AVConferenceRemoteFrameHeight, 
                       _AVConferenceRemoteFrameRate, _AVConferenceRemoteFrameWidth, 
                       _AVConferenceRemotePacketLossRate, _AVConferenceRoundTripTime, 
                       _AVConferenceServerStart, _AVConferenceServerStartInternal, 
                       _AVConferenceServiceErrorDomain, _AVConferenceSessionBitRate, 
                       _AVConferenceSessionConnectionType, _AVConferenceSessionDataNonce, 
                       _AVConferenceSessionLocalUsesCell, _AVConferenceSessionReceivedBytes, 
                       _AVConferenceSessionRemoteUsesCell, _AVConferenceSessionSentBytes, 
                       _CALog_DefaultScope, _CAVectorUnit_Examine, _CAVectorUnit_GetByteWidth, 
                       _GKNATInterfaceInfoCommNATFlags, _GKNATInterfaceInfoCommNATFlagsCached, 
                       _GKNATInterfaceInfoInterfaceType, _GKNATInterfaceInfoSSLFlagsCached, 
                       _GKNATInterfaceInfoTCPFlagsCached, _GKNATTypeDictionaryCarrierNATType, 
                       _GKNATTypeDictionaryInterfaceInfoDictionary, _GKNATTypeDictionaryNonCarrierNATType, 
                       _GKNATTypeDictionarySummaryNATType, _GKSCDXServerAddress, 
                       _GKSCallEvent_InitiateAcceptPush, _GKSCallEvent_InitiateCancelPush, 
                       _GKSCallEvent_InitiateInvitePush, _GKSCallEvent_InitiateRejectPush, 
                       _GKSCallEvent_ReceivedAcceptPush, _GKSCallEvent_ReceivedCancelPush, 
                       _GKSCallEvent_ReceivedInvitePush, _GKSCallEvent_ReceivedRejectPush, 
                       _GKSCommNATServerCohortAddress, _GKSCommNATServerCohortName, 
                       _GKSCommNATServerMain0Address, _GKSCommNATServerMain0Name, 
                       _GKSCommNATServerMain1Address, _GKSCommNATServerMain1Name, 
                       _GKSConnectionBlobMaxBytes, _GKSConnectivitySettingsUpdateName, 
                       _GKSConnectivitySettings_GetICETimeout, _GKSConnectivitySettings_GetMinQueueSizeOverride5G, 
                       _GKSConnectivitySettings_GetNetworkConditionsTimeout, _GKSConnectivitySettings_GetNoRemotePacketsTimeout, 
                       _GKSDecryptionMKMRecoveryInterval, _GKSDecryptionTimeoutInterval, 
                       _GKSDidStartParameter_CallID, _GKSDidStartParameter_ConnType, 
                       _GKSDidStartParameter_DidStart, _GKSDidStartParameter_Error, 
                       _GKSDidStartParameter_Event, _GKSDidStartParameter_localUseCell, 
                       _GKSDidStartParameter_remoteUseCell, _GKSErrorDetailedError, 
                       _GKSErrorReturnCode, _GKSICETimeout, _GKSKeepAliveTimeoutCarrierSpecific, 
                       _GKSLocalGamingDiscoveryHeartbeat, _GKSLocalGamingDiscoveryTimeout, 
                       _GKSMaxBitrate2G, _GKSMaxBitrate3G, _GKSMaxBitrate5G, _GKSMaxBitrateLTE, 
                       _GKSMaxBitrateLTEv2, _GKSMaxBitrateWiFi, _GKSMaxRelayBitrate, 
                       _GKSMaxTCPRelayBitrate, _GKSMinJBQueueSize5G, _GKSNATCheckTimeout, 
                       _GKSNATObserver_AddCarrierFlag, _GKSNATObserver_AddInRangeFlag, 
                       _GKSNATObserver_CheckTCPAndSSL, _GKSNATObserver_FavorNonCarrier, 
                       _GKSNATObserver_IgnoreCache, _GKSNATObserver_NewCarrierType, 
                       _GKSNATObserver_NonCarrierOnly, _GKSNetworkConditionsTimeout, 
                       _GKSNewSessionJoiningInterval, _GKSNoRemotePacketsTimeout, 
                       _GKSPreEmptiveRelayTimeout, _GKSRateControllerType, _GKSRelayParameter_ClientData, 
                       _GKSRelayParameter_ConnectionID, _GKSRelayParameter_PeerAddrPointer, 
                       _GKSRelayParameter_PeerBlob, _GKSRelayParameter_PeerExternalAddr, 
                       _GKSRelayParameter_PeerID, _GKSRelayParameter_PeerNatType, 
                       _GKSRelayParameter_PeerRelayIP, _GKSRelayParameter_PeerRelayNatIP, 
                       _GKSRelayParameter_PeerRelayNatPort, _GKSRelayParameter_PeerRelayPort, 
                       _GKSRelayParameter_RemotePrimaryId, _GKSRelayParameter_SelfAddrPointer, 
                       _GKSRelayParameter_SelfBlob, _GKSRelayParameter_SelfExternalAddr, 
                       _GKSRelayParameter_SelfNatType, _GKSRelayParameter_SelfRelayIP, 
                       _GKSRelayParameter_SelfRelayNatIP, _GKSRelayParameter_SelfRelayNatPort, 
                       _GKSRelayParameter_SelfRelayPort, _GKSRelayParameter_Token, 
                       _GKSRelayParameter_TransactionID, _GKSRelayType, _GKSSSLCheckServerName, 
                       _GKSStartupTimeout, _GKSStaticNATTypeCarrierSpecific, _GKSSupportsEVSCodec, 
                       _GKSSupportsHEVCEncoding, _GKSSupportsRedAudio, _GKSTCPCheckServerName, 
                       _GKSVideoDegradedThreshold, _GKSVideoNearDegradedThreshold, 
                       _GKSVideoThrottlingTimeout, _GKSiRATRecommendationSupport, 
                       _GKVoiceChatServiceErrorDomain, _LogFilenameOnly, _MultiRadixFFT_CplxInPlaceTransform, 
                       _MultiRadixFFT_CplxOutOfPlaceTransform, _MultiRadixFFT_Create, 
                       _MultiRadixFFT_Dispose, _MultiRadixFFT_Size, _MultiRadixRealFFT_Create, 
                       _MultiRadixRealFFT_Dispose, _MultiRadixRealFFT_RealInPlaceTransform, 
                       _MultiRadixRealFFT_RealOutOfPlaceForwardTransform, _MultiRadixRealFFT_RealOutOfPlaceInverseTransform, 
                       _MultiRadixRealFFT_Size, _RTCACMaxBitrate2G, _RTCACMaxBitrate3G, 
                       _RTCACMaxBitrateLTE, _RTCACMaxRelayBitrate, _RTCACMaxTCPRelayBitrate, 
                       _RTCSSMaxBitrate2G, _RTCSSMaxBitrate3G, _RTCSSMaxBitrateLTE, 
                       _RegisterGKDecoder, _RegisterGKEncoder, _SoundActivityDetector_Create, 
                       _SoundActivityDetector_CreateWithVADOption, _SoundActivityDetector_Dispose, 
                       _SoundActivityDetector_GetCurrentMetadata, _SoundActivityDetector_GetMaxMetadataSize, 
                       _SoundActivityDetector_ProcessFloat32, _SoundActivityDetector_ProcessSInt16, 
                       _VCAbTestAudioEnhancementFeatureCombos, _VCAbTestDuplicationEnhancementFeatureCombos, 
                       _VCAbTestMasterLocalSwitch, _VCAbTestNetworkEnhancementFeatureCombos, 
                       _VCAbTestRateControlEnhancementFeatureCombos, _VCAbTestVideoEnhancementFeatureCombos, 
                       _VCAbTestingState, _VCAdaptiveLearningAdaptiveLearningA, _VCAdaptiveLearningAdaptiveLearningB, 
                       _VCAdaptiveLearningAdjustmentFactorA, _VCAdaptiveLearningAdjustmentFactorB, 
                       _VCAdaptiveLearningAdjustmentFactorC, _VCAdaptiveLearningEnabled, 
                       _VCAdaptiveLearningLongTermHistoryLength, _VCAdaptiveLearningLongTermValueWeightA, 
                       _VCAdaptiveLearningLongTermValueWeightB, _VCAdaptiveLearningLongTermValueWeightC, 
                       _VCAdaptiveLearningShortTermHistoryLength, _VCAdaptiveLearningShortTermValueWeightA, 
                       _VCAdaptiveLearningShortTermValueWeightB, _VCAdaptiveLearningShortTermValueWeightC, 
                       _VCAllowBurstyLossRampDownEnableThreshold, _VCAlwaysOnAudioRedundancyEnableThreshold, 
                       _VCAudioStreamLowQualityOnDemand, _VCCellularLowTierRedundancyEnableThreshold, 
                       _VCDisableSIPEnableThreshold, _VCDuplicateImportantPktsEnableThreshold, 
                       _VCDuplicationEnhancementEnableThreshold, _VCFECFeedbackAnalyzerBufferMaxLength, 
                       _VCFECFeedbackAnalyzerInterpolationThreshold, _VCFECFeedbackAnalyzerLevelMatchPercentile, 
                       _VCFECFeedbackAnalyzerReportMinPeriod, _VCFECFeedbackAnalyzerVPLRWindowSize, 
                       _VCFECFeedbackVersion, _VCFECGeneratorEnabled, _VCFECVectorizationEnabled, 
                       _VCFaceTime30FPSSupport, _VCFaceTimeJBHighStart, _VCFaceTimeJitterBufferMode, 
                       _VCFaceTimePhotosUseBestVideoRule, _VCFastMediaDuplicationEnableThreshold, 
                       _VCFecHeaderV1EnableThreshold, _VCHeifHevcLivePhotosEnableThreshold, 
                       _VCHevcWifiTiersEnableThreshold, _VCHighFecEnableThreshold, 
                       _VCLinkProbingCapabilityVersion, _VCLinkProbingConnectionLockdownPeriod, 
                       _VCLinkProbingDuplicationWaitTimeout, _VCLinkProbingEnvelopeAttackFactor, 
                       _VCLinkProbingEnvelopeDecayFactor, _VCLinkProbingExponentialMovingMeanFactor, 
                       _VCLinkProbingFeatureThreshold, _VCLinkProbingIdenticalQueryResultMax, 
                       _VCLinkProbingInterval, _VCLinkProbingLockdownPeriod, _VCLinkProbingPLRBuckets, 
                       _VCLinkProbingQueryResultsInterval, _VCLinkProbingTimeout, 
                       _VCLowFpsVideoEnableThreshold, _VCLowNetworkModeEnableThreshold, 
                       _VCMaxBitrate2GDownlink, _VCMaxBitrate2GUplink, _VCMaxBitrate3GDownlink, 
                       _VCMaxBitrate3GUplink, _VCMaxBitrateLTEDownlink, _VCMaxBitrateLTEUplink, 
                       _VCMaxBitrateNonExpensiveDownlink, _VCMaxBitrateNonExpensiveUplink, 
                       _VCMaxBitrateWiFiDownlink, _VCMaxBitrateWiFiUplink, _VCNoRemoteDuplicationThresholdFast, 
                       _VCPreWarmCellEnableThreshold, _VCPreferRelayOverP2PThreshold, 
                       _VCPrimaryConnHealthAllowedDelay, _VCRampDownBWDropEnableThreshold, 
                       _VCRedStateValueA, _VCRemoteMediaStallTimeout, _VCSecureMessagingEnableThreshold, 
                       _VCUpdatedAFRCHeaderEnableThreshold, _VCVideoJBEnableThreshold, 
                       _VCVideoPriorityEnabled, _VCVideoRedundancyPercentageMax, 
                       _VCVideoStreamLowQualityOnDemand, _VCViewpointCorrectionEnableThreshold, 
                       _VCViewpointCorrectionEnabled, _VCVplrFecEnableThreshold, 
                       _VCWRMPendingBitrateCapDelta, _VCWRMRSSIThresholdDistribution, 
                       _VCWRMRSSIThresholdEnableThreshold, _VCWifiAssistBudgetStatusEnableThreshold, 
                       _VCWifiAssistDuplicationEnableThreshold, _VCWifiAssistStatusBarEnableThreshold, 
                       _VCWifiLowTierRedundancyEnableThreshold, _VCiRATDuplicationEnableThreshold, 
                       _VCiRATMetricsEnableThreshold, _VCiRATRtpEnableThreshold, 
                       __CALog_Log, __CALog_LogEnabled, __Z11OSTypeToStrPcmj, __Z11SanityCheckRK27AudioStreamBasicDescription, 
                       __Z11StrToOSTypePKcRj, __Z14ParseAC3HeaderPKvjP27AudioStreamBasicDescriptionPjS3_S3_S3_Pi, 
                       __Z16GetAC3CookieSizev, __Z17CAStringForOSTypejPcm, __Z17GetAC3PacketIndexPKvjPjS1_, 
                       __Z17ParseAC3MP4CookiePKvjP27AudioStreamBasicDescriptionPjS3_S3_, 
                       __Z17ParseMPEGSyncWordjR14MPEGPacketDesc, __Z18ParseEAC3MP4CookiePKvjPbP27AudioStreamBasicDescriptionPjS3_S4_S4_S4_jS1_S4_, 
                       __Z26GetEC3PacketSizeUpperBoundjPhPj, __Z27CACFPreferencesCopyAppValuePK10__CFStringS1_, 
                       __Z30ConvertAC3HeaderToAC3MP4CookiePKvjPhPj, __Z30ConvertAC3MP4CookieToAC3HeaderPKvjPhPj, 
                       __Z30GetFormatListItemForEC3HeadersP19AudioFormatListItemjPhPj, 
                       __Z31CACFPreferencesGetAppFloatValuePK10__CFStringS1_Pb, __Z32CACFPreferencesGetAppFourCCValuePK10__CFStringS1_Pb, 
                       __Z32ConvertEAC3HeaderToEAC3MP4CookiePKvjPhPj, __Z33CACFPreferencesGetAppBooleanValuePK10__CFStringS1_Pb, 
                       __Z33CACFPreferencesGetAppIntegerValuePK10__CFStringS1_Pb, 
                       __Z35ConvertEAC3HLSCookieToEAC3MP4CookiePKvjPvRj, __Z35ConvertEAC3MP4CookieToEAC3HLSCookiePKvjPvRj, 
                       __Z35MPEGPacketParser_ASBDFromMPEGPacketPKvjP27AudioStreamBasicDescription, 
                       __ZN10ADTSHeader11DeserializeEPKhj, __ZN10ADTSHeader7IsValidEPi, 
                       __ZN10CACFNumber10PrintToLogEPK10__CFNumberj, __ZN10CACFString10GetCStringEPK10__CFStringPcRjj, 
                       __ZN10CACFString10PrintToLogEPK10__CFStringj, __ZN10CACFString16GetUnicodeStringEPK10__CFStringPtRj, 
                       __ZN10CACFString19GetStringByteLengthEPK10__CFStringj, __ZN11CACFBoolean10PrintToLogEPK11__CFBooleanj, 
                       __ZN11SBRHeaderBS11DeserializeER16TBitstreamReaderIjEb, __ZN12MP4AudioESDS11DeserializeER16TBitstreamReaderIjEPj13OffsetRequest, 
                       __ZN12MPS212Config11DeserializeER16TBitstreamReaderIjEj, __ZN12VPFilterBank10InitializeEjfj, 
                       __ZN12VPFilterBank18filterbank_computeEPfS0_, __ZN12VPFilterBank20filterbank32_computeEPfS0_, 
                       __ZN12VPFilterBank22filterbank_psd_computeEPfS0_, __ZN12VPFilterBank24filterbank_psd16_computeEPfS0_, 
                       __ZN12VPFilterBank5CloseEv, __ZN12VPFilterBankC1Ev, __ZN12VPFilterBankC2Ev, 
                       __ZN12VPFilterBankD0Ev, __ZN12VPFilterBankD1Ev, __ZN12VPFilterBankD2Ev, 
                       __ZN13ComponentBase13PreDestructorEv, __ZN13ComponentBase15PostConstructorEv, 
                       __ZN13ComponentBase16sNewInstanceTypeE, __ZN13ComponentBase25ErrorIfWrongVersionLinkedEv, 
                       __ZN13ComponentBase7AP_OpenEPvP23ComponentInstanceRecord, 
                       __ZN13ComponentBase8AP_CloseEPv, __ZN13ComponentBaseC1EP23ComponentInstanceRecord, 
                       __ZN13ComponentBaseC2EP23ComponentInstanceRecord, __ZN13ComponentBaseD0Ev, 
                       __ZN13ComponentBaseD1Ev, __ZN13ComponentBaseD2Ev, __ZN13MP4SampleRate11DeserializeER16TBitstreamReaderIjEb, 
                       __ZN13MP4SampleRate12SetFromIndexEjh, __ZN13MP4SampleRateC1Ejh, 
                       __ZN13MP4SampleRateC2Ejh, __ZN13MultiRadixFFT20CplxInPlaceTransformEP15DSPSplitComplexi, 
                       __ZN13MultiRadixFFT21NearestSupportedSizesEj, __ZN13MultiRadixFFT23CplxOutOfPlaceTransformEPK15DSPSplitComplexPS0_i, 
                       __ZN13USACSBRHeader11DeserializeER16TBitstreamReaderIjE, __ZN14BSFuzzerCFPref16loadCFPreferenceEv, 
                       __ZN14CABundleLockerC1Ev, __ZN14CABundleLockerC2Ev, __ZN14CABundleLockerD1Ev, 
                       __ZN14CABundleLockerD2Ev, __ZN14CACFDictionary10AddCStringEPK10__CFStringPKc, 
                       __ZN14CACFDictionary10AddFloat32EPK10__CFStringf, __ZN14CACFDictionary10AddFloat64EPK10__CFStringd, 
                       __ZN14CACFDictionary10PrintToLogEPK14__CFDictionaryj, __ZN14CACFDictionary13AddDictionaryEPK10__CFStringPK14__CFDictionary, 
                       __ZN14CACFDictionary23AddCFTypeWithCStringKeyEPKcPKv, __ZN14CACFDictionary6AddURLEPK10__CFStringPK7__CFURL, 
                       __ZN14CACFDictionary7AddBoolEPK10__CFStringb, __ZN14CACFDictionary7AddDataEPK10__CFStringPK8__CFData, 
                       __ZN14CACFDictionary8AddArrayEPK10__CFStringPK9__CFArray, 
                       __ZN14CACFDictionary9AddCFTypeEPK10__CFStringPKv, __ZN14CACFDictionary9AddNumberEPK10__CFStringPK10__CFNumber, 
                       __ZN14CACFDictionary9AddSInt32EPK10__CFStringi, __ZN14CACFDictionary9AddSInt64EPK10__CFStringx, 
                       __ZN14CACFDictionary9AddStringEPK10__CFStringS2_, __ZN14CACFDictionary9AddUInt32EPK10__CFStringj, 
                       __ZN14CACFDictionary9AddUInt64EPK10__CFStringy, __ZN15ACMP4BitStreams16BitRatesFromESDSEPKhjPjS2_, 
                       __ZN15ACMP4BitStreams17AddBitRatesToESDSEPhjjjb, __ZN15ACMP4BitStreams17GetADTSPacketSizeEPKjPj, 
                       __ZN15ACMP4BitStreams21GetNumberOfSBRHeadersEj, __ZN15ACMP4BitStreams30GetDecoderConfigFromADTSHeaderEPKjPjR18DecoderConfigDescr, 
                       __ZN15ACMP4BitStreams35GetDecoderSpecificBitStreamFromESDSER16TBitstreamReaderIjEPjS3_, 
                       __ZN15ACMP4BitStreams36GetChannelConfigFromChannelLayoutTagEj, 
                       __ZN15ACMP4BitStreams36GetDecoderConfigFromADTSHeaderAndPCEEPKjPjR18DecoderConfigDescrS2_, 
                       __ZN15BitstreamFuzzer12enterSectionERKNSt3__112basic_stringIcNS0_11char_traitsIcEENS0_9allocatorIcEEEE, 
                       __ZN15BitstreamFuzzer12getRandomBitEv, __ZN15BitstreamFuzzer12leaveSectionERKNSt3__112basic_stringIcNS0_11char_traitsIcEENS0_9allocatorIcEEEE, 
                       __ZN15BitstreamFuzzer7GetBitsEj, __ZN15BitstreamFuzzerC1EPKhj, 
                       __ZN15BitstreamFuzzerC2EPKhj, __ZN15CATimeUtilities23GetCurrentGregorianDateEv, 
                       __ZN15CATimeUtilities29GregorianDateFromAbsoluteTimeEd, __ZN16MPEGPacketParser11GetFormatIDEv, 
                       __ZN16MPEGPacketParserC1EPKvj, __ZN16MPEGPacketParserC1Ej, 
                       __ZN16MPEGPacketParserC2EPKvj, __ZN16MPEGPacketParserC2Ej, 
                       __ZN16RandBitGenerator6getBitEv, __ZN16RandBitGeneratorC1Ejf, 
                       __ZN16RandBitGeneratorC2Ejf, __ZN16TBitstreamReaderIhE13FillCacheFromEPKh, 
                       __ZN16TBitstreamReaderIhEC1EPKhj, __ZN16TBitstreamReaderIhEC2EPKhj, 
                       __ZN17MutableADTSHeader14SetCRCCheckSumEt, __ZN17MutableADTSHeader19SetNumRawDataBlocksEj, 
                       __ZN17MutableADTSHeader20SetADTSBufferFulnessEj, __ZN17MutableADTSHeader21SetPayloadFrameLengthEj, 
                       __ZN17MutableADTSHeader9SerializeEPhRj, __ZN17MutableADTSHeaderC1ERKS_, 
                       __ZN17MutableADTSHeaderC1Ejjbbjb, __ZN17MutableADTSHeaderC2ERKS_, 
                       __ZN17MutableADTSHeaderC2Ejjbbjb, __ZN17MutableADTSHeaderaSERKS_, 
                       __ZN18CAAudioFileFormats14FileFormatInfo15LoadDataFormatsEv, 
                       __ZN18CAAudioFileFormats14FileFormatInfo18AnyWritableFormatsEv, 
                       __ZN18CAAudioFileFormats14FindFileFormatEj, __ZN18CAAudioFileFormats17IsKnownDataFormatEj, 
                       __ZN18CAAudioFileFormats27InferFileFormatFromFilenameEPK10__CFStringRj, 
                       __ZN18CAAudioFileFormats27InferFileFormatFromFilenameEPKcRj, 
                       __ZN18CAAudioFileFormats29InferDataFormatFromFileFormatEjR24CAStreamBasicDescription, 
                       __ZN18CAAudioFileFormats29InferFileFormatFromDataFormatERK24CAStreamBasicDescriptionRj, 
                       __ZN18CAAudioFileFormats8InstanceEb, __ZN18CAAudioFileFormats9sInstanceE, 
                       __ZN18CAAudioFileFormatsC1Eb, __ZN18CAAudioFileFormatsC2Eb, 
                       __ZN18CASmartPreferences11RereadPrefsEv, __ZN18CASmartPreferences14InterpretFloatEPKvRb, 
                       __ZN18CASmartPreferences16InterpretBooleanEPKvRb, __ZN18CASmartPreferences16InterpretIntegerEPKvRb, 
                       __ZN18CASmartPreferences21_RegisterFirstHandlerEPK10__CFStringS2_NSt3__18functionIFbPKvEEE, 
                       __ZN18CASmartPreferences4Pref4LoadEv, __ZN18CASmartPreferences8HavePrefEPK10__CFStringS2_, 
                       __ZN18CASmartPreferences8instanceEv, __ZN18CASmartPreferencesC1Ev, 
                       __ZN18CASmartPreferencesC2Ev, __ZN18DecoderConfigDescr11DeserializeER16TBitstreamReaderIjEPj13OffsetRequest, 
                       __ZN18DecoderConfigDescr21MakeStreamDescriptionER27AudioStreamBasicDescription, 
                       __ZN18DecoderConfigDescr35DeserializeMPEG4AudioSpecificConfigER16TBitstreamReaderIjEj, 
                       __ZN18DecoderConfigDescr36DeserializeMPEG4AudioSpecificPayloadER16TBitstreamReaderIjEPjS3_, 
                       __ZN18DecoderConfigDescr38DeserializeVoiceDecoderSpecificPayloadER16TBitstreamReaderIjE, 
                       __ZN18DecoderConfigDescr46DeserializeMPEG1Or2AudioDecoderSpecificPayloadER16TBitstreamReaderIjE, 
                       __ZN18MP4AOTSpecificBase15MakeAOTSpecificE18MP4AudioObjectType13MP4SampleRatej, 
                       __ZN18MP4AudioObjectType11DeserializeER16TBitstreamReaderIjE, 
                       __ZN18MP4AudioObjectType11IsAACObjectEj, __ZN18MP4AudioObjectType19IsAACLowDelayObjectEj, 
                       __ZN18MP4AudioObjectTypeC1Ej, __ZN18MP4AudioObjectTypeC2Ej, 
                       __ZN19ComponentInitLocker19sComponentOpenMutexE, __ZN19ComponentInitLocker23InitComponentInitLockerEv, 
                       __ZN19ComponentInitLocker5sOnceE, __ZN19MP4AudioElementList11DeserializeER16TBitstreamReaderIjEb, 
                       __ZN19MP4GASpecificConfig11DeserializeER16TBitstreamReaderIjEj, 
                       __ZN19ResamplerInitLockerC1Ev, __ZN19ResamplerInitLockerC2Ev, 
                       __ZN19ResamplerInitLockerD1Ev, __ZN19ResamplerInitLockerD2Ev, 
                       __ZN20MP4ELDSpecificConfig11DeserializeER16TBitstreamReaderIjEj, 
                       __ZN20MP4SLSSpecificConfig11DeserializeER16TBitstreamReaderIjEj, 
                       __ZN21MP4AudioProgramConfig11DeserializeER16TBitstreamReaderIjE, 
                       __ZN21MP4AudioProgramConfig38SetDefaultMCProgramConfigFromLayoutTagEj, 
                       __ZN21MP4CelpSpecificConfig11DeserializeER16TBitstreamReaderIjEj, 
                       __ZN21MP4USACSpecificConfig11DeserializeER16TBitstreamReaderIjEj, 
                       __ZN21SoundActivityDetector10InitializeEjRK27AudioStreamBasicDescriptionPjj, 
                       __ZN21SoundActivityDetector10InitializeEjdPjj, __ZN21SoundActivityDetector19GetValidFrameLengthEj, 
                       __ZN21SoundActivityDetector27CreateSoundActivityDetectorEjdPjj, 
                       __ZN21SoundActivityDetectorC1Ev, __ZN21SoundActivityDetectorC2Ev, 
                       __ZN21VoiceActivityDetector13SpxVADDestroyEv, __ZN21VoiceActivityDetector13SpxVADProcessEPf, 
                       __ZN21VoiceActivityDetector16SpxVADInitialiseEv, __ZN21VoiceActivityDetector17update_noise_probEv, 
                       __ZN21VoiceActivityDetector19preprocess_analysisEPf, __ZN21VoiceActivityDetectorC1Ejd, 
                       __ZN21VoiceActivityDetectorC2Ejd, __ZN21VoiceActivityDetectorD0Ev, 
                       __ZN21VoiceActivityDetectorD1Ev, __ZN21VoiceActivityDetectorD2Ev, 
                       __ZN23MP4ObjectTypeIndication22Is13KVoiceObjectTypeIDEj, __ZN23MP4ObjectTypeIndication24IsMPEG4AudioObjectTypeIDEj, 
                       __ZN23MP4ObjectTypeIndication27IsMPEG1Or2AudioObjectTypeIDEj, 
                       __ZN23MP4ObjectTypeIndicationC1Ej, __ZN23MP4ObjectTypeIndicationC2Ej, 
                       __ZN24CAStreamBasicDescription11ResetFormatER27AudioStreamBasicDescription, 
                       __ZN24CAStreamBasicDescription12IsEquivalentERK27AudioStreamBasicDescriptionS2_j, 
                       __ZN24CAStreamBasicDescription13FillOutFormatER27AudioStreamBasicDescriptionRKS0_, 
                       __ZN24CAStreamBasicDescription13GetSimpleNameERK27AudioStreamBasicDescriptionPcjbb, 
                       __ZN24CAStreamBasicDescription14IsExactlyEqualERK27AudioStreamBasicDescriptionS2_, 
                       __ZN24CAStreamBasicDescription21EquivalentFormatFlagsERK27AudioStreamBasicDescriptionS2_bb, 
                       __ZN24CAStreamBasicDescription23sTextParsingUsageStringE, 
                       __ZN24CAStreamBasicDescription24NormalizeLinearPCMFormatER27AudioStreamBasicDescription, 
                       __ZN24CAStreamBasicDescription24NormalizeLinearPCMFormatEbR27AudioStreamBasicDescription, 
                       __ZN24CAStreamBasicDescription25VirtualizeLinearPCMFormatER27AudioStreamBasicDescription, 
                       __ZN24CAStreamBasicDescription25VirtualizeLinearPCMFormatEbR27AudioStreamBasicDescription, 
                       __ZN24CAStreamBasicDescription6sEmptyE, __ZN24CAStreamBasicDescription8FromTextEPKcR27AudioStreamBasicDescription, 
                       __ZN24CAStreamBasicDescriptionC1ERK27AudioStreamBasicDescription, 
                       __ZN24CAStreamBasicDescriptionC1Edjjjjjjj, __ZN24CAStreamBasicDescriptionC1Ev, 
                       __ZN24CAStreamBasicDescriptionC2ERK27AudioStreamBasicDescription, 
                       __ZN24CAStreamBasicDescriptionC2Edjjjjjjj, __ZN24CAStreamBasicDescriptionC2Ev, 
                       __ZN24MP4LDSpatialConfigWriter13SetSampleRateEj, __ZN24MP4LDSpatialConfigWriter18SetTreeConfigIndexEj, 
                       __ZN24MP4LDSpatialConfigWriter4sizeEv, __ZN24MP4LDSpatialConfigWriterC1EPK29MP4SpatialAudioSpecificConfig, 
                       __ZN24MP4LDSpatialConfigWriterC2EPK29MP4SpatialAudioSpecificConfig, 
                       __ZN24MP4LDSpatialConfigWriteraSERKS_, __ZN25MP4SpatialExtensionConfig11DeserializeER16TBitstreamReaderIjERK19BsTreeConfigurationi, 
                       __ZN25MP4SpatialExtensionConfig15ParseTreeConfigER16TBitstreamReaderIjEj, 
                       __ZN26MP4LDSpatialSpecificConfig11DeserializeER16TBitstreamReaderIjEj, 
                       __ZN26MP4LDSpatialSpecificConfigC1Ev, __ZN26MP4LDSpatialSpecificConfigC2Ev, 
                       __ZN26MP4LDSpatialSpecificConfigD0Ev, __ZN26MP4LDSpatialSpecificConfigD1Ev, 
                       __ZN26MP4LDSpatialSpecificConfigD2Ev, __ZN28KaiserBesselFilterParameters13EstimateAlphaEd, 
                       __ZN28KaiserBesselFilterParameters20EstimateFilterLengthEdd, 
                       __ZN28KaiserBesselFilterParameters27EstimateTransitionBandwidthEdj, 
                       __ZN28KaiserBesselFilterParameters30EstimateStopBandAttenuation_dBEdj, 
                       __ZN28KaiserBesselFilterParametersC1Edddj, __ZN28KaiserBesselFilterParametersC1Eddjj, 
                       __ZN28KaiserBesselFilterParametersC1Edjdj, __ZN28KaiserBesselFilterParametersC2Edddj, 
                       __ZN28KaiserBesselFilterParametersC2Eddjj, __ZN28KaiserBesselFilterParametersC2Edjdj, 
                       __ZN29MP4SpatialAudioSpecificConfig11DeserializeER16TBitstreamReaderIjEj, 
                       __ZN29MP4SpatialAudioSpecificConfigC1Ev, __ZN29MP4SpatialAudioSpecificConfigC2Ev, 
                       __ZN29MP4SpatialAudioSpecificConfigD0Ev, __ZN29MP4SpatialAudioSpecificConfigD1Ev, 
                       __ZN29MP4SpatialAudioSpecificConfigD2Ev, __ZN5CALog10LogEnabledEiRKNS_14ScopeSubscopesE, 
                       __ZN5CALog10sScopeMaskE, __ZN5CALog11scopedPrintEPKNS_5ScopeEiPKc, 
                       __ZN5CALog13RegisterScopeEbyPKcS1_S1_j, __ZN5CALog13sSubscopeMaskE, 
                       __ZN5CALog16sNumberScopeBitsE, __ZN5CALog21setNumberSubscopeBitsEi, 
                       __ZN5CALog5Scope20GetPriorityThresholdEy, __ZN5CALog5Scope20SetPriorityThresholdEyi, 
                       __ZN5CALog5Scope23SetScopeFileDestinationEP7__sFILEb, __ZN5CALog5Scope25SetScopePriorityThresholdEi, 
                       __ZN5CALog5Scope4initEyPKcPK10__CFStringS5_j, __ZN5CALog5ScopeC1EbyPKcS2_S2_j, 
                       __ZN5CALog5ScopeC2EbyPKcS2_S2_j, __ZN5CALog5printEiPKc, __ZN5CALog7setFileEP7__sFILE, 
                       __ZN5CALog8InstanceEv, __ZN5CALogC1EPKc, __ZN5CALogC2EPKc, 
                       __ZN5CALogD1Ev, __ZN5CALogD2Ev, __ZN7kFilter10InitializeEfjf, 
                       __ZN7kFilter18ProcessAllChannelsEjjPKjPKfPd, __ZN7kFilter5ResetEv, 
                       __ZN7kFilter7ProcessEPK15AudioBufferListPS0_j, __ZN7kFilter7ProcessEjPKfPfj, 
                       __ZN7kFilterC1Ev, __ZN7kFilterC2Ev, __ZN7kFilterD1Ev, __ZN7kFilterD2Ev, 
                       __ZN8RandLFSR10initializeEjf, __ZN8RandLFSR12bitGeneratorEv, 
                       __ZN8RandLFSR9randomBitEv, __ZN9CACFArray10AppendBoolEb, __ZN9CACFArray10AppendDataEPK8__CFData, 
                       __ZN9CACFArray10InsertBoolEjb, __ZN9CACFArray10InsertDataEjPK8__CFData, 
                       __ZN9CACFArray10PrintToLogEPK9__CFArrayj, __ZN9CACFArray10SetFloat32Ejf, 
                       __ZN9CACFArray10SetFloat64Ejd, __ZN9CACFArray11AppendArrayEPK9__CFArray, 
                       __ZN9CACFArray11InsertArrayEjPK9__CFArray, __ZN9CACFArray12AppendCFTypeEPKv, 
                       __ZN9CACFArray12AppendSInt32Ei, __ZN9CACFArray12AppendSInt64Ex, 
                       __ZN9CACFArray12AppendStringEPK10__CFString, __ZN9CACFArray12AppendUInt32Ej, 
                       __ZN9CACFArray12AppendUInt64Ey, __ZN9CACFArray12InsertCFTypeEjPKv, 
                       __ZN9CACFArray12InsertSInt32Eji, __ZN9CACFArray12InsertSInt64Ejx, 
                       __ZN9CACFArray12InsertStringEjPK10__CFString, __ZN9CACFArray12InsertUInt32Ejj, 
                       __ZN9CACFArray12InsertUInt64Ejy, __ZN9CACFArray13AppendFloat32Ef, 
                       __ZN9CACFArray13AppendFloat64Ed, __ZN9CACFArray13InsertFloat32Ejf, 
                       __ZN9CACFArray13InsertFloat64Ejd, __ZN9CACFArray13SetDictionaryEjPK14__CFDictionary, 
                       __ZN9CACFArray16AppendDictionaryEPK14__CFDictionary, __ZN9CACFArray16InsertDictionaryEjPK14__CFDictionary, 
                       __ZN9CACFArray7SetBoolEjb, __ZN9CACFArray7SetDataEjPK8__CFData, 
                       __ZN9CACFArray8SetArrayEjPK9__CFArray, __ZN9CACFArray9SetCFTypeEjPKv, 
                       __ZN9CACFArray9SetSInt32Eji, __ZN9CACFArray9SetSInt64Ejx, 
                       __ZN9CACFArray9SetStringEjPK10__CFString, __ZN9CACFArray9SetUInt32Ejj, 
                       __ZN9CACFArray9SetUInt64Ejy, __ZN9ParamHRTF11DeserializeER16TBitstreamReaderIjE, 
                       __ZN9ParamHRTF22kParamHRTFFreqResTableE, __ZN9SRCFilter10AddChannelERK28KaiserBesselFilterParameters, 
                       __ZN9SRCFilter13RemoveChannelEj, __ZN9SRCFilter14GetFilterDelayEPjS0_, 
                       __ZN9SRCFilter17AddDelayedChannelEj, __ZN9SRCFilter19InternalConstructorEjj, 
                       __ZN9SRCFilter20ComputeDeinterleavedEPPKfPPfj, __ZN9SRCFilter20GetNumberOfOutFramesEPjj, 
                       __ZN9SRCFilter22GetNumberOfInputFramesEPjj, __ZN9SRCFilter28AdjustSrcStartPolyphaseIndexEj, 
                       __ZN9SRCFilter5ResetEv, __ZN9SRCFilter9AddFilterERK28KaiserBesselFilterParameters, 
                       __ZN9SRCFilterC1Ejj, __ZN9SRCFilterC1EjjjRK28KaiserBesselFilterParameters, 
                       __ZN9SRCFilterC2Ejj, __ZN9SRCFilterC2EjjjRK28KaiserBesselFilterParameters, 
                       __ZN9SRCFilterD1Ev, __ZN9SRCFilterD2Ev, __ZNK10CACFNumber10GetFixed32Ev, 
                       __ZNK10CACFNumber10GetFixed64Ev, __ZNK11SBRHeaderBS14SerializeCountEv, 
                       __ZNK11SBRHeaderBS9SerializeER16TBitstreamWriterIjE, __ZNK12MP4AudioESDS18SerializeByteCountEj, 
                       __ZNK12MP4AudioESDS9SerializeER16TBitstreamWriterIjEjPv, __ZNK13ComponentBase23GetComponentDescriptionEv, 
                       __ZNK13MP4SampleRate14SerializeCountEv, __ZNK13MP4SampleRate20NearestBoundaryIndexEv, 
                       __ZNK13MP4SampleRate5IndexEv, __ZNK13MP4SampleRate9SerializeER16TBitstreamWriterIjE, 
                       __ZNK14CACFDictionary10GetFixed32EPK10__CFStringRf, __ZNK14CACFDictionary10GetFixed64EPK10__CFStringRd, 
                       __ZNK14CACFDictionary10GetFloat32EPK10__CFStringRf, __ZNK14CACFDictionary10GetFloat64EPK10__CFStringRd, 
                       __ZNK14CACFDictionary12GetCACFArrayEPK10__CFStringR9CACFArray, 
                       __ZNK14CACFDictionary13GetCACFStringEPK10__CFStringR10CACFString, 
                       __ZNK14CACFDictionary13GetDictionaryEPK10__CFStringRPK14__CFDictionary, 
                       __ZNK14CACFDictionary16GetKeysAndValuesEPPKvS2_, __ZNK14CACFDictionary17GetCACFDictionaryEPK10__CFStringRS_, 
                       __ZNK14CACFDictionary19GetUInt32FromStringEPK10__CFStringRj, 
                       __ZNK14CACFDictionary20GetFloat32FromStringEPK10__CFStringRf, 
                       __ZNK14CACFDictionary23GetCFTypeWithCStringKeyEPKcRPKv, __ZNK14CACFDictionary4SizeEv, 
                       __ZNK14CACFDictionary6Get4CCEPK10__CFStringRj, __ZNK14CACFDictionary6GetURLEPK10__CFStringRPK7__CFURL, 
                       __ZNK14CACFDictionary6HasKeyEPK10__CFString, __ZNK14CACFDictionary7GetBoolEPK10__CFStringRb, 
                       __ZNK14CACFDictionary7GetDataEPK10__CFStringRPK8__CFData, 
                       __ZNK14CACFDictionary7GetKeysEPPKv, __ZNK14CACFDictionary8GetArrayEPK10__CFStringRPK9__CFArray, 
                       __ZNK14CACFDictionary9GetCFTypeEPK10__CFStringRPKv, __ZNK14CACFDictionary9GetSInt32EPK10__CFStringRi, 
                       __ZNK14CACFDictionary9GetSInt64EPK10__CFStringRx, __ZNK14CACFDictionary9GetStringEPK10__CFStringRS2_, 
                       __ZNK14CACFDictionary9GetUInt32EPK10__CFStringRj, __ZNK14CACFDictionary9GetUInt64EPK10__CFStringRy, 
                       __ZNK17MultiRadixRealFFT20RealInPlaceTransformEP15DSPSplitComplexif, 
                       __ZNK17MultiRadixRealFFT30RealOutOfPlaceForwardTransformEPKfP15DSPSplitComplexf, 
                       __ZNK17MultiRadixRealFFT30RealOutOfPlaceInverseTransformEPK15DSPSplitComplexPf, 
                       __ZNK18DecoderConfigDescr14GetIPFsPresentEv, __ZNK18DecoderConfigDescr16GetBaseLevelASBDER27AudioStreamBasicDescription, 
                       __ZNK18DecoderConfigDescr16GetChannelConfigERj, __ZNK18DecoderConfigDescr17GetDefaultPrimingERj, 
                       __ZNK18DecoderConfigDescr17GetIFPrerollCountEv, __ZNK18DecoderConfigDescr18GetFramesPerPacketEv, 
                       __ZNK18DecoderConfigDescr18SerializeByteCountEj, __ZNK18DecoderConfigDescr19GetChannelLayoutTagERj, 
                       __ZNK18DecoderConfigDescr34MPEG4AudioSpecificPayloadSerializeER16TBitstreamWriterIjEjPv, 
                       __ZNK18DecoderConfigDescr43MPEG4AudioSpecificPayloadSerializeByteCountEv, 
                       __ZNK18DecoderConfigDescr7GetASBDER27AudioStreamBasicDescription, 
                       __ZNK18DecoderConfigDescr9GetFormatEv, __ZNK18DecoderConfigDescr9SerializeER16TBitstreamWriterIjEjPv, 
                       __ZNK18MP4AudioObjectType11IsAACObjectEv, __ZNK18MP4AudioObjectType11IsSLSObjectEv, 
                       __ZNK18MP4AudioObjectType12IsCELPObjectEv, __ZNK18MP4AudioObjectType12IsHVXCObjectEv, 
                       __ZNK18MP4AudioObjectType14IsTwinVQObjectEv, __ZNK18MP4AudioObjectType14SerializeCountEv, 
                       __ZNK18MP4AudioObjectType19IsAACLowDelayObjectEv, __ZNK18MP4AudioObjectType22IsErrorResilientObjectEv, 
                       __ZNK18MP4AudioObjectType9SerializeER16TBitstreamWriterIjE, 
                       __ZNK19MP4AudioElementList14SerializeCountEb, __ZNK19MP4AudioElementList9SerializeER16TBitstreamWriterIjEb, 
                       __ZNK19MP4GASpecificConfig14SerializeCountEv, __ZNK19MP4GASpecificConfig9SerializeER16TBitstreamWriterIjE, 
                       __ZNK20MP4ELDSpecificConfig14SerializeCountEv, __ZNK20MP4ELDSpecificConfig9SerializeER16TBitstreamWriterIjE, 
                       __ZNK21MP4AudioProgramConfig14SerializeCountEv, __ZNK21MP4AudioProgramConfig16TotalNumChannelsEv, 
                       __ZNK21MP4AudioProgramConfig9SerializeER16TBitstreamWriterIjE, 
                       __ZNK21MP4USACSpecificConfig14IFPrerollCountEv, __ZNK21MP4USACSpecificConfig17OutputFrameLengthEv, 
                       __ZNK21SoundActivityDetector18GetCurrentMetadataEPj, __ZNK23MP4ObjectTypeIndication22Is13KVoiceObjectTypeIDEv, 
                       __ZNK23MP4ObjectTypeIndication24IsMPEG4AudioObjectTypeIDEv, 
                       __ZNK23MP4ObjectTypeIndication27IsMPEG1Or2AudioObjectTypeIDEv, 
                       __ZNK24CAStreamBasicDescription25GetRegularizedFormatFlagsEb, 
                       __ZNK24CAStreamBasicDescription7IsEqualERK27AudioStreamBasicDescription, 
                       __ZNK24CAStreamBasicDescription7IsEqualERK27AudioStreamBasicDescriptionb, 
                       __ZNK24CAStreamBasicDescription8AsStringEPcmb, __ZNK24MP4LDSpatialConfigWriter9SerializeER16TBitstreamWriterIjE, 
                       __ZNK26MP4LDSpatialSpecificConfig8NumBandsEv, __ZNK29MP4SpatialAudioSpecificConfig10DefaultCLDEt, 
                       __ZNK29MP4SpatialAudioSpecificConfig10OTTModeLFEEj, __ZNK29MP4SpatialAudioSpecificConfig11NumOTTBoxesEv, 
                       __ZNK29MP4SpatialAudioSpecificConfig11NumTTTBoxesEv, __ZNK29MP4SpatialAudioSpecificConfig13GetSampleRateEv, 
                       __ZNK29MP4SpatialAudioSpecificConfig16NumInputChannelsEv, 
                       __ZNK29MP4SpatialAudioSpecificConfig19GetChannelLayoutTagEv, 
                       __ZNK29MP4SpatialAudioSpecificConfig8NumBandsEv, __ZNK5CALog5Scope15ScopeLogEnabledEiy, 
                       __ZNK9CACFArray10GetFloat32EjRf, __ZNK9CACFArray10GetFloat64EjRd, 
                       __ZNK9CACFArray12GetCACFArrayEjRS_, __ZNK9CACFArray13GetCACFStringEjR10CACFString, 
                       __ZNK9CACFArray13GetDictionaryEjRPK14__CFDictionary, __ZNK9CACFArray14GetIndexOfItemEPKvRj, 
                       __ZNK9CACFArray17GetCACFDictionaryEjR14CACFDictionary, __ZNK9CACFArray6Get4CCEjRj, 
                       __ZNK9CACFArray7GetBoolEjRb, __ZNK9CACFArray7GetDataEjRPK8__CFData, 
                       __ZNK9CACFArray7GetUUIDEjRPK8__CFUUID, __ZNK9CACFArray7HasItemEPKv, 
                       __ZNK9CACFArray8GetArrayEjRPK9__CFArray, __ZNK9CACFArray9GetCFTypeEjRPKv, 
                       __ZNK9CACFArray9GetSInt32EjRi, __ZNK9CACFArray9GetSInt64EjRx, 
                       __ZNK9CACFArray9GetStringEjRPK10__CFString, __ZNK9CACFArray9GetUInt32EjRj, 
                       __ZNK9CACFArray9GetUInt64EjRy, __ZTV12VPFilterBank, __ZTV13ComponentBase, 
                       __ZTV15BitstreamFuzzer, __ZTV19MP4GASpecificConfig, __ZTV20MP4ELDSpecificConfig, 
                       __ZTV20MP4SLSSpecificConfig, __ZTV21MP4CelpSpecificConfig, 
                       __ZTV21MP4USACSpecificConfig, __ZTV21VoiceActivityDetector, 
                       __ZTV24MP4LDSpatialConfigWriter, __ZTV26MP4LDSpatialSpecificConfig, 
                       __ZTV29MP4SpatialAudioSpecificConfig, _formatLikeOSLog, _gCAVectorUnitType, 
                       _generateVector, _hwrandom, _hwrandom16, _initKfilter, _initRng, 
                       _kAVCKeyAudioPowerSpectrumTokenInput, _kAVCKeyAudioPowerSpectrumTokenOutput, 
                       _kAVCKeyRTCPSocket, _kAVCKeyRTPLocalSSRC, _kAVCKeyRTPSocket, 
                       _kAVCKeySharedSocket, _kAVCKeySourcePort, _kAVCKeySupportedAudioCodecs, 
                       _kAVCKeySupportedCodecs, _kAVCKeySupportedMaxVideoDecodes, 
                       _kAVCKeySupportedVideoDecodingCodecs, _kAVCKeySupportedVideoDecodingResolutions, 
                       _kAVCKeySupportedVideoEncodingCodecs, _kAVCKeySupportedVideoEncodingResolutions, 
                       _kAVCKeyVideoStreamDownlinkIsOperatingAtMaxBitrate, _kAVCKeyVideoStreamDownlinkIsOperatingAtMinBitrate, 
                       _kAVCKeyVideoStreamDownlinkOperatingBitrate, _kAVCKeyVideoStreamDownlinkOptimalBitrate, 
                       _kAVCKeyVideoStreamUplinkOperatingBitrate, _kAVCMediaStreamOptionCallID, 
                       _kAVCMediaStreamOptionClientPID, _kAVCMediaStreamOptionRemoteEndpointInfo, 
                       _kAVCMediaStreamOptionRunInProcess, _kFilterProcessAllChannels, 
                       _kFilterProcessSingleChannel, _libLPC_analysisFilter, _libLPC_applyGamma, 
                       _libLPC_burg, _libLPC_dBInterp, _libLPC_linInterp, _libLPC_lsf2poly, 
                       _libLPC_lsfGridInit, _libLPC_olPitchSearch, _libLPC_poly2lsf, 
                       _libLPC_synthesisFilter, _norm, _realFFTMultiply, _realFFTZeroPad, 
                       _realIFFTUnload, _removeKfilter, _resetKfilter ]
    objc-classes:    [ AVAudioClient, AVAudioDevice, AVAudioDeviceList, AVCAudioPowerSpectrum, 
                       AVCAudioPowerSpectrumBin, AVCAudioPowerSpectrumChannel, AVCAudioPowerSpectrumMeter, 
                       AVCAudioStream, AVCAudioStreamConfig, AVCCaptionsClient, AVCCaptionsConfig, 
                       AVCCaptionsResult, AVCCaptionsToken, AVCDaemonProcessInfo, 
                       AVCEffects, AVCMediaStreamConfig, AVCMediaStreamNegotiator, 
                       AVCMoments, AVCMomentsRequest, AVCNetworkAddress, AVCPacketFilter, 
                       AVCPacketFilterRTP, AVCPacketRelay, AVCPacketRelayConnection, 
                       AVCQoSMonitor, AVCRTCPPacket, AVCRTCPReceiverReport, AVCRTCPSenderReport, 
                       AVCRTCPSourceDescription, AVCRemoteVideoClient, AVCSession, 
                       AVCSessionConfiguration, AVCSessionParticipant, AVCTestMonitor, 
                       AVCTextStream, AVCTextStreamConfig, AVCVideoDataOutput, AVCVideoFrame, 
                       AVCVideoStream, AVCVideoStreamConfig, AVCVirtualTTYDevice, 
                       AVCamera, AVCameraList, AVConference, AVConferencePreview, 
                       AVConferenceXPCClient, GKInterfaceListener, GKNATObserver, 
                       GKSConnectivitySettings, VCAudioRelay, VCAudioRelayIO, VCCapabilities, 
                       VCMediaStreamManager, VideoAttributes, VideoConference ]
    objc-ivars:      [ AVAudioClient.deviceList, AVAudioDeviceList._internalList, 
                       AVCAudioPowerSpectrumMeter._audioSpectrumBinCount, AVCAudioPowerSpectrumMeter._audioSpectrumRefreshRate, 
                       AVCAudioPowerSpectrumMeter._connection, AVCAudioPowerSpectrumMeter._delegate, 
                       AVCAudioPowerSpectrumMeter._delegateQueue, AVCAudioPowerSpectrumMeter._sessionToken, 
                       AVCAudioStreamConfig._audioStreamMode, AVCAudioStreamConfig._channelAwareOffset, 
                       AVCAudioStreamConfig._cnEnabled, AVCAudioStreamConfig._cnPayloadType, 
                       AVCAudioStreamConfig._codecRateModeMask, AVCAudioStreamConfig._codecType, 
                       AVCAudioStreamConfig._dtmfPayloadType, AVCAudioStreamConfig._dtmfTimestampRate, 
                       AVCAudioStreamConfig._dtxEnabled, AVCAudioStreamConfig._enableMaxBitrateOnNoChangeCMR, 
                       AVCAudioStreamConfig._headerFullOnly, AVCAudioStreamConfig._latencySensitiveMode, 
                       AVCAudioStreamConfig._maxPtime, AVCAudioStreamConfig._numRedundantPayloads, 
                       AVCAudioStreamConfig._octetAligned, AVCAudioStreamConfig._preferredCodecRateMode, 
                       AVCAudioStreamConfig._ptime, AVCAudioStreamConfig._rxRedPayloadType, 
                       AVCAudioStreamConfig._txRedPayloadType, AVCAudioStreamConfig._volume, 
                       AVCCaptionsConfig._locale, AVCCaptionsToken._confidence, AVCCaptionsToken._hasSpaceAfter, 
                       AVCCaptionsToken._text, AVCEffects._avConferenceEffectsQueue, 
                       AVCEffects._connection, AVCEffects._delegate, AVCEffects._effectType, 
                       AVCEffects._isEffectsApplied, AVCEffects._isFaceMeshTrackingEnabled, 
                       AVCEffects._mode, AVCMoments._capabilities, AVCMoments._connection, 
                       AVCMoments._currentActiveRequestsCount, AVCMoments._currentPendingRequestsCount, 
                       AVCMoments._delegate, AVCMoments._delegateQueue, AVCMoments._requesterID, 
                       AVCMoments._requests, AVCMoments._streamToken, AVCNetworkAddress.interfaceName, 
                       AVCNetworkAddress.ip, AVCNetworkAddress.isIPv6, AVCNetworkAddress.port, 
                       AVCPacketFilterRTP._SSRC, AVCPacketFilterRTP._type, AVCPacketRelay._connections, 
                       AVCPacketRelay._delegate, AVCPacketRelay._multiplexedConnection, 
                       AVCPacketRelay._packetDriver, AVCPacketRelay._queue, AVCRTCPSourceDescription._text, 
                       AVCRTCPSourceDescription._type, AVCRemoteVideoClient._activeVideoMode, 
                       AVCRemoteVideoClient._avcRemoteVideoQueue, AVCRemoteVideoClient._connection, 
                       AVCRemoteVideoClient._connectionTypeString, AVCRemoteVideoClient._delegate, 
                       AVCRemoteVideoClient._hasReceivedFirstFrame, AVCRemoteVideoClient._hasReceivedLastFrame, 
                       AVCRemoteVideoClient._isMediaStalled, AVCRemoteVideoClient._isVideoDegraded, 
                       AVCRemoteVideoClient._isVideoPaused, AVCRemoteVideoClient._isVideoSuspended, 
                       AVCRemoteVideoClient._primaryCameraLayer, AVCRemoteVideoClient._primaryCameraSubLayer, 
                       AVCRemoteVideoClient._remoteScreenAttributes, AVCRemoteVideoClient._remoteVideoAttributes, 
                       AVCRemoteVideoClient._screenLayer, AVCRemoteVideoClient._screenSubLayer, 
                       AVCRemoteVideoClient._secondaryCameraLayer, AVCRemoteVideoClient._secondaryCameraSubLayer, 
                       AVCRemoteVideoClient._shouldDisplayVideoInfoLayer, AVCRemoteVideoClient._slotsForModes, 
                       AVCRemoteVideoClient._streamToken, AVCTextStreamConfig._codecType, 
                       AVCTextStreamConfig._numRedundantPayloads, AVCTextStreamConfig._rxRedPayloadType, 
                       AVCTextStreamConfig._txIntervalMin, AVCTextStreamConfig._txRedPayloadType, 
                       AVCVideoStreamConfig._captureSource, AVCVideoStreamConfig._customHeight, 
                       AVCVideoStreamConfig._customWidth, AVCVideoStreamConfig._cvoExtensionID, 
                       AVCVideoStreamConfig._enableCVO, AVCVideoStreamConfig._framerate, 
                       AVCVideoStreamConfig._hdrMode, AVCVideoStreamConfig._isVideoProtected, 
                       AVCVideoStreamConfig._keyFrameInterval, AVCVideoStreamConfig._latencySensitiveModeEnabled, 
                       AVCVideoStreamConfig._ltrpEnabled, AVCVideoStreamConfig._pixelFormat, 
                       AVCVideoStreamConfig._remoteDeviceName, AVCVideoStreamConfig._remoteVideoInitialOrientation, 
                       AVCVideoStreamConfig._rxCodecFeatureListString, AVCVideoStreamConfig._rxCodecType, 
                       AVCVideoStreamConfig._rxMaxBitrate, AVCVideoStreamConfig._rxMinBitrate, 
                       AVCVideoStreamConfig._screenDisplayID, AVCVideoStreamConfig._tilesPerFrame, 
                       AVCVideoStreamConfig._txCodecFeatureListString, AVCVideoStreamConfig._txCodecType, 
                       AVCVideoStreamConfig._txMaxBitrate, AVCVideoStreamConfig._txMinBitrate, 
                       AVCVideoStreamConfig._videoResolution, AVCVideoStreamConfig._videoStreamMode, 
                       AVConference._delegate, AVConference.connection, AVConference.opaqueConf, 
                       AVConference.serverBag, AVConference.useServer, AVConferencePreview.connection, 
                       AVConferenceXPCClient.connection, AVConferenceXPCClient.connectionPersists, 
                       AVConferenceXPCClient.connectionQueue, AVConferenceXPCClient.registeredBlocks, 
                       AVConferenceXPCClient.replyQueue, VCAudioRelay._isRelayRunning, 
                       VCAudioRelay._relayThread, VCAudioRelay._wakeUpCondition, 
                       VCAudioRelay._wakeUpMutex, VCCapabilities.actualAudioCodec, 
                       VCCapabilities.actualVideoCodec, VCCapabilities.deviceRole, 
                       VCCapabilities.isAudioEnabled, VCCapabilities.isAudioPausedToStart, 
                       VCCapabilities.isDTLSEnabled, VCCapabilities.isDuplexAudioOnly, 
                       VCCapabilities.isDuplexVideoOnly, VCCapabilities.isHalfDuplexAudio, 
                       VCCapabilities.isKeyExchangeEnabled, VCCapabilities.isRelayEnabled, 
                       VCCapabilities.isRelayForced, VCCapabilities.isVideoEnabled, 
                       VCCapabilities.isVideoPausedToStart, VCCapabilities.isVideoSourceScreen, 
                       VCCapabilities.preferredAudioCodec, VCCapabilities.preferredVideoCodec, 
                       VCCapabilities.requiresWifi, VCMediaStreamManager._vcMomentsCollectorDictionary, 
                       VCMediaStreamManager.stateLock, VCMediaStreamManager.streamArray, 
                       VCMediaStreamManager.xpcQueue, VideoAttributes.camera, VideoAttributes.cameraSwitching, 
                       VideoAttributes.contentsRect, VideoAttributes.orientation, 
                       VideoAttributes.ratio, VideoAttributes.videoMirrored, VideoAttributes.videoSourceScreen ]
    weak-symbols:    [ __ZN12CADeprecated10TSingletonI12DFTSetupListILb0EEE5sOnceE, 
                       __ZN12CADeprecated10TSingletonI12DFTSetupListILb0EEE9sInstanceE, 
                       __ZN12CADeprecated10TSingletonI12DFTSetupListILb1EEE5sOnceE, 
                       __ZN12CADeprecated10TSingletonI12DFTSetupListILb1EEE9sInstanceE, 
                       __ZN12CADeprecated10TSingletonI14BSFuzzerCFPrefE5sOnceE, __ZN12CADeprecated10TSingletonI14BSFuzzerCFPrefE9sInstanceE, 
                       __ZN13MP4SampleRate19kMP4SampleRateTableE, __ZN13MP4SampleRate29kMP4SampleRateBoundariesTableE, 
                       __ZN16TBitstreamReaderIhE15AlignToNextByteEv, __ZN16TBitstreamReaderIhE6GetBitEv, 
                       __ZN16TBitstreamReaderIhE7GetBitsEj, __ZN16TBitstreamReaderIhE7PutBackEj, 
                       __ZN16TBitstreamReaderIhE8SkipBitsEj, __ZN16TBitstreamReaderIjE13FillCacheFromEPKh, 
                       __ZN16TBitstreamReaderIjE15AlignToNextByteEv, __ZN16TBitstreamReaderIjE6GetBitEv, 
                       __ZN16TBitstreamReaderIjE7GetBitsEj, __ZN16TBitstreamReaderIjE7PutBackEj, 
                       __ZN16TBitstreamReaderIjE8SkipBitsEj, __ZN16TBitstreamReaderIjEC1EPKhj, 
                       __ZN16TBitstreamReaderIjEC2EPKhj, __ZN16TBitstreamWriterIhE14FillToNextByteEh, 
                       __ZN16TBitstreamWriterIhE5FlushEv, __ZN16TBitstreamWriterIhE6PutBitEh, 
                       __ZN16TBitstreamWriterIhE7PutBitsEhj, __ZN16TBitstreamWriterIhEC1EPhj, 
                       __ZN16TBitstreamWriterIhEC2EPhj, __ZN16TBitstreamWriterIhED1Ev, 
                       __ZN16TBitstreamWriterIhED2Ev, __ZN16TBitstreamWriterIjE14FillToNextByteEj, 
                       __ZN16TBitstreamWriterIjE5FlushEv, __ZN16TBitstreamWriterIjE6PutBitEj, 
                       __ZN16TBitstreamWriterIjE7PutBitsEjj, __ZN16TBitstreamWriterIjEC1EPhj, 
                       __ZN16TBitstreamWriterIjEC2EPhj, __ZN16TBitstreamWriterIjED1Ev, 
                       __ZN16TBitstreamWriterIjED2Ev, __ZN16TBitstreamWriterItE14FillToNextByteEt, 
                       __ZN16TBitstreamWriterItE5FlushEv, __ZN16TBitstreamWriterItE6PutBitEt, 
                       __ZN16TBitstreamWriterItE7PutBitsEtj, __ZN16TBitstreamWriterItEC1EPhj, 
                       __ZN16TBitstreamWriterItEC2EPhj, __ZN16TBitstreamWriterItED1Ev, 
                       __ZN16TBitstreamWriterItED2Ev, __ZN21TSingletonThreadLocalI14BSSectionStackE10destructorEPv, 
                       __ZN21TSingletonThreadLocalI14BSSectionStackE4sKeyE, __ZN21TSingletonThreadLocalI14BSSectionStackE8sKeyOnceE, 
                       __ZN8RandLFSR18uniformlyRandomBitEv, __ZN8RandLFSR3oneEv, 
                       __ZN8RandLFSR4zeroEv, __ZN9DFTHandleILb0EE10InitializeEj, 
                       __ZN9DFTHandleILb0EEC1ERKS0_, __ZN9DFTHandleILb0EEC1Ev, __ZN9DFTHandleILb0EEC2ERKS0_, 
                       __ZN9DFTHandleILb0EEC2Ev, __ZN9DFTHandleILb0EED0Ev, __ZN9DFTHandleILb0EED1Ev, 
                       __ZN9DFTHandleILb0EED2Ev, __ZN9DFTHandleILb0EEaSERKS0_, __ZN9DFTHandleILb1EE10InitializeEj, 
                       __ZN9DFTHandleILb1EEC1ERKS0_, __ZN9DFTHandleILb1EEC1Ev, __ZN9DFTHandleILb1EEC2ERKS0_, 
                       __ZN9DFTHandleILb1EEC2Ev, __ZN9DFTHandleILb1EED0Ev, __ZN9DFTHandleILb1EED1Ev, 
                       __ZN9DFTHandleILb1EED2Ev, __ZN9DFTHandleILb1EEaSERKS0_, __ZNK16TBitstreamReaderIhE13BitsRemainingEv, 
                       __ZNK16TBitstreamReaderIjE13BitsRemainingEv, __ZNK16TBitstreamWriterIhE11BitsWrittenEv, 
                       __ZNK16TBitstreamWriterIhE13BitsRemainingEv, __ZNK16TBitstreamWriterIjE11BitsWrittenEv, 
                       __ZNK16TBitstreamWriterIjE13BitsRemainingEv, __ZNK16TBitstreamWriterItE11BitsWrittenEv, 
                       __ZNK16TBitstreamWriterItE13BitsRemainingEv, __ZNK9DFTHandleILb0EE4SizeEv, 
                       __ZNK9DFTHandleILb1EE4SizeEv, __ZTV9DFTHandleILb0EE, __ZTV9DFTHandleILb1EE ]
  - targets:         [ arm64e-maccatalyst, arm64e-macos, arm64-macos, arm64-maccatalyst ]
    symbols:         [ __ZN5CALog6log_vaEiPKNS_5ScopeEPKciS4_S4_PK10__CFStringPc, 
                       __ZN5CALog7vprintfEiPKcPc ]
...
