--- !tapi-tbd
tbd-version:     4
targets:         [ x86_64-macos, arm64-macos, arm64e-macos ]
uuids:
  - target:          x86_64-macos
    value:           7FC66DD4-E86A-3995-A283-5A6793ED0480
  - target:          arm64-macos
    value:           00000000-0000-0000-0000-000000000000
  - target:          arm64e-macos
    value:           0DAC1D9E-323E-3C86-B716-6E70BCBB345C
install-name:    '/usr/lib/libskit.dylib'
exports:
  - targets:         [ arm64e-macos, x86_64-macos, arm64-macos ]
    symbols:         [ __ZN4skit10MultiIndex13merge_indexesEv, __ZN4skit10MultiIndex4openEv, 
                       __ZN4skit10MultiIndex5clearEv, __ZN4skit10MultiIndex5closeEv, 
                       __ZN4skit10MultiIndex5flushEv, __ZN4skit10MultiIndex6appendERKNS_11TokenStreamEf, 
                       __ZN4skit11FieldBundle3addEtNS_9BufferRefIKSt4byteEEb, __ZN4skit11FieldBundle3addEtRKNS_11TokenStreamE, 
                       __ZN4skit11FieldBundle5clearEv, __ZN4skit11IndexReader4openEv, 
                       __ZN4skit11IndexReader5closeEv, __ZN4skit11IndexReaderC1ENSt3__14__fs10filesystem4pathE, 
                       __ZN4skit11IndexReaderC1EOS0_, __ZN4skit11IndexReaderC1ERKS0_, 
                       __ZN4skit11IndexReaderC1Ev, __ZN4skit11IndexReaderC2ENSt3__14__fs10filesystem4pathE, 
                       __ZN4skit11IndexReaderC2EOS0_, __ZN4skit11IndexReaderC2ERKS0_, 
                       __ZN4skit11IndexReaderC2Ev, __ZN4skit11IndexReaderD1Ev, __ZN4skit11IndexReaderD2Ev, 
                       __ZN4skit11IndexReaderaSEOS0_, __ZN4skit11IndexReaderaSERKS0_, 
                       __ZN4skit11IndexWriter11set_doc_wgtERKNS_4UuidEf, __ZN4skit11IndexWriter12set_dp_classEi, 
                       __ZN4skit11IndexWriter15flush_thresholdEm, __ZN4skit11IndexWriter25set_doc_store_write_cacheEm, 
                       __ZN4skit11IndexWriter26set_term_index_write_cacheEm, __ZN4skit11IndexWriter5clearEv, 
                       __ZN4skit11IndexWriter5eraseERKNS_4UuidE, __ZN4skit11IndexWriter5flushEv, 
                       __ZN4skit11IndexWriter6appendERKNS_11TokenStreamEfNS_4UuidEPK5ioveci, 
                       __ZN4skit11IndexWriter7end_txnEv, __ZN4skit11IndexWriter8set_modeEt, 
                       __ZN4skit11IndexWriter9abort_txnEv, __ZN4skit11IndexWriter9start_txnEv, 
                       __ZN4skit11IndexWriterC1ENS_4UuidENSt3__14__fs10filesystem4pathES5_, 
                       __ZN4skit11IndexWriterC1EOS0_, __ZN4skit11IndexWriterC1Ev, 
                       __ZN4skit11IndexWriterC2ENS_4UuidENSt3__14__fs10filesystem4pathES5_, 
                       __ZN4skit11IndexWriterC2EOS0_, __ZN4skit11IndexWriterC2Ev, 
                       __ZN4skit11IndexWriterD1Ev, __ZN4skit11IndexWriterD2Ev, __ZN4skit11IndexWriteraSEOS0_, 
                       __ZN4skit11PostingListC1EPKSt4bytej, __ZN4skit11PostingListC2EPKSt4bytej, 
                       __ZN4skit11TokenStream11deserializeEPKSt4bytel, __ZN4skit11levenshteinEPKcS1_, 
                       __ZN4skit12IndexMemImpl6appendERKNS_4TermENS_7PostingE, __ZN4skit12to_u16stringERNSt3__112basic_stringIDsNS0_11char_traitsIDsEENS0_9allocatorIDsEEEENS0_17basic_string_viewIcNS2_IcEEEE, 
                       __ZN4skit13codepoint_cntENSt3__117basic_string_viewIDsNS0_11char_traitsIDsEEEE, 
                       __ZN4skit13codepoint_cntENSt3__117basic_string_viewIcNS0_11char_traitsIcEEEE, 
                       __ZN4skit14is_significantERKNSt3__117basic_string_viewIDsNS0_11char_traitsIDsEEEE, 
                       __ZN4skit14span_to_stringERKNS_11TokenStreamERKNS_4SpanERNSt3__112basic_stringIDsNS6_11char_traitsIDsEENS6_9allocatorIDsEEEE, 
                       __ZN4skit16FieldSpanMatcher11merge_fieldERNS_10MergeStateERKNS_12FieldMatchesE, 
                       __ZN4skit16FieldSpanMatcher11merge_fieldERNS_10MergeStateERKNS_12FieldMatchesEb, 
                       __ZN4skit16FieldSpanMatcher5clearEv, __ZN4skit16FieldSpanMatcher5matchERNS_12FieldMatchesERKNS_11TokenStreamEt, 
                       __ZN4skit16FieldSpanMatcher9ts_to_strERNSt3__112basic_stringIDsNS1_11char_traitsIDsEENS1_9allocatorIDsEEEENS1_11__wrap_iterIPKNS_5TokenEEESD_, 
                       __ZN4skit16FieldSpanMatcherC1ENSt3__112basic_stringIDsNS1_11char_traitsIDsEENS1_9allocatorIDsEEEENS_11TokenStreamEb, 
                       __ZN4skit16FieldSpanMatcherC2ENSt3__112basic_stringIDsNS1_11char_traitsIDsEENS1_9allocatorIDsEEEENS_11TokenStreamEb, 
                       __ZN4skit16MorphunTokenizerC1ERKN7morphun4util7ULocaleE, __ZN4skit16MorphunTokenizerC2ERKN7morphun4util7ULocaleE, 
                       __ZN4skit16entity_token_wgtEf, __ZN4skit16entity_token_wgtEj, 
                       __ZN4skit17MphStopWordFilterC1Ev, __ZN4skit17MphStopWordFilterC2Ev, 
                       __ZN4skit17default_kv_configE, __ZN4skit18PostingListMemImpl14update_max_wgtEv, 
                       __ZN4skit18PostingListMemImpl6appendENS_7PostingE, __ZN4skit19MergeStateWithAlias5clearEv, 
                       __ZN4skit23default_kv_store_configE, __ZN4skit25MergedFieldMatchWithAlias5mergeERKS0_, 
                       __ZN4skit25MergedFieldMatchWithAliasC1ERKNS_21FieldMatchesWithAliasERKNS_9SpanMatchERKNS_11SmallVectorINS_12AliasCounterELj4ELb1EEE, 
                       __ZN4skit25MergedFieldMatchWithAliasC2ERKNS_21FieldMatchesWithAliasERKNS_9SpanMatchERKNS_11SmallVectorINS_12AliasCounterELj4ELb1EEE, 
                       __ZN4skit5Alias4initEv, __ZN4skit5Alias5closeEv, __ZN4skit5AliasC1ENSt3__14__fs10filesystem4pathES4_, 
                       __ZN4skit5AliasC1Ev, __ZN4skit5AliasC2ENSt3__14__fs10filesystem4pathES4_, 
                       __ZN4skit5AliasC2Ev, __ZN4skit5Token11deserializeEPKSt4bytel, 
                       __ZN4skit6isimilEPKcS1_, __ZN4skit7Context12index_readerENSt3__117basic_string_viewIDsNS1_11char_traitsIDsEEEE, 
                       __ZN4skit7Context12index_removeENSt3__117basic_string_viewIDsNS1_11char_traitsIDsEEEE, 
                       __ZN4skit7Context12index_renameENSt3__117basic_string_viewIDsNS1_11char_traitsIDsEEEES5_, 
                       __ZN4skit7Context12index_writerENSt3__117basic_string_viewIDsNS1_11char_traitsIDsEEEE, 
                       __ZN4skit7Context2kvENSt3__117basic_string_viewIDsNS1_11char_traitsIDsEEEERKNS_8KvConfigEb, 
                       __ZN4skit7Context5indexENSt3__117basic_string_viewIDsNS1_11char_traitsIDsEEEEb, 
                       __ZN4skit7Context7cleanupEv, __ZN4skit7Context9doc_storeENSt3__117basic_string_viewIDsNS1_11char_traitsIDsEEEEb, 
                       __ZN4skit7Context9make_pathENSt3__117basic_string_viewIDsNS1_11char_traitsIDsEEEES5_, 
                       __ZN4skit7SpannerERKNS_11TokenStreamEmb, __ZN4skit7stemmer4stemEPci, 
                       __ZN4skit8Analyzer5dedupENS_11TokenStreamE, __ZN4skit8DocumentC1ERKNS_9BufferRefIKSt4byteEE, 
                       __ZN4skit8DocumentC2ERKNS_9BufferRefIKSt4byteEE, __ZN4skit8internal10murmur3_32EPKhmj, 
                       __ZN4skit8internal14FileDescriptor11update_statEv, __ZN4skit8internal14FileDescriptor4seekEx, 
                       __ZN4skit8internal14FileDescriptor5flushEb, __ZN4skit8internal14FileDescriptor5writeEPK5ioveci, 
                       __ZN4skit8internal14FileDescriptor5writeEPKvm, __ZN4skit8internal14FileDescriptor5writeEPKvmx, 
                       __ZN4skit8internal14FileDescriptor6resizeEx, __ZN4skit8internal14FileDescriptor8seek_endEv, 
                       __ZN4skit8internal18murmur_32_scrambleEj, __ZN4skit8internal19get_logging_contextEv, 
                       __ZN4skit8internal8BlobFile20flush_internal_cacheEv, __ZN4skit8internal8BlobFile4openEiit, 
                       __ZN4skit8internal8BlobFile5clearEv, __ZN4skit8internal8BlobFile5closeEv, 
                       __ZN4skit8internal8BlobFile5flushEb, __ZN4skit8internal8BlobFile6appendEPK5ioveci, 
                       __ZN4skit8internal8BlobFile6resizeEm, __ZN4skit8internal8BlobFile8max_sizeEm, 
                       __ZN4skit8internal8BlobFileC1EOS1_, __ZN4skit8internal8BlobFileC2EOS1_, 
                       __ZN4skit8internal8BlobFileaSEOS1_, __ZN4skit8internal8MmapFile4openEPKciiitiiimm, 
                       __ZN4skit8internal8MmapFile4openEiiiimm, __ZN4skit8internal8MmapFile6createEPKcmmiiitiii, 
                       __ZN4skit8internal9FileRange4initEv, __ZN4skit8internal9FileRange4initExm, 
                       __ZN4skit8internal9FileRange5closeEv, __ZN4skit8internal9FileRange6appendEPKvm, 
                       __ZN4skit8internal9TxnMarker15remove_txn_fileEv, __ZN4skit8internal9TxnMarker5clearEv, 
                       __ZN4skit8internal9TxnMarker7end_txnEv, __ZN4skit8internal9TxnMarker9abort_txnEv, 
                       __ZN4skit8internal9TxnMarker9start_txnEv, __ZN4skit8internal9TxnMarkerC1ENSt3__14__fs10filesystem4pathEPNS2_6atomicIjEE, 
                       __ZN4skit8internal9TxnMarkerC2ENSt3__14__fs10filesystem4pathEPNS2_6atomicIjEE, 
                       __ZN4skit8internal9open_fileERKNSt3__14__fs10filesystem4pathEit, 
                       __ZN4skit9to_stringERNSt3__112basic_stringIcNS0_11char_traitsIcEENS0_9allocatorIcEEEENS0_17basic_string_viewIDsNS2_IDsEEEE, 
                       __ZNK4skit10MultiIndex10top_k_wandERKNS_11TokenStreamEjfRNSt3__16vectorINS_3HitENS4_9allocatorIS6_EEEE, 
                       __ZNK4skit10MultiIndex11max_doc_wgtEv, __ZNK4skit10MultiIndex11top_k_unionERKNS_11TokenStreamEjfRNSt3__16vectorINS_3HitENS4_9allocatorIS6_EEEE, 
                       __ZNK4skit10MultiIndex12max_term_wgtEv, __ZNK4skit10MultiIndex13get_term_freqERKNS_4TermE, 
                       __ZNK4skit10MultiIndex15disk_index_sizeEv, __ZNK4skit10MultiIndex15top_k_referenceERKNS_11TokenStreamEjfRNSt3__16vectorINS_3HitENS4_9allocatorIS6_EEEE, 
                       __ZNK4skit10MultiIndex17get_term_freq_sumEv, __ZNK4skit10MultiIndex18top_k_intersectionERKNS_11TokenStreamEjfRNSt3__16vectorINS_3HitENS4_9allocatorIS6_EEEE, 
                       __ZNK4skit10MultiIndex4sizeEv, __ZNK4skit10MultiIndex5emptyEv, 
                       __ZNK4skit10MultiIndex5top_kERKNS_11TokenStreamEjfRNSt3__16vectorINS_3HitENS4_9allocatorIS6_EEEE, 
                       __ZNK4skit10MultiIndex6max_idEv, __ZNK4skit10MultiIndex9top_k_bmwERKNS_11TokenStreamEjfRNSt3__16vectorINS_3HitENS4_9allocatorIS6_EEEE, 
                       __ZNK4skit10MultiNGram12tokenize_strERNS_11TokenStreamENSt3__117basic_string_viewIDsNS3_11char_traitsIDsEEEE, 
                       __ZNK4skit11EmojiFilter6filterENSt3__117basic_string_viewIDsNS1_11char_traitsIDsEEEE, 
                       __ZNK4skit11EmojiFilter6filterERNS_11TokenStreamEm, __ZNK4skit11EmojiFilter6filterERNS_5TokenE, 
                       __ZNK4skit11FieldBundle8to_iovecEv, __ZNK4skit11IndexReader13populate_docsERNSt3__16vectorINS_3HitENS1_9allocatorIS3_EEEE, 
                       __ZNK4skit11IndexReader6existsEv, __ZNK4skit11IndexReader6searchERNSt3__16vectorINS_3HitENS1_9allocatorIS3_EEEERKNS_11TokenStreamENS_10SearchTypeEjjfb, 
                       __ZNK4skit11IndexReader7is_openEv, __ZNK4skit11IndexWriter10record_cntEv, 
                       __ZNK4skit11IndexWriter10size_bytesEv, __ZNK4skit11IndexWriter11segment_cntEv, 
                       __ZNK4skit11IndexWriter12should_mergeEv, __ZNK4skit11IndexWriter13merge_indexesEv, 
                       __ZNK4skit11IndexWriter15flush_thresholdEv, __ZNK4skit11IndexWriter21index_count_thresholdEm, 
                       __ZNK4skit11IndexWriter2idEv, __ZNK4skit11IndexWriter4sizeEv, 
                       __ZNK4skit11IndexWriter7last_tsEv, __ZNK4skit11IndexWriter9is_activeEv, 
                       __ZNK4skit11PostingList10make_iovecEv, __ZNK4skit11PostingList11seek_to_docEPKNS_7PostingExb, 
                       __ZNK4skit11PostingList13seek_to_blockEPKNS_7PostingEx, __ZNK4skit11TokenStream9serializeEPSt4bytel, 
                       __ZNK4skit12IndexMemImpl14make_disk_implENSt3__14__fs10filesystem4pathE, 
                       __ZNK4skit12NumberFilter6filterENSt3__117basic_string_viewIDsNS1_11char_traitsIDsEEEE, 
                       __ZNK4skit12NumberFilter6filterERNS_11TokenStreamEm, __ZNK4skit12NumberFilter6filterERNS_5TokenE, 
                       __ZNK4skit16FieldSpanMatcher16match_with_aliasERNS_21FieldMatchesWithAliasERKNS_11TokenStreamERKNS_5AliasEt, 
                       __ZNK4skit16FieldSpanMatcher21final_align_and_scoreERNS_9SpanMatchEjj, 
                       __ZNK4skit16FieldSpanMatcher22merge_field_with_aliasERNS_19MergeStateWithAliasERKNS_21FieldMatchesWithAliasEb, 
                       __ZNK4skit16FieldSpanMatcher25align_to_token_boundariesERNS_9SpanMatchEj, 
                       __ZNK4skit16FieldSpanMatcher8finalizeERNS_10MergeStateE, __ZNK4skit16FieldSpanMatcher8finalizeERNS_12FieldMatchesE, 
                       __ZNK4skit16FieldSpanMatcher8finalizeERNS_19MergeStateWithAliasE, 
                       __ZNK4skit18WordDelimTokenizer12tokenize_strERNS_11TokenStreamENSt3__117basic_string_viewIDsNS3_11char_traitsIDsEEEE, 
                       __ZNK4skit25MergedFieldMatchWithAlias14alias_countersERNS_11SmallVectorINS_17AliasMatchCounterELj4ELb1EEE, 
                       __ZNK4skit5Alias3addERNS_11TokenStreamEj, __ZNK4skit5Alias4findENSt3__117basic_string_viewIDsNS1_11char_traitsIDsEEEERNS_11SmallVectorINS1_5tupleIJNS1_12basic_stringIDsS4_NS1_9allocatorIDsEEEEtEEELj2ELb1EEE, 
                       __ZNK4skit5Token9serializeEPSt4bytel, __ZNK4skit7Context12index_existsENSt3__117basic_string_viewIDsNS1_11char_traitsIDsEEEE, 
                       __ZNK4skit7Context5indexENSt3__117basic_string_viewIDsNS1_11char_traitsIDsEEEE, 
                       __ZNK4skit7Context6searchENSt3__117basic_string_viewIDsNS1_11char_traitsIDsEEEERKNS_11TokenStreamERKNS_12SearchParamsE, 
                       __ZNK4skit7Context8analyzerEv, __ZNK4skit7Context9doc_storeENSt3__117basic_string_viewIDsNS1_11char_traitsIDsEEEE, 
                       __ZNK4skit8internal14FileDescriptor3posEv, __ZNK4skit8internal14FileDescriptor4readEPK5ioveci, 
                       __ZNK4skit8internal14FileDescriptor4readEPvm, __ZNK4skit8internal14FileDescriptor4readEPvmx, 
                       __ZNK4skit8internal9FileRange4readEPvmm, __ZNK4skit8internal9FileRange5writeEPKvmm, 
                       __ZNK4skit8internal9FileRange8subrangeExm, __ZTIN4skit10MultiNGramE, 
                       __ZTIN4skit11EmojiFilterE, __ZTIN4skit12NumberFilterE, __ZTIN4skit18WordDelimTokenizerE, 
                       __ZTSN4skit10MultiNGramE, __ZTSN4skit11EmojiFilterE, __ZTSN4skit12NumberFilterE, 
                       __ZTSN4skit18WordDelimTokenizerE, __ZTVN4skit10MultiNGramE, 
                       __ZTVN4skit11EmojiFilterE, __ZTVN4skit12NumberFilterE, __ZTVN4skit18WordDelimTokenizerE, 
                       __ZThn8_NK4skit11EmojiFilter6filterENSt3__117basic_string_viewIDsNS1_11char_traitsIDsEEEE, 
                       __ZThn8_NK4skit12NumberFilter6filterENSt3__117basic_string_viewIDsNS1_11char_traitsIDsEEEE, 
                       _crc32 ]
...
