--- !tapi-tbd
tbd-version:     4
targets:         [ x86_64-macos, arm64-macos, arm64e-macos ]
uuids:
  - target:          x86_64-macos
    value:           0C00D7D1-724C-3773-8129-76A134B7157F
  - target:          arm64-macos
    value:           00000000-0000-0000-0000-000000000000
  - target:          arm64e-macos
    value:           F7ABC164-D0E3-3F29-A3BC-FB566CE97283
install-name:    '/System/Library/PrivateFrameworks/iWorkXPC.framework/Versions/A/XPCServices/iWorkFileFormat.xpc/Contents/Frameworks/TSPersistence.framework/Versions/A/TSPersistence'
swift-abi-version: 7
exports:
  - targets:         [ x86_64-macos ]
    symbols:         [ __ZN3TSP13FieldInfoNode31ProcessUnknownFieldsFromMessageEPKN6google8protobuf7MessageEPNSt3__113unordered_mapIKNS_9FieldPathEbNS_13FieldPathHashENS_16FieldPathEqualToENS6_9allocatorINS6_4pairIS9_bEEEEEEPU15__autoreleasingP14NSMutableArraySL_Pa, 
                       __ZN3TSP13FieldInfoTree31ProcessUnknownFieldsFromMessageEPKN6google8protobuf7MessageEPNSt3__113unordered_mapIKNS_9FieldPathEbNS_13FieldPathHashENS_16FieldPathEqualToENS6_9allocatorINS6_4pairIS9_bEEEEEEPU15__autoreleasingP14NSMutableArraySL_Pa, 
                       __ZN3TSP27DataCollaborationPropertiesC1Eaai19TSPDataUploadStatusa, 
                       __ZN3TSP27DataCollaborationPropertiesC2Eaai19TSPDataUploadStatusa, 
                       __ZN6google8protobuf13StringAppendVEPNSt3__112basic_stringIcNS1_11char_traitsIcEENS1_9allocatorIcEEEEPKcP13__va_list_tag ]
    weak-symbols:    [ __ZTIFvPNSt3__16vectorIiNS_9allocatorIiEEEES4_E, __ZTIN3TSP25UpdateObjectUUIDOperationE, 
                       __ZTIN3TSP31PersistedObjectUUIDMapOperationE, __ZTIN3TSP31UpdateObjectIdentifierOperationE, 
                       __ZTIN6google8protobuf10TextFormat6Parser10ParserImpl20ParserErrorCollectorE, 
                       __ZTIN6google8protobuf10TextFormat7Printer13TextGeneratorE, 
                       __ZTIN6google8protobuf13RepeatedFieldIbEE, __ZTIN6google8protobuf13RepeatedFieldIdEE, 
                       __ZTIN6google8protobuf13RepeatedFieldIfEE, __ZTIN6google8protobuf13RepeatedFieldIiEE, 
                       __ZTIN6google8protobuf13RepeatedFieldIjEE, __ZTIN6google8protobuf13RepeatedFieldIxEE, 
                       __ZTIN6google8protobuf13RepeatedFieldIyEE, __ZTIN6google8protobuf16RepeatedPtrFieldINS0_11MessageLiteEEE, 
                       __ZTIN6google8protobuf16RepeatedPtrFieldINS0_7MessageEEE, 
                       __ZTIN6google8protobuf16RepeatedPtrFieldINSt3__112basic_stringIcNS2_11char_traitsIcEENS2_9allocatorIcEEEEEE, 
                       __ZTIN6google8protobuf17DescriptorBuilder17OptionInterpreter21AggregateOptionFinderE, 
                       __ZTIN6google8protobuf24ZeroCopyCodedInputStreamE, __ZTIN6google8protobuf2io19CopyingOutputStreamE, 
                       __ZTIN6google8protobuf2io19ZeroCopyInputStreamE, __ZTIN6google8protobuf4util16NumDiffsReporterE, 
                       __ZTIN6google8protobuf4util18MessageDifferencer30MultipleFieldsMapKeyComparatorE, 
                       __ZTIN6google8protobuf8internal12ExtensionSet8KeyValueE, __ZTIN6google8protobuf8internal16InternalMetadata13ContainerBaseE, 
                       __ZTIN6google8protobuf8internal16InternalMetadata9ContainerINS0_15UnknownFieldSetEEE, 
                       __ZTIN6google8protobuf8internal16InternalMetadata9ContainerINSt3__112basic_stringIcNS4_11char_traitsIcEENS4_9allocatorIcEEEEEE, 
                       __ZTIN6google8protobuf8internal16MapFieldAccessorE, __ZTIN6google8protobuf8internal20RepeatedFieldWrapperIbEE, 
                       __ZTIN6google8protobuf8internal20RepeatedFieldWrapperIdEE, 
                       __ZTIN6google8protobuf8internal20RepeatedFieldWrapperIfEE, 
                       __ZTIN6google8protobuf8internal20RepeatedFieldWrapperIiEE, 
                       __ZTIN6google8protobuf8internal20RepeatedFieldWrapperIjEE, 
                       __ZTIN6google8protobuf8internal20RepeatedFieldWrapperIxEE, 
                       __ZTIN6google8protobuf8internal20RepeatedFieldWrapperIyEE, 
                       __ZTIN6google8protobuf8internal20RepeatedPtrFieldBaseE, __ZTIN6google8protobuf8internal21RepeatedFieldAccessorE, 
                       __ZTIN6google8protobuf8internal23RepeatedPtrFieldWrapperINS0_7MessageEEE, 
                       __ZTIN6google8protobuf8internal23RepeatedPtrFieldWrapperINSt3__112basic_stringIcNS3_11char_traitsIcEENS3_9allocatorIcEEEEEE, 
                       __ZTIN6google8protobuf8internal23TypeDefinedMapFieldBaseINS0_6MapKeyENS0_11MapValueRefEEE, 
                       __ZTIN6google8protobuf8internal30RepeatedFieldPrimitiveAccessorIbEE, 
                       __ZTIN6google8protobuf8internal30RepeatedFieldPrimitiveAccessorIdEE, 
                       __ZTIN6google8protobuf8internal30RepeatedFieldPrimitiveAccessorIfEE, 
                       __ZTIN6google8protobuf8internal30RepeatedFieldPrimitiveAccessorIiEE, 
                       __ZTIN6google8protobuf8internal30RepeatedFieldPrimitiveAccessorIjEE, 
                       __ZTIN6google8protobuf8internal30RepeatedFieldPrimitiveAccessorIxEE, 
                       __ZTIN6google8protobuf8internal30RepeatedFieldPrimitiveAccessorIyEE, 
                       __ZTIN6google8protobuf8internal30RepeatedPtrFieldStringAccessorE, 
                       __ZTIN6google8protobuf8internal31RepeatedPtrFieldMessageAccessorE, 
                       __ZTIN6google8protobuf8internal33RandomAccessRepeatedFieldAccessorE, 
                       __ZTINSt3__110__function6__baseIFbiiEEE, __ZTINSt3__110__function6__baseIFvPNS_6vectorIiNS_9allocatorIiEEEES6_EEE, 
                       __ZTINSt3__110__function6__funcIPFvPNS_6vectorIiNS_9allocatorIiEEEES6_ENS3_IS8_EES7_EE, 
                       __ZTINSt3__112basic_stringIcNS_11char_traitsIcEENS_9allocatorIcEEEE, 
                       __ZTINSt3__115basic_stringbufIcNS_11char_traitsIcEENS_9allocatorIcEEEE, 
                       __ZTINSt3__117bad_function_callE, __ZTINSt3__119basic_ostringstreamIcNS_11char_traitsIcEENS_9allocatorIcEEEE, 
                       __ZTINSt3__120__shared_ptr_pointerIPN3TSP11ArchiveInfoENS_10shared_ptrIS2_E27__shared_ptr_default_deleteIS2_S2_EENS_9allocatorIS2_EEEE, 
                       __ZTINSt3__120__shared_ptr_pointerIPN3TSP13FieldInfoNodeENS_10shared_ptrIS2_E27__shared_ptr_default_deleteIS2_S2_EENS_9allocatorIS2_EEEE, 
                       __ZTINSt3__120__shared_ptr_pointerIPN3TSP13IdentifierMapIbEENS_10shared_ptrIS3_E27__shared_ptr_default_deleteIS3_S3_EENS_9allocatorIS3_EEEE, 
                       __ZTINSt3__120__shared_ptr_pointerIPN6google8protobuf15UnknownFieldSetENS_10shared_ptrIS3_E27__shared_ptr_default_deleteIS3_S3_EENS_9allocatorIS3_EEEE, 
                       __ZTINSt3__120__shared_ptr_pointerIPN6google8protobuf7MessageENS_10shared_ptrIS3_E27__shared_ptr_default_deleteIS3_S3_EENS_9allocatorIS3_EEEE, 
                       __ZTINSt3__120__shared_ptr_pointerIPNS_13unordered_mapIKN3TSP9FieldPathENS2_23FieldInfoRuleAttributesENS2_13FieldPathHashENS2_16FieldPathEqualToENS_9allocatorINS_4pairIS4_S5_EEEEEENS_10shared_ptrISC_E27__shared_ptr_default_deleteISC_SC_EENS8_ISC_EEEE, 
                       __ZTINSt3__120__shared_ptr_pointerIPNS_3mapIyNS_5tupleIJNS_10shared_ptrIN6google8protobuf7MessageEEENS3_INS_13unordered_mapIKN3TSP9FieldPathENS9_23FieldInfoRuleAttributesENS9_13FieldPathHashENS9_16FieldPathEqualToENS_9allocatorINS_4pairISB_SC_EEEEEEEENS3_INS9_13IdentifierMapIbEEEEEEENS_4lessIyEENSF_INSG_IKySO_EEEEEENS3_ISU_E27__shared_ptr_default_deleteISU_SU_EENSF_ISU_EEEE, 
                       __ZTINSt3__121__basic_string_commonILb1EEE, __ZTINSt3__13mapINS_17reference_wrapperIKN6google8protobuf6MapKeyEEEPvNS_4lessIS4_EENS3_8internal12MapAllocatorINS_4pairIKS6_S7_EEEEEE, 
                       __ZTINSt3__13mapIiN6google8protobuf8internal12ExtensionSet9ExtensionENS_4lessIiEENS_9allocatorINS_4pairIKiS5_EEEEEE, 
                       __ZTIPFvPNSt3__16vectorIiNS_9allocatorIiEEEES4_E, __ZTSFvPNSt3__16vectorIiNS_9allocatorIiEEEES4_E, 
                       __ZTSN3TSP25UpdateObjectUUIDOperationE, __ZTSN3TSP31PersistedObjectUUIDMapOperationE, 
                       __ZTSN3TSP31UpdateObjectIdentifierOperationE, __ZTSN6google8protobuf10TextFormat6Parser10ParserImpl20ParserErrorCollectorE, 
                       __ZTSN6google8protobuf10TextFormat7Printer13TextGeneratorE, 
                       __ZTSN6google8protobuf13RepeatedFieldIbEE, __ZTSN6google8protobuf13RepeatedFieldIdEE, 
                       __ZTSN6google8protobuf13RepeatedFieldIfEE, __ZTSN6google8protobuf13RepeatedFieldIiEE, 
                       __ZTSN6google8protobuf13RepeatedFieldIjEE, __ZTSN6google8protobuf13RepeatedFieldIxEE, 
                       __ZTSN6google8protobuf13RepeatedFieldIyEE, __ZTSN6google8protobuf16RepeatedPtrFieldINS0_11MessageLiteEEE, 
                       __ZTSN6google8protobuf16RepeatedPtrFieldINS0_7MessageEEE, 
                       __ZTSN6google8protobuf16RepeatedPtrFieldINSt3__112basic_stringIcNS2_11char_traitsIcEENS2_9allocatorIcEEEEEE, 
                       __ZTSN6google8protobuf17DescriptorBuilder17OptionInterpreter21AggregateOptionFinderE, 
                       __ZTSN6google8protobuf24ZeroCopyCodedInputStreamE, __ZTSN6google8protobuf2io19CopyingOutputStreamE, 
                       __ZTSN6google8protobuf2io19ZeroCopyInputStreamE, __ZTSN6google8protobuf4util16NumDiffsReporterE, 
                       __ZTSN6google8protobuf4util18MessageDifferencer30MultipleFieldsMapKeyComparatorE, 
                       __ZTSN6google8protobuf8internal12ExtensionSet8KeyValueE, __ZTSN6google8protobuf8internal16InternalMetadata13ContainerBaseE, 
                       __ZTSN6google8protobuf8internal16InternalMetadata9ContainerINS0_15UnknownFieldSetEEE, 
                       __ZTSN6google8protobuf8internal16InternalMetadata9ContainerINSt3__112basic_stringIcNS4_11char_traitsIcEENS4_9allocatorIcEEEEEE, 
                       __ZTSN6google8protobuf8internal16MapFieldAccessorE, __ZTSN6google8protobuf8internal20RepeatedFieldWrapperIbEE, 
                       __ZTSN6google8protobuf8internal20RepeatedFieldWrapperIdEE, 
                       __ZTSN6google8protobuf8internal20RepeatedFieldWrapperIfEE, 
                       __ZTSN6google8protobuf8internal20RepeatedFieldWrapperIiEE, 
                       __ZTSN6google8protobuf8internal20RepeatedFieldWrapperIjEE, 
                       __ZTSN6google8protobuf8internal20RepeatedFieldWrapperIxEE, 
                       __ZTSN6google8protobuf8internal20RepeatedFieldWrapperIyEE, 
                       __ZTSN6google8protobuf8internal20RepeatedPtrFieldBaseE, __ZTSN6google8protobuf8internal21RepeatedFieldAccessorE, 
                       __ZTSN6google8protobuf8internal23RepeatedPtrFieldWrapperINS0_7MessageEEE, 
                       __ZTSN6google8protobuf8internal23RepeatedPtrFieldWrapperINSt3__112basic_stringIcNS3_11char_traitsIcEENS3_9allocatorIcEEEEEE, 
                       __ZTSN6google8protobuf8internal23TypeDefinedMapFieldBaseINS0_6MapKeyENS0_11MapValueRefEEE, 
                       __ZTSN6google8protobuf8internal30RepeatedFieldPrimitiveAccessorIbEE, 
                       __ZTSN6google8protobuf8internal30RepeatedFieldPrimitiveAccessorIdEE, 
                       __ZTSN6google8protobuf8internal30RepeatedFieldPrimitiveAccessorIfEE, 
                       __ZTSN6google8protobuf8internal30RepeatedFieldPrimitiveAccessorIiEE, 
                       __ZTSN6google8protobuf8internal30RepeatedFieldPrimitiveAccessorIjEE, 
                       __ZTSN6google8protobuf8internal30RepeatedFieldPrimitiveAccessorIxEE, 
                       __ZTSN6google8protobuf8internal30RepeatedFieldPrimitiveAccessorIyEE, 
                       __ZTSN6google8protobuf8internal30RepeatedPtrFieldStringAccessorE, 
                       __ZTSN6google8protobuf8internal31RepeatedPtrFieldMessageAccessorE, 
                       __ZTSN6google8protobuf8internal33RandomAccessRepeatedFieldAccessorE, 
                       __ZTSNSt3__110__function6__baseIFbiiEEE, __ZTSNSt3__110__function6__baseIFvPNS_6vectorIiNS_9allocatorIiEEEES6_EEE, 
                       __ZTSNSt3__110__function6__funcIPFvPNS_6vectorIiNS_9allocatorIiEEEES6_ENS3_IS8_EES7_EE, 
                       __ZTSNSt3__110shared_ptrIN3TSP11ArchiveInfoEE27__shared_ptr_default_deleteIS2_S2_EE, 
                       __ZTSNSt3__110shared_ptrIN3TSP13FieldInfoNodeEE27__shared_ptr_default_deleteIS2_S2_EE, 
                       __ZTSNSt3__110shared_ptrIN3TSP13IdentifierMapIbEEE27__shared_ptr_default_deleteIS3_S3_EE, 
                       __ZTSNSt3__110shared_ptrIN6google8protobuf15UnknownFieldSetEE27__shared_ptr_default_deleteIS3_S3_EE, 
                       __ZTSNSt3__110shared_ptrIN6google8protobuf7MessageEE27__shared_ptr_default_deleteIS3_S3_EE, 
                       __ZTSNSt3__110shared_ptrINS_13unordered_mapIKN3TSP9FieldPathENS2_23FieldInfoRuleAttributesENS2_13FieldPathHashENS2_16FieldPathEqualToENS_9allocatorINS_4pairIS4_S5_EEEEEEE27__shared_ptr_default_deleteISC_SC_EE, 
                       __ZTSNSt3__110shared_ptrINS_3mapIyNS_5tupleIJNS0_IN6google8protobuf7MessageEEENS0_INS_13unordered_mapIKN3TSP9FieldPathENS8_23FieldInfoRuleAttributesENS8_13FieldPathHashENS8_16FieldPathEqualToENS_9allocatorINS_4pairISA_SB_EEEEEEEENS0_INS8_13IdentifierMapIbEEEEEEENS_4lessIyEENSE_INSF_IKySN_EEEEEEE27__shared_ptr_default_deleteIST_ST_EE, 
                       __ZTSNSt3__112basic_stringIcNS_11char_traitsIcEENS_9allocatorIcEEEE, 
                       __ZTSNSt3__115basic_stringbufIcNS_11char_traitsIcEENS_9allocatorIcEEEE, 
                       __ZTSNSt3__117bad_function_callE, __ZTSNSt3__119basic_ostringstreamIcNS_11char_traitsIcEENS_9allocatorIcEEEE, 
                       __ZTSNSt3__120__shared_ptr_pointerIPN3TSP11ArchiveInfoENS_10shared_ptrIS2_E27__shared_ptr_default_deleteIS2_S2_EENS_9allocatorIS2_EEEE, 
                       __ZTSNSt3__120__shared_ptr_pointerIPN3TSP13FieldInfoNodeENS_10shared_ptrIS2_E27__shared_ptr_default_deleteIS2_S2_EENS_9allocatorIS2_EEEE, 
                       __ZTSNSt3__120__shared_ptr_pointerIPN3TSP13IdentifierMapIbEENS_10shared_ptrIS3_E27__shared_ptr_default_deleteIS3_S3_EENS_9allocatorIS3_EEEE, 
                       __ZTSNSt3__120__shared_ptr_pointerIPN6google8protobuf15UnknownFieldSetENS_10shared_ptrIS3_E27__shared_ptr_default_deleteIS3_S3_EENS_9allocatorIS3_EEEE, 
                       __ZTSNSt3__120__shared_ptr_pointerIPN6google8protobuf7MessageENS_10shared_ptrIS3_E27__shared_ptr_default_deleteIS3_S3_EENS_9allocatorIS3_EEEE, 
                       __ZTSNSt3__120__shared_ptr_pointerIPNS_13unordered_mapIKN3TSP9FieldPathENS2_23FieldInfoRuleAttributesENS2_13FieldPathHashENS2_16FieldPathEqualToENS_9allocatorINS_4pairIS4_S5_EEEEEENS_10shared_ptrISC_E27__shared_ptr_default_deleteISC_SC_EENS8_ISC_EEEE, 
                       __ZTSNSt3__120__shared_ptr_pointerIPNS_3mapIyNS_5tupleIJNS_10shared_ptrIN6google8protobuf7MessageEEENS3_INS_13unordered_mapIKN3TSP9FieldPathENS9_23FieldInfoRuleAttributesENS9_13FieldPathHashENS9_16FieldPathEqualToENS_9allocatorINS_4pairISB_SC_EEEEEEEENS3_INS9_13IdentifierMapIbEEEEEEENS_4lessIyEENSF_INSG_IKySO_EEEEEENS3_ISU_E27__shared_ptr_default_deleteISU_SU_EENSF_ISU_EEEE, 
                       __ZTSNSt3__121__basic_string_commonILb1EEE, __ZTSNSt3__13mapINS_17reference_wrapperIKN6google8protobuf6MapKeyEEEPvNS_4lessIS4_EENS3_8internal12MapAllocatorINS_4pairIKS6_S7_EEEEEE, 
                       __ZTSNSt3__13mapIiN6google8protobuf8internal12ExtensionSet9ExtensionENS_4lessIiEENS_9allocatorINS_4pairIKiS5_EEEEEE, 
                       __ZTSPFvPNSt3__16vectorIiNS_9allocatorIiEEEES4_E ]
  - targets:         [ x86_64-macos, arm64e-macos, arm64-macos ]
    symbols:         [ '_$s13TSPersistence15TSPReferenceMapC020makeMutableReferenceC0AA010TSPMutablefC0CyF', 
                       '_$s13TSPersistence15TSPReferenceMapC13allReferences4fromAA16TSPIdentifierSetCSgs5Int64V_tF', 
                       '_$s13TSPersistence15TSPReferenceMapC19enumerateReferencesyySbs5Int64V_AA16TSPIdentifierSetCtXEF', 
                       '_$s13TSPersistence15TSPReferenceMapC4hashSivg', '_$s13TSPersistence15TSPReferenceMapC5countSivg', 
                       '_$s13TSPersistence15TSPReferenceMapC5countSivpMV', '_$s13TSPersistence15TSPReferenceMapC7isEqualySbypSgF', 
                       '_$s13TSPersistence15TSPReferenceMapCACycfC', '_$s13TSPersistence15TSPReferenceMapCACycfc', 
                       '_$s13TSPersistence15TSPReferenceMapCMa', '_$s13TSPersistence15TSPReferenceMapCMn', 
                       '_$s13TSPersistence15TSPReferenceMapCN', '_$s13TSPersistence15TSPReferenceMapCfD', 
                       '_$s13TSPersistence16TSPIdentifierSetC021makeMutableIdentifierC0AA010TSPMutablefC0CyF', 
                       '_$s13TSPersistence16TSPIdentifierSetC10intersectsySb10Foundation05IndexC0VF', 
                       '_$s13TSPersistence16TSPIdentifierSetC20enumerateIdentifiersyySbs5Int64V_SitXEF', 
                       '_$s13TSPersistence16TSPIdentifierSetC4hashSivg', '_$s13TSPersistence16TSPIdentifierSetC5count3for7defaultSis5Int64V_SitF', 
                       '_$s13TSPersistence16TSPIdentifierSetC5countSivg', '_$s13TSPersistence16TSPIdentifierSetC5countSivpMV', 
                       '_$s13TSPersistence16TSPIdentifierSetC7isEqualySbypSgF', '_$s13TSPersistence16TSPIdentifierSetC9formMergeyA2CF', 
                       '_$s13TSPersistence16TSPIdentifierSetCACycfC', '_$s13TSPersistence16TSPIdentifierSetCACycfc', 
                       '_$s13TSPersistence16TSPIdentifierSetCMa', '_$s13TSPersistence16TSPIdentifierSetCMn', 
                       '_$s13TSPersistence16TSPIdentifierSetCN', '_$s13TSPersistence16TSPIdentifierSetCfD', 
                       '_$s13TSPersistence22TSPMutableReferenceMapC03addC04from2toSis5Int64V_AHtF', 
                       '_$s13TSPersistence22TSPMutableReferenceMapC04makecD0AA012TSPReferenceD0CyF', 
                       '_$s13TSPersistence22TSPMutableReferenceMapC06removeC04from2toSis5Int64V_AHtF', 
                       '_$s13TSPersistence22TSPMutableReferenceMapC09incrementC04from2to0E0Sis5Int64V_AISitF', 
                       '_$s13TSPersistence22TSPMutableReferenceMapC13allReferences4fromAA16TSPIdentifierSetCSgs5Int64V_tF', 
                       '_$s13TSPersistence22TSPMutableReferenceMapC17replaceReferences4from4withys5Int64V_AA0B13IdentifierSetCtF', 
                       '_$s13TSPersistence22TSPMutableReferenceMapC19enumerateReferencesyySbs5Int64V_AA16TSPIdentifierSetCtXEF', 
                       '_$s13TSPersistence22TSPMutableReferenceMapC4hashSivg', '_$s13TSPersistence22TSPMutableReferenceMapC5countSivg', 
                       '_$s13TSPersistence22TSPMutableReferenceMapC5countSivpMV', 
                       '_$s13TSPersistence22TSPMutableReferenceMapC5mergeyyAA012TSPReferenceD0CF', 
                       '_$s13TSPersistence22TSPMutableReferenceMapC7isEqualySbypSgF', 
                       '_$s13TSPersistence22TSPMutableReferenceMapC8capacityACSi_tcfC', 
                       '_$s13TSPersistence22TSPMutableReferenceMapC8capacityACSi_tcfCTq', 
                       '_$s13TSPersistence22TSPMutableReferenceMapC8capacityACSi_tcfc', 
                       '_$s13TSPersistence22TSPMutableReferenceMapCACycfC', '_$s13TSPersistence22TSPMutableReferenceMapCACycfc', 
                       '_$s13TSPersistence22TSPMutableReferenceMapCMa', '_$s13TSPersistence22TSPMutableReferenceMapCMn', 
                       '_$s13TSPersistence22TSPMutableReferenceMapCN', '_$s13TSPersistence22TSPMutableReferenceMapCfD', 
                       '_$s13TSPersistence23TSPMutableIdentifierSetC04makecD0AA013TSPIdentifierD0CyF', 
                       '_$s13TSPersistence23TSPMutableIdentifierSetC14incrementCount2by3forS2i_s5Int64VtF', 
                       '_$s13TSPersistence23TSPMutableIdentifierSetC20enumerateIdentifiersyySbs5Int64V_SitXEF', 
                       '_$s13TSPersistence23TSPMutableIdentifierSetC4hashSivg', '_$s13TSPersistence23TSPMutableIdentifierSetC5count3for7defaultSis5Int64V_SitF', 
                       '_$s13TSPersistence23TSPMutableIdentifierSetC5countSivg', 
                       '_$s13TSPersistence23TSPMutableIdentifierSetC5countSivpMV', 
                       '_$s13TSPersistence23TSPMutableIdentifierSetC5mergeyyAA013TSPIdentifierD0CF', 
                       '_$s13TSPersistence23TSPMutableIdentifierSetC7isEqualySbypSgF', 
                       '_$s13TSPersistence23TSPMutableIdentifierSetC8capacityACSi_tcfC', 
                       '_$s13TSPersistence23TSPMutableIdentifierSetC8capacityACSi_tcfCTq', 
                       '_$s13TSPersistence23TSPMutableIdentifierSetC8capacityACSi_tcfc', 
                       '_$s13TSPersistence23TSPMutableIdentifierSetC8setCount_3forS2i_s5Int64VtF', 
                       '_$s13TSPersistence23TSPMutableIdentifierSetCACycfC', '_$s13TSPersistence23TSPMutableIdentifierSetCACycfc', 
                       '_$s13TSPersistence23TSPMutableIdentifierSetCMa', '_$s13TSPersistence23TSPMutableIdentifierSetCMn', 
                       '_$s13TSPersistence23TSPMutableIdentifierSetCN', '_$s13TSPersistence23TSPMutableIdentifierSetCfD', 
                       _NSStringFromTSPDocumentCorruptedDataFailToSaveMitigationPolicy, 
                       _NSStringFromTSPDocumentCorruptedDataRemovalMitigationPolicy, 
                       _NSStringFromTSPDocumentLoadValidationTiming, _NSStringFromTSPDocumentType, 
                       _NSStringFromTSPDocumentValidationTiming, _NSStringFromTSPPackageIdentifier, 
                       _NSStringFromTSPVersion, _NSStringFromTSPVersionMaxSupported, 
                       _TSPArchiverBoundedIncrement, _TSPArchiverTotalBytesLimit, 
                       _TSPArchivingDebugLogCat, _TSPArchivingDebugLogCat_init_token, 
                       _TSPArchivingDebugLogCat_log_t, _TSPAutosaveSupportTaskID, 
                       _TSPBreakdanceDocumentVersion, _TSPBundle, _TSPCasperDocumentVersion, 
                       _TSPCryptoComponentWriteChannelDefaultBufferSize, _TSPCryptoInfoCreate, 
                       _TSPCryptoInfoCreateFromMessage, _TSPCryptoInfoNeedsTranscodingToInfo, 
                       _TSPCryptoInfoNeedsTranscodingToKey, _TSPCryptoInfoSaveToMessage, 
                       _TSPDataDownloadManagerCollaborationDataScheme, _TSPDataDownloadManagerDocumentResourceScheme, 
                       _TSPDataDownloadObserverInfoErrorKey, _TSPDataDownloadObserverInfoProgressKey, 
                       _TSPDataLengthUnknown, _TSPDataPackagePath, _TSPDataPasteboardTypePrefix, 
                       _TSPDataPropertiesVersion1, _TSPDataPropertiesVersionLatest, 
                       _TSPDataUploadStatusIsError, _TSPDataUploadStatusIsReserved, 
                       _TSPDataUploadStatusValidate, _TSPDatabaseExistsAtDocumentPath, 
                       _TSPDatabaseExistsAtTefDocumentPath, _TSPDatabaseFileNumberForDocumentPath, 
                       _TSPDatabaseFilename, _TSPDatabaseHasRecentEditsAtDocumentPath, 
                       _TSPDatabaseReaderDataMessageType, _TSPDatabaseReaderImageDataMessageType, 
                       _TSPDatabaseReaderMovieDataMessageType, _TSPDatabaseVerboseCat_init_token, 
                       _TSPDatabaseVerboseCat_log_t, _TSPDefaultDataFilename, _TSPDelayedArchivingPriorityDefault, 
                       _TSPDescriptionForObject, _TSPDescriptionGeneratorLogCat, 
                       _TSPDescriptionGeneratorLogCat_init_token, _TSPDescriptionGeneratorLogCat_log_t, 
                       _TSPDiffMessageType, _TSPDirectoryPackageObjectArchiveFilename, 
                       _TSPDistributableFileFormatCat_init_token, _TSPDistributableFileFormatCat_log_t, 
                       _TSPDocumentMetadataObjectIdentifier, _TSPDocumentMetadataPackageLocator, 
                       _TSPDocumentObjectContainerIdentifier, _TSPDocumentObjectIdentifier, 
                       _TSPDocumentPackageKey, _TSPDocumentPackageLocator, _TSPDocumentPropertiesHasRemoteDataKey, 
                       _TSPDocumentResourceLogCat, _TSPDocumentResourceLogCat_init_token, 
                       _TSPDocumentResourceLogCat_log_t, _TSPDocumentResourceRegistryMetadataApplicationResourcesDigestToRelativePathKey, 
                       _TSPDocumentResourceRegistryMetadataDigestToLocatorKey, _TSPDocumentResourceRegistryMetadataDigestToPropertiesKey, 
                       _TSPDocumentResourceRegistryMetadataLocatorToDigestKey, _TSPDocumentResourceRegistryMetadataTagToPropertiesKey, 
                       _TSPDocumentTooOldVersionKey, _TSPDocumentURLKey, _TSPDumpPersistenceUserDefaultsKey, 
                       _TSPErrorDomain, _TSPFileResourceCacheLogCat, _TSPFileResourceCacheLogCat_init_token, 
                       _TSPFileResourceCacheLogCat_log_t, _TSPFirstDocumentVersion, 
                       _TSPHyperlinkSupportedDocumentVersion, _TSPIsPerformingReadKey, 
                       _TSPLuluAssetRenameDocumentVersion, _TSPLuluDocumentVersion, 
                       _TSPM1DocumentVersion, _TSPM2DocumentVersion, _TSPMetadataPackageLocator, 
                       _TSPMetadataPackagePath, _TSPMinSupportedVersions, _TSPMutableCryptoInfoForTranscodingToKey, 
                       _TSPNewObjectUUIDWithBaseUUIDAndNamespaceAndIdentifierAndOffset, 
                       _TSPObjectArchiveFileExtension, _TSPObjectArchivePackagePath, 
                       _TSPObjectContainerPackageLocator, _TSPObjectContextFirstObjectIdentifier, 
                       _TSPObjectDeepCopyOptionDelayedObjects, _TSPObjectDeepCopyOptionObjectProxy, 
                       _TSPObjectDeepCopyOptionResetObjectUUIDs, _TSPObjectDeepCopyOptionSkipObjects, 
                       _TSPObjectSerializationComponent, _TSPObjectSerializationMetadataIdentifier, 
                       _TSPObjectSerializationMetadataLocator, _TSPObjectSerializationOptionDataSerializationTestKey, 
                       _TSPObjectSerializationOptionDelayedObjectsKey, _TSPObjectSerializationOptionDeserializeAsPasteboardKey, 
                       _TSPObjectSerializationOptionDeserializeUnknownDataAsRemoteKey, 
                       _TSPObjectSerializationOptionObjectProxyKey, _TSPObjectSerializationOptionResetObjectUUIDsKey, 
                       _TSPObjectSerializationOptionSerializeAsPasteboardKey, _TSPObjectSerializationOptionSkipObjectsKey, 
                       _TSPObjectSerializationOptionWeakAsStrongReferencesKey, _TSPObjectSerializationRootObjectLocator, 
                       _TSPObjectSerializationSignature, _TSPOperationStoragePathRegEx, 
                       _TSPPackageIdentifierFromUnsignedInteger, _TSPPackageMetadataIdentifier, 
                       _TSPPackagePassphraseHintFilename, _TSPPackageWriterPreferredDataBlockSize, 
                       _TSPPasteboardItemMaxSize, _TSPPasteboardMetadataIdentifier, 
                       _TSPPasteboardObjectIdentifier, _TSPPasteboardSplitFormat, 
                       _TSPPasteboardTypeNative, _TSPPasteboardTypeNativeContentDescription, 
                       _TSPPasteboardTypeNativeMetadata, _TSPPasteboardTypeSmartPaste, 
                       _TSPPersistenceLogCat, _TSPPersistenceLogCat_init_token, _TSPPersistenceLogCat_log_t, 
                       _TSPPreUFFMaxDocumentVersion, _TSPReadDocumentTaskID, _TSPResourceContextDownloadSizeKey, 
                       _TSPSaveDocumentTaskID, _TSPSupportMetadataObjectIdentifier, 
                       _TSPSupportMetadataPackageLocator, _TSPSupportObjectContainerIdentifier, 
                       _TSPSupportObjectIdentifier, _TSPSupportPackageKey, _TSPSupportPackageLocator, 
                       _TSPSupportURLKey, _TSPTangierDocumentVersion, _TSPTargetFilePathErrorKey, 
                       _TSPUploadStatusToString, _TSPVersionCurrent, _TSPVersionFirst, 
                       _TSPVersionFromMessage, _TSPVersionFromNSString, _TSPVersionG1, 
                       _TSPVersionG10, _TSPVersionG10_1, _TSPVersionG10_2, _TSPVersionG11, 
                       _TSPVersionG1_1, _TSPVersionG1_2, _TSPVersionG1_5, _TSPVersionG1_6, 
                       _TSPVersionG2, _TSPVersionG2_1, _TSPVersionG2_2, _TSPVersionG2_3, 
                       _TSPVersionG2_4, _TSPVersionG3_1, _TSPVersionG3_2, _TSPVersionG4, 
                       _TSPVersionG4_1, _TSPVersionG4_2, _TSPVersionGetMaxSupported, 
                       _TSPVersionGetMinSupportedOnWrite, _TSPVersionIsSupported, 
                       _TSPVersionIsTooNew, _TSPVersionMaxSupported, _TSPVersionMinSupportedOnWrite, 
                       _TSPVersionMinSupportedVersionForAutomaticAmbiguousOwnershipResolution, 
                       _TSPVersionMinSupportedVersionForComponentCompression, _TSPVersionMinSupportedVersionForDiffArchiver, 
                       _TSPVersionMinSupportedVersionForViewState, _TSPVersionMinSupportedVersionWithSFF, 
                       _TSPVersionParse, _TSPVersionSetMessage, _TSPViewStateLocator, 
                       _TSPViewStateMetadataIdentifier, __Z17TSPCGFloatToFloatd, 
                       __Z19TSPCGFloatFromFloatf, __Z21TSPCGPointFromMessageRKN3TSP5PointE, 
                       __Z21TSPNSRangeFromMessageRKN3TSP5RangeE, __Z22TSPCGPathCopyToMessagePK6CGPathRN3TSP4PathE, 
                       __Z22TSPCGSizeCopyToMessage6CGSizeRN3TSP4SizeE, __Z23TSPCGPointCopyToMessage7CGPointRN3TSP5PointE, 
                       __Z23TSPNSRangeCopyToMessage8_NSRangeRN3TSP5RangeE, __Z24TSPTSUColorCopyToMessageP8TSUColorRN3TSP5ColorE, 
                       __Z26TSPCGPathCreateFromMessageRKN3TSP4PathE, __Z26TSPCGSizeCreateFromMessageRKN3TSP4SizeE, 
                       __Z26TSPVersionIsPatchSupportedy, __Z28TSPDataUploadStatusToMessage19TSPDataUploadStatus, 
                       __Z28TSPTSUColorCreateFromMessageRKN3TSP5ColorE, __Z30TSPDataUploadStatusFromMessageRKN3TSP16DataUploadStatusE, 
                       __Z30TSPDatabasePathForDocumentPathP8NSString, __Z33TSPDatabasePathForTefDocumentPathP8NSString, 
                       __Z35TSPTSUUUIDFromRepeatedUint64MessageRKN6google8protobuf13RepeatedFieldIyEE, 
                       __Z37TSPTSUUUIDCopyToRepeatedUint64MessageRKN3TSU8UUIDDataIN3TSP8UUIDDataEEERN6google8protobuf13RepeatedFieldIyEE, 
                       __Z37TSPVersionIsPatchSupportedForVersionsyPKym, __Z45TSPComponentParserArchiveLengthForArchiveInfoRKN3TSP11ArchiveInfoE, 
                       __ZN17TSPObjectLocationC1Ev, __ZN17TSPObjectLocationC1Exx, 
                       __ZN17TSPObjectLocationC2Ev, __ZN17TSPObjectLocationC2Exx, 
                       __ZN3TSP12SnappySource12SetMaxOffsetEm, __ZN3TSP12SnappySource4PeekEPm, 
                       __ZN3TSP12SnappySource4SkipEm, __ZN3TSP12SnappySource6OffsetEv, 
                       __ZN3TSP12SnappySource9SetOffsetEm, __ZN3TSP12SnappySourceC1EPU27objcproto16OS_dispatch_data8NSObject, 
                       __ZN3TSP12SnappySourceC2EPU27objcproto16OS_dispatch_data8NSObject, 
                       __ZN3TSP12SnappySourceD0Ev, __ZN3TSP12SnappySourceD1Ev, __ZN3TSP12SnappySourceD2Ev, 
                       __ZN3TSP12UUIDMultiMapC1ERKNS_19UUIDMultiMapArchiveE, __ZN3TSP12UUIDMultiMapC2ERKNS_19UUIDMultiMapArchiveE, 
                       __ZN3TSP13FieldInfoNode24IsPreserveFieldValueRuleEb, __ZN3TSP13FieldInfoNode25HasPreserveFieldValueRuleEb, 
                       __ZN3TSP13FieldInfoNode29UpdateFieldRuleToNotSupportedEv, 
                       __ZN3TSP13FieldInfoNode34UpdateTypeAndReferencesWithMessageEPKN6google8protobuf7MessageEPKNS2_10DescriptorEPKNS2_10ReflectionEPNS_9FieldInfoEbb, 
                       __ZN3TSP13FieldInfoNode37ProcessPreserveNewerFieldsFromMessageEPKN6google8protobuf7MessageEPNSt3__113unordered_mapIKNS_9FieldPathEbNS_13FieldPathHashENS_16FieldPathEqualToENS6_9allocatorINS6_4pairIS9_bEEEEEEPU15__autoreleasingP14NSMutableArraySL_, 
                       __ZN3TSP13FieldInfoNode37UpdateFieldInfoReferencesUsingMessageEPNS_9FieldInfoEPKN6google8protobuf7MessageEPKNS4_10DescriptorEPKNS4_10ReflectionEb, 
                       __ZN3TSP13FieldInfoNodeC1EPKS0_, __ZN3TSP13FieldInfoNodeC2EPKS0_, 
                       __ZN3TSP13FieldInfoTree12AddFieldInfoEPNS_9FieldInfoEb, __ZN3TSP13FieldInfoTree34UpdateTypeAndReferencesWithMessageEPKN6google8protobuf7MessageEb, 
                       __ZN3TSP13FieldInfoTree37ProcessPreserveNewerFieldsFromMessageEPKN6google8protobuf7MessageEPNSt3__113unordered_mapIKNS_9FieldPathEbNS_13FieldPathHashENS_16FieldPathEqualToENS6_9allocatorINS6_4pairIS9_bEEEEEEPU15__autoreleasingP14NSMutableArraySL_, 
                       __ZN3TSP13FieldInfoTreeC1Ev, __ZN3TSP13FieldInfoTreeC2Ev, 
                       __ZN3TSP14DataPropertiesC1ENS_16DataDigestStatusEP6NSDateyP9TSPDigestj, 
                       __ZN3TSP14DataPropertiesC1Ev, __ZN3TSP14DataPropertiesC2ENS_16DataDigestStatusEP6NSDateyP9TSPDigestj, 
                       __ZN3TSP14DataPropertiesC2Ev, __ZN3TSP16ReferencePrinter10PrintFieldERKNS_25DescriptionPrinterMessageEyPKN6google8protobuf10ReflectionEPKNS5_15FieldDescriptorERNS_9FieldPathERNS0_13TextGeneratorEU13block_pointerFbyE, 
                       __ZN3TSP16ReferencePrinter13PrintDocumentEPKcRKNS_25DescriptionPrinterMessageEPN6google8protobuf2io20ZeroCopyOutputStreamEU13block_pointerFbyE, 
                       __ZN3TSP16ReferencePrinter13PrintToStringERKNS_25DescriptionPrinterMessageERNS_9FieldPathEPNSt3__112basic_stringIcNS6_11char_traitsIcEENS6_9allocatorIcEEEEU13block_pointerFbyE, 
                       __ZN3TSP16ReferencePrinter14PrintFieldNameERKN6google8protobuf7MessageEPKNS2_10ReflectionEPKNS2_15FieldDescriptorERNS0_13TextGeneratorE, 
                       __ZN3TSP16ReferencePrinter15PrintFieldValueERKNS_25DescriptionPrinterMessageEyPKN6google8protobuf10ReflectionEPKNS5_15FieldDescriptorEiRNS_9FieldPathERNS0_13TextGeneratorEU13block_pointerFbyE, 
                       __ZN3TSP16ReferencePrinter17PrintVersionFieldERKNS_25DescriptionPrinterMessageEyPKN6google8protobuf10ReflectionEPKNS5_15FieldDescriptorERNS_9FieldPathERNS0_13TextGeneratorEU13block_pointerFbyE, 
                       __ZN3TSP16ReferencePrinter18PrintUnknownFieldsERKN6google8protobuf15UnknownFieldSetEPNS2_2io20ZeroCopyOutputStreamE, 
                       __ZN3TSP16ReferencePrinter18PrintUnknownFieldsERKN6google8protobuf15UnknownFieldSetERNS0_13TextGeneratorE, 
                       __ZN3TSP16ReferencePrinter21PrintAlternateContentERKNS_25DescriptionPrinterMessageEyRNS_9FieldPathERNS0_13TextGeneratorEU13block_pointerFbyE, 
                       __ZN3TSP16ReferencePrinter23PrintFieldValueToStringERKNS_25DescriptionPrinterMessageEyPKN6google8protobuf15FieldDescriptorEiRNS_9FieldPathEPNSt3__112basic_stringIcNSB_11char_traitsIcEENSB_9allocatorIcEEEEU13block_pointerFbyE, 
                       __ZN3TSP16ReferencePrinter23PrintShortRepeatedFieldERKNS_25DescriptionPrinterMessageEyPKN6google8protobuf10ReflectionEPKNS5_15FieldDescriptorERNS_9FieldPathERNS0_13TextGeneratorEU13block_pointerFbyE, 
                       __ZN3TSP16ReferencePrinter26PrintUnknownFieldsToStringERKN6google8protobuf15UnknownFieldSetEPNSt3__112basic_stringIcNS6_11char_traitsIcEENS6_9allocatorIcEEEE, 
                       __ZN3TSP16ReferencePrinter5PrintERKNS_25DescriptionPrinterMessageERNS_9FieldPathEPN6google8protobuf2io20ZeroCopyOutputStreamEU13block_pointerFbyE, 
                       __ZN3TSP16ReferencePrinter5PrintERKNS_25DescriptionPrinterMessageEyRNS_9FieldPathERNS0_13TextGeneratorEU13block_pointerFbyE, 
                       __ZN3TSP16ReferencePrinter9PrintTextEPN6google8protobuf2io20ZeroCopyOutputStreamEPKc, 
                       __ZN3TSP16ReferencePrinterC1ERNSt3__13mapIxNS_25DescriptionPrinterMessageENS1_4lessIxEENS1_9allocatorINS1_4pairIKxS3_EEEEEEbbU13block_pointerFyyyEU13block_pointerFNS1_12basic_stringIcNS1_11char_traitsIcEENS6_IcEEEEybESL_, 
                       __ZN3TSP16ReferencePrinterC2ERNSt3__13mapIxNS_25DescriptionPrinterMessageENS1_4lessIxEENS1_9allocatorINS1_4pairIKxS3_EEEEEEbbU13block_pointerFyyyEU13block_pointerFNS1_12basic_stringIcNS1_11char_traitsIcEENS6_IcEEEEybESL_, 
                       __ZN3TSP16ReferencePrinterD1Ev, __ZN3TSP16ReferencePrinterD2Ev, 
                       __ZN3TSP19DatabaseInputStream26CopyingDatabaseInputStream4ReadEPvi, 
                       __ZN3TSP19DatabaseInputStream26CopyingDatabaseInputStream4SkipEi, 
                       __ZN3TSP19DatabaseInputStream26CopyingDatabaseInputStreamC1EP12sqlite3_blob, 
                       __ZN3TSP19DatabaseInputStream26CopyingDatabaseInputStreamC2EP12sqlite3_blob, 
                       __ZN3TSP19DatabaseInputStream26CopyingDatabaseInputStreamD0Ev, 
                       __ZN3TSP19DatabaseInputStream26CopyingDatabaseInputStreamD1Ev, 
                       __ZN3TSP19DatabaseInputStream26CopyingDatabaseInputStreamD2Ev, 
                       __ZN3TSP19DatabaseInputStream4NextEPPKvPi, __ZN3TSP19DatabaseInputStream4SkipEi, 
                       __ZN3TSP19DatabaseInputStream6BackUpEi, __ZN3TSP19DatabaseInputStreamC1EP12sqlite3_blob, 
                       __ZN3TSP19DatabaseInputStreamC2EP12sqlite3_blob, __ZN3TSP19DatabaseInputStreamD0Ev, 
                       __ZN3TSP19DatabaseInputStreamD1Ev, __ZN3TSP19DatabaseInputStreamD2Ev, 
                       __ZN3TSP20DatabaseOutputStream27CopyingDatabaseOutputStream5WriteEPKvi, 
                       __ZN3TSP20DatabaseOutputStream27CopyingDatabaseOutputStreamC1EP12sqlite3_blob, 
                       __ZN3TSP20DatabaseOutputStream27CopyingDatabaseOutputStreamC2EP12sqlite3_blob, 
                       __ZN3TSP20DatabaseOutputStream27CopyingDatabaseOutputStreamD0Ev, 
                       __ZN3TSP20DatabaseOutputStream27CopyingDatabaseOutputStreamD1Ev, 
                       __ZN3TSP20DatabaseOutputStream27CopyingDatabaseOutputStreamD2Ev, 
                       __ZN3TSP20DatabaseOutputStream4NextEPPvPi, __ZN3TSP20DatabaseOutputStream6BackUpEi, 
                       __ZN3TSP20DatabaseOutputStreamC1EP12sqlite3_blob, __ZN3TSP20DatabaseOutputStreamC2EP12sqlite3_blob, 
                       __ZN3TSP20DatabaseOutputStreamD0Ev, __ZN3TSP20DatabaseOutputStreamD1Ev, 
                       __ZN3TSP20DatabaseOutputStreamD2Ev, __ZN3TSP21ObjectStateIdentifier12setDataStateEx, 
                       __ZN3TSP21ObjectStateIdentifier12setFileStateEP8NSString, 
                       __ZN3TSP21ObjectStateIdentifierC1EP8NSString, __ZN3TSP21ObjectStateIdentifierC1Ev, 
                       __ZN3TSP21ObjectStateIdentifierC1Ex, __ZN3TSP21ObjectStateIdentifierC2EP8NSString, 
                       __ZN3TSP21ObjectStateIdentifierC2Ev, __ZN3TSP21ObjectStateIdentifierC2Ex, 
                       __ZN3TSP21ObjectStateIdentifierD1Ev, __ZN3TSP21ObjectStateIdentifierD2Ev, 
                       __ZN3TSP23DispatchDataInputStream15AvailableLengthEv, __ZN3TSP23DispatchDataInputStream4NextEPPKvPi, 
                       __ZN3TSP23DispatchDataInputStream4SkipEi, __ZN3TSP23DispatchDataInputStream6BackUpEi, 
                       __ZN3TSP23DispatchDataInputStream7AddDataEPU27objcproto16OS_dispatch_data8NSObject, 
                       __ZN3TSP23DispatchDataInputStream8ReadDataEi, __ZN3TSP23DispatchDataInputStreamC1Ev, 
                       __ZN3TSP23DispatchDataInputStreamC2Ev, __ZN3TSP24CompareObjectIdentifiersEPKvS1_, 
                       __ZN3TSP24DispatchDataOutputStream10CreateDataEv, __ZN3TSP24DispatchDataOutputStream12ConcatBufferEv, 
                       __ZN3TSP24DispatchDataOutputStream22AllocateBufferIfNeededEv, 
                       __ZN3TSP24DispatchDataOutputStream4NextEPPvPi, __ZN3TSP24DispatchDataOutputStream6BackUpEi, 
                       __ZN3TSP24DispatchDataOutputStream9BlockSizeE, __ZN3TSP24DispatchDataOutputStreamC1Em, 
                       __ZN3TSP24DispatchDataOutputStreamC1Ev, __ZN3TSP24DispatchDataOutputStreamC2Em, 
                       __ZN3TSP24DispatchDataOutputStreamC2Ev, __ZN3TSP24DispatchDataOutputStreamD0Ev, 
                       __ZN3TSP24DispatchDataOutputStreamD1Ev, __ZN3TSP24DispatchDataOutputStreamD2Ev, 
                       __ZN3TSP24PrefixAndMergeFieldRulesEPKNSt3__113unordered_mapIKNS_9FieldPathENS_23FieldInfoRuleAttributesENS_13FieldPathHashENS_16FieldPathEqualToENS0_9allocatorINS0_4pairIS3_S4_EEEEEERS2_, 
                       __ZN3TSP25DescriptionPrinterMessageC1ExNSt3__110shared_ptrIN6google8protobuf7MessageEEENS2_INS1_13unordered_mapIKNS_9FieldPathENS_23FieldInfoRuleAttributesENS_13FieldPathHashENS_16FieldPathEqualToENS1_9allocatorINS1_4pairIS9_SA_EEEEEEEENS2_INS1_3mapIyNS1_5tupleIJS6_SI_NS2_INS_13IdentifierMapIbEEEEEEENS1_4lessIyEENSD_INSE_IKySO_EEEEEEEESN_, 
                       __ZN3TSP25DescriptionPrinterMessageC2ExNSt3__110shared_ptrIN6google8protobuf7MessageEEENS2_INS1_13unordered_mapIKNS_9FieldPathENS_23FieldInfoRuleAttributesENS_13FieldPathHashENS_16FieldPathEqualToENS1_9allocatorINS1_4pairIS9_SA_EEEEEEEENS2_INS1_3mapIyNS1_5tupleIJS6_SI_NS2_INS_13IdentifierMapIbEEEEEEENS1_4lessIyEENSD_INSE_IKySO_EEEEEEEESN_, 
                       __ZN3TSP25DescriptionPrinterMessageD1Ev, __ZN3TSP25DescriptionPrinterMessageD2Ev, 
                       __ZN3TSP27DataCollaborationPropertiesC1Ev, __ZN3TSP27DataCollaborationPropertiesC2Ev, 
                       __ZN3TSP28NSStringFromDataDigestStatusENS_16DataDigestStatusE, 
                       __ZN3TSP34_GetIdentifierFromReferenceMessageERKN6google8protobuf7MessageERy, 
                       __ZN3TSP38_GetLowerAndUpperFieldsFromUUIDMessageERKN6google8protobuf7MessageERyS5_, 
                       __ZN3TSP38_UUIDStringFromUUIDLowerAndUpperFieldsEyy, __ZN3TSP59_GetLowerAndUpperFieldsAndUUIDPathStringFromUUIDPathMessageERKN6google8protobuf7MessageERyS5_RNSt3__112basic_stringIcNS6_11char_traitsIcEENS6_9allocatorIcEEEE, 
                       __ZN3TSP7UUIDMapC1ERKNS_14UUIDMapArchiveE, __ZN3TSP7UUIDMapC2ERKNS_14UUIDMapArchiveE, 
                       __ZN3TSP7UUIDSetC1ERKNS_14UUIDSetArchiveE, __ZN3TSP7UUIDSetC2ERKNS_14UUIDSetArchiveE, 
                       __ZN3TSP8UUIDDataC1ERKNS_13CFUUIDArchiveE, __ZN3TSP8UUIDDataC1ERKNS_4UUIDE, 
                       __ZN3TSP8UUIDDataC2ERKNS_13CFUUIDArchiveE, __ZN3TSP8UUIDDataC2ERKNS_4UUIDE, 
                       __ZN3TSP8UUIDRectC1ERKNS_15UUIDRectArchiveE, __ZN3TSP8UUIDRectC2ERKNS_15UUIDRectArchiveE, 
                       __ZN3TSP9UUIDCoordC1ERKNS_16UUIDCoordArchiveE, __ZN3TSP9UUIDCoordC2ERKNS_16UUIDCoordArchiveE, 
                       __ZN50TableStruct_google_2fprotobuf_2fdescriptor_2eproto7offsetsE, 
                       __ZN6google8protobuf10ReflectionC1EPKNS0_10DescriptorERKNS0_8internal16ReflectionSchemaEPKNS0_14DescriptorPoolEPNS0_14MessageFactoryE, 
                       __ZN6google8protobuf10ReflectionC2EPKNS0_10DescriptorERKNS0_8internal16ReflectionSchemaEPKNS0_14DescriptorPoolEPNS0_14MessageFactoryE, 
                       __ZN6google8protobuf10SimpleDtoaEd, __ZN6google8protobuf10SimpleFtoaEf, 
                       __ZN6google8protobuf10SimpleItoaEi, __ZN6google8protobuf10SimpleItoaEj, 
                       __ZN6google8protobuf10SimpleItoaEl, __ZN6google8protobuf10SimpleItoaEm, 
                       __ZN6google8protobuf10SimpleItoaEx, __ZN6google8protobuf10SimpleItoaEy, 
                       __ZN6google8protobuf10TextFormat13ParseInfoTree12CreateNestedEPKNS0_15FieldDescriptorE, 
                       __ZN6google8protobuf10TextFormat13ParseInfoTree14RecordLocationEPKNS0_15FieldDescriptorENS1_13ParseLocationE, 
                       __ZN6google8protobuf10TextFormat13PrintToStringERKNS0_7MessageEPNSt3__112basic_stringIcNS5_11char_traitsIcEENS5_9allocatorIcEEEE, 
                       __ZN6google8protobuf10TextFormat15MergeFromStringERKNSt3__112basic_stringIcNS2_11char_traitsIcEENS2_9allocatorIcEEEEPNS0_7MessageE, 
                       __ZN6google8protobuf10TextFormat15ParseFromStringERKNSt3__112basic_stringIcNS2_11char_traitsIcEENS2_9allocatorIcEEEEPNS0_7MessageE, 
                       __ZN6google8protobuf10TextFormat17BaseTextGeneratorD0Ev, __ZN6google8protobuf10TextFormat17BaseTextGeneratorD1Ev, 
                       __ZN6google8protobuf10TextFormat17BaseTextGeneratorD2Ev, __ZN6google8protobuf10TextFormat17FieldValuePrinterC1Ev, 
                       __ZN6google8protobuf10TextFormat17FieldValuePrinterC2Ev, __ZN6google8protobuf10TextFormat17FieldValuePrinterD0Ev, 
                       __ZN6google8protobuf10TextFormat17FieldValuePrinterD1Ev, __ZN6google8protobuf10TextFormat17FieldValuePrinterD2Ev, 
                       __ZN6google8protobuf10TextFormat18PrintUnknownFieldsERKNS0_15UnknownFieldSetEPNS0_2io20ZeroCopyOutputStreamE, 
                       __ZN6google8protobuf10TextFormat21FastFieldValuePrinterC1Ev, 
                       __ZN6google8protobuf10TextFormat21FastFieldValuePrinterC2Ev, 
                       __ZN6google8protobuf10TextFormat21FastFieldValuePrinterD0Ev, 
                       __ZN6google8protobuf10TextFormat21FastFieldValuePrinterD1Ev, 
                       __ZN6google8protobuf10TextFormat21FastFieldValuePrinterD2Ev, 
                       __ZN6google8protobuf10TextFormat23PrintFieldValueToStringERKNS0_7MessageEPKNS0_15FieldDescriptorEiPNSt3__112basic_stringIcNS8_11char_traitsIcEENS8_9allocatorIcEEEE, 
                       __ZN6google8protobuf10TextFormat25ParseFieldValueFromStringERKNSt3__112basic_stringIcNS2_11char_traitsIcEENS2_9allocatorIcEEEEPKNS0_15FieldDescriptorEPNS0_7MessageE, 
                       __ZN6google8protobuf10TextFormat26PrintUnknownFieldsToStringERKNS0_15UnknownFieldSetEPNSt3__112basic_stringIcNS5_11char_traitsIcEENS5_9allocatorIcEEEE, 
                       __ZN6google8protobuf10TextFormat5MergeEPNS0_2io19ZeroCopyInputStreamEPNS0_7MessageE, 
                       __ZN6google8protobuf10TextFormat5ParseEPNS0_2io19ZeroCopyInputStreamEPNS0_7MessageE, 
                       __ZN6google8protobuf10TextFormat5PrintERKNS0_7MessageEPNS0_2io20ZeroCopyOutputStreamE, 
                       __ZN6google8protobuf10TextFormat6FinderD0Ev, __ZN6google8protobuf10TextFormat6FinderD1Ev, 
                       __ZN6google8protobuf10TextFormat6FinderD2Ev, __ZN6google8protobuf10TextFormat6Parser14MergeUsingImplEPNS0_2io19ZeroCopyInputStreamEPNS0_7MessageEPNS2_10ParserImplE, 
                       __ZN6google8protobuf10TextFormat6Parser15MergeFromStringERKNSt3__112basic_stringIcNS3_11char_traitsIcEENS3_9allocatorIcEEEEPNS0_7MessageE, 
                       __ZN6google8protobuf10TextFormat6Parser15ParseFromStringERKNSt3__112basic_stringIcNS3_11char_traitsIcEENS3_9allocatorIcEEEEPNS0_7MessageE, 
                       __ZN6google8protobuf10TextFormat6Parser25ParseFieldValueFromStringERKNSt3__112basic_stringIcNS3_11char_traitsIcEENS3_9allocatorIcEEEEPKNS0_15FieldDescriptorEPNS0_7MessageE, 
                       __ZN6google8protobuf10TextFormat6Parser5MergeEPNS0_2io19ZeroCopyInputStreamEPNS0_7MessageE, 
                       __ZN6google8protobuf10TextFormat6Parser5ParseEPNS0_2io19ZeroCopyInputStreamEPNS0_7MessageE, 
                       __ZN6google8protobuf10TextFormat6ParserC1Ev, __ZN6google8protobuf10TextFormat6ParserC2Ev, 
                       __ZN6google8protobuf10TextFormat6ParserD1Ev, __ZN6google8protobuf10TextFormat6ParserD2Ev, 
                       __ZN6google8protobuf10TextFormat7Printer11kDoNotParseE, __ZN6google8protobuf10TextFormat7Printer22RegisterMessagePrinterEPKNS0_10DescriptorEPKNS1_14MessagePrinterE, 
                       __ZN6google8protobuf10TextFormat7Printer24SetUseUtf8StringEscapingEb, 
                       __ZN6google8protobuf10TextFormat7Printer25RegisterFieldValuePrinterEPKNS0_15FieldDescriptorEPKNS1_17FieldValuePrinterE, 
                       __ZN6google8protobuf10TextFormat7Printer25RegisterFieldValuePrinterEPKNS0_15FieldDescriptorEPKNS1_21FastFieldValuePrinterE, 
                       __ZN6google8protobuf10TextFormat7Printer27SetDefaultFieldValuePrinterEPKNS1_17FieldValuePrinterE, 
                       __ZN6google8protobuf10TextFormat7Printer27SetDefaultFieldValuePrinterEPKNS1_21FastFieldValuePrinterE, 
                       __ZN6google8protobuf10TextFormat7PrinterC1Ev, __ZN6google8protobuf10TextFormat7PrinterC2Ev, 
                       __ZN6google8protobuf11EnumOptions12InternalSwapEPS1_, __ZN6google8protobuf11EnumOptions14_InternalParseEPKcPNS0_8internal12ParseContextE, 
                       __ZN6google8protobuf11EnumOptions16default_instanceEv, __ZN6google8protobuf11EnumOptions5ClearEv, 
                       __ZN6google8protobuf11EnumOptions8CopyFromERKNS0_7MessageE, 
                       __ZN6google8protobuf11EnumOptions8CopyFromERKS1_, __ZN6google8protobuf11EnumOptions9ArenaDtorEPv, 
                       __ZN6google8protobuf11EnumOptions9MergeFromERKNS0_7MessageE, 
                       __ZN6google8protobuf11EnumOptions9MergeFromERKS1_, __ZN6google8protobuf11EnumOptionsC1EPNS0_5ArenaE, 
                       __ZN6google8protobuf11EnumOptionsC1ERKS1_, __ZN6google8protobuf11EnumOptionsC2EPNS0_5ArenaE, 
                       __ZN6google8protobuf11EnumOptionsC2ERKS1_, __ZN6google8protobuf11EnumOptionsD0Ev, 
                       __ZN6google8protobuf11EnumOptionsD1Ev, __ZN6google8protobuf11EnumOptionsD2Ev, 
                       __ZN6google8protobuf11FileOptions12InternalSwapEPS1_, __ZN6google8protobuf11FileOptions12LITE_RUNTIMEE, 
                       __ZN6google8protobuf11FileOptions14_InternalParseEPKcPNS0_8internal12ParseContextE, 
                       __ZN6google8protobuf11FileOptions16OptimizeMode_MAXE, __ZN6google8protobuf11FileOptions16OptimizeMode_MINE, 
                       __ZN6google8protobuf11FileOptions16default_instanceEv, __ZN6google8protobuf11FileOptions22OptimizeMode_ARRAYSIZEE, 
                       __ZN6google8protobuf11FileOptions5ClearEv, __ZN6google8protobuf11FileOptions5SPEEDE, 
                       __ZN6google8protobuf11FileOptions8CopyFromERKNS0_7MessageE, 
                       __ZN6google8protobuf11FileOptions8CopyFromERKS1_, __ZN6google8protobuf11FileOptions9ArenaDtorEPv, 
                       __ZN6google8protobuf11FileOptions9CODE_SIZEE, __ZN6google8protobuf11FileOptions9MergeFromERKNS0_7MessageE, 
                       __ZN6google8protobuf11FileOptions9MergeFromERKS1_, __ZN6google8protobuf11FileOptionsC1EPNS0_5ArenaE, 
                       __ZN6google8protobuf11FileOptionsC1ERKS1_, __ZN6google8protobuf11FileOptionsC2EPNS0_5ArenaE, 
                       __ZN6google8protobuf11FileOptionsC2ERKS1_, __ZN6google8protobuf11FileOptionsD0Ev, 
                       __ZN6google8protobuf11FileOptionsD1Ev, __ZN6google8protobuf11FileOptionsD2Ev, 
                       __ZN6google8protobuf11JoinStringsERKNSt3__16vectorINS1_12basic_stringIcNS1_11char_traitsIcEENS1_9allocatorIcEEEENS6_IS8_EEEEPKcPS8_, 
                       __ZN6google8protobuf11LogSilencerC1Ev, __ZN6google8protobuf11LogSilencerC2Ev, 
                       __ZN6google8protobuf11LogSilencerD1Ev, __ZN6google8protobuf11LogSilencerD2Ev, 
                       __ZN6google8protobuf11MessageLite13MergeFromImplEPNS0_2io16CodedInputStreamENS1_10ParseFlagsE, 
                       __ZN6google8protobuf11MessageLite14ParseFromArrayEPKvi, __ZN6google8protobuf11MessageLite15MergeFromStringERKNSt3__112basic_stringIcNS2_11char_traitsIcEENS2_9allocatorIcEEEE, 
                       __ZN6google8protobuf11MessageLite15ParseFromStringERKNSt3__112basic_stringIcNS2_11char_traitsIcEENS2_9allocatorIcEEEE, 
                       __ZN6google8protobuf11MessageLite16ParseFromIstreamEPNSt3__113basic_istreamIcNS2_11char_traitsIcEEEE, 
                       __ZN6google8protobuf11MessageLite20MergeFromCodedStreamEPNS0_2io16CodedInputStreamE, 
                       __ZN6google8protobuf11MessageLite20ParseFromCodedStreamEPNS0_2io16CodedInputStreamE, 
                       __ZN6google8protobuf11MessageLite21ParsePartialFromArrayEPKvi, 
                       __ZN6google8protobuf11MessageLite22ParsePartialFromStringERKNSt3__112basic_stringIcNS2_11char_traitsIcEENS2_9allocatorIcEEEE, 
                       __ZN6google8protobuf11MessageLite23ParseFromFileDescriptorEi, 
                       __ZN6google8protobuf11MessageLite23ParseFromZeroCopyStreamEPNS0_2io19ZeroCopyInputStreamE, 
                       __ZN6google8protobuf11MessageLite23ParsePartialFromIstreamEPNSt3__113basic_istreamIcNS2_11char_traitsIcEEEE, 
                       __ZN6google8protobuf11MessageLite27MergePartialFromCodedStreamEPNS0_2io16CodedInputStreamE, 
                       __ZN6google8protobuf11MessageLite27ParsePartialFromCodedStreamEPNS0_2io16CodedInputStreamE, 
                       __ZN6google8protobuf11MessageLite30MergeFromBoundedZeroCopyStreamEPNS0_2io19ZeroCopyInputStreamEi, 
                       __ZN6google8protobuf11MessageLite30ParseFromBoundedZeroCopyStreamEPNS0_2io19ZeroCopyInputStreamEi, 
                       __ZN6google8protobuf11MessageLite30ParsePartialFromFileDescriptorEi, 
                       __ZN6google8protobuf11MessageLite30ParsePartialFromZeroCopyStreamEPNS0_2io19ZeroCopyInputStreamE, 
                       __ZN6google8protobuf11MessageLite37MergePartialFromBoundedZeroCopyStreamEPNS0_2io19ZeroCopyInputStreamEi, 
                       __ZN6google8protobuf11MessageLite37ParsePartialFromBoundedZeroCopyStreamEPNS0_2io19ZeroCopyInputStreamEi, 
                       __ZN6google8protobuf11StringPiece14ConsumeFromEndES1_, __ZN6google8protobuf11StringPiece18LogFatalSizeTooBigEmPKc, 
                       __ZN6google8protobuf11StringPiece4nposE, __ZN6google8protobuf11StringPiece7ConsumeES1_, 
                       __ZN6google8protobuf11StringPieceC1ES1_l, __ZN6google8protobuf11StringPieceC1ES1_ll, 
                       __ZN6google8protobuf11StringPieceC2ES1_l, __ZN6google8protobuf11StringPieceC2ES1_ll, 
                       __ZN6google8protobuf11kuint128maxE, __ZN6google8protobuf11safe_strtobENS0_11StringPieceEPb, 
                       __ZN6google8protobuf11safe_strtodEPKcPd, __ZN6google8protobuf11safe_strtofEPKcPf, 
                       __ZN6google8protobuf12ArenaOptions18kDefaultBlockAllocE, __ZN6google8protobuf12Base64EscapeENS0_11StringPieceEPNSt3__112basic_stringIcNS2_11char_traitsIcEENS2_9allocatorIcEEEE, 
                       __ZN6google8protobuf12Base64EscapeEPKhiPNSt3__112basic_stringIcNS3_11char_traitsIcEENS3_9allocatorIcEEEEb, 
                       __ZN6google8protobuf12Base64EscapeEPKhiPci, __ZN6google8protobuf12FieldOptions10JSType_MAXE, 
                       __ZN6google8protobuf12FieldOptions10JSType_MINE, __ZN6google8protobuf12FieldOptions12InternalSwapEPS1_, 
                       __ZN6google8protobuf12FieldOptions12STRING_PIECEE, __ZN6google8protobuf12FieldOptions14_InternalParseEPKcPNS0_8internal12ParseContextE, 
                       __ZN6google8protobuf12FieldOptions15CType_ARRAYSIZEE, __ZN6google8protobuf12FieldOptions16JSType_ARRAYSIZEE, 
                       __ZN6google8protobuf12FieldOptions16default_instanceEv, __ZN6google8protobuf12FieldOptions4CORDE, 
                       __ZN6google8protobuf12FieldOptions5ClearEv, __ZN6google8protobuf12FieldOptions6STRINGE, 
                       __ZN6google8protobuf12FieldOptions8CopyFromERKNS0_7MessageE, 
                       __ZN6google8protobuf12FieldOptions8CopyFromERKS1_, __ZN6google8protobuf12FieldOptions9ArenaDtorEPv, 
                       __ZN6google8protobuf12FieldOptions9CType_MAXE, __ZN6google8protobuf12FieldOptions9CType_MINE, 
                       __ZN6google8protobuf12FieldOptions9JS_NORMALE, __ZN6google8protobuf12FieldOptions9JS_NUMBERE, 
                       __ZN6google8protobuf12FieldOptions9JS_STRINGE, __ZN6google8protobuf12FieldOptions9MergeFromERKNS0_7MessageE, 
                       __ZN6google8protobuf12FieldOptions9MergeFromERKS1_, __ZN6google8protobuf12FieldOptionsC1EPNS0_5ArenaE, 
                       __ZN6google8protobuf12FieldOptionsC1ERKS1_, __ZN6google8protobuf12FieldOptionsC2EPNS0_5ArenaE, 
                       __ZN6google8protobuf12FieldOptionsC2ERKS1_, __ZN6google8protobuf12FieldOptionsD0Ev, 
                       __ZN6google8protobuf12FieldOptionsD1Ev, __ZN6google8protobuf12FieldOptionsD2Ev, 
                       __ZN6google8protobuf12OneofOptions12InternalSwapEPS1_, __ZN6google8protobuf12OneofOptions14_InternalParseEPKcPNS0_8internal12ParseContextE, 
                       __ZN6google8protobuf12OneofOptions16default_instanceEv, __ZN6google8protobuf12OneofOptions5ClearEv, 
                       __ZN6google8protobuf12OneofOptions8CopyFromERKNS0_7MessageE, 
                       __ZN6google8protobuf12OneofOptions8CopyFromERKS1_, __ZN6google8protobuf12OneofOptions9ArenaDtorEPv, 
                       __ZN6google8protobuf12OneofOptions9MergeFromERKNS0_7MessageE, 
                       __ZN6google8protobuf12OneofOptions9MergeFromERKS1_, __ZN6google8protobuf12OneofOptionsC1EPNS0_5ArenaE, 
                       __ZN6google8protobuf12OneofOptionsC1ERKS1_, __ZN6google8protobuf12OneofOptionsC2EPNS0_5ArenaE, 
                       __ZN6google8protobuf12OneofOptionsC2ERKS1_, __ZN6google8protobuf12OneofOptionsD0Ev, 
                       __ZN6google8protobuf12OneofOptionsD1Ev, __ZN6google8protobuf12OneofOptionsD2Ev, 
                       __ZN6google8protobuf12StringPrintfEPKcz, __ZN6google8protobuf12UnknownField6DeleteEv, 
                       __ZN6google8protobuf12UnknownField8DeepCopyERKS1_, __ZN6google8protobuf12safe_strto32ERKNSt3__112basic_stringIcNS1_11char_traitsIcEENS1_9allocatorIcEEEEPi, 
                       __ZN6google8protobuf12safe_strto64ERKNSt3__112basic_stringIcNS1_11char_traitsIcEENS1_9allocatorIcEEEEPx, 
                       __ZN6google8protobuf13FloatToBufferEfPc, __ZN6google8protobuf13MethodOptions10IDEMPOTENTE, 
                       __ZN6google8protobuf13MethodOptions12InternalSwapEPS1_, __ZN6google8protobuf13MethodOptions14_InternalParseEPKcPNS0_8internal12ParseContextE, 
                       __ZN6google8protobuf13MethodOptions15NO_SIDE_EFFECTSE, __ZN6google8protobuf13MethodOptions16default_instanceEv, 
                       __ZN6google8protobuf13MethodOptions19IDEMPOTENCY_UNKNOWNE, 
                       __ZN6google8protobuf13MethodOptions20IdempotencyLevel_MAXE, 
                       __ZN6google8protobuf13MethodOptions20IdempotencyLevel_MINE, 
                       __ZN6google8protobuf13MethodOptions26IdempotencyLevel_ARRAYSIZEE, 
                       __ZN6google8protobuf13MethodOptions5ClearEv, __ZN6google8protobuf13MethodOptions8CopyFromERKNS0_7MessageE, 
                       __ZN6google8protobuf13MethodOptions8CopyFromERKS1_, __ZN6google8protobuf13MethodOptions9ArenaDtorEPv, 
                       __ZN6google8protobuf13MethodOptions9MergeFromERKNS0_7MessageE, 
                       __ZN6google8protobuf13MethodOptions9MergeFromERKS1_, __ZN6google8protobuf13MethodOptionsC1EPNS0_5ArenaE, 
                       __ZN6google8protobuf13MethodOptionsC1ERKS1_, __ZN6google8protobuf13MethodOptionsC2EPNS0_5ArenaE, 
                       __ZN6google8protobuf13MethodOptionsC2ERKS1_, __ZN6google8protobuf13MethodOptionsD0Ev, 
                       __ZN6google8protobuf13MethodOptionsD1Ev, __ZN6google8protobuf13MethodOptionsD2Ev, 
                       __ZN6google8protobuf13SStringPrintfEPNSt3__112basic_stringIcNS1_11char_traitsIcEENS1_9allocatorIcEEEEPKcz, 
                       __ZN6google8protobuf13SetLogHandlerEPFvNS0_8LogLevelEPKciRKNSt3__112basic_stringIcNS4_11char_traitsIcEENS4_9allocatorIcEEEEE, 
                       __ZN6google8protobuf13StringAppendFEPNSt3__112basic_stringIcNS1_11char_traitsIcEENS1_9allocatorIcEEEEPKcz, 
                       __ZN6google8protobuf13StringReplaceERKNSt3__112basic_stringIcNS1_11char_traitsIcEENS1_9allocatorIcEEEES9_S9_b, 
                       __ZN6google8protobuf13StringReplaceERKNSt3__112basic_stringIcNS1_11char_traitsIcEENS1_9allocatorIcEEEES9_S9_bPS7_, 
                       __ZN6google8protobuf13safe_strtou32ERKNSt3__112basic_stringIcNS1_11char_traitsIcEENS1_9allocatorIcEEEEPj, 
                       __ZN6google8protobuf13safe_strtou64ERKNSt3__112basic_stringIcNS1_11char_traitsIcEENS1_9allocatorIcEEEEPy, 
                       __ZN6google8protobuf14Base64UnescapeENS0_11StringPieceEPNSt3__112basic_stringIcNS2_11char_traitsIcEENS2_9allocatorIcEEEE, 
                       __ZN6google8protobuf14DescriptorPool14ErrorCollectorD0Ev, 
                       __ZN6google8protobuf14DescriptorPool14ErrorCollectorD1Ev, 
                       __ZN6google8protobuf14DescriptorPool14ErrorCollectorD2Ev, 
                       __ZN6google8protobuf14DescriptorPool14generated_poolEv, __ZN6google8protobuf14DescriptorPool23internal_generated_poolEv, 
                       __ZN6google8protobuf14DescriptorPool24AddUnusedImportTrackFileERKNSt3__112basic_stringIcNS2_11char_traitsIcEENS2_9allocatorIcEEEEb, 
                       __ZN6google8protobuf14DescriptorPool24InternalAddGeneratedFileEPKvi, 
                       __ZN6google8protobuf14DescriptorPool25BuildFileCollectingErrorsERKNS0_19FileDescriptorProtoEPNS1_14ErrorCollectorE, 
                       __ZN6google8protobuf14DescriptorPool27ClearUnusedImportTrackFilesEv, 
                       __ZN6google8protobuf14DescriptorPool27internal_generated_databaseEv, 
                       __ZN6google8protobuf14DescriptorPool31InternalDontEnforceDependenciesEv, 
                       __ZN6google8protobuf14DescriptorPool6Tables12AddExtensionEPKNS0_15FieldDescriptorE, 
                       __ZN6google8protobuf14DescriptorPool6Tables13AddCheckpointEv, 
                       __ZN6google8protobuf14DescriptorPool6Tables13AllocateBytesEi, 
                       __ZN6google8protobuf14DescriptorPool6Tables14AllocateStringENS0_11StringPieceE, 
                       __ZN6google8protobuf14DescriptorPool6Tables16FindByNameHelperEPKS1_NS0_11StringPieceE, 
                       __ZN6google8protobuf14DescriptorPool6Tables18AllocateFileTablesEv, 
                       __ZN6google8protobuf14DescriptorPool6Tables19AllocateEmptyStringEv, 
                       __ZN6google8protobuf14DescriptorPool6Tables19AllocateOnceDynamicEv, 
                       __ZN6google8protobuf14DescriptorPool6Tables19ClearLastCheckpointEv, 
                       __ZN6google8protobuf14DescriptorPool6Tables24RollbackToLastCheckpointEv, 
                       __ZN6google8protobuf14DescriptorPool6Tables7AddFileEPKNS0_14FileDescriptorE, 
                       __ZN6google8protobuf14DescriptorPool6Tables9AddSymbolERKNSt3__112basic_stringIcNS3_11char_traitsIcEENS3_9allocatorIcEEEENS0_6SymbolE, 
                       __ZN6google8protobuf14DescriptorPool6TablesC1Ev, __ZN6google8protobuf14DescriptorPool6TablesC2Ev, 
                       __ZN6google8protobuf14DescriptorPool6TablesD1Ev, __ZN6google8protobuf14DescriptorPool6TablesD2Ev, 
                       __ZN6google8protobuf14DescriptorPool9BuildFileERKNS0_19FileDescriptorProtoE, 
                       __ZN6google8protobuf14DescriptorPoolC1EPKS1_, __ZN6google8protobuf14DescriptorPoolC1EPNS0_18DescriptorDatabaseEPNS1_14ErrorCollectorE, 
                       __ZN6google8protobuf14DescriptorPoolC1Ev, __ZN6google8protobuf14DescriptorPoolC2EPKS1_, 
                       __ZN6google8protobuf14DescriptorPoolC2EPNS0_18DescriptorDatabaseEPNS1_14ErrorCollectorE, 
                       __ZN6google8protobuf14DescriptorPoolC2Ev, __ZN6google8protobuf14DescriptorPoolD1Ev, 
                       __ZN6google8protobuf14DescriptorPoolD2Ev, __ZN6google8protobuf14DoubleToBufferEdPc, 
                       __ZN6google8protobuf14DynamicMessage10SharedCtorEb, __ZN6google8protobuf14DynamicMessage19CrossLinkPrototypesEv, 
                       __ZN6google8protobuf14DynamicMessageC1EPKNS1_8TypeInfoE, __ZN6google8protobuf14DynamicMessageC1EPKNS1_8TypeInfoEPNS0_5ArenaE, 
                       __ZN6google8protobuf14DynamicMessageC1EPNS1_8TypeInfoEb, __ZN6google8protobuf14DynamicMessageC2EPKNS1_8TypeInfoE, 
                       __ZN6google8protobuf14DynamicMessageC2EPKNS1_8TypeInfoEPNS0_5ArenaE, 
                       __ZN6google8protobuf14DynamicMessageC2EPNS1_8TypeInfoEb, __ZN6google8protobuf14DynamicMessageD0Ev, 
                       __ZN6google8protobuf14DynamicMessageD1Ev, __ZN6google8protobuf14DynamicMessageD2Ev, 
                       __ZN6google8protobuf14FatalExceptionD0Ev, __ZN6google8protobuf14FatalExceptionD1Ev, 
                       __ZN6google8protobuf14FatalExceptionD2Ev, __ZN6google8protobuf14FileDescriptor10SyntaxNameENS1_6SyntaxE, 
                       __ZN6google8protobuf14FileDescriptor20DependenciesOnceInitEPKS1_, 
                       __ZN6google8protobuf14MessageFactory17generated_factoryEv, 
                       __ZN6google8protobuf14MessageFactory29InternalRegisterGeneratedFileEPKNS0_8internal15DescriptorTableE, 
                       __ZN6google8protobuf14MessageFactory32InternalRegisterGeneratedMessageEPKNS0_10DescriptorEPKNS0_7MessageE, 
                       __ZN6google8protobuf14MessageFactoryD0Ev, __ZN6google8protobuf14MessageFactoryD1Ev, 
                       __ZN6google8protobuf14MessageFactoryD2Ev, __ZN6google8protobuf14MessageOptions12InternalSwapEPS1_, 
                       __ZN6google8protobuf14MessageOptions14_InternalParseEPKcPNS0_8internal12ParseContextE, 
                       __ZN6google8protobuf14MessageOptions16default_instanceEv, 
                       __ZN6google8protobuf14MessageOptions5ClearEv, __ZN6google8protobuf14MessageOptions8CopyFromERKNS0_7MessageE, 
                       __ZN6google8protobuf14MessageOptions8CopyFromERKS1_, __ZN6google8protobuf14MessageOptions9ArenaDtorEPv, 
                       __ZN6google8protobuf14MessageOptions9MergeFromERKNS0_7MessageE, 
                       __ZN6google8protobuf14MessageOptions9MergeFromERKS1_, __ZN6google8protobuf14MessageOptionsC1EPNS0_5ArenaE, 
                       __ZN6google8protobuf14MessageOptionsC1ERKS1_, __ZN6google8protobuf14MessageOptionsC2EPNS0_5ArenaE, 
                       __ZN6google8protobuf14MessageOptionsC2ERKS1_, __ZN6google8protobuf14MessageOptionsD0Ev, 
                       __ZN6google8protobuf14MessageOptionsD1Ev, __ZN6google8protobuf14MessageOptionsD2Ev, 
                       __ZN6google8protobuf14ServiceOptions12InternalSwapEPS1_, __ZN6google8protobuf14ServiceOptions14_InternalParseEPKcPNS0_8internal12ParseContextE, 
                       __ZN6google8protobuf14ServiceOptions16default_instanceEv, 
                       __ZN6google8protobuf14ServiceOptions5ClearEv, __ZN6google8protobuf14ServiceOptions8CopyFromERKNS0_7MessageE, 
                       __ZN6google8protobuf14ServiceOptions8CopyFromERKS1_, __ZN6google8protobuf14ServiceOptions9ArenaDtorEPv, 
                       __ZN6google8protobuf14ServiceOptions9MergeFromERKNS0_7MessageE, 
                       __ZN6google8protobuf14ServiceOptions9MergeFromERKS1_, __ZN6google8protobuf14ServiceOptionsC1EPNS0_5ArenaE, 
                       __ZN6google8protobuf14ServiceOptionsC1ERKS1_, __ZN6google8protobuf14ServiceOptionsC2EPNS0_5ArenaE, 
                       __ZN6google8protobuf14ServiceOptionsC2ERKS1_, __ZN6google8protobuf14ServiceOptionsD0Ev, 
                       __ZN6google8protobuf14ServiceOptionsD1Ev, __ZN6google8protobuf14ServiceOptionsD2Ev, 
                       __ZN6google8protobuf14SourceCodeInfo12InternalSwapEPS1_, __ZN6google8protobuf14SourceCodeInfo14_InternalParseEPKcPNS0_8internal12ParseContextE, 
                       __ZN6google8protobuf14SourceCodeInfo16default_instanceEv, 
                       __ZN6google8protobuf14SourceCodeInfo5ClearEv, __ZN6google8protobuf14SourceCodeInfo8CopyFromERKNS0_7MessageE, 
                       __ZN6google8protobuf14SourceCodeInfo8CopyFromERKS1_, __ZN6google8protobuf14SourceCodeInfo9ArenaDtorEPv, 
                       __ZN6google8protobuf14SourceCodeInfo9MergeFromERKNS0_7MessageE, 
                       __ZN6google8protobuf14SourceCodeInfo9MergeFromERKS1_, __ZN6google8protobuf14SourceCodeInfoC1EPNS0_5ArenaE, 
                       __ZN6google8protobuf14SourceCodeInfoC1ERKS1_, __ZN6google8protobuf14SourceCodeInfoC2EPNS0_5ArenaE, 
                       __ZN6google8protobuf14SourceCodeInfoC2ERKS1_, __ZN6google8protobuf14SourceCodeInfoD0Ev, 
                       __ZN6google8protobuf14SourceCodeInfoD1Ev, __ZN6google8protobuf14SourceCodeInfoD2Ev, 
                       __ZN6google8protobuf15CEscapeInternalEPKciPcibb, __ZN6google8protobuf15CheckFieldIndexEPKNS0_15FieldDescriptorEi, 
                       __ZN6google8protobuf15DelocalizeRadixEPc, __ZN6google8protobuf15DescriptorProto12InternalSwapEPS1_, 
                       __ZN6google8protobuf15DescriptorProto14_InternalParseEPKcPNS0_8internal12ParseContextE, 
                       __ZN6google8protobuf15DescriptorProto16default_instanceEv, 
                       __ZN6google8protobuf15DescriptorProto5ClearEv, __ZN6google8protobuf15DescriptorProto8CopyFromERKNS0_7MessageE, 
                       __ZN6google8protobuf15DescriptorProto8CopyFromERKS1_, __ZN6google8protobuf15DescriptorProto9ArenaDtorEPv, 
                       __ZN6google8protobuf15DescriptorProto9MergeFromERKNS0_7MessageE, 
                       __ZN6google8protobuf15DescriptorProto9MergeFromERKS1_, __ZN6google8protobuf15DescriptorProto9_Internal7optionsEPKS1_, 
                       __ZN6google8protobuf15DescriptorProtoC1EPNS0_5ArenaE, __ZN6google8protobuf15DescriptorProtoC1ERKS1_, 
                       __ZN6google8protobuf15DescriptorProtoC2EPNS0_5ArenaE, __ZN6google8protobuf15DescriptorProtoC2ERKS1_, 
                       __ZN6google8protobuf15DescriptorProtoD0Ev, __ZN6google8protobuf15DescriptorProtoD1Ev, 
                       __ZN6google8protobuf15DescriptorProtoD2Ev, __ZN6google8protobuf15FastHexToBufferEiPc, 
                       __ZN6google8protobuf15FieldDescriptor10kMaxNumberE, __ZN6google8protobuf15FieldDescriptor11kTypeToNameE, 
                       __ZN6google8protobuf15FieldDescriptor12TypeOnceInitEPKS1_, 
                       __ZN6google8protobuf15FieldDescriptor12kLabelToNameE, __ZN6google8protobuf15FieldDescriptor14kCppTypeToNameE, 
                       __ZN6google8protobuf15FieldDescriptor17kTypeToCppTypeMapE, 
                       __ZN6google8protobuf15FieldDescriptor19kLastReservedNumberE, 
                       __ZN6google8protobuf15FieldDescriptor20kFirstReservedNumberE, 
                       __ZN6google8protobuf15StripWhitespaceEPNSt3__112basic_stringIcNS1_11char_traitsIcEENS1_9allocatorIcEEEE, 
                       __ZN6google8protobuf15UnknownFieldSet10AddFixed32Eij, __ZN6google8protobuf15UnknownFieldSet10AddFixed64Eiy, 
                       __ZN6google8protobuf15UnknownFieldSet13ClearFallbackEv, __ZN6google8protobuf15UnknownFieldSet14DeleteByNumberEi, 
                       __ZN6google8protobuf15UnknownFieldSet14DeleteSubrangeEii, 
                       __ZN6google8protobuf15UnknownFieldSet14ParseFromArrayEPKvi, 
                       __ZN6google8protobuf15UnknownFieldSet16default_instanceEv, 
                       __ZN6google8protobuf15UnknownFieldSet17InternalMergeFromERKS1_, 
                       __ZN6google8protobuf15UnknownFieldSet18AddLengthDelimitedEi, 
                       __ZN6google8protobuf15UnknownFieldSet19MergeFromAndDestroyEPS1_, 
                       __ZN6google8protobuf15UnknownFieldSet20MergeFromCodedStreamEPNS0_2io16CodedInputStreamE, 
                       __ZN6google8protobuf15UnknownFieldSet20ParseFromCodedStreamEPNS0_2io16CodedInputStreamE, 
                       __ZN6google8protobuf15UnknownFieldSet23MergeToInternalMetadataERKS1_PNS0_8internal16InternalMetadataE, 
                       __ZN6google8protobuf15UnknownFieldSet23ParseFromZeroCopyStreamEPNS0_2io19ZeroCopyInputStreamE, 
                       __ZN6google8protobuf15UnknownFieldSet8AddFieldERKNS0_12UnknownFieldE, 
                       __ZN6google8protobuf15UnknownFieldSet8AddGroupEi, __ZN6google8protobuf15UnknownFieldSet9AddVarintEiy, 
                       __ZN6google8protobuf15UnknownFieldSet9MergeFromERKS1_, __ZN6google8protobuf15strto32_adaptorEPKcPPci, 
                       __ZN6google8protobuf16CEscapeAndAppendENS0_11StringPieceEPNSt3__112basic_stringIcNS2_11char_traitsIcEENS2_9allocatorIcEEEE, 
                       __ZN6google8protobuf16EncodeAsUTF8CharEjPc, __ZN6google8protobuf16EnumValueOptions12InternalSwapEPS1_, 
                       __ZN6google8protobuf16EnumValueOptions14_InternalParseEPKcPNS0_8internal12ParseContextE, 
                       __ZN6google8protobuf16EnumValueOptions16default_instanceEv, 
                       __ZN6google8protobuf16EnumValueOptions5ClearEv, __ZN6google8protobuf16EnumValueOptions8CopyFromERKNS0_7MessageE, 
                       __ZN6google8protobuf16EnumValueOptions8CopyFromERKS1_, __ZN6google8protobuf16EnumValueOptions9ArenaDtorEPv, 
                       __ZN6google8protobuf16EnumValueOptions9MergeFromERKNS0_7MessageE, 
                       __ZN6google8protobuf16EnumValueOptions9MergeFromERKS1_, __ZN6google8protobuf16EnumValueOptionsC1EPNS0_5ArenaE, 
                       __ZN6google8protobuf16EnumValueOptionsC1ERKS1_, __ZN6google8protobuf16EnumValueOptionsC2EPNS0_5ArenaE, 
                       __ZN6google8protobuf16EnumValueOptionsC2ERKS1_, __ZN6google8protobuf16EnumValueOptionsD0Ev, 
                       __ZN6google8protobuf16EnumValueOptionsD1Ev, __ZN6google8protobuf16EnumValueOptionsD2Ev, 
                       __ZN6google8protobuf16SplitStringUsingENS0_11StringPieceEPKcPNSt3__16vectorINS4_12basic_stringIcNS4_11char_traitsIcEENS4_9allocatorIcEEEENS9_ISB_EEEE, 
                       __ZN6google8protobuf16strtou32_adaptorEPKcPPci, __ZN6google8protobuf17DescriptorBuilder10AddPackageERKNSt3__112basic_stringIcNS2_11char_traitsIcEENS2_9allocatorIcEEEERKNS0_7MessageEPKNS0_14FileDescriptorE, 
                       __ZN6google8protobuf17DescriptorBuilder10AddWarningERKNSt3__112basic_stringIcNS2_11char_traitsIcEENS2_9allocatorIcEEEERKNS0_7MessageENS0_14DescriptorPool14ErrorCollector13ErrorLocationESA_, 
                       __ZN6google8protobuf17DescriptorBuilder10BuildOneofERKNS0_20OneofDescriptorProtoEPNS0_10DescriptorEPNS0_15OneofDescriptorE, 
                       __ZN6google8protobuf17DescriptorBuilder10FindSymbolERKNSt3__112basic_stringIcNS2_11char_traitsIcEENS2_9allocatorIcEEEEb, 
                       __ZN6google8protobuf17DescriptorBuilder11BuildMethodERKNS0_21MethodDescriptorProtoEPKNS0_17ServiceDescriptorEPNS0_16MethodDescriptorE, 
                       __ZN6google8protobuf17DescriptorBuilder11IsInPackageEPKNS0_14FileDescriptorERKNSt3__112basic_stringIcNS5_11char_traitsIcEENS5_9allocatorIcEEEE, 
                       __ZN6google8protobuf17DescriptorBuilder12BuildMessageERKNS0_15DescriptorProtoEPKNS0_10DescriptorEPS5_, 
                       __ZN6google8protobuf17DescriptorBuilder12BuildServiceERKNS0_22ServiceDescriptorProtoEPKvPNS0_17ServiceDescriptorE, 
                       __ZN6google8protobuf17DescriptorBuilder12LookupSymbolERKNSt3__112basic_stringIcNS2_11char_traitsIcEENS2_9allocatorIcEEEESA_NS0_14DescriptorPool15PlaceholderTypeENS1_11ResolveModeEb, 
                       __ZN6google8protobuf17DescriptorBuilder13BuildFileImplERKNS0_19FileDescriptorProtoE, 
                       __ZN6google8protobuf17DescriptorBuilder13CrossLinkEnumEPNS0_14EnumDescriptorERKNS0_19EnumDescriptorProtoE, 
                       __ZN6google8protobuf17DescriptorBuilder13CrossLinkFileEPNS0_14FileDescriptorERKNS0_19FileDescriptorProtoE, 
                       __ZN6google8protobuf17DescriptorBuilder14AddImportErrorERKNS0_19FileDescriptorProtoEi, 
                       __ZN6google8protobuf17DescriptorBuilder14BuildEnumValueERKNS0_24EnumValueDescriptorProtoEPKNS0_14EnumDescriptorEPNS0_19EnumValueDescriptorE, 
                       __ZN6google8protobuf17DescriptorBuilder14CrossLinkFieldEPNS0_15FieldDescriptorERKNS0_20FieldDescriptorProtoE, 
                       __ZN6google8protobuf17DescriptorBuilder14ValidateJSTypeEPNS0_15FieldDescriptorERKNS0_20FieldDescriptorProtoE, 
                       __ZN6google8protobuf17DescriptorBuilder14ValidateProto3EPNS0_14FileDescriptorERKNS0_19FileDescriptorProtoE, 
                       __ZN6google8protobuf17DescriptorBuilder15AllocateOptionsERKNS0_11FileOptionsEPNS0_14FileDescriptorE, 
                       __ZN6google8protobuf17DescriptorBuilder15CrossLinkMethodEPNS0_16MethodDescriptorERKNS0_21MethodDescriptorProtoE, 
                       __ZN6google8protobuf17DescriptorBuilder16CrossLinkMessageEPNS0_10DescriptorERKNS0_15DescriptorProtoE, 
                       __ZN6google8protobuf17DescriptorBuilder16CrossLinkServiceEPNS0_17ServiceDescriptorERKNS0_22ServiceDescriptorProtoE, 
                       __ZN6google8protobuf17DescriptorBuilder16ValidateMapEntryEPNS0_15FieldDescriptorERKNS0_20FieldDescriptorProtoE, 
                       __ZN6google8protobuf17DescriptorBuilder17OptionInterpreter14SetOptionValueEPKNS0_15FieldDescriptorEPNS0_15UnknownFieldSetE, 
                       __ZN6google8protobuf17DescriptorBuilder17OptionInterpreter18SetAggregateOptionEPKNS0_15FieldDescriptorEPNS0_15UnknownFieldSetE, 
                       __ZN6google8protobuf17DescriptorBuilder17OptionInterpreter20ExamineIfOptionIsSetENSt3__111__wrap_iterIPKPKNS0_15FieldDescriptorEEESA_S7_RKNS3_12basic_stringIcNS3_11char_traitsIcEENS3_9allocatorIcEEEERKNS0_15UnknownFieldSetE, 
                       __ZN6google8protobuf17DescriptorBuilder17OptionInterpreter20UpdateSourceCodeInfoEPNS0_14SourceCodeInfoE, 
                       __ZN6google8protobuf17DescriptorBuilder17OptionInterpreter21InterpretSingleOptionEPNS0_7MessageERKNSt3__16vectorIiNS5_9allocatorIiEEEESB_, 
                       __ZN6google8protobuf17DescriptorBuilder17OptionInterpreter22AddWithoutInterpretingERKNS0_19UninterpretedOptionEPNS0_7MessageE, 
                       __ZN6google8protobuf17DescriptorBuilder17OptionInterpreter8SetInt32EiiNS0_15FieldDescriptor4TypeEPNS0_15UnknownFieldSetE, 
                       __ZN6google8protobuf17DescriptorBuilder17OptionInterpreter8SetInt64EixNS0_15FieldDescriptor4TypeEPNS0_15UnknownFieldSetE, 
                       __ZN6google8protobuf17DescriptorBuilder17OptionInterpreter9SetUInt32EijNS0_15FieldDescriptor4TypeEPNS0_15UnknownFieldSetE, 
                       __ZN6google8protobuf17DescriptorBuilder17OptionInterpreter9SetUInt64EiyNS0_15FieldDescriptor4TypeEPNS0_15UnknownFieldSetE, 
                       __ZN6google8protobuf17DescriptorBuilder17OptionInterpreterC1EPS1_, 
                       __ZN6google8protobuf17DescriptorBuilder17OptionInterpreterC2EPS1_, 
                       __ZN6google8protobuf17DescriptorBuilder17OptionInterpreterD1Ev, 
                       __ZN6google8protobuf17DescriptorBuilder17OptionInterpreterD2Ev, 
                       __ZN6google8protobuf17DescriptorBuilder18AddNotDefinedErrorERKNSt3__112basic_stringIcNS2_11char_traitsIcEENS2_9allocatorIcEEEERKNS0_7MessageENS0_14DescriptorPool14ErrorCollector13ErrorLocationESA_, 
                       __ZN6google8protobuf17DescriptorBuilder18AllocateNameStringERKNSt3__112basic_stringIcNS2_11char_traitsIcEENS2_9allocatorIcEEEESA_, 
                       __ZN6google8protobuf17DescriptorBuilder18BuildReservedRangeERKNS0_29DescriptorProto_ReservedRangeEPKNS0_10DescriptorEPNS5_13ReservedRangeE, 
                       __ZN6google8protobuf17DescriptorBuilder18BuildReservedRangeERKNS0_37EnumDescriptorProto_EnumReservedRangeEPKNS0_14EnumDescriptorEPNS5_13ReservedRangeE, 
                       __ZN6google8protobuf17DescriptorBuilder18CrossLinkEnumValueEPNS0_19EnumValueDescriptorERKNS0_24EnumValueDescriptorProtoE, 
                       __ZN6google8protobuf17DescriptorBuilder18DetectMapConflictsEPKNS0_10DescriptorERKNS0_15DescriptorProtoE, 
                       __ZN6google8protobuf17DescriptorBuilder18ValidateProto3EnumEPNS0_14EnumDescriptorERKNS0_19EnumDescriptorProtoE, 
                       __ZN6google8protobuf17DescriptorBuilder18ValidateSymbolNameERKNSt3__112basic_stringIcNS2_11char_traitsIcEENS2_9allocatorIcEEEESA_RKNS0_7MessageE, 
                       __ZN6google8protobuf17DescriptorBuilder19AddTwiceListedErrorERKNS0_19FileDescriptorProtoEi, 
                       __ZN6google8protobuf17DescriptorBuilder19BuildExtensionRangeERKNS0_30DescriptorProto_ExtensionRangeEPKNS0_10DescriptorEPNS5_14ExtensionRangeE, 
                       __ZN6google8protobuf17DescriptorBuilder19LogUnusedDependencyERKNS0_19FileDescriptorProtoEPKNS0_14FileDescriptorE, 
                       __ZN6google8protobuf17DescriptorBuilder19ValidateEnumOptionsEPNS0_14EnumDescriptorERKNS0_19EnumDescriptorProtoE, 
                       __ZN6google8protobuf17DescriptorBuilder19ValidateFileOptionsEPNS0_14FileDescriptorERKNS0_19FileDescriptorProtoE, 
                       __ZN6google8protobuf17DescriptorBuilder19ValidateProto3FieldEPNS0_15FieldDescriptorERKNS0_20FieldDescriptorProtoE, 
                       __ZN6google8protobuf17DescriptorBuilder20ValidateFieldOptionsEPNS0_15FieldDescriptorERKNS0_20FieldDescriptorProtoE, 
                       __ZN6google8protobuf17DescriptorBuilder21BuildFieldOrExtensionERKNS0_20FieldDescriptorProtoEPNS0_10DescriptorEPNS0_15FieldDescriptorEb, 
                       __ZN6google8protobuf17DescriptorBuilder21ValidateMethodOptionsEPNS0_16MethodDescriptorERKNS0_21MethodDescriptorProtoE, 
                       __ZN6google8protobuf17DescriptorBuilder21ValidateProto3MessageEPNS0_10DescriptorERKNS0_15DescriptorProtoE, 
                       __ZN6google8protobuf17DescriptorBuilder22ValidateMessageOptionsEPNS0_10DescriptorERKNS0_15DescriptorProtoE, 
                       __ZN6google8protobuf17DescriptorBuilder22ValidateServiceOptionsEPNS0_17ServiceDescriptorERKNS0_22ServiceDescriptorProtoE, 
                       __ZN6google8protobuf17DescriptorBuilder23AddRecursiveImportErrorERKNS0_19FileDescriptorProtoEi, 
                       __ZN6google8protobuf17DescriptorBuilder23CrossLinkExtensionRangeEPNS0_10Descriptor14ExtensionRangeERKNS0_30DescriptorProto_ExtensionRangeE, 
                       __ZN6google8protobuf17DescriptorBuilder24CheckEnumValueUniquenessERKNS0_19EnumDescriptorProtoEPKNS0_14EnumDescriptorE, 
                       __ZN6google8protobuf17DescriptorBuilder24RecordPublicDependenciesEPKNS0_14FileDescriptorE, 
                       __ZN6google8protobuf17DescriptorBuilder24ValidateEnumValueOptionsEPNS0_19EnumValueDescriptorERKNS0_24EnumValueDescriptorProtoE, 
                       __ZN6google8protobuf17DescriptorBuilder25LookupSymbolNoPlaceholderERKNSt3__112basic_stringIcNS2_11char_traitsIcEENS2_9allocatorIcEEEESA_NS1_11ResolveModeEb, 
                       __ZN6google8protobuf17DescriptorBuilder26FindSymbolNotEnforcingDepsERKNSt3__112basic_stringIcNS2_11char_traitsIcEENS2_9allocatorIcEEEEb, 
                       __ZN6google8protobuf17DescriptorBuilder29ValidateExtensionRangeOptionsERKNSt3__112basic_stringIcNS2_11char_traitsIcEENS2_9allocatorIcEEEEPNS0_10Descriptor14ExtensionRangeERKNS0_30DescriptorProto_ExtensionRangeE, 
                       __ZN6google8protobuf17DescriptorBuilder32FindSymbolNotEnforcingDepsHelperEPKNS0_14DescriptorPoolERKNSt3__112basic_stringIcNS5_11char_traitsIcEENS5_9allocatorIcEEEEb, 
                       __ZN6google8protobuf17DescriptorBuilder8AddErrorERKNSt3__112basic_stringIcNS2_11char_traitsIcEENS2_9allocatorIcEEEERKNS0_7MessageENS0_14DescriptorPool14ErrorCollector13ErrorLocationEPKc, 
                       __ZN6google8protobuf17DescriptorBuilder8AddErrorERKNSt3__112basic_stringIcNS2_11char_traitsIcEENS2_9allocatorIcEEEERKNS0_7MessageENS0_14DescriptorPool14ErrorCollector13ErrorLocationESA_, 
                       __ZN6google8protobuf17DescriptorBuilder9AddSymbolERKNSt3__112basic_stringIcNS2_11char_traitsIcEENS2_9allocatorIcEEEEPKvSA_RKNS0_7MessageENS0_6SymbolE, 
                       __ZN6google8protobuf17DescriptorBuilder9BuildEnumERKNS0_19EnumDescriptorProtoEPKNS0_10DescriptorEPNS0_14EnumDescriptorE, 
                       __ZN6google8protobuf17DescriptorBuilder9BuildFileERKNS0_19FileDescriptorProtoE, 
                       __ZN6google8protobuf17DescriptorBuilderC1EPKNS0_14DescriptorPoolEPNS2_6TablesEPNS2_14ErrorCollectorE, 
                       __ZN6google8protobuf17DescriptorBuilderC2EPKNS0_14DescriptorPoolEPNS2_6TablesEPNS2_14ErrorCollectorE, 
                       __ZN6google8protobuf17DescriptorBuilderD1Ev, __ZN6google8protobuf17DescriptorBuilderD2Ev, 
                       __ZN6google8protobuf17FastHex32ToBufferEjPc, __ZN6google8protobuf17FastHex64ToBufferEyPc, 
                       __ZN6google8protobuf17FastInt32ToBufferEiPc, __ZN6google8protobuf17FastInt64ToBufferExPc, 
                       __ZN6google8protobuf17FileDescriptorSet12InternalSwapEPS1_, 
                       __ZN6google8protobuf17FileDescriptorSet14_InternalParseEPKcPNS0_8internal12ParseContextE, 
                       __ZN6google8protobuf17FileDescriptorSet16default_instanceEv, 
                       __ZN6google8protobuf17FileDescriptorSet5ClearEv, __ZN6google8protobuf17FileDescriptorSet8CopyFromERKNS0_7MessageE, 
                       __ZN6google8protobuf17FileDescriptorSet8CopyFromERKS1_, __ZN6google8protobuf17FileDescriptorSet9ArenaDtorEPv, 
                       __ZN6google8protobuf17FileDescriptorSet9MergeFromERKNS0_7MessageE, 
                       __ZN6google8protobuf17FileDescriptorSet9MergeFromERKS1_, __ZN6google8protobuf17FileDescriptorSetC1EPNS0_5ArenaE, 
                       __ZN6google8protobuf17FileDescriptorSetC1ERKS1_, __ZN6google8protobuf17FileDescriptorSetC2EPNS0_5ArenaE, 
                       __ZN6google8protobuf17FileDescriptorSetC2ERKS1_, __ZN6google8protobuf17FileDescriptorSetD0Ev, 
                       __ZN6google8protobuf17FileDescriptorSetD1Ev, __ZN6google8protobuf17FileDescriptorSetD2Ev, 
                       __ZN6google8protobuf17GeneratedCodeInfo12InternalSwapEPS1_, 
                       __ZN6google8protobuf17GeneratedCodeInfo14_InternalParseEPKcPNS0_8internal12ParseContextE, 
                       __ZN6google8protobuf17GeneratedCodeInfo16default_instanceEv, 
                       __ZN6google8protobuf17GeneratedCodeInfo5ClearEv, __ZN6google8protobuf17GeneratedCodeInfo8CopyFromERKNS0_7MessageE, 
                       __ZN6google8protobuf17GeneratedCodeInfo8CopyFromERKS1_, __ZN6google8protobuf17GeneratedCodeInfo9ArenaDtorEPv, 
                       __ZN6google8protobuf17GeneratedCodeInfo9MergeFromERKNS0_7MessageE, 
                       __ZN6google8protobuf17GeneratedCodeInfo9MergeFromERKS1_, __ZN6google8protobuf17GeneratedCodeInfoC1EPNS0_5ArenaE, 
                       __ZN6google8protobuf17GeneratedCodeInfoC1ERKS1_, __ZN6google8protobuf17GeneratedCodeInfoC2EPNS0_5ArenaE, 
                       __ZN6google8protobuf17GeneratedCodeInfoC2ERKS1_, __ZN6google8protobuf17GeneratedCodeInfoD0Ev, 
                       __ZN6google8protobuf17GeneratedCodeInfoD1Ev, __ZN6google8protobuf17GeneratedCodeInfoD2Ev, 
                       __ZN6google8protobuf17ReplaceCharactersEPNSt3__112basic_stringIcNS1_11char_traitsIcEENS1_9allocatorIcEEEEPKcc, 
                       __ZN6google8protobuf18DescriptorDatabase19FindAllMessageNamesEPNSt3__16vectorINS2_12basic_stringIcNS2_11char_traitsIcEENS2_9allocatorIcEEEENS7_IS9_EEEE, 
                       __ZN6google8protobuf18DescriptorDatabase19FindAllPackageNamesEPNSt3__16vectorINS2_12basic_stringIcNS2_11char_traitsIcEENS2_9allocatorIcEEEENS7_IS9_EEEE, 
                       __ZN6google8protobuf18DescriptorDatabaseD0Ev, __ZN6google8protobuf18DescriptorDatabaseD1Ev, 
                       __ZN6google8protobuf18DescriptorDatabaseD2Ev, __ZN6google8protobuf18StringPrintfVectorEPKcRKNSt3__16vectorINS3_12basic_stringIcNS3_11char_traitsIcEENS3_9allocatorIcEEEENS8_ISA_EEEE, 
                       __ZN6google8protobuf19EnumDescriptorProto12InternalSwapEPS1_, 
                       __ZN6google8protobuf19EnumDescriptorProto14_InternalParseEPKcPNS0_8internal12ParseContextE, 
                       __ZN6google8protobuf19EnumDescriptorProto16default_instanceEv, 
                       __ZN6google8protobuf19EnumDescriptorProto5ClearEv, __ZN6google8protobuf19EnumDescriptorProto8CopyFromERKNS0_7MessageE, 
                       __ZN6google8protobuf19EnumDescriptorProto8CopyFromERKS1_, 
                       __ZN6google8protobuf19EnumDescriptorProto9ArenaDtorEPv, __ZN6google8protobuf19EnumDescriptorProto9MergeFromERKNS0_7MessageE, 
                       __ZN6google8protobuf19EnumDescriptorProto9MergeFromERKS1_, 
                       __ZN6google8protobuf19EnumDescriptorProto9_Internal7optionsEPKS1_, 
                       __ZN6google8protobuf19EnumDescriptorProtoC1EPNS0_5ArenaE, 
                       __ZN6google8protobuf19EnumDescriptorProtoC1ERKS1_, __ZN6google8protobuf19EnumDescriptorProtoC2EPNS0_5ArenaE, 
                       __ZN6google8protobuf19EnumDescriptorProtoC2ERKS1_, __ZN6google8protobuf19EnumDescriptorProtoD0Ev, 
                       __ZN6google8protobuf19EnumDescriptorProtoD1Ev, __ZN6google8protobuf19EnumDescriptorProtoD2Ev, 
                       __ZN6google8protobuf19FileDescriptorProto12InternalSwapEPS1_, 
                       __ZN6google8protobuf19FileDescriptorProto14_InternalParseEPKcPNS0_8internal12ParseContextE, 
                       __ZN6google8protobuf19FileDescriptorProto16default_instanceEv, 
                       __ZN6google8protobuf19FileDescriptorProto5ClearEv, __ZN6google8protobuf19FileDescriptorProto8CopyFromERKNS0_7MessageE, 
                       __ZN6google8protobuf19FileDescriptorProto8CopyFromERKS1_, 
                       __ZN6google8protobuf19FileDescriptorProto9ArenaDtorEPv, __ZN6google8protobuf19FileDescriptorProto9MergeFromERKNS0_7MessageE, 
                       __ZN6google8protobuf19FileDescriptorProto9MergeFromERKS1_, 
                       __ZN6google8protobuf19FileDescriptorProto9_Internal16source_code_infoEPKS1_, 
                       __ZN6google8protobuf19FileDescriptorProto9_Internal7optionsEPKS1_, 
                       __ZN6google8protobuf19FileDescriptorProtoC1EPNS0_5ArenaE, 
                       __ZN6google8protobuf19FileDescriptorProtoC1ERKS1_, __ZN6google8protobuf19FileDescriptorProtoC2EPNS0_5ArenaE, 
                       __ZN6google8protobuf19FileDescriptorProtoC2ERKS1_, __ZN6google8protobuf19FileDescriptorProtoD0Ev, 
                       __ZN6google8protobuf19FileDescriptorProtoD1Ev, __ZN6google8protobuf19FileDescriptorProtoD2Ev, 
                       __ZN6google8protobuf19UninterpretedOption12InternalSwapEPS1_, 
                       __ZN6google8protobuf19UninterpretedOption14_InternalParseEPKcPNS0_8internal12ParseContextE, 
                       __ZN6google8protobuf19UninterpretedOption16default_instanceEv, 
                       __ZN6google8protobuf19UninterpretedOption5ClearEv, __ZN6google8protobuf19UninterpretedOption8CopyFromERKNS0_7MessageE, 
                       __ZN6google8protobuf19UninterpretedOption8CopyFromERKS1_, 
                       __ZN6google8protobuf19UninterpretedOption9ArenaDtorEPv, __ZN6google8protobuf19UninterpretedOption9MergeFromERKNS0_7MessageE, 
                       __ZN6google8protobuf19UninterpretedOption9MergeFromERKS1_, 
                       __ZN6google8protobuf19UninterpretedOptionC1EPNS0_5ArenaE, 
                       __ZN6google8protobuf19UninterpretedOptionC1ERKS1_, __ZN6google8protobuf19UninterpretedOptionC2EPNS0_5ArenaE, 
                       __ZN6google8protobuf19UninterpretedOptionC2ERKS1_, __ZN6google8protobuf19UninterpretedOptionD0Ev, 
                       __ZN6google8protobuf19UninterpretedOptionD1Ev, __ZN6google8protobuf19UninterpretedOptionD2Ev, 
                       __ZN6google8protobuf19WebSafeBase64EscapeENS0_11StringPieceEPNSt3__112basic_stringIcNS2_11char_traitsIcEENS2_9allocatorIcEEEE, 
                       __ZN6google8protobuf19WebSafeBase64EscapeEPKhiPNSt3__112basic_stringIcNS3_11char_traitsIcEENS3_9allocatorIcEEEEb, 
                       __ZN6google8protobuf19WebSafeBase64EscapeEPKhiPcib, __ZN6google8protobuf20Base64EscapeInternalEPKhiPNSt3__112basic_stringIcNS3_11char_traitsIcEENS3_9allocatorIcEEEEbPKc, 
                       __ZN6google8protobuf20Base64EscapeInternalEPKhiPciPKcb, __ZN6google8protobuf20FieldDescriptorProto10TYPE_BYTESE, 
                       __ZN6google8protobuf20FieldDescriptorProto10TYPE_FLOATE, __ZN6google8protobuf20FieldDescriptorProto10TYPE_GROUPE, 
                       __ZN6google8protobuf20FieldDescriptorProto10TYPE_INT32E, __ZN6google8protobuf20FieldDescriptorProto10TYPE_INT64E, 
                       __ZN6google8protobuf20FieldDescriptorProto11TYPE_DOUBLEE, 
                       __ZN6google8protobuf20FieldDescriptorProto11TYPE_SINT32E, 
                       __ZN6google8protobuf20FieldDescriptorProto11TYPE_SINT64E, 
                       __ZN6google8protobuf20FieldDescriptorProto11TYPE_STRINGE, 
                       __ZN6google8protobuf20FieldDescriptorProto11TYPE_UINT32E, 
                       __ZN6google8protobuf20FieldDescriptorProto11TYPE_UINT64E, 
                       __ZN6google8protobuf20FieldDescriptorProto12InternalSwapEPS1_, 
                       __ZN6google8protobuf20FieldDescriptorProto12TYPE_FIXED32E, 
                       __ZN6google8protobuf20FieldDescriptorProto12TYPE_FIXED64E, 
                       __ZN6google8protobuf20FieldDescriptorProto12TYPE_MESSAGEE, 
                       __ZN6google8protobuf20FieldDescriptorProto13TYPE_SFIXED32E, 
                       __ZN6google8protobuf20FieldDescriptorProto13TYPE_SFIXED64E, 
                       __ZN6google8protobuf20FieldDescriptorProto14LABEL_OPTIONALE, 
                       __ZN6google8protobuf20FieldDescriptorProto14LABEL_REPEATEDE, 
                       __ZN6google8protobuf20FieldDescriptorProto14LABEL_REQUIREDE, 
                       __ZN6google8protobuf20FieldDescriptorProto14Type_ARRAYSIZEE, 
                       __ZN6google8protobuf20FieldDescriptorProto14_InternalParseEPKcPNS0_8internal12ParseContextE, 
                       __ZN6google8protobuf20FieldDescriptorProto15Label_ARRAYSIZEE, 
                       __ZN6google8protobuf20FieldDescriptorProto16default_instanceEv, 
                       __ZN6google8protobuf20FieldDescriptorProto5ClearEv, __ZN6google8protobuf20FieldDescriptorProto8CopyFromERKNS0_7MessageE, 
                       __ZN6google8protobuf20FieldDescriptorProto8CopyFromERKS1_, 
                       __ZN6google8protobuf20FieldDescriptorProto8Type_MAXE, __ZN6google8protobuf20FieldDescriptorProto8Type_MINE, 
                       __ZN6google8protobuf20FieldDescriptorProto9ArenaDtorEPv, __ZN6google8protobuf20FieldDescriptorProto9Label_MAXE, 
                       __ZN6google8protobuf20FieldDescriptorProto9Label_MINE, __ZN6google8protobuf20FieldDescriptorProto9MergeFromERKNS0_7MessageE, 
                       __ZN6google8protobuf20FieldDescriptorProto9MergeFromERKS1_, 
                       __ZN6google8protobuf20FieldDescriptorProto9TYPE_BOOLE, __ZN6google8protobuf20FieldDescriptorProto9TYPE_ENUME, 
                       __ZN6google8protobuf20FieldDescriptorProto9_Internal7optionsEPKS1_, 
                       __ZN6google8protobuf20FieldDescriptorProtoC1EPNS0_5ArenaE, 
                       __ZN6google8protobuf20FieldDescriptorProtoC1ERKS1_, __ZN6google8protobuf20FieldDescriptorProtoC2EPNS0_5ArenaE, 
                       __ZN6google8protobuf20FieldDescriptorProtoC2ERKS1_, __ZN6google8protobuf20FieldDescriptorProtoD0Ev, 
                       __ZN6google8protobuf20FieldDescriptorProtoD1Ev, __ZN6google8protobuf20FieldDescriptorProtoD2Ev, 
                       __ZN6google8protobuf20FileDescriptorTables14FinalizeTablesEv, 
                       __ZN6google8protobuf20FileDescriptorTables16AddFieldByNumberEPKNS0_15FieldDescriptorE, 
                       __ZN6google8protobuf20FileDescriptorTables19AddAliasUnderParentEPKvRKNSt3__112basic_stringIcNS4_11char_traitsIcEENS4_9allocatorIcEEEENS0_6SymbolE, 
                       __ZN6google8protobuf20FileDescriptorTables20AddEnumValueByNumberEPKNS0_19EnumValueDescriptorE, 
                       __ZN6google8protobuf20FileDescriptorTables20BuildLocationsByPathEPNSt3__14pairIPKS1_PKNS0_14SourceCodeInfoEEE, 
                       __ZN6google8protobuf20FileDescriptorTables23AddFieldByStylizedNamesEPKNS0_15FieldDescriptorE, 
                       __ZN6google8protobuf20FileDescriptorTables36FieldsByCamelcaseNamesLazyInitStaticEPKS1_, 
                       __ZN6google8protobuf20FileDescriptorTables36FieldsByLowercaseNamesLazyInitStaticEPKS1_, 
                       __ZN6google8protobuf20FileDescriptorTablesC1Ev, __ZN6google8protobuf20FileDescriptorTablesC2Ev, 
                       __ZN6google8protobuf20FileDescriptorTablesD1Ev, __ZN6google8protobuf20FileDescriptorTablesD2Ev, 
                       __ZN6google8protobuf20OneofDescriptorProto12InternalSwapEPS1_, 
                       __ZN6google8protobuf20OneofDescriptorProto14_InternalParseEPKcPNS0_8internal12ParseContextE, 
                       __ZN6google8protobuf20OneofDescriptorProto16default_instanceEv, 
                       __ZN6google8protobuf20OneofDescriptorProto5ClearEv, __ZN6google8protobuf20OneofDescriptorProto8CopyFromERKNS0_7MessageE, 
                       __ZN6google8protobuf20OneofDescriptorProto8CopyFromERKS1_, 
                       __ZN6google8protobuf20OneofDescriptorProto9ArenaDtorEPv, __ZN6google8protobuf20OneofDescriptorProto9MergeFromERKNS0_7MessageE, 
                       __ZN6google8protobuf20OneofDescriptorProto9MergeFromERKS1_, 
                       __ZN6google8protobuf20OneofDescriptorProto9_Internal7optionsEPKS1_, 
                       __ZN6google8protobuf20OneofDescriptorProtoC1EPNS0_5ArenaE, 
                       __ZN6google8protobuf20OneofDescriptorProtoC1ERKS1_, __ZN6google8protobuf20OneofDescriptorProtoC2EPNS0_5ArenaE, 
                       __ZN6google8protobuf20OneofDescriptorProtoC2ERKS1_, __ZN6google8protobuf20OneofDescriptorProtoD0Ev, 
                       __ZN6google8protobuf20OneofDescriptorProtoD1Ev, __ZN6google8protobuf20OneofDescriptorProtoD2Ev, 
                       __ZN6google8protobuf21DynamicMessageFactory12GetPrototypeEPKNS0_10DescriptorE, 
                       __ZN6google8protobuf21DynamicMessageFactory18GetPrototypeNoLockEPKNS0_10DescriptorE, 
                       __ZN6google8protobuf21DynamicMessageFactory26DeleteDefaultOneofInstanceEPKNS0_10DescriptorEPKjPKv, 
                       __ZN6google8protobuf21DynamicMessageFactory29ConstructDefaultOneofInstanceEPKNS0_10DescriptorEPKjPv, 
                       __ZN6google8protobuf21DynamicMessageFactoryC1EPKNS0_14DescriptorPoolE, 
                       __ZN6google8protobuf21DynamicMessageFactoryC1Ev, __ZN6google8protobuf21DynamicMessageFactoryC2EPKNS0_14DescriptorPoolE, 
                       __ZN6google8protobuf21DynamicMessageFactoryC2Ev, __ZN6google8protobuf21DynamicMessageFactoryD0Ev, 
                       __ZN6google8protobuf21DynamicMessageFactoryD1Ev, __ZN6google8protobuf21DynamicMessageFactoryD2Ev, 
                       __ZN6google8protobuf21ExtensionRangeOptions12InternalSwapEPS1_, 
                       __ZN6google8protobuf21ExtensionRangeOptions14_InternalParseEPKcPNS0_8internal12ParseContextE, 
                       __ZN6google8protobuf21ExtensionRangeOptions16default_instanceEv, 
                       __ZN6google8protobuf21ExtensionRangeOptions5ClearEv, __ZN6google8protobuf21ExtensionRangeOptions8CopyFromERKNS0_7MessageE, 
                       __ZN6google8protobuf21ExtensionRangeOptions8CopyFromERKS1_, 
                       __ZN6google8protobuf21ExtensionRangeOptions9ArenaDtorEPv, 
                       __ZN6google8protobuf21ExtensionRangeOptions9MergeFromERKNS0_7MessageE, 
                       __ZN6google8protobuf21ExtensionRangeOptions9MergeFromERKS1_, 
                       __ZN6google8protobuf21ExtensionRangeOptionsC1EPNS0_5ArenaE, 
                       __ZN6google8protobuf21ExtensionRangeOptionsC1ERKS1_, __ZN6google8protobuf21ExtensionRangeOptionsC2EPNS0_5ArenaE, 
                       __ZN6google8protobuf21ExtensionRangeOptionsC2ERKS1_, __ZN6google8protobuf21ExtensionRangeOptionsD0Ev, 
                       __ZN6google8protobuf21ExtensionRangeOptionsD1Ev, __ZN6google8protobuf21ExtensionRangeOptionsD2Ev, 
                       __ZN6google8protobuf21FastInt32ToBufferLeftEiPc, __ZN6google8protobuf21FastInt64ToBufferLeftExPc, 
                       __ZN6google8protobuf21MethodDescriptorProto12InternalSwapEPS1_, 
                       __ZN6google8protobuf21MethodDescriptorProto14_InternalParseEPKcPNS0_8internal12ParseContextE, 
                       __ZN6google8protobuf21MethodDescriptorProto16default_instanceEv, 
                       __ZN6google8protobuf21MethodDescriptorProto5ClearEv, __ZN6google8protobuf21MethodDescriptorProto8CopyFromERKNS0_7MessageE, 
                       __ZN6google8protobuf21MethodDescriptorProto8CopyFromERKS1_, 
                       __ZN6google8protobuf21MethodDescriptorProto9ArenaDtorEPv, 
                       __ZN6google8protobuf21MethodDescriptorProto9MergeFromERKNS0_7MessageE, 
                       __ZN6google8protobuf21MethodDescriptorProto9MergeFromERKS1_, 
                       __ZN6google8protobuf21MethodDescriptorProto9_Internal7optionsEPKS1_, 
                       __ZN6google8protobuf21MethodDescriptorProtoC1EPNS0_5ArenaE, 
                       __ZN6google8protobuf21MethodDescriptorProtoC1ERKS1_, __ZN6google8protobuf21MethodDescriptorProtoC2EPNS0_5ArenaE, 
                       __ZN6google8protobuf21MethodDescriptorProtoC2ERKS1_, __ZN6google8protobuf21MethodDescriptorProtoD0Ev, 
                       __ZN6google8protobuf21MethodDescriptorProtoD1Ev, __ZN6google8protobuf21MethodDescriptorProtoD2Ev, 
                       __ZN6google8protobuf21SplitStringAllowEmptyENS0_11StringPieceEPKcPNSt3__16vectorINS4_12basic_stringIcNS4_11char_traitsIcEENS4_9allocatorIcEEEENS9_ISB_EEEE, 
                       __ZN6google8protobuf21UnescapeCEscapeStringERKNSt3__112basic_stringIcNS1_11char_traitsIcEENS1_9allocatorIcEEEE, 
                       __ZN6google8protobuf21UnescapeCEscapeStringERKNSt3__112basic_stringIcNS1_11char_traitsIcEENS1_9allocatorIcEEEEPS7_, 
                       __ZN6google8protobuf21UnescapeCEscapeStringERKNSt3__112basic_stringIcNS1_11char_traitsIcEENS1_9allocatorIcEEEEPS7_PNS1_6vectorIS7_NS5_IS7_EEEE, 
                       __ZN6google8protobuf21WebSafeBase64UnescapeENS0_11StringPieceEPNSt3__112basic_stringIcNS2_11char_traitsIcEENS2_9allocatorIcEEEE, 
                       __ZN6google8protobuf21WebSafeBase64UnescapeEPKciPci, __ZN6google8protobuf22Base64UnescapeInternalEPKciPciPKa, 
                       __ZN6google8protobuf22CleanStringLineEndingsEPNSt3__112basic_stringIcNS1_11char_traitsIcEENS1_9allocatorIcEEEEb, 
                       __ZN6google8protobuf22CleanStringLineEndingsERKNSt3__112basic_stringIcNS1_11char_traitsIcEENS1_9allocatorIcEEEEPS7_b, 
                       __ZN6google8protobuf22DescriptorPoolDatabase14FindFileByNameERKNSt3__112basic_stringIcNS2_11char_traitsIcEENS2_9allocatorIcEEEEPNS0_19FileDescriptorProtoE, 
                       __ZN6google8protobuf22DescriptorPoolDatabase23FindAllExtensionNumbersERKNSt3__112basic_stringIcNS2_11char_traitsIcEENS2_9allocatorIcEEEEPNS2_6vectorIiNS6_IiEEEE, 
                       __ZN6google8protobuf22DescriptorPoolDatabase24FindFileContainingSymbolERKNSt3__112basic_stringIcNS2_11char_traitsIcEENS2_9allocatorIcEEEEPNS0_19FileDescriptorProtoE, 
                       __ZN6google8protobuf22DescriptorPoolDatabase27FindFileContainingExtensionERKNSt3__112basic_stringIcNS2_11char_traitsIcEENS2_9allocatorIcEEEEiPNS0_19FileDescriptorProtoE, 
                       __ZN6google8protobuf22DescriptorPoolDatabaseC1ERKNS0_14DescriptorPoolE, 
                       __ZN6google8protobuf22DescriptorPoolDatabaseC2ERKNS0_14DescriptorPoolE, 
                       __ZN6google8protobuf22DescriptorPoolDatabaseD0Ev, __ZN6google8protobuf22DescriptorPoolDatabaseD1Ev, 
                       __ZN6google8protobuf22DescriptorPoolDatabaseD2Ev, __ZN6google8protobuf22FastUInt32ToBufferLeftEjPc, 
                       __ZN6google8protobuf22FastUInt64ToBufferLeftEyPc, __ZN6google8protobuf22GlobalReplaceSubstringERKNSt3__112basic_stringIcNS1_11char_traitsIcEENS1_9allocatorIcEEEES9_PS7_, 
                       __ZN6google8protobuf22ServiceDescriptorProto12InternalSwapEPS1_, 
                       __ZN6google8protobuf22ServiceDescriptorProto14_InternalParseEPKcPNS0_8internal12ParseContextE, 
                       __ZN6google8protobuf22ServiceDescriptorProto16default_instanceEv, 
                       __ZN6google8protobuf22ServiceDescriptorProto5ClearEv, __ZN6google8protobuf22ServiceDescriptorProto8CopyFromERKNS0_7MessageE, 
                       __ZN6google8protobuf22ServiceDescriptorProto8CopyFromERKS1_, 
                       __ZN6google8protobuf22ServiceDescriptorProto9ArenaDtorEPv, 
                       __ZN6google8protobuf22ServiceDescriptorProto9MergeFromERKNS0_7MessageE, 
                       __ZN6google8protobuf22ServiceDescriptorProto9MergeFromERKS1_, 
                       __ZN6google8protobuf22ServiceDescriptorProto9_Internal7optionsEPKS1_, 
                       __ZN6google8protobuf22ServiceDescriptorProtoC1EPNS0_5ArenaE, 
                       __ZN6google8protobuf22ServiceDescriptorProtoC1ERKS1_, __ZN6google8protobuf22ServiceDescriptorProtoC2EPNS0_5ArenaE, 
                       __ZN6google8protobuf22ServiceDescriptorProtoC2ERKS1_, __ZN6google8protobuf22ServiceDescriptorProtoD0Ev, 
                       __ZN6google8protobuf22ServiceDescriptorProtoD1Ev, __ZN6google8protobuf22ServiceDescriptorProtoD2Ev, 
                       __ZN6google8protobuf23InternalFastHexToBufferEyPci, __ZN6google8protobuf23ShutdownProtobufLibraryEv, 
                       __ZN6google8protobuf23SourceCodeInfo_Location12InternalSwapEPS1_, 
                       __ZN6google8protobuf23SourceCodeInfo_Location14_InternalParseEPKcPNS0_8internal12ParseContextE, 
                       __ZN6google8protobuf23SourceCodeInfo_Location16default_instanceEv, 
                       __ZN6google8protobuf23SourceCodeInfo_Location5ClearEv, __ZN6google8protobuf23SourceCodeInfo_Location8CopyFromERKNS0_7MessageE, 
                       __ZN6google8protobuf23SourceCodeInfo_Location8CopyFromERKS1_, 
                       __ZN6google8protobuf23SourceCodeInfo_Location9ArenaDtorEPv, 
                       __ZN6google8protobuf23SourceCodeInfo_Location9MergeFromERKNS0_7MessageE, 
                       __ZN6google8protobuf23SourceCodeInfo_Location9MergeFromERKS1_, 
                       __ZN6google8protobuf23SourceCodeInfo_LocationC1EPNS0_5ArenaE, 
                       __ZN6google8protobuf23SourceCodeInfo_LocationC1ERKS1_, __ZN6google8protobuf23SourceCodeInfo_LocationC2EPNS0_5ArenaE, 
                       __ZN6google8protobuf23SourceCodeInfo_LocationC2ERKS1_, __ZN6google8protobuf23SourceCodeInfo_LocationD0Ev, 
                       __ZN6google8protobuf23SourceCodeInfo_LocationD1Ev, __ZN6google8protobuf23SourceCodeInfo_LocationD2Ev, 
                       __ZN6google8protobuf23UTF8FirstLetterNumBytesEPKci, __ZN6google8protobuf24EnumValueDescriptorProto12InternalSwapEPS1_, 
                       __ZN6google8protobuf24EnumValueDescriptorProto14_InternalParseEPKcPNS0_8internal12ParseContextE, 
                       __ZN6google8protobuf24EnumValueDescriptorProto16default_instanceEv, 
                       __ZN6google8protobuf24EnumValueDescriptorProto5ClearEv, __ZN6google8protobuf24EnumValueDescriptorProto8CopyFromERKNS0_7MessageE, 
                       __ZN6google8protobuf24EnumValueDescriptorProto8CopyFromERKS1_, 
                       __ZN6google8protobuf24EnumValueDescriptorProto9ArenaDtorEPv, 
                       __ZN6google8protobuf24EnumValueDescriptorProto9MergeFromERKNS0_7MessageE, 
                       __ZN6google8protobuf24EnumValueDescriptorProto9MergeFromERKS1_, 
                       __ZN6google8protobuf24EnumValueDescriptorProto9_Internal7optionsEPKS1_, 
                       __ZN6google8protobuf24EnumValueDescriptorProtoC1EPNS0_5ArenaE, 
                       __ZN6google8protobuf24EnumValueDescriptorProtoC1ERKS1_, __ZN6google8protobuf24EnumValueDescriptorProtoC2EPNS0_5ArenaE, 
                       __ZN6google8protobuf24EnumValueDescriptorProtoC2ERKS1_, __ZN6google8protobuf24EnumValueDescriptorProtoD0Ev, 
                       __ZN6google8protobuf24EnumValueDescriptorProtoD1Ev, __ZN6google8protobuf24EnumValueDescriptorProtoD2Ev, 
                       __ZN6google8protobuf24MergedDescriptorDatabase14FindFileByNameERKNSt3__112basic_stringIcNS2_11char_traitsIcEENS2_9allocatorIcEEEEPNS0_19FileDescriptorProtoE, 
                       __ZN6google8protobuf24MergedDescriptorDatabase23FindAllExtensionNumbersERKNSt3__112basic_stringIcNS2_11char_traitsIcEENS2_9allocatorIcEEEEPNS2_6vectorIiNS6_IiEEEE, 
                       __ZN6google8protobuf24MergedDescriptorDatabase24FindFileContainingSymbolERKNSt3__112basic_stringIcNS2_11char_traitsIcEENS2_9allocatorIcEEEEPNS0_19FileDescriptorProtoE, 
                       __ZN6google8protobuf24MergedDescriptorDatabase27FindFileContainingExtensionERKNSt3__112basic_stringIcNS2_11char_traitsIcEENS2_9allocatorIcEEEEiPNS0_19FileDescriptorProtoE, 
                       __ZN6google8protobuf24MergedDescriptorDatabaseC1EPNS0_18DescriptorDatabaseES3_, 
                       __ZN6google8protobuf24MergedDescriptorDatabaseC1ERKNSt3__16vectorIPNS0_18DescriptorDatabaseENS2_9allocatorIS5_EEEE, 
                       __ZN6google8protobuf24MergedDescriptorDatabaseC2EPNS0_18DescriptorDatabaseES3_, 
                       __ZN6google8protobuf24MergedDescriptorDatabaseC2ERKNSt3__16vectorIPNS0_18DescriptorDatabaseENS2_9allocatorIS5_EEEE, 
                       __ZN6google8protobuf24MergedDescriptorDatabaseD0Ev, __ZN6google8protobuf24MergedDescriptorDatabaseD1Ev, 
                       __ZN6google8protobuf24MergedDescriptorDatabaseD2Ev, __ZN6google8protobuf24SimpleDescriptorDatabase14FindFileByNameERKNSt3__112basic_stringIcNS2_11char_traitsIcEENS2_9allocatorIcEEEEPNS0_19FileDescriptorProtoE, 
                       __ZN6google8protobuf24SimpleDescriptorDatabase16FindAllFileNamesEPNSt3__16vectorINS2_12basic_stringIcNS2_11char_traitsIcEENS2_9allocatorIcEEEENS7_IS9_EEEE, 
                       __ZN6google8protobuf24SimpleDescriptorDatabase23FindAllExtensionNumbersERKNSt3__112basic_stringIcNS2_11char_traitsIcEENS2_9allocatorIcEEEEPNS2_6vectorIiNS6_IiEEEE, 
                       __ZN6google8protobuf24SimpleDescriptorDatabase24FindFileContainingSymbolERKNSt3__112basic_stringIcNS2_11char_traitsIcEENS2_9allocatorIcEEEEPNS0_19FileDescriptorProtoE, 
                       __ZN6google8protobuf24SimpleDescriptorDatabase27FindFileContainingExtensionERKNSt3__112basic_stringIcNS2_11char_traitsIcEENS2_9allocatorIcEEEEiPNS0_19FileDescriptorProtoE, 
                       __ZN6google8protobuf24SimpleDescriptorDatabase3AddERKNS0_19FileDescriptorProtoE, 
                       __ZN6google8protobuf24SimpleDescriptorDatabase9AddAndOwnEPKNS0_19FileDescriptorProtoE, 
                       __ZN6google8protobuf24SimpleDescriptorDatabase9MaybeCopyEPKNS0_19FileDescriptorProtoEPS2_, 
                       __ZN6google8protobuf24SimpleDescriptorDatabaseC1Ev, __ZN6google8protobuf24SimpleDescriptorDatabaseC2Ev, 
                       __ZN6google8protobuf24SimpleDescriptorDatabaseD0Ev, __ZN6google8protobuf24SimpleDescriptorDatabaseD1Ev, 
                       __ZN6google8protobuf24SimpleDescriptorDatabaseD2Ev, __ZN6google8protobuf24UnescapeCEscapeSequencesEPKcPc, 
                       __ZN6google8protobuf24UnescapeCEscapeSequencesEPKcPcPNSt3__16vectorINS4_12basic_stringIcNS4_11char_traitsIcEENS4_9allocatorIcEEEENS9_ISB_EEEE, 
                       __ZN6google8protobuf25CalculateBase64EscapedLenEi, __ZN6google8protobuf25CalculateBase64EscapedLenEib, 
                       __ZN6google8protobuf25EncodedDescriptorDatabase10MaybeParseENSt3__14pairIPKviEEPNS0_19FileDescriptorProtoE, 
                       __ZN6google8protobuf25EncodedDescriptorDatabase14FindFileByNameERKNSt3__112basic_stringIcNS2_11char_traitsIcEENS2_9allocatorIcEEEEPNS0_19FileDescriptorProtoE, 
                       __ZN6google8protobuf25EncodedDescriptorDatabase15DescriptorIndex10EnsureFlatEv, 
                       __ZN6google8protobuf25EncodedDescriptorDatabase15DescriptorIndex10FindSymbolENS0_11StringPieceE, 
                       __ZN6google8protobuf25EncodedDescriptorDatabase15DescriptorIndex13FindExtensionENS0_11StringPieceEi, 
                       __ZN6google8protobuf25EncodedDescriptorDatabase15DescriptorIndex23FindAllExtensionNumbersENS0_11StringPieceEPNSt3__16vectorIiNS4_9allocatorIiEEEE, 
                       __ZN6google8protobuf25EncodedDescriptorDatabase15DescriptorIndex8FindFileENS0_11StringPieceE, 
                       __ZN6google8protobuf25EncodedDescriptorDatabase15DescriptorIndex9AddSymbolENS0_11StringPieceE, 
                       __ZN6google8protobuf25EncodedDescriptorDatabase16FindAllFileNamesEPNSt3__16vectorINS2_12basic_stringIcNS2_11char_traitsIcEENS2_9allocatorIcEEEENS7_IS9_EEEE, 
                       __ZN6google8protobuf25EncodedDescriptorDatabase23FindAllExtensionNumbersERKNSt3__112basic_stringIcNS2_11char_traitsIcEENS2_9allocatorIcEEEEPNS2_6vectorIiNS6_IiEEEE, 
                       __ZN6google8protobuf25EncodedDescriptorDatabase24FindFileContainingSymbolERKNSt3__112basic_stringIcNS2_11char_traitsIcEENS2_9allocatorIcEEEEPNS0_19FileDescriptorProtoE, 
                       __ZN6google8protobuf25EncodedDescriptorDatabase27FindFileContainingExtensionERKNSt3__112basic_stringIcNS2_11char_traitsIcEENS2_9allocatorIcEEEEiPNS0_19FileDescriptorProtoE, 
                       __ZN6google8protobuf25EncodedDescriptorDatabase30FindNameOfFileContainingSymbolERKNSt3__112basic_stringIcNS2_11char_traitsIcEENS2_9allocatorIcEEEEPS8_, 
                       __ZN6google8protobuf25EncodedDescriptorDatabase3AddEPKvi, 
                       __ZN6google8protobuf25EncodedDescriptorDatabase7AddCopyEPKvi, 
                       __ZN6google8protobuf25EncodedDescriptorDatabaseC1Ev, __ZN6google8protobuf25EncodedDescriptorDatabaseC2Ev, 
                       __ZN6google8protobuf25EncodedDescriptorDatabaseD0Ev, __ZN6google8protobuf25EncodedDescriptorDatabaseD1Ev, 
                       __ZN6google8protobuf25EncodedDescriptorDatabaseD2Ev, __ZN6google8protobuf26FieldOptions_CType_IsValidEi, 
                       __ZN6google8protobuf26kStringPrintfVectorMaxArgsE, __ZN6google8protobuf27FieldOptions_JSType_IsValidEi, 
                       __ZN6google8protobuf28GeneratedCodeInfo_Annotation12InternalSwapEPS1_, 
                       __ZN6google8protobuf28GeneratedCodeInfo_Annotation14_InternalParseEPKcPNS0_8internal12ParseContextE, 
                       __ZN6google8protobuf28GeneratedCodeInfo_Annotation16default_instanceEv, 
                       __ZN6google8protobuf28GeneratedCodeInfo_Annotation5ClearEv, 
                       __ZN6google8protobuf28GeneratedCodeInfo_Annotation8CopyFromERKNS0_7MessageE, 
                       __ZN6google8protobuf28GeneratedCodeInfo_Annotation8CopyFromERKS1_, 
                       __ZN6google8protobuf28GeneratedCodeInfo_Annotation9ArenaDtorEPv, 
                       __ZN6google8protobuf28GeneratedCodeInfo_Annotation9MergeFromERKNS0_7MessageE, 
                       __ZN6google8protobuf28GeneratedCodeInfo_Annotation9MergeFromERKS1_, 
                       __ZN6google8protobuf28GeneratedCodeInfo_AnnotationC1EPNS0_5ArenaE, 
                       __ZN6google8protobuf28GeneratedCodeInfo_AnnotationC1ERKS1_, 
                       __ZN6google8protobuf28GeneratedCodeInfo_AnnotationC2EPNS0_5ArenaE, 
                       __ZN6google8protobuf28GeneratedCodeInfo_AnnotationC2ERKS1_, 
                       __ZN6google8protobuf28GeneratedCodeInfo_AnnotationD0Ev, __ZN6google8protobuf28GeneratedCodeInfo_AnnotationD1Ev, 
                       __ZN6google8protobuf28GeneratedCodeInfo_AnnotationD2Ev, __ZN6google8protobuf28UninterpretedOption_NamePart12InternalSwapEPS1_, 
                       __ZN6google8protobuf28UninterpretedOption_NamePart14_InternalParseEPKcPNS0_8internal12ParseContextE, 
                       __ZN6google8protobuf28UninterpretedOption_NamePart16default_instanceEv, 
                       __ZN6google8protobuf28UninterpretedOption_NamePart5ClearEv, 
                       __ZN6google8protobuf28UninterpretedOption_NamePart8CopyFromERKNS0_7MessageE, 
                       __ZN6google8protobuf28UninterpretedOption_NamePart8CopyFromERKS1_, 
                       __ZN6google8protobuf28UninterpretedOption_NamePart9ArenaDtorEPv, 
                       __ZN6google8protobuf28UninterpretedOption_NamePart9MergeFromERKNS0_7MessageE, 
                       __ZN6google8protobuf28UninterpretedOption_NamePart9MergeFromERKS1_, 
                       __ZN6google8protobuf28UninterpretedOption_NamePartC1EPNS0_5ArenaE, 
                       __ZN6google8protobuf28UninterpretedOption_NamePartC1ERKS1_, 
                       __ZN6google8protobuf28UninterpretedOption_NamePartC2EPNS0_5ArenaE, 
                       __ZN6google8protobuf28UninterpretedOption_NamePartC2ERKS1_, 
                       __ZN6google8protobuf28UninterpretedOption_NamePartD0Ev, __ZN6google8protobuf28UninterpretedOption_NamePartD1Ev, 
                       __ZN6google8protobuf28UninterpretedOption_NamePartD2Ev, __ZN6google8protobuf29DescriptorProto_ReservedRange12InternalSwapEPS1_, 
                       __ZN6google8protobuf29DescriptorProto_ReservedRange14_InternalParseEPKcPNS0_8internal12ParseContextE, 
                       __ZN6google8protobuf29DescriptorProto_ReservedRange16default_instanceEv, 
                       __ZN6google8protobuf29DescriptorProto_ReservedRange5ClearEv, 
                       __ZN6google8protobuf29DescriptorProto_ReservedRange8CopyFromERKNS0_7MessageE, 
                       __ZN6google8protobuf29DescriptorProto_ReservedRange8CopyFromERKS1_, 
                       __ZN6google8protobuf29DescriptorProto_ReservedRange9ArenaDtorEPv, 
                       __ZN6google8protobuf29DescriptorProto_ReservedRange9MergeFromERKNS0_7MessageE, 
                       __ZN6google8protobuf29DescriptorProto_ReservedRange9MergeFromERKS1_, 
                       __ZN6google8protobuf29DescriptorProto_ReservedRangeC1EPNS0_5ArenaE, 
                       __ZN6google8protobuf29DescriptorProto_ReservedRangeC1ERKS1_, 
                       __ZN6google8protobuf29DescriptorProto_ReservedRangeC2EPNS0_5ArenaE, 
                       __ZN6google8protobuf29DescriptorProto_ReservedRangeC2ERKS1_, 
                       __ZN6google8protobuf29DescriptorProto_ReservedRangeD0Ev, __ZN6google8protobuf29DescriptorProto_ReservedRangeD1Ev, 
                       __ZN6google8protobuf29DescriptorProto_ReservedRangeD2Ev, __ZN6google8protobuf29FieldOptions_CType_descriptorEv, 
                       __ZN6google8protobuf2io14ErrorCollectorD0Ev, __ZN6google8protobuf2io14ErrorCollectorD1Ev, 
                       __ZN6google8protobuf2io14ErrorCollectorD2Ev, __ZN6google8protobuf2io14NoLocaleStrtodEPKcPPc, 
                       __ZN6google8protobuf2io15FileInputStream22CopyingFileInputStream4ReadEPvi, 
                       __ZN6google8protobuf2io15FileInputStream22CopyingFileInputStream4SkipEi, 
                       __ZN6google8protobuf2io15FileInputStream22CopyingFileInputStream5CloseEv, 
                       __ZN6google8protobuf2io15FileInputStream22CopyingFileInputStreamC1Ei, 
                       __ZN6google8protobuf2io15FileInputStream22CopyingFileInputStreamC2Ei, 
                       __ZN6google8protobuf2io15FileInputStream22CopyingFileInputStreamD0Ev, 
                       __ZN6google8protobuf2io15FileInputStream22CopyingFileInputStreamD1Ev, 
                       __ZN6google8protobuf2io15FileInputStream22CopyingFileInputStreamD2Ev, 
                       __ZN6google8protobuf2io15FileInputStream4NextEPPKvPi, __ZN6google8protobuf2io15FileInputStream4SkipEi, 
                       __ZN6google8protobuf2io15FileInputStream5CloseEv, __ZN6google8protobuf2io15FileInputStream6BackUpEi, 
                       __ZN6google8protobuf2io15FileInputStreamC1Eii, __ZN6google8protobuf2io15FileInputStreamC2Eii, 
                       __ZN6google8protobuf2io16ArrayInputStream4NextEPPKvPi, __ZN6google8protobuf2io16ArrayInputStream4SkipEi, 
                       __ZN6google8protobuf2io16ArrayInputStream6BackUpEi, __ZN6google8protobuf2io16ArrayInputStreamC1EPKvii, 
                       __ZN6google8protobuf2io16ArrayInputStreamC2EPKvii, __ZN6google8protobuf2io16CodedInputStream10ReadStringEPNSt3__112basic_stringIcNS3_11char_traitsIcEENS3_9allocatorIcEEEEi, 
                       __ZN6google8protobuf2io16CodedInputStream11ReadTagSlowEv, 
                       __ZN6google8protobuf2io16CodedInputStream12SkipFallbackEii, 
                       __ZN6google8protobuf2io16CodedInputStream15ReadTagFallbackEj, 
                       __ZN6google8protobuf2io16CodedInputStream16ReadVarint32SlowEPj, 
                       __ZN6google8protobuf2io16CodedInputStream16ReadVarint64SlowEPy, 
                       __ZN6google8protobuf2io16CodedInputStream18ReadStringFallbackEPNSt3__112basic_stringIcNS3_11char_traitsIcEENS3_9allocatorIcEEEEi, 
                       __ZN6google8protobuf2io16CodedInputStream18SetTotalBytesLimitEi, 
                       __ZN6google8protobuf2io16CodedInputStream20ReadVarint32FallbackEj, 
                       __ZN6google8protobuf2io16CodedInputStream20ReadVarint64FallbackEv, 
                       __ZN6google8protobuf2io16CodedInputStream22GetDirectBufferPointerEPPKvPi, 
                       __ZN6google8protobuf2io16CodedInputStream22ReadLengthAndPushLimitEv, 
                       __ZN6google8protobuf2io16CodedInputStream23ReadVarintSizeAsIntSlowEv, 
                       __ZN6google8protobuf2io16CodedInputStream24default_recursion_limit_E, 
                       __ZN6google8protobuf2io16CodedInputStream25PrintTotalBytesLimitErrorEv, 
                       __ZN6google8protobuf2io16CodedInputStream26ReadLittleEndian32FallbackEPj, 
                       __ZN6google8protobuf2io16CodedInputStream26ReadLittleEndian64FallbackEPy, 
                       __ZN6google8protobuf2io16CodedInputStream27ReadVarintSizeAsIntFallbackEv, 
                       __ZN6google8protobuf2io16CodedInputStream28BackUpInputToCurrentPositionEv, 
                       __ZN6google8protobuf2io16CodedInputStream34DecrementRecursionDepthAndPopLimitEi, 
                       __ZN6google8protobuf2io16CodedInputStream35IncrementRecursionDepthAndPushLimitEi, 
                       __ZN6google8protobuf2io16CodedInputStream37CheckEntireMessageConsumedAndPopLimitEi, 
                       __ZN6google8protobuf2io16CodedInputStream7ReadRawEPvi, __ZN6google8protobuf2io16CodedInputStream7RefreshEv, 
                       __ZN6google8protobuf2io16CodedInputStream8PopLimitEi, __ZN6google8protobuf2io16CodedInputStream9PushLimitEi, 
                       __ZN6google8protobuf2io16CodedInputStreamD1Ev, __ZN6google8protobuf2io16CodedInputStreamD2Ev, 
                       __ZN6google8protobuf2io16FileOutputStream23CopyingFileOutputStream5CloseEv, 
                       __ZN6google8protobuf2io16FileOutputStream23CopyingFileOutputStream5WriteEPKvi, 
                       __ZN6google8protobuf2io16FileOutputStream23CopyingFileOutputStreamC1Ei, 
                       __ZN6google8protobuf2io16FileOutputStream23CopyingFileOutputStreamC2Ei, 
                       __ZN6google8protobuf2io16FileOutputStream23CopyingFileOutputStreamD0Ev, 
                       __ZN6google8protobuf2io16FileOutputStream23CopyingFileOutputStreamD1Ev, 
                       __ZN6google8protobuf2io16FileOutputStream23CopyingFileOutputStreamD2Ev, 
                       __ZN6google8protobuf2io16FileOutputStream5CloseEv, __ZN6google8protobuf2io16FileOutputStreamC1Eii, 
                       __ZN6google8protobuf2io16FileOutputStreamC2Eii, __ZN6google8protobuf2io16FileOutputStreamD0Ev, 
                       __ZN6google8protobuf2io16FileOutputStreamD1Ev, __ZN6google8protobuf2io16FileOutputStreamD2Ev, 
                       __ZN6google8protobuf2io17ArrayOutputStream4NextEPPvPi, __ZN6google8protobuf2io17ArrayOutputStream6BackUpEi, 
                       __ZN6google8protobuf2io17ArrayOutputStreamC1EPvii, __ZN6google8protobuf2io17ArrayOutputStreamC2EPvii, 
                       __ZN6google8protobuf2io17CodedOutputStream26WriteStringWithSizeToArrayERKNSt3__112basic_stringIcNS3_11char_traitsIcEENS3_9allocatorIcEEEEPh, 
                       __ZN6google8protobuf2io17CodedOutputStream36default_serialization_deterministic_E, 
                       __ZN6google8protobuf2io17CodedOutputStreamC1EPNS1_20ZeroCopyOutputStreamEb, 
                       __ZN6google8protobuf2io17CodedOutputStreamC2EPNS1_20ZeroCopyOutputStreamEb, 
                       __ZN6google8protobuf2io17CodedOutputStreamD1Ev, __ZN6google8protobuf2io17CodedOutputStreamD2Ev, 
                       __ZN6google8protobuf2io17SafeDoubleToFloatEd, __ZN6google8protobuf2io18CopyingInputStream4SkipEi, 
                       __ZN6google8protobuf2io18IstreamInputStream25CopyingIstreamInputStream4ReadEPvi, 
                       __ZN6google8protobuf2io18IstreamInputStream25CopyingIstreamInputStreamC1EPNSt3__113basic_istreamIcNS4_11char_traitsIcEEEE, 
                       __ZN6google8protobuf2io18IstreamInputStream25CopyingIstreamInputStreamC2EPNSt3__113basic_istreamIcNS4_11char_traitsIcEEEE, 
                       __ZN6google8protobuf2io18IstreamInputStream25CopyingIstreamInputStreamD0Ev, 
                       __ZN6google8protobuf2io18IstreamInputStream25CopyingIstreamInputStreamD1Ev, 
                       __ZN6google8protobuf2io18IstreamInputStream25CopyingIstreamInputStreamD2Ev, 
                       __ZN6google8protobuf2io18IstreamInputStream4NextEPPKvPi, __ZN6google8protobuf2io18IstreamInputStream4SkipEi, 
                       __ZN6google8protobuf2io18IstreamInputStream6BackUpEi, __ZN6google8protobuf2io18IstreamInputStreamC1EPNSt3__113basic_istreamIcNS3_11char_traitsIcEEEEi, 
                       __ZN6google8protobuf2io18IstreamInputStreamC2EPNSt3__113basic_istreamIcNS3_11char_traitsIcEEEEi, 
                       __ZN6google8protobuf2io18StringOutputStream4NextEPPvPi, __ZN6google8protobuf2io18StringOutputStream6BackUpEi, 
                       __ZN6google8protobuf2io18StringOutputStreamC1EPNSt3__112basic_stringIcNS3_11char_traitsIcEENS3_9allocatorIcEEEE, 
                       __ZN6google8protobuf2io18StringOutputStreamC2EPNSt3__112basic_stringIcNS3_11char_traitsIcEENS3_9allocatorIcEEEE, 
                       __ZN6google8protobuf2io19EpsCopyOutputStream14EnableAliasingEb, 
                       __ZN6google8protobuf2io19EpsCopyOutputStream15WriteAliasedRawEPKviPh, 
                       __ZN6google8protobuf2io19EpsCopyOutputStream16WriteRawFallbackEPKviPh, 
                       __ZN6google8protobuf2io19EpsCopyOutputStream18WriteStringOutlineEjRKNSt3__112basic_stringIcNS3_11char_traitsIcEENS3_9allocatorIcEEEEPh, 
                       __ZN6google8protobuf2io19EpsCopyOutputStream19EnsureSpaceFallbackEPh, 
                       __ZN6google8protobuf2io19EpsCopyOutputStream19FlushAndResetBufferEPh, 
                       __ZN6google8protobuf2io19EpsCopyOutputStream22GetDirectBufferPointerEPPvPiPPh, 
                       __ZN6google8protobuf2io19EpsCopyOutputStream30WriteStringMaybeAliasedOutlineEjRKNSt3__112basic_stringIcNS3_11char_traitsIcEENS3_9allocatorIcEEEEPh, 
                       __ZN6google8protobuf2io19EpsCopyOutputStream34GetDirectBufferForNBytesAndAdvanceEiPPh, 
                       __ZN6google8protobuf2io19EpsCopyOutputStream4SkipEiPPh, __ZN6google8protobuf2io19EpsCopyOutputStream4TrimEPh, 
                       __ZN6google8protobuf2io19EpsCopyOutputStream5FlushEPh, __ZN6google8protobuf2io19LimitingInputStream4NextEPPKvPi, 
                       __ZN6google8protobuf2io19LimitingInputStream4SkipEi, __ZN6google8protobuf2io19LimitingInputStream6BackUpEi, 
                       __ZN6google8protobuf2io19LimitingInputStreamC1EPNS1_19ZeroCopyInputStreamEx, 
                       __ZN6google8protobuf2io19LimitingInputStreamC2EPNS1_19ZeroCopyInputStreamEx, 
                       __ZN6google8protobuf2io19LimitingInputStreamD0Ev, __ZN6google8protobuf2io19LimitingInputStreamD1Ev, 
                       __ZN6google8protobuf2io19LimitingInputStreamD2Ev, __ZN6google8protobuf2io19OstreamOutputStream26CopyingOstreamOutputStream5WriteEPKvi, 
                       __ZN6google8protobuf2io19OstreamOutputStream26CopyingOstreamOutputStreamC1EPNSt3__113basic_ostreamIcNS4_11char_traitsIcEEEE, 
                       __ZN6google8protobuf2io19OstreamOutputStream26CopyingOstreamOutputStreamC2EPNSt3__113basic_ostreamIcNS4_11char_traitsIcEEEE, 
                       __ZN6google8protobuf2io19OstreamOutputStream26CopyingOstreamOutputStreamD0Ev, 
                       __ZN6google8protobuf2io19OstreamOutputStream26CopyingOstreamOutputStreamD1Ev, 
                       __ZN6google8protobuf2io19OstreamOutputStream26CopyingOstreamOutputStreamD2Ev, 
                       __ZN6google8protobuf2io19OstreamOutputStream4NextEPPvPi, __ZN6google8protobuf2io19OstreamOutputStream6BackUpEi, 
                       __ZN6google8protobuf2io19OstreamOutputStreamC1EPNSt3__113basic_ostreamIcNS3_11char_traitsIcEEEEi, 
                       __ZN6google8protobuf2io19OstreamOutputStreamC2EPNSt3__113basic_ostreamIcNS3_11char_traitsIcEEEEi, 
                       __ZN6google8protobuf2io19OstreamOutputStreamD0Ev, __ZN6google8protobuf2io19OstreamOutputStreamD1Ev, 
                       __ZN6google8protobuf2io19OstreamOutputStreamD2Ev, __ZN6google8protobuf2io20ZeroCopyOutputStream15WriteAliasedRawEPKvi, 
                       __ZN6google8protobuf2io24ConcatenatingInputStream4NextEPPKvPi, 
                       __ZN6google8protobuf2io24ConcatenatingInputStream4SkipEi, 
                       __ZN6google8protobuf2io24ConcatenatingInputStream6BackUpEi, 
                       __ZN6google8protobuf2io24ConcatenatingInputStreamC1EPKPNS1_19ZeroCopyInputStreamEi, 
                       __ZN6google8protobuf2io24ConcatenatingInputStreamC2EPKPNS1_19ZeroCopyInputStreamEi, 
                       __ZN6google8protobuf2io25CopyingInputStreamAdaptor10FreeBufferEv, 
                       __ZN6google8protobuf2io25CopyingInputStreamAdaptor22AllocateBufferIfNeededEv, 
                       __ZN6google8protobuf2io25CopyingInputStreamAdaptor4NextEPPKvPi, 
                       __ZN6google8protobuf2io25CopyingInputStreamAdaptor4SkipEi, 
                       __ZN6google8protobuf2io25CopyingInputStreamAdaptor6BackUpEi, 
                       __ZN6google8protobuf2io25CopyingInputStreamAdaptorC1EPNS1_18CopyingInputStreamEi, 
                       __ZN6google8protobuf2io25CopyingInputStreamAdaptorC2EPNS1_18CopyingInputStreamEi, 
                       __ZN6google8protobuf2io25CopyingInputStreamAdaptorD0Ev, __ZN6google8protobuf2io25CopyingInputStreamAdaptorD1Ev, 
                       __ZN6google8protobuf2io25CopyingInputStreamAdaptorD2Ev, __ZN6google8protobuf2io26CopyingOutputStreamAdaptor10FreeBufferEv, 
                       __ZN6google8protobuf2io26CopyingOutputStreamAdaptor11WriteBufferEv, 
                       __ZN6google8protobuf2io26CopyingOutputStreamAdaptor15WriteAliasedRawEPKvi, 
                       __ZN6google8protobuf2io26CopyingOutputStreamAdaptor22AllocateBufferIfNeededEv, 
                       __ZN6google8protobuf2io26CopyingOutputStreamAdaptor4NextEPPvPi, 
                       __ZN6google8protobuf2io26CopyingOutputStreamAdaptor5FlushEv, 
                       __ZN6google8protobuf2io26CopyingOutputStreamAdaptor6BackUpEi, 
                       __ZN6google8protobuf2io26CopyingOutputStreamAdaptorC1EPNS1_19CopyingOutputStreamEi, 
                       __ZN6google8protobuf2io26CopyingOutputStreamAdaptorC2EPNS1_19CopyingOutputStreamEi, 
                       __ZN6google8protobuf2io26CopyingOutputStreamAdaptorD0Ev, __ZN6google8protobuf2io26CopyingOutputStreamAdaptorD1Ev, 
                       __ZN6google8protobuf2io26CopyingOutputStreamAdaptorD2Ev, __ZN6google8protobuf2io7Printer12CopyToBufferEPKci, 
                       __ZN6google8protobuf2io7Printer13WriteVariableERKNSt3__16vectorINS3_12basic_stringIcNS3_11char_traitsIcEENS3_9allocatorIcEEEENS8_ISA_EEEERKNS3_3mapISA_SA_NS3_4lessISA_EENS8_INS3_4pairIKSA_SA_EEEEEEPKcPiPNS4_INSI_INSI_ImmEESA_EENS8_IST_EEEE, 
                       __ZN6google8protobuf2io7Printer14FormatInternalERKNSt3__16vectorINS3_12basic_stringIcNS3_11char_traitsIcEENS3_9allocatorIcEEEENS8_ISA_EEEERKNS3_3mapISA_SA_NS3_4lessISA_EENS8_INS3_4pairIKSA_SA_EEEEEEPKc, 
                       __ZN6google8protobuf2io7Printer20GetSubstitutionRangeEPKcPNSt3__14pairImmEE, 
                       __ZN6google8protobuf2io7Printer4NextEv, __ZN6google8protobuf2io7Printer5PrintERKNSt3__13mapINS3_12basic_stringIcNS3_11char_traitsIcEENS3_9allocatorIcEEEESA_NS3_4lessISA_EENS8_INS3_4pairIKSA_SA_EEEEEEPKc, 
                       __ZN6google8protobuf2io7Printer6IndentEv, __ZN6google8protobuf2io7Printer7OutdentEv, 
                       __ZN6google8protobuf2io7Printer8AnnotateEPKcS4_RKNSt3__112basic_stringIcNS5_11char_traitsIcEENS5_9allocatorIcEEEERKNS5_6vectorIiNS9_IiEEEE, 
                       __ZN6google8protobuf2io7Printer8PrintRawEPKc, __ZN6google8protobuf2io7Printer8PrintRawERKNSt3__112basic_stringIcNS3_11char_traitsIcEENS3_9allocatorIcEEEE, 
                       __ZN6google8protobuf2io7Printer8WriteRawEPKci, __ZN6google8protobuf2io7PrinterC1EPNS1_20ZeroCopyOutputStreamEc, 
                       __ZN6google8protobuf2io7PrinterC1EPNS1_20ZeroCopyOutputStreamEcPNS1_19AnnotationCollectorE, 
                       __ZN6google8protobuf2io7PrinterC2EPNS1_20ZeroCopyOutputStreamEc, 
                       __ZN6google8protobuf2io7PrinterC2EPNS1_20ZeroCopyOutputStreamEcPNS1_19AnnotationCollectorE, 
                       __ZN6google8protobuf2io7PrinterD1Ev, __ZN6google8protobuf2io7PrinterD2Ev, 
                       __ZN6google8protobuf2io9Tokenizer10ParseFloatERKNSt3__112basic_stringIcNS3_11char_traitsIcEENS3_9allocatorIcEEEE, 
                       __ZN6google8protobuf2io9Tokenizer12IsIdentifierERKNSt3__112basic_stringIcNS3_11char_traitsIcEENS3_9allocatorIcEEEE, 
                       __ZN6google8protobuf2io9Tokenizer12ParseIntegerERKNSt3__112basic_stringIcNS3_11char_traitsIcEENS3_9allocatorIcEEEEyPy, 
                       __ZN6google8protobuf2io9Tokenizer13ConsumeNumberEbb, __ZN6google8protobuf2io9Tokenizer13ConsumeStringEc, 
                       __ZN6google8protobuf2io9Tokenizer16NextWithCommentsEPNSt3__112basic_stringIcNS3_11char_traitsIcEENS3_9allocatorIcEEEEPNS3_6vectorIS9_NS7_IS9_EEEESA_, 
                       __ZN6google8protobuf2io9Tokenizer17ParseStringAppendERKNSt3__112basic_stringIcNS3_11char_traitsIcEENS3_9allocatorIcEEEEPS9_, 
                       __ZN6google8protobuf2io9Tokenizer18ConsumeLineCommentEPNSt3__112basic_stringIcNS3_11char_traitsIcEENS3_9allocatorIcEEEE, 
                       __ZN6google8protobuf2io9Tokenizer19ConsumeBlockCommentEPNSt3__112basic_stringIcNS3_11char_traitsIcEENS3_9allocatorIcEEEE, 
                       __ZN6google8protobuf2io9Tokenizer22TryConsumeCommentStartEv, 
                       __ZN6google8protobuf2io9Tokenizer4NextEv, __ZN6google8protobuf2io9Tokenizer7RefreshEv, 
                       __ZN6google8protobuf2io9Tokenizer8NextCharEv, __ZN6google8protobuf2io9TokenizerC1EPNS1_19ZeroCopyInputStreamEPNS1_14ErrorCollectorE, 
                       __ZN6google8protobuf2io9TokenizerC2EPNS1_19ZeroCopyInputStreamEPNS1_14ErrorCollectorE, 
                       __ZN6google8protobuf2io9TokenizerD1Ev, __ZN6google8protobuf2io9TokenizerD2Ev, 
                       __ZN6google8protobuf30DescriptorProto_ExtensionRange12InternalSwapEPS1_, 
                       __ZN6google8protobuf30DescriptorProto_ExtensionRange14_InternalParseEPKcPNS0_8internal12ParseContextE, 
                       __ZN6google8protobuf30DescriptorProto_ExtensionRange16default_instanceEv, 
                       __ZN6google8protobuf30DescriptorProto_ExtensionRange5ClearEv, 
                       __ZN6google8protobuf30DescriptorProto_ExtensionRange8CopyFromERKNS0_7MessageE, 
                       __ZN6google8protobuf30DescriptorProto_ExtensionRange8CopyFromERKS1_, 
                       __ZN6google8protobuf30DescriptorProto_ExtensionRange9ArenaDtorEPv, 
                       __ZN6google8protobuf30DescriptorProto_ExtensionRange9MergeFromERKNS0_7MessageE, 
                       __ZN6google8protobuf30DescriptorProto_ExtensionRange9MergeFromERKS1_, 
                       __ZN6google8protobuf30DescriptorProto_ExtensionRange9_Internal7optionsEPKS1_, 
                       __ZN6google8protobuf30DescriptorProto_ExtensionRangeC1EPNS0_5ArenaE, 
                       __ZN6google8protobuf30DescriptorProto_ExtensionRangeC1ERKS1_, 
                       __ZN6google8protobuf30DescriptorProto_ExtensionRangeC2EPNS0_5ArenaE, 
                       __ZN6google8protobuf30DescriptorProto_ExtensionRangeC2ERKS1_, 
                       __ZN6google8protobuf30DescriptorProto_ExtensionRangeD0Ev, 
                       __ZN6google8protobuf30DescriptorProto_ExtensionRangeD1Ev, 
                       __ZN6google8protobuf30DescriptorProto_ExtensionRangeD2Ev, 
                       __ZN6google8protobuf30FieldOptions_JSType_descriptorEv, __ZN6google8protobuf30WebSafeBase64EscapeWithPaddingENS0_11StringPieceEPNSt3__112basic_stringIcNS2_11char_traitsIcEENS2_9allocatorIcEEEE, 
                       __ZN6google8protobuf30_EnumOptions_default_instance_E, __ZN6google8protobuf30_FileOptions_default_instance_E, 
                       __ZN6google8protobuf31_FieldOptions_default_instance_E, __ZN6google8protobuf31_OneofOptions_default_instance_E, 
                       __ZN6google8protobuf32FileOptions_OptimizeMode_IsValidEi, 
                       __ZN6google8protobuf32_MethodOptions_default_instance_E, __ZN6google8protobuf33FieldDescriptorProto_Type_IsValidEi, 
                       __ZN6google8protobuf33_MessageOptions_default_instance_E, 
                       __ZN6google8protobuf33_ServiceOptions_default_instance_E, 
                       __ZN6google8protobuf33_SourceCodeInfo_default_instance_E, 
                       __ZN6google8protobuf34FieldDescriptorProto_Label_IsValidEi, 
                       __ZN6google8protobuf34_DescriptorProto_default_instance_E, 
                       __ZN6google8protobuf35FileOptions_OptimizeMode_descriptorEv, 
                       __ZN6google8protobuf35_EnumValueOptions_default_instance_E, 
                       __ZN6google8protobuf36FieldDescriptorProto_Type_descriptorEv, 
                       __ZN6google8protobuf36_FileDescriptorSet_default_instance_E, 
                       __ZN6google8protobuf36_GeneratedCodeInfo_default_instance_E, 
                       __ZN6google8protobuf37EnumDescriptorProto_EnumReservedRange12InternalSwapEPS1_, 
                       __ZN6google8protobuf37EnumDescriptorProto_EnumReservedRange14_InternalParseEPKcPNS0_8internal12ParseContextE, 
                       __ZN6google8protobuf37EnumDescriptorProto_EnumReservedRange16default_instanceEv, 
                       __ZN6google8protobuf37EnumDescriptorProto_EnumReservedRange5ClearEv, 
                       __ZN6google8protobuf37EnumDescriptorProto_EnumReservedRange8CopyFromERKNS0_7MessageE, 
                       __ZN6google8protobuf37EnumDescriptorProto_EnumReservedRange8CopyFromERKS1_, 
                       __ZN6google8protobuf37EnumDescriptorProto_EnumReservedRange9ArenaDtorEPv, 
                       __ZN6google8protobuf37EnumDescriptorProto_EnumReservedRange9MergeFromERKNS0_7MessageE, 
                       __ZN6google8protobuf37EnumDescriptorProto_EnumReservedRange9MergeFromERKS1_, 
                       __ZN6google8protobuf37EnumDescriptorProto_EnumReservedRangeC1EPNS0_5ArenaE, 
                       __ZN6google8protobuf37EnumDescriptorProto_EnumReservedRangeC1ERKS1_, 
                       __ZN6google8protobuf37EnumDescriptorProto_EnumReservedRangeC2EPNS0_5ArenaE, 
                       __ZN6google8protobuf37EnumDescriptorProto_EnumReservedRangeC2ERKS1_, 
                       __ZN6google8protobuf37EnumDescriptorProto_EnumReservedRangeD0Ev, 
                       __ZN6google8protobuf37EnumDescriptorProto_EnumReservedRangeD1Ev, 
                       __ZN6google8protobuf37EnumDescriptorProto_EnumReservedRangeD2Ev, 
                       __ZN6google8protobuf37FieldDescriptorProto_Label_descriptorEv, 
                       __ZN6google8protobuf38MethodOptions_IdempotencyLevel_IsValidEi, 
                       __ZN6google8protobuf38_EnumDescriptorProto_default_instance_E, 
                       __ZN6google8protobuf38_FileDescriptorProto_default_instance_E, 
                       __ZN6google8protobuf38_UninterpretedOption_default_instance_E, 
                       __ZN6google8protobuf39_FieldDescriptorProto_default_instance_E, 
                       __ZN6google8protobuf39_OneofDescriptorProto_default_instance_E, 
                       __ZN6google8protobuf40_ExtensionRangeOptions_default_instance_E, 
                       __ZN6google8protobuf40_MethodDescriptorProto_default_instance_E, 
                       __ZN6google8protobuf41MethodOptions_IdempotencyLevel_descriptorEv, 
                       __ZN6google8protobuf41_ServiceDescriptorProto_default_instance_E, 
                       __ZN6google8protobuf42_SourceCodeInfo_Location_default_instance_E, 
                       __ZN6google8protobuf43_EnumValueDescriptorProto_default_instance_E, 
                       __ZN6google8protobuf47_GeneratedCodeInfo_Annotation_default_instance_E, 
                       __ZN6google8protobuf47_UninterpretedOption_NamePart_default_instance_E, 
                       __ZN6google8protobuf48_DescriptorProto_ReservedRange_default_instance_E, 
                       __ZN6google8protobuf49_DescriptorProto_ExtensionRange_default_instance_E, 
                       __ZN6google8protobuf4util15FieldComparatorC2Ev, __ZN6google8protobuf4util15FieldComparatorD0Ev, 
                       __ZN6google8protobuf4util15FieldComparatorD1Ev, __ZN6google8protobuf4util15FieldComparatorD2Ev, 
                       __ZN6google8protobuf4util18MessageDifferencer10EquivalentERKNS0_7MessageES5_, 
                       __ZN6google8protobuf4util18MessageDifferencer10TreatAsMapEPKNS0_15FieldDescriptorES5_, 
                       __ZN6google8protobuf4util18MessageDifferencer10TreatAsSetEPKNS0_15FieldDescriptorE, 
                       __ZN6google8protobuf4util18MessageDifferencer11FieldBeforeEPKNS0_15FieldDescriptorES5_, 
                       __ZN6google8protobuf4util18MessageDifferencer11IgnoreFieldEPKNS0_15FieldDescriptorE, 
                       __ZN6google8protobuf4util18MessageDifferencer11TreatAsListEPKNS0_15FieldDescriptorE, 
                       __ZN6google8protobuf4util18MessageDifferencer13CombineFieldsERKNSt3__16vectorIPKNS0_15FieldDescriptorENS3_9allocatorIS7_EEEENS2_5ScopeESC_SD_, 
                       __ZN6google8protobuf4util18MessageDifferencer14IgnoreCriteriaC2Ev, 
                       __ZN6google8protobuf4util18MessageDifferencer14IgnoreCriteriaD0Ev, 
                       __ZN6google8protobuf4util18MessageDifferencer14IgnoreCriteriaD1Ev, 
                       __ZN6google8protobuf4util18MessageDifferencer14IgnoreCriteriaD2Ev, 
                       __ZN6google8protobuf4util18MessageDifferencer14IsTreatedAsSetEPKNS0_15FieldDescriptorE, 
                       __ZN6google8protobuf4util18MessageDifferencer14RetrieveFieldsERKNS0_7MessageEb, 
                       __ZN6google8protobuf4util18MessageDifferencer14StreamReporter10PrintValueERKNS0_7MessageERKNSt3__16vectorINS2_13SpecificFieldENS7_9allocatorIS9_EEEEb, 
                       __ZN6google8protobuf4util18MessageDifferencer14StreamReporter11ReportAddedERKNS0_7MessageES6_RKNSt3__16vectorINS2_13SpecificFieldENS7_9allocatorIS9_EEEE, 
                       __ZN6google8protobuf4util18MessageDifferencer14StreamReporter11ReportMovedERKNS0_7MessageES6_RKNSt3__16vectorINS2_13SpecificFieldENS7_9allocatorIS9_EEEE, 
                       __ZN6google8protobuf4util18MessageDifferencer14StreamReporter13ReportDeletedERKNS0_7MessageES6_RKNSt3__16vectorINS2_13SpecificFieldENS7_9allocatorIS9_EEEE, 
                       __ZN6google8protobuf4util18MessageDifferencer14StreamReporter13ReportIgnoredERKNS0_7MessageES6_RKNSt3__16vectorINS2_13SpecificFieldENS7_9allocatorIS9_EEEE, 
                       __ZN6google8protobuf4util18MessageDifferencer14StreamReporter13ReportMatchedERKNS0_7MessageES6_RKNSt3__16vectorINS2_13SpecificFieldENS7_9allocatorIS9_EEEE, 
                       __ZN6google8protobuf4util18MessageDifferencer14StreamReporter14ReportModifiedERKNS0_7MessageES6_RKNSt3__16vectorINS2_13SpecificFieldENS7_9allocatorIS9_EEEE, 
                       __ZN6google8protobuf4util18MessageDifferencer14StreamReporter22PrintUnknownFieldValueEPKNS0_12UnknownFieldE, 
                       __ZN6google8protobuf4util18MessageDifferencer14StreamReporter25ReportUnknownFieldIgnoredERKNS0_7MessageES6_RKNSt3__16vectorINS2_13SpecificFieldENS7_9allocatorIS9_EEEE, 
                       __ZN6google8protobuf4util18MessageDifferencer14StreamReporter5PrintERKNSt3__112basic_stringIcNS4_11char_traitsIcEENS4_9allocatorIcEEEE, 
                       __ZN6google8protobuf4util18MessageDifferencer14StreamReporter9PrintPathERKNSt3__16vectorINS2_13SpecificFieldENS4_9allocatorIS6_EEEEb, 
                       __ZN6google8protobuf4util18MessageDifferencer14StreamReporter9PrintPathERKNSt3__16vectorINS2_13SpecificFieldENS4_9allocatorIS6_EEEEbRKNS0_7MessageE, 
                       __ZN6google8protobuf4util18MessageDifferencer14StreamReporterC1EPNS0_2io20ZeroCopyOutputStreamE, 
                       __ZN6google8protobuf4util18MessageDifferencer14StreamReporterC1EPNS0_2io7PrinterE, 
                       __ZN6google8protobuf4util18MessageDifferencer14StreamReporterC2EPNS0_2io20ZeroCopyOutputStreamE, 
                       __ZN6google8protobuf4util18MessageDifferencer14StreamReporterC2EPNS0_2io7PrinterE, 
                       __ZN6google8protobuf4util18MessageDifferencer14StreamReporterD0Ev, 
                       __ZN6google8protobuf4util18MessageDifferencer14StreamReporterD1Ev, 
                       __ZN6google8protobuf4util18MessageDifferencer14StreamReporterD2Ev, 
                       __ZN6google8protobuf4util18MessageDifferencer15TreatAsSmartSetEPKNS0_15FieldDescriptorE, 
                       __ZN6google8protobuf4util18MessageDifferencer16CheckPathChangedERKNSt3__16vectorINS2_13SpecificFieldENS3_9allocatorIS5_EEEE, 
                       __ZN6google8protobuf4util18MessageDifferencer16MapKeyComparatorC1Ev, 
                       __ZN6google8protobuf4util18MessageDifferencer16MapKeyComparatorC2Ev, 
                       __ZN6google8protobuf4util18MessageDifferencer16MapKeyComparatorD0Ev, 
                       __ZN6google8protobuf4util18MessageDifferencer16MapKeyComparatorD1Ev, 
                       __ZN6google8protobuf4util18MessageDifferencer16MapKeyComparatorD2Ev, 
                       __ZN6google8protobuf4util18MessageDifferencer16TreatAsSmartListEPKNS0_15FieldDescriptorE, 
                       __ZN6google8protobuf4util18MessageDifferencer17AddIgnoreCriteriaEPNS2_14IgnoreCriteriaE, 
                       __ZN6google8protobuf4util18MessageDifferencer17CompareFieldValueERKNS0_7MessageES5_PKNS0_15FieldDescriptorEii, 
                       __ZN6google8protobuf4util18MessageDifferencer17CompareWithFieldsERKNS0_7MessageES5_RKNSt3__16vectorIPKNS0_15FieldDescriptorENS6_9allocatorISA_EEEESF_, 
                       __ZN6google8protobuf4util18MessageDifferencer17IsTreatedAsSubsetEPKNS0_15FieldDescriptorE, 
                       __ZN6google8protobuf4util18MessageDifferencer19ApproximatelyEqualsERKNS0_7MessageES5_, 
                       __ZN6google8protobuf4util18MessageDifferencer19IsTreatedAsSmartSetEPKNS0_15FieldDescriptorE, 
                       __ZN6google8protobuf4util18MessageDifferencer19ReportDifferencesToEPNS2_8ReporterE, 
                       __ZN6google8protobuf4util18MessageDifferencer20CompareRepeatedFieldERKNS0_7MessageES5_PKNS0_15FieldDescriptorEPNSt3__16vectorINS2_13SpecificFieldENS9_9allocatorISB_EEEE, 
                       __ZN6google8protobuf4util18MessageDifferencer20CompareUnknownFieldsERKNS0_7MessageES5_RKNS0_15UnknownFieldSetES8_PNSt3__16vectorINS2_13SpecificFieldENS9_9allocatorISB_EEEE, 
                       __ZN6google8protobuf4util18MessageDifferencer20IsTreatedAsSmartListEPKNS0_15FieldDescriptorE, 
                       __ZN6google8protobuf4util18MessageDifferencer20SetFractionAndMarginEPKNS0_15FieldDescriptorEdd, 
                       __ZN6google8protobuf4util18MessageDifferencer20set_field_comparatorEPNS1_15FieldComparatorE, 
                       __ZN6google8protobuf4util18MessageDifferencer20set_float_comparisonENS2_15FloatComparisonE, 
                       __ZN6google8protobuf4util18MessageDifferencer21IsUnknownFieldIgnoredERKNS0_7MessageES5_RKNS2_13SpecificFieldERKNSt3__16vectorIS6_NS9_9allocatorIS6_EEEE, 
                       __ZN6google8protobuf4util18MessageDifferencer21MapEntryKeyComparatorC1EPS2_, 
                       __ZN6google8protobuf4util18MessageDifferencer21MapEntryKeyComparatorC2EPS2_, 
                       __ZN6google8protobuf4util18MessageDifferencer23ApproximatelyEquivalentERKNS0_7MessageES5_, 
                       __ZN6google8protobuf4util18MessageDifferencer24GetFieldComparisonResultERKNS0_7MessageES5_PKNS0_15FieldDescriptorEiiPKNS1_12FieldContextE, 
                       __ZN6google8protobuf4util18MessageDifferencer25CompareWithFieldsInternalERKNS0_7MessageES5_RKNSt3__16vectorIPKNS0_15FieldDescriptorENS6_9allocatorISA_EEEESF_PNS7_INS2_13SpecificFieldENSB_ISG_EEEE, 
                       __ZN6google8protobuf4util18MessageDifferencer25MatchRepeatedFieldIndicesERKNS0_7MessageES5_PKNS0_15FieldDescriptorEPKNS2_16MapKeyComparatorERKNSt3__16vectorINS2_13SpecificFieldENSC_9allocatorISE_EEEEPNSD_IiNSF_IiEEEESM_, 
                       __ZN6google8protobuf4util18MessageDifferencer25ReportDifferencesToStringEPNSt3__112basic_stringIcNS3_11char_traitsIcEENS3_9allocatorIcEEEE, 
                       __ZN6google8protobuf4util18MessageDifferencer25repeated_field_comparisonEv, 
                       __ZN6google8protobuf4util18MessageDifferencer28TreatAsMapUsingKeyComparatorEPKNS0_15FieldDescriptorEPKNS2_16MapKeyComparatorE, 
                       __ZN6google8protobuf4util18MessageDifferencer28set_message_field_comparisonENS2_22MessageFieldComparisonE, 
                       __ZN6google8protobuf4util18MessageDifferencer29CheckRepeatedFieldComparisonsEPKNS0_15FieldDescriptorERKNS2_23RepeatedFieldComparisonE, 
                       __ZN6google8protobuf4util18MessageDifferencer29set_repeated_field_comparisonENS2_23RepeatedFieldComparisonE, 
                       __ZN6google8protobuf4util18MessageDifferencer30CompareMapFieldByMapReflectionERKNS0_7MessageES5_PKNS0_15FieldDescriptorEPNSt3__16vectorINS2_13SpecificFieldENS9_9allocatorISB_EEEEPNS1_22DefaultFieldComparatorE, 
                       __ZN6google8protobuf4util18MessageDifferencer33TreatAsMapWithMultipleFieldsAsKeyEPKNS0_15FieldDescriptorERKNSt3__16vectorIS5_NS6_9allocatorIS5_EEEE, 
                       __ZN6google8protobuf4util18MessageDifferencer34CompareFieldValueUsingParentFieldsERKNS0_7MessageES5_PKNS0_15FieldDescriptorEiiPNSt3__16vectorINS2_13SpecificFieldENS9_9allocatorISB_EEEE, 
                       __ZN6google8protobuf4util18MessageDifferencer35CompareRequestedFieldsUsingSettingsERKNS0_7MessageES5_RKNSt3__16vectorIPKNS0_15FieldDescriptorENS6_9allocatorISA_EEEESF_PNS7_INS2_13SpecificFieldENSB_ISG_EEEE, 
                       __ZN6google8protobuf4util18MessageDifferencer35SetMatchIndicesForSmartListCallbackENSt3__18functionIFvPNS3_6vectorIiNS3_9allocatorIiEEEES9_EEE, 
                       __ZN6google8protobuf4util18MessageDifferencer36CreateMultipleFieldsMapKeyComparatorERKNSt3__16vectorINS4_IPKNS0_15FieldDescriptorENS3_9allocatorIS7_EEEENS8_ISA_EEEE, 
                       __ZN6google8protobuf4util18MessageDifferencer37TreatAsMapWithMultipleFieldPathsAsKeyEPKNS0_15FieldDescriptorERKNSt3__16vectorINS7_IS5_NS6_9allocatorIS5_EEEENS8_ISA_EEEE, 
                       __ZN6google8protobuf4util18MessageDifferencer5scopeEv, __ZN6google8protobuf4util18MessageDifferencer6EqualsERKNS0_7MessageES5_, 
                       __ZN6google8protobuf4util18MessageDifferencer7CompareERKNS0_7MessageES5_, 
                       __ZN6google8protobuf4util18MessageDifferencer7CompareERKNS0_7MessageES5_PNSt3__16vectorINS2_13SpecificFieldENS6_9allocatorIS8_EEEE, 
                       __ZN6google8protobuf4util18MessageDifferencer7IsMatchEPKNS0_15FieldDescriptorEPKNS2_16MapKeyComparatorEPKNS0_7MessageESB_RKNSt3__16vectorINS2_13SpecificFieldENSC_9allocatorISE_EEEEPNS2_8ReporterEii, 
                       __ZN6google8protobuf4util18MessageDifferencer8ReporterC2Ev, 
                       __ZN6google8protobuf4util18MessageDifferencer8ReporterD0Ev, 
                       __ZN6google8protobuf4util18MessageDifferencer8ReporterD1Ev, 
                       __ZN6google8protobuf4util18MessageDifferencer8ReporterD2Ev, 
                       __ZN6google8protobuf4util18MessageDifferencer9IsIgnoredERKNS0_7MessageES5_PKNS0_15FieldDescriptorERKNSt3__16vectorINS2_13SpecificFieldENS9_9allocatorISB_EEEE, 
                       __ZN6google8protobuf4util18MessageDifferencer9UnpackAnyERKNS0_7MessageEPNSt3__110unique_ptrIS3_NS6_14default_deleteIS3_EEEE, 
                       __ZN6google8protobuf4util18MessageDifferencer9set_scopeENS2_5ScopeE, 
                       __ZN6google8protobuf4util18MessageDifferencerC1Ev, __ZN6google8protobuf4util18MessageDifferencerC2Ev, 
                       __ZN6google8protobuf4util18MessageDifferencerD1Ev, __ZN6google8protobuf4util18MessageDifferencerD2Ev, 
                       __ZN6google8protobuf4util22DefaultFieldComparator11CompareEnumERKNS0_15FieldDescriptorEPKNS0_19EnumValueDescriptorES8_, 
                       __ZN6google8protobuf4util22DefaultFieldComparator12CompareFloatERKNS0_15FieldDescriptorEff, 
                       __ZN6google8protobuf4util22DefaultFieldComparator13CompareDoubleERKNS0_15FieldDescriptorEdd, 
                       __ZN6google8protobuf4util22DefaultFieldComparator20SetFractionAndMarginEPKNS0_15FieldDescriptorEdd, 
                       __ZN6google8protobuf4util22DefaultFieldComparator27SetDefaultFractionAndMarginEdd, 
                       __ZN6google8protobuf4util22DefaultFieldComparator7CompareEPNS1_18MessageDifferencerERKNS0_7MessageES7_PKNS1_12FieldContextE, 
                       __ZN6google8protobuf4util22DefaultFieldComparator7CompareERKNS0_7MessageES5_PKNS0_15FieldDescriptorEiiPKNS1_12FieldContextE, 
                       __ZN6google8protobuf4util22DefaultFieldComparatorC1Ev, __ZN6google8protobuf4util22DefaultFieldComparatorC2Ev, 
                       __ZN6google8protobuf4util22DefaultFieldComparatorD0Ev, __ZN6google8protobuf4util22DefaultFieldComparatorD1Ev, 
                       __ZN6google8protobuf4util22DefaultFieldComparatorD2Ev, __ZN6google8protobuf4util37MatchIndicesPostProcessorForSmartListEPNSt3__16vectorIiNS2_9allocatorIiEEEES7_, 
                       __ZN6google8protobuf4util6Status2OKE, __ZN6google8protobuf4util6Status7UNKNOWNE, 
                       __ZN6google8protobuf4util6Status9CANCELLEDE, __ZN6google8protobuf4util6StatusC1ENS1_5error4CodeENS0_11StringPieceE, 
                       __ZN6google8protobuf4util6StatusC1ERKS2_, __ZN6google8protobuf4util6StatusC1Ev, 
                       __ZN6google8protobuf4util6StatusC2ENS1_5error4CodeENS0_11StringPieceE, 
                       __ZN6google8protobuf4util6StatusC2ERKS2_, __ZN6google8protobuf4util6StatusC2Ev, 
                       __ZN6google8protobuf4util6StatusaSERKS2_, __ZN6google8protobuf4utillsERNSt3__113basic_ostreamIcNS2_11char_traitsIcEEEERKNS1_6StatusE, 
                       __ZN6google8protobuf56_EnumDescriptorProto_EnumReservedRange_default_instance_E, 
                       __ZN6google8protobuf5Arena18CreateMaybeMessageINS0_11EnumOptionsEJEEEPT_PS1_DpOT0_, 
                       __ZN6google8protobuf5Arena18CreateMaybeMessageINS0_11FileOptionsEJEEEPT_PS1_DpOT0_, 
                       __ZN6google8protobuf5Arena18CreateMaybeMessageINS0_12FieldOptionsEJEEEPT_PS1_DpOT0_, 
                       __ZN6google8protobuf5Arena18CreateMaybeMessageINS0_12OneofOptionsEJEEEPT_PS1_DpOT0_, 
                       __ZN6google8protobuf5Arena18CreateMaybeMessageINS0_13MethodOptionsEJEEEPT_PS1_DpOT0_, 
                       __ZN6google8protobuf5Arena18CreateMaybeMessageINS0_14MessageOptionsEJEEEPT_PS1_DpOT0_, 
                       __ZN6google8protobuf5Arena18CreateMaybeMessageINS0_14ServiceOptionsEJEEEPT_PS1_DpOT0_, 
                       __ZN6google8protobuf5Arena18CreateMaybeMessageINS0_14SourceCodeInfoEJEEEPT_PS1_DpOT0_, 
                       __ZN6google8protobuf5Arena18CreateMaybeMessageINS0_15DescriptorProtoEJEEEPT_PS1_DpOT0_, 
                       __ZN6google8protobuf5Arena18CreateMaybeMessageINS0_16EnumValueOptionsEJEEEPT_PS1_DpOT0_, 
                       __ZN6google8protobuf5Arena18CreateMaybeMessageINS0_17FileDescriptorSetEJEEEPT_PS1_DpOT0_, 
                       __ZN6google8protobuf5Arena18CreateMaybeMessageINS0_17GeneratedCodeInfoEJEEEPT_PS1_DpOT0_, 
                       __ZN6google8protobuf5Arena18CreateMaybeMessageINS0_19EnumDescriptorProtoEJEEEPT_PS1_DpOT0_, 
                       __ZN6google8protobuf5Arena18CreateMaybeMessageINS0_19FileDescriptorProtoEJEEEPT_PS1_DpOT0_, 
                       __ZN6google8protobuf5Arena18CreateMaybeMessageINS0_19UninterpretedOptionEJEEEPT_PS1_DpOT0_, 
                       __ZN6google8protobuf5Arena18CreateMaybeMessageINS0_20FieldDescriptorProtoEJEEEPT_PS1_DpOT0_, 
                       __ZN6google8protobuf5Arena18CreateMaybeMessageINS0_20OneofDescriptorProtoEJEEEPT_PS1_DpOT0_, 
                       __ZN6google8protobuf5Arena18CreateMaybeMessageINS0_21ExtensionRangeOptionsEJEEEPT_PS1_DpOT0_, 
                       __ZN6google8protobuf5Arena18CreateMaybeMessageINS0_21MethodDescriptorProtoEJEEEPT_PS1_DpOT0_, 
                       __ZN6google8protobuf5Arena18CreateMaybeMessageINS0_22ServiceDescriptorProtoEJEEEPT_PS1_DpOT0_, 
                       __ZN6google8protobuf5Arena18CreateMaybeMessageINS0_23SourceCodeInfo_LocationEJEEEPT_PS1_DpOT0_, 
                       __ZN6google8protobuf5Arena18CreateMaybeMessageINS0_24EnumValueDescriptorProtoEJEEEPT_PS1_DpOT0_, 
                       __ZN6google8protobuf5Arena18CreateMaybeMessageINS0_28GeneratedCodeInfo_AnnotationEJEEEPT_PS1_DpOT0_, 
                       __ZN6google8protobuf5Arena18CreateMaybeMessageINS0_28UninterpretedOption_NamePartEJEEEPT_PS1_DpOT0_, 
                       __ZN6google8protobuf5Arena18CreateMaybeMessageINS0_29DescriptorProto_ReservedRangeEJEEEPT_PS1_DpOT0_, 
                       __ZN6google8protobuf5Arena18CreateMaybeMessageINS0_30DescriptorProto_ExtensionRangeEJEEEPT_PS1_DpOT0_, 
                       __ZN6google8protobuf5Arena18CreateMaybeMessageINS0_37EnumDescriptorProto_EnumReservedRangeEJEEEPT_PS1_DpOT0_, 
                       __ZN6google8protobuf5Arena21AllocateAlignedNoHookEm, __ZN6google8protobuf6StrCatERKNS0_7strings8AlphaNumES4_, 
                       __ZN6google8protobuf6StrCatERKNS0_7strings8AlphaNumES4_S4_, 
                       __ZN6google8protobuf6StrCatERKNS0_7strings8AlphaNumES4_S4_S4_, 
                       __ZN6google8protobuf6StrCatERKNS0_7strings8AlphaNumES4_S4_S4_S4_, 
                       __ZN6google8protobuf6StrCatERKNS0_7strings8AlphaNumES4_S4_S4_S4_S4_, 
                       __ZN6google8protobuf6StrCatERKNS0_7strings8AlphaNumES4_S4_S4_S4_S4_S4_, 
                       __ZN6google8protobuf6StrCatERKNS0_7strings8AlphaNumES4_S4_S4_S4_S4_S4_S4_, 
                       __ZN6google8protobuf6StrCatERKNS0_7strings8AlphaNumES4_S4_S4_S4_S4_S4_S4_S4_, 
                       __ZN6google8protobuf6ghtonlEj, __ZN6google8protobuf7CEscapeERKNSt3__112basic_stringIcNS1_11char_traitsIcEENS1_9allocatorIcEEEE, 
                       __ZN6google8protobuf7ClosureD0Ev, __ZN6google8protobuf7ClosureD1Ev, 
                       __ZN6google8protobuf7ClosureD2Ev, __ZN6google8protobuf7Message14_InternalParseEPKcPNS0_8internal12ParseContextE, 
                       __ZN6google8protobuf7Message20DiscardUnknownFieldsEv, __ZN6google8protobuf7Message20GetInvariantPerBuildEy, 
                       __ZN6google8protobuf7Message21CheckTypeAndMergeFromERKNS0_11MessageLiteE, 
                       __ZN6google8protobuf7Message5ClearEv, __ZN6google8protobuf7Message8CopyFromERKS1_, 
                       __ZN6google8protobuf7Message9MergeFromERKS1_, __ZN6google8protobuf7strings10CHexEscapeERKNSt3__112basic_stringIcNS2_11char_traitsIcEENS2_9allocatorIcEEEE, 
                       __ZN6google8protobuf7strings10SubstituteEPKcRKNS1_8internal13SubstituteArgES7_S7_S7_S7_S7_S7_S7_S7_S7_, 
                       __ZN6google8protobuf7strings15Utf8SafeCEscapeERKNSt3__112basic_stringIcNS2_11char_traitsIcEENS2_9allocatorIcEEEE, 
                       __ZN6google8protobuf7strings19SubstituteAndAppendEPNSt3__112basic_stringIcNS2_11char_traitsIcEENS2_9allocatorIcEEEEPKcRKNS1_8internal13SubstituteArgESF_SF_SF_SF_SF_SF_SF_SF_SF_, 
                       __ZN6google8protobuf7strings8AlphaNumC1ENS1_3HexE, __ZN6google8protobuf7strings8AlphaNumC2ENS1_3HexE, 
                       __ZN6google8protobuf7uint12810DivModImplES1_S1_PS1_S2_, __ZN6google8protobuf7uint128dVERKS1_, 
                       __ZN6google8protobuf7uint128rMERKS1_, __ZN6google8protobuf8internal10GetTypeUrlENS0_11StringPieceES2_, 
                       __ZN6google8protobuf8internal10LogMessage6FinishEv, __ZN6google8protobuf8internal10LogMessageC1ENS0_8LogLevelEPKci, 
                       __ZN6google8protobuf8internal10LogMessageC2ENS0_8LogLevelEPKci, 
                       __ZN6google8protobuf8internal10LogMessageD1Ev, __ZN6google8protobuf8internal10LogMessageD2Ev, 
                       __ZN6google8protobuf8internal10LogMessagelsEPKc, __ZN6google8protobuf8internal10LogMessagelsEPv, 
                       __ZN6google8protobuf8internal10LogMessagelsERKNS0_11StringPieceE, 
                       __ZN6google8protobuf8internal10LogMessagelsERKNS0_4util6StatusE, 
                       __ZN6google8protobuf8internal10LogMessagelsERKNS0_7uint128E, 
                       __ZN6google8protobuf8internal10LogMessagelsERKNSt3__112basic_stringIcNS3_11char_traitsIcEENS3_9allocatorIcEEEE, 
                       __ZN6google8protobuf8internal10LogMessagelsEc, __ZN6google8protobuf8internal10LogMessagelsEd, 
                       __ZN6google8protobuf8internal10LogMessagelsEi, __ZN6google8protobuf8internal10LogMessagelsEj, 
                       __ZN6google8protobuf8internal10LogMessagelsEl, __ZN6google8protobuf8internal10LogMessagelsEm, 
                       __ZN6google8protobuf8internal10LogMessagelsEx, __ZN6google8protobuf8internal10LogMessagelsEy, 
                       __ZN6google8protobuf8internal10NameOfEnumEPKNS0_14EnumDescriptorEi, 
                       __ZN6google8protobuf8internal10OnShutdownEPFvvE, __ZN6google8protobuf8internal10VerifyUTF8ENS0_11StringPieceEPKc, 
                       __ZN6google8protobuf8internal10WireFormat11SkipMessageEPNS0_2io16CodedInputStreamEPNS0_15UnknownFieldSetE, 
                       __ZN6google8protobuf8internal10WireFormat13FieldByteSizeEPKNS0_15FieldDescriptorERKNS0_7MessageE, 
                       __ZN6google8protobuf8internal10WireFormat14_InternalParseEPNS0_7MessageEPKcPNS1_12ParseContextE, 
                       __ZN6google8protobuf8internal10WireFormat18ParseAndMergeFieldEjPKNS0_15FieldDescriptorEPNS0_7MessageEPNS0_2io16CodedInputStreamE, 
                       __ZN6google8protobuf8internal10WireFormat18_InternalSerializeERKNS0_7MessageEPhPNS0_2io19EpsCopyOutputStreamE, 
                       __ZN6google8protobuf8internal10WireFormat19SkipMessageSetFieldEPNS0_2io16CodedInputStreamEjPNS0_15UnknownFieldSetE, 
                       __ZN6google8protobuf8internal10WireFormat20ParseAndMergePartialEPNS0_2io16CodedInputStreamEPNS0_7MessageE, 
                       __ZN6google8protobuf8internal10WireFormat21FieldDataOnlyByteSizeEPKNS0_15FieldDescriptorERKNS0_7MessageE, 
                       __ZN6google8protobuf8internal10WireFormat22InternalSerializeFieldEPKNS0_15FieldDescriptorERKNS0_7MessageEPhPNS0_2io19EpsCopyOutputStreamE, 
                       __ZN6google8protobuf8internal10WireFormat22MessageSetItemByteSizeEPKNS0_15FieldDescriptorERKNS0_7MessageE, 
                       __ZN6google8protobuf8internal10WireFormat24ComputeUnknownFieldsSizeERKNS0_15UnknownFieldSetE, 
                       __ZN6google8protobuf8internal10WireFormat27ParseAndMergeMessageSetItemEPNS0_2io16CodedInputStreamEPNS0_7MessageE, 
                       __ZN6google8protobuf8internal10WireFormat27_InternalParseAndMergeFieldEPNS0_7MessageEPKcPNS1_12ParseContextEyPKNS0_10ReflectionEPKNS0_15FieldDescriptorE, 
                       __ZN6google8protobuf8internal10WireFormat28ParseAndMergeMessageSetFieldEjPKNS0_15FieldDescriptorEPNS0_7MessageEPNS0_2io16CodedInputStreamE, 
                       __ZN6google8protobuf8internal10WireFormat30ReadPackedEnumPreserveUnknownsEPNS0_2io16CodedInputStreamEjPFbiEPNS0_15UnknownFieldSetEPNS0_13RepeatedFieldIiEE, 
                       __ZN6google8protobuf8internal10WireFormat31InternalSerializeMessageSetItemEPKNS0_15FieldDescriptorERKNS0_7MessageEPhPNS0_2io19EpsCopyOutputStreamE, 
                       __ZN6google8protobuf8internal10WireFormat33ComputeUnknownMessageSetItemsSizeERKNS0_15UnknownFieldSetE, 
                       __ZN6google8protobuf8internal10WireFormat37InternalSerializeUnknownFieldsToArrayERKNS0_15UnknownFieldSetEPhPNS0_2io19EpsCopyOutputStreamE, 
                       __ZN6google8protobuf8internal10WireFormat46InternalSerializeUnknownMessageSetItemsToArrayERKNS0_15UnknownFieldSetEPhPNS0_2io19EpsCopyOutputStreamE, 
                       __ZN6google8protobuf8internal10WireFormat8ByteSizeERKNS0_7MessageE, 
                       __ZN6google8protobuf8internal10WireFormat9SkipFieldEPNS0_2io16CodedInputStreamEjPNS0_15UnknownFieldSetE, 
                       __ZN6google8protobuf8internal11AnyMetadata16InternalPackFromERKNS0_11MessageLiteENS0_11StringPieceES6_, 
                       __ZN6google8protobuf8internal11AnyMetadata8PackFromERKNS0_7MessageE, 
                       __ZN6google8protobuf8internal11AnyMetadata8PackFromERKNS0_7MessageENS0_11StringPieceE, 
                       __ZN6google8protobuf8internal11GenericSwapEPNS0_11MessageLiteES3_, 
                       __ZN6google8protobuf8internal11GenericSwapEPNS0_7MessageES3_, 
                       __ZN6google8protobuf8internal11InitSCCImplEPNS1_11SCCInfoBaseE, 
                       __ZN6google8protobuf8internal11LogFinisheraSERNS1_10LogMessageE, 
                       __ZN6google8protobuf8internal11SerialArena11CleanupListEv, 
                       __ZN6google8protobuf8internal11SerialArena18AddCleanupFallbackEPvPFvS3_E, 
                       __ZN6google8protobuf8internal11SerialArena19CleanupListFallbackEv, 
                       __ZN6google8protobuf8internal11SerialArena23AllocateAlignedFallbackEm, 
                       __ZN6google8protobuf8internal11SerialArena3NewEPNS2_5BlockEPvPNS1_9ArenaImplE, 
                       __ZN6google8protobuf8internal11SerialArena8NewBlockEPNS2_5BlockEmPNS1_9ArenaImplE, 
                       __ZN6google8protobuf8internal11WriteVarintEjyPNSt3__112basic_stringIcNS2_11char_traitsIcEENS2_9allocatorIcEEEE, 
                       __ZN6google8protobuf8internal12ExtensionSet10AddMessageEPKNS0_15FieldDescriptorEPNS0_14MessageFactoryE, 
                       __ZN6google8protobuf8internal12ExtensionSet10AddMessageEihRKNS0_11MessageLiteEPKNS0_15FieldDescriptorE, 
                       __ZN6google8protobuf8internal12ExtensionSet10FindOrNullEi, 
                       __ZN6google8protobuf8internal12ExtensionSet10ParseFieldEjPNS0_2io16CodedInputStreamEPKNS0_11MessageLiteE, 
                       __ZN6google8protobuf8internal12ExtensionSet10ParseFieldEjPNS0_2io16CodedInputStreamEPKNS0_11MessageLiteEPNS3_17CodedOutputStreamE, 
                       __ZN6google8protobuf8internal12ExtensionSet10ParseFieldEjPNS0_2io16CodedInputStreamEPKNS0_7MessageEPNS0_15UnknownFieldSetE, 
                       __ZN6google8protobuf8internal12ExtensionSet10ParseFieldEjPNS0_2io16CodedInputStreamEPNS1_15ExtensionFinderEPNS1_12FieldSkipperE, 
                       __ZN6google8protobuf8internal12ExtensionSet10ParseFieldEyPKcPKNS0_11MessageLiteEPNS1_16InternalMetadataEPNS1_12ParseContextE, 
                       __ZN6google8protobuf8internal12ExtensionSet10ParseFieldEyPKcPKNS0_7MessageEPNS1_16InternalMetadataEPNS1_12ParseContextE, 
                       __ZN6google8protobuf8internal12ExtensionSet10RemoveLastEi, 
                       __ZN6google8protobuf8internal12ExtensionSet11ReleaseLastEi, 
                       __ZN6google8protobuf8internal12ExtensionSet12GrowCapacityEm, 
                       __ZN6google8protobuf8internal12ExtensionSet12SwapElementsEiii, 
                       __ZN6google8protobuf8internal12ExtensionSet13DeleteFlatMapEPKNS2_8KeyValueEt, 
                       __ZN6google8protobuf8internal12ExtensionSet13MutableStringEihPKNS0_15FieldDescriptorE, 
                       __ZN6google8protobuf8internal12ExtensionSet13SwapExtensionEPS2_i, 
                       __ZN6google8protobuf8internal12ExtensionSet14ClearExtensionEi, 
                       __ZN6google8protobuf8internal12ExtensionSet14MutableMessageEPKNS0_15FieldDescriptorEPNS0_14MessageFactoryE, 
                       __ZN6google8protobuf8internal12ExtensionSet14MutableMessageEihRKNS0_11MessageLiteEPKNS0_15FieldDescriptorE, 
                       __ZN6google8protobuf8internal12ExtensionSet14ReleaseMessageEPKNS0_15FieldDescriptorEPNS0_14MessageFactoryE, 
                       __ZN6google8protobuf8internal12ExtensionSet14ReleaseMessageEiRKNS0_11MessageLiteE, 
                       __ZN6google8protobuf8internal12ExtensionSet15ParseMessageSetEPNS0_2io16CodedInputStreamEPKNS0_11MessageLiteEPNSt3__112basic_stringIcNS9_11char_traitsIcEENS9_9allocatorIcEEEE, 
                       __ZN6google8protobuf8internal12ExtensionSet15ParseMessageSetEPNS0_2io16CodedInputStreamEPKNS0_7MessageEPNS0_15UnknownFieldSetE, 
                       __ZN6google8protobuf8internal12ExtensionSet15ParseMessageSetEPNS0_2io16CodedInputStreamEPNS1_15ExtensionFinderEPNS1_22MessageSetFieldSkipperE, 
                       __ZN6google8protobuf8internal12ExtensionSet15SetRepeatedBoolEiib, 
                       __ZN6google8protobuf8internal12ExtensionSet15SetRepeatedEnumEiii, 
                       __ZN6google8protobuf8internal12ExtensionSet16SetRepeatedFloatEiif, 
                       __ZN6google8protobuf8internal12ExtensionSet16SetRepeatedInt32Eiii, 
                       __ZN6google8protobuf8internal12ExtensionSet16SetRepeatedInt64Eiix, 
                       __ZN6google8protobuf8internal12ExtensionSet17MaybeNewExtensionEiPKNS0_15FieldDescriptorEPPNS2_9ExtensionE, 
                       __ZN6google8protobuf8internal12ExtensionSet17RegisterExtensionEPKNS0_11MessageLiteEihbb, 
                       __ZN6google8protobuf8internal12ExtensionSet17SetRepeatedDoubleEiid, 
                       __ZN6google8protobuf8internal12ExtensionSet17SetRepeatedUInt32Eiij, 
                       __ZN6google8protobuf8internal12ExtensionSet17SetRepeatedUInt64Eiiy, 
                       __ZN6google8protobuf8internal12ExtensionSet19AddAllocatedMessageEPKNS0_15FieldDescriptorEPNS0_11MessageLiteE, 
                       __ZN6google8protobuf8internal12ExtensionSet19ParseMessageSetItemEPKcPKNS0_11MessageLiteEPNS1_16InternalMetadataEPNS1_12ParseContextE, 
                       __ZN6google8protobuf8internal12ExtensionSet19ParseMessageSetItemEPKcPKNS0_7MessageEPNS1_16InternalMetadataEPNS1_12ParseContextE, 
                       __ZN6google8protobuf8internal12ExtensionSet19ParseMessageSetItemEPNS0_2io16CodedInputStreamEPNS1_15ExtensionFinderEPNS1_22MessageSetFieldSkipperE, 
                       __ZN6google8protobuf8internal12ExtensionSet19ParseMessageSetLiteEPNS0_2io16CodedInputStreamEPNS1_15ExtensionFinderEPNS1_12FieldSkipperE, 
                       __ZN6google8protobuf8internal12ExtensionSet19SetAllocatedMessageEihPKNS0_15FieldDescriptorEPNS0_11MessageLiteE, 
                       __ZN6google8protobuf8internal12ExtensionSet20FindOrNullInLargeMapEi, 
                       __ZN6google8protobuf8internal12ExtensionSet20LazyMessageExtension15UnusedKeyMethodEv, 
                       __ZN6google8protobuf8internal12ExtensionSet20kMaximumFlatCapacityE, 
                       __ZN6google8protobuf8internal12ExtensionSet21MutableRepeatedStringEii, 
                       __ZN6google8protobuf8internal12ExtensionSet21ParseFieldMaybeLazilyEiiPNS0_2io16CodedInputStreamEPNS1_15ExtensionFinderEPNS1_22MessageSetFieldSkipperE, 
                       __ZN6google8protobuf8internal12ExtensionSet21ParseFieldMaybeLazilyEyPKcPKNS0_7MessageEPNS1_16InternalMetadataEPNS1_12ParseContextE, 
                       __ZN6google8protobuf8internal12ExtensionSet21RegisterEnumExtensionEPKNS0_11MessageLiteEihbbPFbiE, 
                       __ZN6google8protobuf8internal12ExtensionSet22MutableRepeatedMessageEii, 
                       __ZN6google8protobuf8internal12ExtensionSet23MutableRawRepeatedFieldEi, 
                       __ZN6google8protobuf8internal12ExtensionSet23MutableRawRepeatedFieldEihbPKNS0_15FieldDescriptorE, 
                       __ZN6google8protobuf8internal12ExtensionSet23ParseMessageSetItemLiteEPNS0_2io16CodedInputStreamEPNS1_15ExtensionFinderEPNS1_12FieldSkipperE, 
                       __ZN6google8protobuf8internal12ExtensionSet24FindExtensionInfoFromTagEjPNS1_15ExtensionFinderEPiPNS1_13ExtensionInfoEPb, 
                       __ZN6google8protobuf8internal12ExtensionSet24RegisterMessageExtensionEPKNS0_11MessageLiteEihbbS5_, 
                       __ZN6google8protobuf8internal12ExtensionSet25MaybeNewRepeatedExtensionEPKNS0_15FieldDescriptorE, 
                       __ZN6google8protobuf8internal12ExtensionSet25UnsafeArenaReleaseMessageEPKNS0_15FieldDescriptorEPNS0_14MessageFactoryE, 
                       __ZN6google8protobuf8internal12ExtensionSet25UnsafeArenaReleaseMessageEiRKNS0_11MessageLiteE, 
                       __ZN6google8protobuf8internal12ExtensionSet26InternalExtensionMergeFromEiRKNS2_9ExtensionE, 
                       __ZN6google8protobuf8internal12ExtensionSet27ParseFieldWithExtensionInfoEibRKNS1_13ExtensionInfoEPNS0_2io16CodedInputStreamEPNS1_12FieldSkipperE, 
                       __ZN6google8protobuf8internal12ExtensionSet30UnsafeArenaSetAllocatedMessageEihPKNS0_15FieldDescriptorEPNS0_11MessageLiteE, 
                       __ZN6google8protobuf8internal12ExtensionSet32FindExtensionInfoFromFieldNumberEiiPNS1_15ExtensionFinderEPNS1_13ExtensionInfoEPb, 
                       __ZN6google8protobuf8internal12ExtensionSet4SwapEPS2_, __ZN6google8protobuf8internal12ExtensionSet5ClearEv, 
                       __ZN6google8protobuf8internal12ExtensionSet5EraseEi, __ZN6google8protobuf8internal12ExtensionSet6InsertEi, 
                       __ZN6google8protobuf8internal12ExtensionSet7AddBoolEihbbPKNS0_15FieldDescriptorE, 
                       __ZN6google8protobuf8internal12ExtensionSet7AddEnumEihbiPKNS0_15FieldDescriptorE, 
                       __ZN6google8protobuf8internal12ExtensionSet7SetBoolEihbPKNS0_15FieldDescriptorE, 
                       __ZN6google8protobuf8internal12ExtensionSet7SetEnumEihiPKNS0_15FieldDescriptorE, 
                       __ZN6google8protobuf8internal12ExtensionSet8AddFloatEihbfPKNS0_15FieldDescriptorE, 
                       __ZN6google8protobuf8internal12ExtensionSet8AddInt32EihbiPKNS0_15FieldDescriptorE, 
                       __ZN6google8protobuf8internal12ExtensionSet8AddInt64EihbxPKNS0_15FieldDescriptorE, 
                       __ZN6google8protobuf8internal12ExtensionSet8SetFloatEihfPKNS0_15FieldDescriptorE, 
                       __ZN6google8protobuf8internal12ExtensionSet8SetInt32EihiPKNS0_15FieldDescriptorE, 
                       __ZN6google8protobuf8internal12ExtensionSet8SetInt64EihxPKNS0_15FieldDescriptorE, 
                       __ZN6google8protobuf8internal12ExtensionSet9AddDoubleEihbdPKNS0_15FieldDescriptorE, 
                       __ZN6google8protobuf8internal12ExtensionSet9AddStringEihPKNS0_15FieldDescriptorE, 
                       __ZN6google8protobuf8internal12ExtensionSet9AddUInt32EihbjPKNS0_15FieldDescriptorE, 
                       __ZN6google8protobuf8internal12ExtensionSet9AddUInt64EihbyPKNS0_15FieldDescriptorE, 
                       __ZN6google8protobuf8internal12ExtensionSet9Extension4FreeEv, 
                       __ZN6google8protobuf8internal12ExtensionSet9Extension5ClearEv, 
                       __ZN6google8protobuf8internal12ExtensionSet9MergeFromERKS2_, 
                       __ZN6google8protobuf8internal12ExtensionSet9SetDoubleEihdPKNS0_15FieldDescriptorE, 
                       __ZN6google8protobuf8internal12ExtensionSet9SetUInt32EihjPKNS0_15FieldDescriptorE, 
                       __ZN6google8protobuf8internal12ExtensionSet9SetUInt64EihyPKNS0_15FieldDescriptorE, 
                       __ZN6google8protobuf8internal12ExtensionSetC1EPNS0_5ArenaE, 
                       __ZN6google8protobuf8internal12ExtensionSetC2EPNS0_5ArenaE, 
                       __ZN6google8protobuf8internal12ExtensionSetD1Ev, __ZN6google8protobuf8internal12ExtensionSetD2Ev, 
                       __ZN6google8protobuf8internal12FieldSkipper11SkipMessageEPNS0_2io16CodedInputStreamE, 
                       __ZN6google8protobuf8internal12FieldSkipper15SkipUnknownEnumEii, 
                       __ZN6google8protobuf8internal12FieldSkipper9SkipFieldEPNS0_2io16CodedInputStreamEj, 
                       __ZN6google8protobuf8internal12MapFieldBase11SetMapDirtyEv, 
                       __ZN6google8protobuf8internal12MapFieldBase16SetRepeatedDirtyEv, 
                       __ZN6google8protobuf8internal12MapFieldBase20MutableRepeatedFieldEv, 
                       __ZN6google8protobuf8internal12MapFieldBaseD0Ev, __ZN6google8protobuf8internal12MapFieldBaseD1Ev, 
                       __ZN6google8protobuf8internal12MapFieldBaseD2Ev, __ZN6google8protobuf8internal12ParseContext12ParseMessageEPNS0_11MessageLiteEPKc, 
                       __ZN6google8protobuf8internal12ParseContext12ParseMessageEPNS0_7MessageEPKc, 
                       __ZN6google8protobuf8internal12StringParserEPKcS3_PvPNS1_12ParseContextE, 
                       __ZN6google8protobuf8internal13DestroyStringEPKv, __ZN6google8protobuf8internal13FieldMetadata13CalculateTypeEiNS2_14FieldTypeClassE, 
                       __ZN6google8protobuf8internal13OnShutdownRunEPFvPKvES3_, __ZN6google8protobuf8internal13ReflectionOps13IsInitializedERKNS0_7MessageE, 
                       __ZN6google8protobuf8internal13ReflectionOps13IsInitializedERKNS0_7MessageEbb, 
                       __ZN6google8protobuf8internal13ReflectionOps20DiscardUnknownFieldsEPNS0_7MessageE, 
                       __ZN6google8protobuf8internal13ReflectionOps24FindInitializationErrorsERKNS0_7MessageERKNSt3__112basic_stringIcNS6_11char_traitsIcEENS6_9allocatorIcEEEEPNS6_6vectorISC_NSA_ISC_EEEE, 
                       __ZN6google8protobuf8internal13ReflectionOps4CopyERKNS0_7MessageEPS3_, 
                       __ZN6google8protobuf8internal13ReflectionOps5ClearEPNS0_7MessageE, 
                       __ZN6google8protobuf8internal13ReflectionOps5MergeERKNS0_7MessageEPS3_, 
                       __ZN6google8protobuf8internal13VerifyVersionEiiPKc, __ZN6google8protobuf8internal13VersionStringEi, 
                       __ZN6google8protobuf8internal14AddDescriptorsEPKNS1_15DescriptorTableE, 
                       __ZN6google8protobuf8internal14ArenaStringPtr12ClearToEmptyEv, 
                       __ZN6google8protobuf8internal14ArenaStringPtr12SetAllocatedEPKNSt3__112basic_stringIcNS3_11char_traitsIcEENS3_9allocatorIcEEEEPS9_PNS0_5ArenaE, 
                       __ZN6google8protobuf8internal14ArenaStringPtr13MutableNoCopyEPKNSt3__112basic_stringIcNS3_11char_traitsIcEENS3_9allocatorIcEEEEPNS0_5ArenaE, 
                       __ZN6google8protobuf8internal14ArenaStringPtr14ClearToDefaultERKNS1_10LazyStringEPNS0_5ArenaE, 
                       __ZN6google8protobuf8internal14ArenaStringPtr17ReleaseNonDefaultEPKNSt3__112basic_stringIcNS3_11char_traitsIcEENS3_9allocatorIcEEEEPNS0_5ArenaE, 
                       __ZN6google8protobuf8internal14ArenaStringPtr3SetENS2_12EmptyDefaultEONSt3__112basic_stringIcNS4_11char_traitsIcEENS4_9allocatorIcEEEEPNS0_5ArenaE, 
                       __ZN6google8protobuf8internal14ArenaStringPtr3SetENS2_12EmptyDefaultERKNSt3__112basic_stringIcNS4_11char_traitsIcEENS4_9allocatorIcEEEEPNS0_5ArenaE, 
                       __ZN6google8protobuf8internal14ArenaStringPtr3SetENS2_15NonEmptyDefaultEONSt3__112basic_stringIcNS4_11char_traitsIcEENS4_9allocatorIcEEEEPNS0_5ArenaE, 
                       __ZN6google8protobuf8internal14ArenaStringPtr3SetENS2_15NonEmptyDefaultERKNSt3__112basic_stringIcNS4_11char_traitsIcEENS4_9allocatorIcEEEEPNS0_5ArenaE, 
                       __ZN6google8protobuf8internal14ArenaStringPtr3SetEPKNSt3__112basic_stringIcNS3_11char_traitsIcEENS3_9allocatorIcEEEEOS9_PNS0_5ArenaE, 
                       __ZN6google8protobuf8internal14ArenaStringPtr3SetEPKNSt3__112basic_stringIcNS3_11char_traitsIcEENS3_9allocatorIcEEEERSA_PNS0_5ArenaE, 
                       __ZN6google8protobuf8internal14ArenaStringPtr7DestroyENS2_12EmptyDefaultEPNS0_5ArenaE, 
                       __ZN6google8protobuf8internal14ArenaStringPtr7DestroyENS2_15NonEmptyDefaultEPNS0_5ArenaE, 
                       __ZN6google8protobuf8internal14ArenaStringPtr7DestroyEPKNSt3__112basic_stringIcNS3_11char_traitsIcEENS3_9allocatorIcEEEEPNS0_5ArenaE, 
                       __ZN6google8protobuf8internal14ArenaStringPtr7MutableENS2_12EmptyDefaultEPNS0_5ArenaE, 
                       __ZN6google8protobuf8internal14ArenaStringPtr7MutableERKNS1_10LazyStringEPNS0_5ArenaE, 
                       __ZN6google8protobuf8internal14ArenaStringPtr7ReleaseEPKNSt3__112basic_stringIcNS3_11char_traitsIcEENS3_9allocatorIcEEEEPNS0_5ArenaE, 
                       __ZN6google8protobuf8internal14DestroyMessageEPKv, __ZN6google8protobuf8internal14LazyDescriptor10OnceStaticEPS2_, 
                       __ZN6google8protobuf8internal14LazyDescriptor12OnceInternalEv, 
                       __ZN6google8protobuf8internal14LazyDescriptor3SetEPKNS0_10DescriptorE, 
                       __ZN6google8protobuf8internal14LazyDescriptor4OnceEv, __ZN6google8protobuf8internal14LazyDescriptor7SetLazyENS0_11StringPieceEPKNS0_14FileDescriptorE, 
                       __ZN6google8protobuf8internal14NoLocaleStrtodEPKcPPc, __ZN6google8protobuf8internal14NullLogHandlerENS0_8LogLevelEPKciRKNSt3__112basic_stringIcNS5_11char_traitsIcEENS5_9allocatorIcEEEE, 
                       __ZN6google8protobuf8internal14ParseNamedEnumEPKNS0_14EnumDescriptorERKNSt3__112basic_stringIcNS5_11char_traitsIcEENS5_9allocatorIcEEEEPi, 
                       __ZN6google8protobuf8internal14WireFormatLite10SInt32SizeERKNS0_13RepeatedFieldIiEE, 
                       __ZN6google8protobuf8internal14WireFormatLite10SInt64SizeERKNS0_13RepeatedFieldIxEE, 
                       __ZN6google8protobuf8internal14WireFormatLite10UInt32SizeERKNS0_13RepeatedFieldIjEE, 
                       __ZN6google8protobuf8internal14WireFormatLite10UInt64SizeERKNS0_13RepeatedFieldIyEE, 
                       __ZN6google8protobuf8internal14WireFormatLite10WriteBytesEiRKNSt3__112basic_stringIcNS3_11char_traitsIcEENS3_9allocatorIcEEEEPNS0_2io17CodedOutputStreamE, 
                       __ZN6google8protobuf8internal14WireFormatLite10WriteFloatEifPNS0_2io17CodedOutputStreamE, 
                       __ZN6google8protobuf8internal14WireFormatLite10WriteGroupEiRKNS0_11MessageLiteEPNS0_2io17CodedOutputStreamE, 
                       __ZN6google8protobuf8internal14WireFormatLite10WriteInt32EiiPNS0_2io17CodedOutputStreamE, 
                       __ZN6google8protobuf8internal14WireFormatLite10WriteInt64EixPNS0_2io17CodedOutputStreamE, 
                       __ZN6google8protobuf8internal14WireFormatLite11SkipMessageEPNS0_2io16CodedInputStreamE, 
                       __ZN6google8protobuf8internal14WireFormatLite11SkipMessageEPNS0_2io16CodedInputStreamEPNS3_17CodedOutputStreamE, 
                       __ZN6google8protobuf8internal14WireFormatLite11WriteDoubleEidPNS0_2io17CodedOutputStreamE, 
                       __ZN6google8protobuf8internal14WireFormatLite11WriteSInt32EiiPNS0_2io17CodedOutputStreamE, 
                       __ZN6google8protobuf8internal14WireFormatLite11WriteSInt64EixPNS0_2io17CodedOutputStreamE, 
                       __ZN6google8protobuf8internal14WireFormatLite11WriteStringEiRKNSt3__112basic_stringIcNS3_11char_traitsIcEENS3_9allocatorIcEEEEPNS0_2io17CodedOutputStreamE, 
                       __ZN6google8protobuf8internal14WireFormatLite11WriteUInt32EijPNS0_2io17CodedOutputStreamE, 
                       __ZN6google8protobuf8internal14WireFormatLite11WriteUInt64EiyPNS0_2io17CodedOutputStreamE, 
                       __ZN6google8protobuf8internal14WireFormatLite12WriteFixed32EijPNS0_2io17CodedOutputStreamE, 
                       __ZN6google8protobuf8internal14WireFormatLite12WriteFixed64EiyPNS0_2io17CodedOutputStreamE, 
                       __ZN6google8protobuf8internal14WireFormatLite12WriteMessageEiRKNS0_11MessageLiteEPNS0_2io17CodedOutputStreamE, 
                       __ZN6google8protobuf8internal14WireFormatLite13WriteSFixed32EiiPNS0_2io17CodedOutputStreamE, 
                       __ZN6google8protobuf8internal14WireFormatLite13WriteSFixed64EixPNS0_2io17CodedOutputStreamE, 
                       __ZN6google8protobuf8internal14WireFormatLite14WriteBoolArrayEPKbiPNS0_2io17CodedOutputStreamE, 
                       __ZN6google8protobuf8internal14WireFormatLite15WriteFloatArrayEPKfiPNS0_2io17CodedOutputStreamE, 
                       __ZN6google8protobuf8internal14WireFormatLite16VerifyUtf8StringEPKciNS2_9OperationES4_, 
                       __ZN6google8protobuf8internal14WireFormatLite16WriteDoubleArrayEPKdiPNS0_2io17CodedOutputStreamE, 
                       __ZN6google8protobuf8internal14WireFormatLite17WriteFixed32ArrayEPKjiPNS0_2io17CodedOutputStreamE, 
                       __ZN6google8protobuf8internal14WireFormatLite17WriteFixed64ArrayEPKyiPNS0_2io17CodedOutputStreamE, 
                       __ZN6google8protobuf8internal14WireFormatLite18WriteSFixed32ArrayEPKiiPNS0_2io17CodedOutputStreamE, 
                       __ZN6google8protobuf8internal14WireFormatLite18WriteSFixed64ArrayEPKxiPNS0_2io17CodedOutputStreamE, 
                       __ZN6google8protobuf8internal14WireFormatLite20kMessageSetTypeIdTagE, 
                       __ZN6google8protobuf8internal14WireFormatLite21kMessageSetItemEndTagE, 
                       __ZN6google8protobuf8internal14WireFormatLite21kMessageSetMessageTagE, 
                       __ZN6google8protobuf8internal14WireFormatLite21kWireTypeForFieldTypeE, 
                       __ZN6google8protobuf8internal14WireFormatLite22WriteBytesMaybeAliasedEiRKNSt3__112basic_stringIcNS3_11char_traitsIcEENS3_9allocatorIcEEEEPNS0_2io17CodedOutputStreamE, 
                       __ZN6google8protobuf8internal14WireFormatLite22WriteGroupMaybeToArrayEiRKNS0_11MessageLiteEPNS0_2io17CodedOutputStreamE, 
                       __ZN6google8protobuf8internal14WireFormatLite22kFieldTypeToCppTypeMapE, 
                       __ZN6google8protobuf8internal14WireFormatLite23WriteStringMaybeAliasedEiRKNSt3__112basic_stringIcNS3_11char_traitsIcEENS3_9allocatorIcEEEEPNS0_2io17CodedOutputStreamE, 
                       __ZN6google8protobuf8internal14WireFormatLite23kMessageSetItemStartTagE, 
                       __ZN6google8protobuf8internal14WireFormatLite23kMessageSetItemTagsSizeE, 
                       __ZN6google8protobuf8internal14WireFormatLite24WriteMessageMaybeToArrayEiRKNS0_11MessageLiteEPNS0_2io17CodedOutputStreamE, 
                       __ZN6google8protobuf8internal14WireFormatLite27WriteSubMessageMaybeToArrayEiRKNS0_11MessageLiteEPNS0_2io17CodedOutputStreamE, 
                       __ZN6google8protobuf8internal14WireFormatLite30ReadPackedEnumPreserveUnknownsEPNS0_2io16CodedInputStreamEiPFbiEPNS3_17CodedOutputStreamEPNS0_13RepeatedFieldIiEE, 
                       __ZN6google8protobuf8internal14WireFormatLite8EnumSizeERKNS0_13RepeatedFieldIiEE, 
                       __ZN6google8protobuf8internal14WireFormatLite9Int32SizeERKNS0_13RepeatedFieldIiEE, 
                       __ZN6google8protobuf8internal14WireFormatLite9Int64SizeERKNS0_13RepeatedFieldIxEE, 
                       __ZN6google8protobuf8internal14WireFormatLite9ReadBytesEPNS0_2io16CodedInputStreamEPNSt3__112basic_stringIcNS6_11char_traitsIcEENS6_9allocatorIcEEEE, 
                       __ZN6google8protobuf8internal14WireFormatLite9ReadBytesEPNS0_2io16CodedInputStreamEPPNSt3__112basic_stringIcNS6_11char_traitsIcEENS6_9allocatorIcEEEE, 
                       __ZN6google8protobuf8internal14WireFormatLite9SkipFieldEPNS0_2io16CodedInputStreamEj, 
                       __ZN6google8protobuf8internal14WireFormatLite9SkipFieldEPNS0_2io16CodedInputStreamEjPNS3_17CodedOutputStreamE, 
                       __ZN6google8protobuf8internal14WireFormatLite9WriteBoolEibPNS0_2io17CodedOutputStreamE, 
                       __ZN6google8protobuf8internal14WireFormatLite9WriteEnumEiiPNS0_2io17CodedOutputStreamE, 
                       __ZN6google8protobuf8internal15DynamicMapField10MutableMapEv, 
                       __ZN6google8protobuf8internal15DynamicMapField14DeleteMapValueERKNS0_6MapKeyE, 
                       __ZN6google8protobuf8internal15DynamicMapField16AllocateMapValueEPNS0_11MapValueRefE, 
                       __ZN6google8protobuf8internal15DynamicMapField22InsertOrLookupMapValueERKNS0_6MapKeyEPNS0_11MapValueRefE, 
                       __ZN6google8protobuf8internal15DynamicMapField4SwapEPNS1_12MapFieldBaseE, 
                       __ZN6google8protobuf8internal15DynamicMapField5ClearEv, __ZN6google8protobuf8internal15DynamicMapField9MergeFromERKNS1_12MapFieldBaseE, 
                       __ZN6google8protobuf8internal15DynamicMapFieldC1EPKNS0_7MessageE, 
                       __ZN6google8protobuf8internal15DynamicMapFieldC1EPKNS0_7MessageEPNS0_5ArenaE, 
                       __ZN6google8protobuf8internal15DynamicMapFieldC2EPKNS0_7MessageE, 
                       __ZN6google8protobuf8internal15DynamicMapFieldC2EPKNS0_7MessageEPNS0_5ArenaE, 
                       __ZN6google8protobuf8internal15DynamicMapFieldD0Ev, __ZN6google8protobuf8internal15DynamicMapFieldD1Ev, 
                       __ZN6google8protobuf8internal15DynamicMapFieldD2Ev, __ZN6google8protobuf8internal15ExtensionFinderD0Ev, 
                       __ZN6google8protobuf8internal15ExtensionFinderD1Ev, __ZN6google8protobuf8internal15ExtensionFinderD2Ev, 
                       __ZN6google8protobuf8internal15ParseAnyTypeUrlENS0_11StringPieceEPNSt3__112basic_stringIcNS3_11char_traitsIcEENS3_9allocatorIcEEEE, 
                       __ZN6google8protobuf8internal15ParseAnyTypeUrlENS0_11StringPieceEPNSt3__112basic_stringIcNS3_11char_traitsIcEENS3_9allocatorIcEEEESA_, 
                       __ZN6google8protobuf8internal15ReadTagFallbackEPKcj, __ZN6google8protobuf8internal15UTF8GenericScanEPKNS1_19UTF8StateMachineObjEPKciPi, 
                       __ZN6google8protobuf8internal16FunctionClosure0D0Ev, __ZN6google8protobuf8internal16FunctionClosure0D1Ev, 
                       __ZN6google8protobuf8internal16FunctionClosure0D2Ev, __ZN6google8protobuf8internal16PackedBoolParserEPvPKcPNS1_12ParseContextE, 
                       __ZN6google8protobuf8internal16PackedEnumParserEPvPKcPNS1_12ParseContextE, 
                       __ZN6google8protobuf8internal16ReadSizeFallbackEPKcj, __ZN6google8protobuf8internal16kAnyFullTypeNameE, 
                       __ZN6google8protobuf8internal17AssignDescriptorsEPKNS1_15DescriptorTableEb, 
                       __ZN6google8protobuf8internal17DefaultLogHandlerENS0_8LogLevelEPKciRKNSt3__112basic_stringIcNS5_11char_traitsIcEENS5_9allocatorIcEEEE, 
                       __ZN6google8protobuf8internal17PackedFloatParserEPvPKcPNS1_12ParseContextE, 
                       __ZN6google8protobuf8internal17PackedInt32ParserEPvPKcPNS1_12ParseContextE, 
                       __ZN6google8protobuf8internal17PackedInt64ParserEPvPKcPNS1_12ParseContextE, 
                       __ZN6google8protobuf8internal17PrintUTF8ErrorLogEPKcS3_b, 
                       __ZN6google8protobuf8internal17SerializeInternalEPKhPKNS1_13FieldMetadataEiPNS0_2io17CodedOutputStreamE, 
                       __ZN6google8protobuf8internal17UnknownFieldParseEjPNSt3__112basic_stringIcNS2_11char_traitsIcEENS2_9allocatorIcEEEEPKcPNS1_12ParseContextE, 
                       __ZN6google8protobuf8internal17UnknownFieldParseEyPNS0_15UnknownFieldSetEPKcPNS1_12ParseContextE, 
                       __ZN6google8protobuf8internal17UnknownGroupParseEPNS0_15UnknownFieldSetEPKcPNS1_12ParseContextE, 
                       __ZN6google8protobuf8internal17VarintParseSlow32EPKcj, __ZN6google8protobuf8internal17VarintParseSlow64EPKcj, 
                       __ZN6google8protobuf8internal17kGlobalEmptyTableE, __ZN6google8protobuf8internal18EpsCopyInputStream12DoneFallbackEii, 
                       __ZN6google8protobuf8internal18EpsCopyInputStream12SkipFallbackEPKci, 
                       __ZN6google8protobuf8internal18EpsCopyInputStream18ReadStringFallbackEPKciPNSt3__112basic_stringIcNS5_11char_traitsIcEENS5_9allocatorIcEEEE, 
                       __ZN6google8protobuf8internal18EpsCopyInputStream20AppendStringFallbackEPKciPNSt3__112basic_stringIcNS5_11char_traitsIcEENS5_9allocatorIcEEEE, 
                       __ZN6google8protobuf8internal18EpsCopyInputStream4NextEv, 
                       __ZN6google8protobuf8internal18EpsCopyInputStream8InitFromEPNS0_2io19ZeroCopyInputStreamE, 
                       __ZN6google8protobuf8internal18GenericTypeHandlerINS0_11MessageLiteEE16NewFromPrototypeEPKS3_PNS0_5ArenaE, 
                       __ZN6google8protobuf8internal18GenericTypeHandlerINS0_11MessageLiteEE5MergeERKS3_PS3_, 
                       __ZN6google8protobuf8internal18GenericTypeHandlerINS0_7MessageEE16NewFromPrototypeEPKS3_PNS0_5ArenaE, 
                       __ZN6google8protobuf8internal18GenericTypeHandlerINS0_7MessageEE20GetMaybeArenaPointerEPS3_, 
                       __ZN6google8protobuf8internal18GenericTypeHandlerINS0_7MessageEE8GetArenaEPS3_, 
                       __ZN6google8protobuf8internal18GenericTypeHandlerINSt3__112basic_stringIcNS3_11char_traitsIcEENS3_9allocatorIcEEEEE5MergeERKS9_PS9_, 
                       __ZN6google8protobuf8internal18PackedDoubleParserEPvPKcPNS1_12ParseContextE, 
                       __ZN6google8protobuf8internal18PackedSInt32ParserEPvPKcPNS1_12ParseContextE, 
                       __ZN6google8protobuf8internal18PackedSInt64ParserEPvPKcPNS1_12ParseContextE, 
                       __ZN6google8protobuf8internal18PackedUInt32ParserEPvPKcPNS1_12ParseContextE, 
                       __ZN6google8protobuf8internal18PackedUInt64ParserEPvPKcPNS1_12ParseContextE, 
                       __ZN6google8protobuf8internal19ExtensionSerializerEPKhjjjPNS0_2io17CodedOutputStreamE, 
                       __ZN6google8protobuf8internal19ImplicitWeakMessage14_InternalParseEPKcPNS1_12ParseContextE, 
                       __ZN6google8protobuf8internal19ImplicitWeakMessage16default_instanceEv, 
                       __ZN6google8protobuf8internal19PackedFixed32ParserEPvPKcPNS1_12ParseContextE, 
                       __ZN6google8protobuf8internal19PackedFixed64ParserEPvPKcPNS1_12ParseContextE, 
                       __ZN6google8protobuf8internal20PackedSFixed32ParserEPvPKcPNS1_12ParseContextE, 
                       __ZN6google8protobuf8internal20PackedSFixed64ParserEPvPKcPNS1_12ParseContextE, 
                       __ZN6google8protobuf8internal20RepeatedPtrFieldBase14InternalExtendEi, 
                       __ZN6google8protobuf8internal20RepeatedPtrFieldBase7AddWeakEPKNS0_11MessageLiteE, 
                       __ZN6google8protobuf8internal20RepeatedPtrFieldBase7ReserveEi, 
                       __ZN6google8protobuf8internal20RepeatedPtrFieldBase8CloseGapEii, 
                       __ZN6google8protobuf8internal20WriteLengthDelimitedEjNS0_11StringPieceEPNSt3__112basic_stringIcNS3_11char_traitsIcEENS3_9allocatorIcEEEE, 
                       __ZN6google8protobuf8internal21ArenaMetricsCollectorD0Ev, 
                       __ZN6google8protobuf8internal21ArenaMetricsCollectorD1Ev, 
                       __ZN6google8protobuf8internal21ArenaMetricsCollectorD2Ev, 
                       __ZN6google8protobuf8internal21MapFieldPrinterHelper7CopyKeyERKNS0_6MapKeyEPNS0_7MessageEPKNS0_15FieldDescriptorE, 
                       __ZN6google8protobuf8internal21MapFieldPrinterHelper7SortMapERKNS0_7MessageEPKNS0_10ReflectionEPKNS0_15FieldDescriptorEPNS0_14MessageFactoryEPNSt3__16vectorIPS4_NSE_9allocatorISG_EEEE, 
                       __ZN6google8protobuf8internal21MapFieldPrinterHelper9CopyValueERKNS0_11MapValueRefEPNS0_7MessageEPKNS0_15FieldDescriptorE, 
                       __ZN6google8protobuf8internal21UnknownGroupLiteParseEPNSt3__112basic_stringIcNS2_11char_traitsIcEENS2_9allocatorIcEEEEPKcPNS1_12ParseContextE, 
                       __ZN6google8protobuf8internal22GetAnyFieldDescriptorsERKNS0_7MessageEPPKNS0_15FieldDescriptorES8_, 
                       __ZN6google8protobuf8internal22MessageSetFieldSkipper19SkipMessageSetFieldEPNS0_2io16CodedInputStreamEi, 
                       __ZN6google8protobuf8internal23CreateUnknownEnumValuesEPKNS0_15FieldDescriptorE, 
                       __ZN6google8protobuf8internal23GetOwnedMessageInternalEPNS0_5ArenaEPNS0_11MessageLiteES3_, 
                       __ZN6google8protobuf8internal23IsStructurallyValidUTF8EPKci, 
                       __ZN6google8protobuf8internal23SerializeMessageNoTableEPKNS0_11MessageLiteEPNS0_2io17CodedOutputStreamE, 
                       __ZN6google8protobuf8internal23SerializeMessageNoTableEPKNS0_11MessageLiteEPNS1_11ArrayOutputE, 
                       __ZN6google8protobuf8internal23SerializeNotImplementedEi, 
                       __ZN6google8protobuf8internal24ComputeUnknownFieldsSizeERKNS1_16InternalMetadataEmPNS1_10CachedSizeE, 
                       __ZN6google8protobuf8internal24GeneratedExtensionFinder4FindEiPNS1_13ExtensionInfoE, 
                       __ZN6google8protobuf8internal24InitProtobufDefaultsSlowEv, 
                       __ZN6google8protobuf8internal24InlineGreedyStringParserEPNSt3__112basic_stringIcNS2_11char_traitsIcEENS2_9allocatorIcEEEEPKcPNS1_12ParseContextE, 
                       __ZN6google8protobuf8internal24RepeatedStringTypeTraits23GetDefaultRepeatedFieldEv, 
                       __ZN6google8protobuf8internal24SerializeInternalToArrayEPKhPKNS1_13FieldMetadataEibPh, 
                       __ZN6google8protobuf8internal24SerializeMessageDispatchERKNS0_11MessageLiteEPKNS1_13FieldMetadataEiiPNS0_2io17CodedOutputStreamE, 
                       __ZN6google8protobuf8internal24SerializeMessageDispatchERKNS0_11MessageLiteEPKNS1_13FieldMetadataEiiPNS1_11ArrayOutputE, 
                       __ZN6google8protobuf8internal24UTF8GenericScanFastAsciiEPKNS1_19UTF8StateMachineObjEPKciPi, 
                       __ZN6google8protobuf8internal24UTF8SpnStructurallyValidENS0_11StringPieceE, 
                       __ZN6google8protobuf8internal24kTypeGoogleApisComPrefixE, 
                       __ZN6google8protobuf8internal24kTypeGoogleProdComPrefixE, 
                       __ZN6google8protobuf8internal25RegisterFileLevelMetadataEPKNS1_15DescriptorTableE, 
                       __ZN6google8protobuf8internal25RepeatedPrimitiveDefaults16default_instanceEv, 
                       __ZN6google8protobuf8internal25UnknownFieldSetSerializerEPKhjjjPNS0_2io17CodedOutputStreamE, 
                       __ZN6google8protobuf8internal26DuplicateIfNonNullInternalEPNS0_11MessageLiteE, 
                       __ZN6google8protobuf8internal26UnknownFieldSerializerLiteEPKhjjjPNS0_2io17CodedOutputStreamE, 
                       __ZN6google8protobuf8internal26fixed_address_empty_stringE, 
                       __ZN6google8protobuf8internal27UnknownFieldSetFieldSkipper11SkipMessageEPNS0_2io16CodedInputStreamE, 
                       __ZN6google8protobuf8internal27UnknownFieldSetFieldSkipper15SkipUnknownEnumEii, 
                       __ZN6google8protobuf8internal27UnknownFieldSetFieldSkipper9SkipFieldEPNS0_2io16CodedInputStreamEj, 
                       __ZN6google8protobuf8internal28init_protobuf_defaults_stateE, 
                       __ZN6google8protobuf8internal29CodedOutputStreamFieldSkipper11SkipMessageEPNS0_2io16CodedInputStreamE, 
                       __ZN6google8protobuf8internal29CodedOutputStreamFieldSkipper15SkipUnknownEnumEii, 
                       __ZN6google8protobuf8internal29CodedOutputStreamFieldSkipper9SkipFieldEPNS0_2io16CodedInputStreamEj, 
                       __ZN6google8protobuf8internal29DescriptorPoolExtensionFinder4FindEiPNS1_13ExtensionInfoE, 
                       __ZN6google8protobuf8internal29UTF8CoerceToStructurallyValidENS0_11StringPieceEPcc, 
                       __ZN6google8protobuf8internal32StringSpaceUsedExcludingSelfLongERKNSt3__112basic_stringIcNS2_11char_traitsIcEENS2_9allocatorIcEEEE, 
                       __ZN6google8protobuf8internal32implicit_weak_message_once_init_E, 
                       __ZN6google8protobuf8internal38InitImplicitWeakMessageDefaultInstanceEv, 
                       __ZN6google8protobuf8internal38implicit_weak_message_default_instanceE, 
                       __ZN6google8protobuf8internal6IsNullILi10EEEbPKv, __ZN6google8protobuf8internal6IsNullILi11EEEbPKv, 
                       __ZN6google8protobuf8internal6IsNullILi12EEEbPKv, __ZN6google8protobuf8internal6IsNullILi9EEEbPKv, 
                       __ZN6google8protobuf8internal8byteswapILi1EEEvPv, __ZN6google8protobuf8internal8byteswapILi4EEEvPv, 
                       __ZN6google8protobuf8internal8byteswapILi8EEEvPv, __ZN6google8protobuf8internal9ArenaFreeEPvm, 
                       __ZN6google8protobuf8internal9ArenaImpl10AddCleanupEPvPFvS3_E, 
                       __ZN6google8protobuf8internal9ArenaImpl11CleanupListEv, __ZN6google8protobuf8internal9ArenaImpl15SetInitialBlockEPNS1_11SerialArena5BlockE, 
                       __ZN6google8protobuf8internal9ArenaImpl18AddCleanupFallbackEPvPFvS3_E, 
                       __ZN6google8protobuf8internal9ArenaImpl22GetSerialArenaFallbackEPv, 
                       __ZN6google8protobuf8internal9ArenaImpl23AllocateAlignedFallbackEm, 
                       __ZN6google8protobuf8internal9ArenaImpl23lifecycle_id_generator_E, 
                       __ZN6google8protobuf8internal9ArenaImpl28AllocateAlignedAndAddCleanupEmPFvPvE, 
                       __ZN6google8protobuf8internal9ArenaImpl36AllocateAlignedAndAddCleanupFallbackEmPFvPvE, 
                       __ZN6google8protobuf8internal9ArenaImpl4InitEb, __ZN6google8protobuf8internal9ArenaImpl5ResetEv, 
                       __ZN6google8protobuf8internal9ArenaImpl9NewBufferEmm, __ZN6google8protobuf8internal9ArenaImplC1ERKNS0_12ArenaOptionsE, 
                       __ZN6google8protobuf8internal9ArenaImplC2ERKNS0_12ArenaOptionsE, 
                       __ZN6google8protobuf8internal9ArenaImplD1Ev, __ZN6google8protobuf8internal9ArenaImplD2Ev, 
                       __ZN6google8protobuf9DoNothingEv, __ZN6google8protobuf9StrAppendEPNSt3__112basic_stringIcNS1_11char_traitsIcEENS1_9allocatorIcEEEERKNS0_7strings8AlphaNumE, 
                       __ZN6google8protobuf9StrAppendEPNSt3__112basic_stringIcNS1_11char_traitsIcEENS1_9allocatorIcEEEERKNS0_7strings8AlphaNumESC_, 
                       __ZN6google8protobuf9StrAppendEPNSt3__112basic_stringIcNS1_11char_traitsIcEENS1_9allocatorIcEEEERKNS0_7strings8AlphaNumESC_SC_, 
                       __ZN6google8protobuf9StrAppendEPNSt3__112basic_stringIcNS1_11char_traitsIcEENS1_9allocatorIcEEEERKNS0_7strings8AlphaNumESC_SC_SC_, 
                       __ZN6google8protobuflsERNSt3__113basic_ostreamIcNS1_11char_traitsIcEEEENS0_11StringPieceE, 
                       __ZN6google8protobuflsERNSt3__113basic_ostreamIcNS1_11char_traitsIcEEEERKNS0_7uint128E, 
                       __ZN6snappy10UncompressEPKcmPNSt3__112basic_stringIcNS2_11char_traitsIcEENS2_9allocatorIcEEEE, 
                       __ZN6snappy10UncompressEPNS_6SourceEPNS_4SinkE, __ZN6snappy11RawCompressEPKcmPcPm, 
                       __ZN6snappy13RawUncompressEPKcmPc, __ZN6snappy13RawUncompressEPNS_6SourceEPc, 
                       __ZN6snappy15ByteArraySource4PeekEPm, __ZN6snappy15ByteArraySource4SkipEm, 
                       __ZN6snappy15ByteArraySourceD0Ev, __ZN6snappy15ByteArraySourceD1Ev, 
                       __ZN6snappy15ByteArraySourceD2Ev, __ZN6snappy17IsValidCompressedEPNS_6SourceE, 
                       __ZN6snappy18SnappyDecompressor9RefillTagEv, __ZN6snappy19MaxCompressedLengthEm, 
                       __ZN6snappy20RawUncompressToIOVecEPKcmPK5iovecm, __ZN6snappy20RawUncompressToIOVecEPNS_6SourceEPK5iovecm, 
                       __ZN6snappy21GetUncompressedLengthEPKcmPm, __ZN6snappy21GetUncompressedLengthEPNS_6SourceEPj, 
                       __ZN6snappy22UncheckedByteArraySink15GetAppendBufferEmPc, 
                       __ZN6snappy22UncheckedByteArraySink22AppendAndTakeOwnershipEPcmPFvPvPKcmES2_, 
                       __ZN6snappy22UncheckedByteArraySink23GetAppendBufferVariableEmmPcmPm, 
                       __ZN6snappy22UncheckedByteArraySink6AppendEPKcm, __ZN6snappy22UncheckedByteArraySinkD0Ev, 
                       __ZN6snappy22UncheckedByteArraySinkD1Ev, __ZN6snappy22UncheckedByteArraySinkD2Ev, 
                       __ZN6snappy23IsValidCompressedBufferEPKcm, __ZN6snappy26UncompressAsMuchAsPossibleEPNS_6SourceEPNS_4SinkE, 
                       __ZN6snappy4Sink15GetAppendBufferEmPc, __ZN6snappy4Sink22AppendAndTakeOwnershipEPcmPFvPvPKcmES2_, 
                       __ZN6snappy4Sink23GetAppendBufferVariableEmmPcmPm, __ZN6snappy4SinkD0Ev, 
                       __ZN6snappy4SinkD1Ev, __ZN6snappy4SinkD2Ev, __ZN6snappy6SourceD0Ev, 
                       __ZN6snappy6SourceD1Ev, __ZN6snappy6SourceD2Ev, __ZN6snappy8CompressEPKcmPNSt3__112basic_stringIcNS2_11char_traitsIcEENS2_9allocatorIcEEEE, 
                       __ZN6snappy8CompressEPNS_6SourceEPNS_4SinkE, __ZN6snappy8internal13WorkingMemory12GetHashTableEmPi, 
                       __ZN6snappy8internal16CompressFragmentEPKcmPcPti, __ZNK3TSP12SnappySource9AvailableEv, 
                       __ZNK3TSP12UUIDMultiMap13saveToMessageEPNS_19UUIDMultiMapArchiveE, 
                       __ZNK3TSP13FieldInfoNode16FieldDescriptionEPKN6google8protobuf15FieldDescriptorE, 
                       __ZNK3TSP13FieldInfoNode18MessageDescriptionEPKN6google8protobuf10DescriptorE, 
                       __ZNK3TSP19DatabaseInputStream9ByteCountEv, __ZNK3TSP20DatabaseOutputStream9ByteCountEv, 
                       __ZNK3TSP21ObjectStateIdentifier12hasDataStateEv, __ZNK3TSP21ObjectStateIdentifier12hasFileStateEv, 
                       __ZNK3TSP21ObjectStateIdentifier9dataStateEv, __ZNK3TSP21ObjectStateIdentifier9fileStateEv, 
                       __ZNK3TSP23DispatchDataInputStream9ByteCountEv, __ZNK3TSP24DispatchDataOutputStream9ByteCountEv, 
                       __ZNK3TSP25DescriptionPrinterMessage12fieldRuleMapEv, __ZNK3TSP25DescriptionPrinterMessage17messageIdentifierEv, 
                       __ZNK3TSP25DescriptionPrinterMessage19messageAlternateMapEv, 
                       __ZNK3TSP25DescriptionPrinterMessage19strongReferencesMapEv, 
                       __ZNK3TSP25DescriptionPrinterMessage7messageEv, __ZNK3TSP7UUIDMap13saveToMessageEPNS_14UUIDMapArchiveE, 
                       __ZNK3TSP7UUIDSet13saveToMessageEPNS_14UUIDSetArchiveE, __ZNK3TSP8UUIDData13saveToMessageEPNS_13CFUUIDArchiveE, 
                       __ZNK3TSP8UUIDData13saveToMessageEPNS_4UUIDE, __ZNK3TSP8UUIDRect13saveToMessageEPNS_15UUIDRectArchiveE, 
                       __ZNK3TSP9UUIDCoord13saveToMessageEPNS_16UUIDCoordArchiveE, 
                       __ZNK6google8protobuf10Descriptor11DebugStringEiPNSt3__112basic_stringIcNS2_11char_traitsIcEENS2_9allocatorIcEEEERKNS0_18DebugStringOptionsEb, 
                       __ZNK6google8protobuf10Descriptor11DebugStringEv, __ZNK6google8protobuf10Descriptor14CopyJsonNameToEPNS0_15DescriptorProtoE, 
                       __ZNK6google8protobuf10Descriptor14ExtensionRange6CopyToEPNS0_30DescriptorProto_ExtensionRangeE, 
                       __ZNK6google8protobuf10Descriptor15FindFieldByNameERKNSt3__112basic_stringIcNS2_11char_traitsIcEENS2_9allocatorIcEEEE, 
                       __ZNK6google8protobuf10Descriptor15FindOneofByNameERKNSt3__112basic_stringIcNS2_11char_traitsIcEENS2_9allocatorIcEEEE, 
                       __ZNK6google8protobuf10Descriptor15GetLocationPathEPNSt3__16vectorIiNS2_9allocatorIiEEEE, 
                       __ZNK6google8protobuf10Descriptor17FindFieldByNumberEi, __ZNK6google8protobuf10Descriptor17GetSourceLocationEPNS0_14SourceLocationE, 
                       __ZNK6google8protobuf10Descriptor18FindEnumTypeByNameERKNSt3__112basic_stringIcNS2_11char_traitsIcEENS2_9allocatorIcEEEE, 
                       __ZNK6google8protobuf10Descriptor19FindEnumValueByNameERKNSt3__112basic_stringIcNS2_11char_traitsIcEENS2_9allocatorIcEEEE, 
                       __ZNK6google8protobuf10Descriptor19FindExtensionByNameERKNSt3__112basic_stringIcNS2_11char_traitsIcEENS2_9allocatorIcEEEE, 
                       __ZNK6google8protobuf10Descriptor20FindNestedTypeByNameERKNSt3__112basic_stringIcNS2_11char_traitsIcEENS2_9allocatorIcEEEE, 
                       __ZNK6google8protobuf10Descriptor22DebugStringWithOptionsERKNS0_18DebugStringOptionsE, 
                       __ZNK6google8protobuf10Descriptor24FindFieldByCamelcaseNameERKNSt3__112basic_stringIcNS2_11char_traitsIcEENS2_9allocatorIcEEEE, 
                       __ZNK6google8protobuf10Descriptor24FindFieldByLowercaseNameERKNSt3__112basic_stringIcNS2_11char_traitsIcEENS2_9allocatorIcEEEE, 
                       __ZNK6google8protobuf10Descriptor28FindExtensionByCamelcaseNameERKNSt3__112basic_stringIcNS2_11char_traitsIcEENS2_9allocatorIcEEEE, 
                       __ZNK6google8protobuf10Descriptor28FindExtensionByLowercaseNameERKNSt3__112basic_stringIcNS2_11char_traitsIcEENS2_9allocatorIcEEEE, 
                       __ZNK6google8protobuf10Descriptor33FindReservedRangeContainingNumberEi, 
                       __ZNK6google8protobuf10Descriptor34FindExtensionRangeContainingNumberEi, 
                       __ZNK6google8protobuf10Descriptor6CopyToEPNS0_15DescriptorProtoE, 
                       __ZNK6google8protobuf10Descriptor7map_keyEv, __ZNK6google8protobuf10Descriptor9map_valueEv, 
                       __ZNK6google8protobuf10Reflection10AddMessageEPNS0_7MessageEPKNS0_15FieldDescriptorEPNS0_14MessageFactoryE, 
                       __ZNK6google8protobuf10Reflection10ClearFieldEPNS0_7MessageEPKNS0_15FieldDescriptorE, 
                       __ZNK6google8protobuf10Reflection10ClearOneofEPNS0_7MessageEPKNS0_15OneofDescriptorE, 
                       __ZNK6google8protobuf10Reflection10GetMapDataERKNS0_7MessageEPKNS0_15FieldDescriptorE, 
                       __ZNK6google8protobuf10Reflection10GetMessageERKNS0_7MessageEPKNS0_15FieldDescriptorEPNS0_14MessageFactoryE, 
                       __ZNK6google8protobuf10Reflection10ListFieldsERKNS0_7MessageEPNSt3__16vectorIPKNS0_15FieldDescriptorENS5_9allocatorIS9_EEEE, 
                       __ZNK6google8protobuf10Reflection10RemoveLastEPNS0_7MessageEPKNS0_15FieldDescriptorE, 
                       __ZNK6google8protobuf10Reflection10SwapFieldsEPNS0_7MessageES3_RKNSt3__16vectorIPKNS0_15FieldDescriptorENS4_9allocatorIS8_EEEE, 
                       __ZNK6google8protobuf10Reflection11ReleaseLastEPNS0_7MessageEPKNS0_15FieldDescriptorE, 
                       __ZNK6google8protobuf10Reflection12AddEnumValueEPNS0_7MessageEPKNS0_15FieldDescriptorEi, 
                       __ZNK6google8protobuf10Reflection12GetEnumValueERKNS0_7MessageEPKNS0_15FieldDescriptorE, 
                       __ZNK6google8protobuf10Reflection12SetEnumValueEPNS0_7MessageEPKNS0_15FieldDescriptorEi, 
                       __ZNK6google8protobuf10Reflection12SwapElementsEPNS0_7MessageEPKNS0_15FieldDescriptorEii, 
                       __ZNK6google8protobuf10Reflection13SpaceUsedLongERKNS0_7MessageE, 
                       __ZNK6google8protobuf10Reflection14ContainsMapKeyERKNS0_7MessageEPKNS0_15FieldDescriptorERKNS0_6MapKeyE, 
                       __ZNK6google8protobuf10Reflection14DeleteMapValueEPNS0_7MessageEPKNS0_15FieldDescriptorERKNS0_6MapKeyE, 
                       __ZNK6google8protobuf10Reflection14LookupMapValueERKNS0_7MessageEPKNS0_15FieldDescriptorERKNS0_6MapKeyEPNS0_16MapValueConstRefE, 
                       __ZNK6google8protobuf10Reflection14MutableMapDataEPNS0_7MessageEPKNS0_15FieldDescriptorE, 
                       __ZNK6google8protobuf10Reflection14MutableMessageEPNS0_7MessageEPKNS0_15FieldDescriptorEPNS0_14MessageFactoryE, 
                       __ZNK6google8protobuf10Reflection14ReleaseMessageEPNS0_7MessageEPKNS0_15FieldDescriptorEPNS0_14MessageFactoryE, 
                       __ZNK6google8protobuf10Reflection14SwapOneofFieldEPNS0_7MessageES3_PKNS0_15OneofDescriptorE, 
                       __ZNK6google8protobuf10Reflection15GetExtensionSetERKNS0_7MessageE, 
                       __ZNK6google8protobuf10Reflection15GetRepeatedBoolERKNS0_7MessageEPKNS0_15FieldDescriptorEi, 
                       __ZNK6google8protobuf10Reflection15GetRepeatedEnumERKNS0_7MessageEPKNS0_15FieldDescriptorEi, 
                       __ZNK6google8protobuf10Reflection15SetRepeatedBoolEPNS0_7MessageEPKNS0_15FieldDescriptorEib, 
                       __ZNK6google8protobuf10Reflection15SetRepeatedEnumEPNS0_7MessageEPKNS0_15FieldDescriptorEiPKNS0_19EnumValueDescriptorE, 
                       __ZNK6google8protobuf10Reflection16GetRepeatedFloatERKNS0_7MessageEPKNS0_15FieldDescriptorEi, 
                       __ZNK6google8protobuf10Reflection16GetRepeatedInt32ERKNS0_7MessageEPKNS0_15FieldDescriptorEi, 
                       __ZNK6google8protobuf10Reflection16GetRepeatedInt64ERKNS0_7MessageEPKNS0_15FieldDescriptorEi, 
                       __ZNK6google8protobuf10Reflection16GetUnknownFieldsERKNS0_7MessageE, 
                       __ZNK6google8protobuf10Reflection16SetRepeatedFloatEPNS0_7MessageEPKNS0_15FieldDescriptorEif, 
                       __ZNK6google8protobuf10Reflection16SetRepeatedInt32EPNS0_7MessageEPKNS0_15FieldDescriptorEii, 
                       __ZNK6google8protobuf10Reflection16SetRepeatedInt64EPNS0_7MessageEPKNS0_15FieldDescriptorEix, 
                       __ZNK6google8protobuf10Reflection17GetMessageFactoryEv, __ZNK6google8protobuf10Reflection17GetRepeatedDoubleERKNS0_7MessageEPKNS0_15FieldDescriptorEi, 
                       __ZNK6google8protobuf10Reflection17GetRepeatedStringERKNS0_7MessageEPKNS0_15FieldDescriptorEi, 
                       __ZNK6google8protobuf10Reflection17GetRepeatedUInt32ERKNS0_7MessageEPKNS0_15FieldDescriptorEi, 
                       __ZNK6google8protobuf10Reflection17GetRepeatedUInt64ERKNS0_7MessageEPKNS0_15FieldDescriptorEi, 
                       __ZNK6google8protobuf10Reflection17RepeatedFieldDataEPNS0_7MessageEPKNS0_15FieldDescriptorENS4_7CppTypeEPKNS0_10DescriptorE, 
                       __ZNK6google8protobuf10Reflection17SetRepeatedDoubleEPNS0_7MessageEPKNS0_15FieldDescriptorEid, 
                       __ZNK6google8protobuf10Reflection17SetRepeatedStringEPNS0_7MessageEPKNS0_15FieldDescriptorEiNSt3__112basic_stringIcNS7_11char_traitsIcEENS7_9allocatorIcEEEE, 
                       __ZNK6google8protobuf10Reflection17SetRepeatedUInt32EPNS0_7MessageEPKNS0_15FieldDescriptorEij, 
                       __ZNK6google8protobuf10Reflection17SetRepeatedUInt64EPNS0_7MessageEPKNS0_15FieldDescriptorEiy, 
                       __ZNK6google8protobuf10Reflection18GetRepeatedMessageERKNS0_7MessageEPKNS0_15FieldDescriptorEi, 
                       __ZNK6google8protobuf10Reflection18GetStringReferenceERKNS0_7MessageEPKNS0_15FieldDescriptorEPNSt3__112basic_stringIcNS8_11char_traitsIcEENS8_9allocatorIcEEEE, 
                       __ZNK6google8protobuf10Reflection19AddAllocatedMessageEPNS0_7MessageEPKNS0_15FieldDescriptorES3_, 
                       __ZNK6google8protobuf10Reflection19GetRawRepeatedFieldERKNS0_7MessageEPKNS0_15FieldDescriptorENS5_7CppTypeEiPKNS0_10DescriptorE, 
                       __ZNK6google8protobuf10Reflection19MutableExtensionSetEPNS0_7MessageE, 
                       __ZNK6google8protobuf10Reflection19SetAllocatedMessageEPNS0_7MessageES3_PKNS0_15FieldDescriptorE, 
                       __ZNK6google8protobuf10Reflection20AddEnumValueInternalEPNS0_7MessageEPKNS0_15FieldDescriptorEi, 
                       __ZNK6google8protobuf10Reflection20GetRepeatedEnumValueERKNS0_7MessageEPKNS0_15FieldDescriptorEi, 
                       __ZNK6google8protobuf10Reflection20MutableUnknownFieldsEPNS0_7MessageE, 
                       __ZNK6google8protobuf10Reflection20SetEnumValueInternalEPNS0_7MessageEPKNS0_15FieldDescriptorEi, 
                       __ZNK6google8protobuf10Reflection20SetRepeatedEnumValueEPNS0_7MessageEPKNS0_15FieldDescriptorEii, 
                       __ZNK6google8protobuf10Reflection21RepeatedFieldAccessorEPKNS0_15FieldDescriptorE, 
                       __ZNK6google8protobuf10Reflection22InsertOrLookupMapValueEPNS0_7MessageEPKNS0_15FieldDescriptorERKNS0_6MapKeyEPNS0_11MapValueRefE, 
                       __ZNK6google8protobuf10Reflection22ListFieldsOmitStrippedERKNS0_7MessageEPNSt3__16vectorIPKNS0_15FieldDescriptorENS5_9allocatorIS9_EEEE, 
                       __ZNK6google8protobuf10Reflection22MutableRepeatedMessageEPNS0_7MessageEPKNS0_15FieldDescriptorEi, 
                       __ZNK6google8protobuf10Reflection23GetOneofFieldDescriptorERKNS0_7MessageEPKNS0_15OneofDescriptorE, 
                       __ZNK6google8protobuf10Reflection23MutableInternalMetadataEPNS0_7MessageE, 
                       __ZNK6google8protobuf10Reflection23MutableRawRepeatedFieldEPNS0_7MessageEPKNS0_15FieldDescriptorENS4_7CppTypeEiPKNS0_10DescriptorE, 
                       __ZNK6google8protobuf10Reflection24FindKnownExtensionByNameERKNSt3__112basic_stringIcNS2_11char_traitsIcEENS2_9allocatorIcEEEE, 
                       __ZNK6google8protobuf10Reflection24GetRepeatedFieldInternalIbEERKNS0_13RepeatedFieldIT_EERKNS0_7MessageEPKNS0_15FieldDescriptorE, 
                       __ZNK6google8protobuf10Reflection24GetRepeatedFieldInternalIdEERKNS0_13RepeatedFieldIT_EERKNS0_7MessageEPKNS0_15FieldDescriptorE, 
                       __ZNK6google8protobuf10Reflection24GetRepeatedFieldInternalIfEERKNS0_13RepeatedFieldIT_EERKNS0_7MessageEPKNS0_15FieldDescriptorE, 
                       __ZNK6google8protobuf10Reflection24GetRepeatedFieldInternalIiEERKNS0_13RepeatedFieldIT_EERKNS0_7MessageEPKNS0_15FieldDescriptorE, 
                       __ZNK6google8protobuf10Reflection24GetRepeatedFieldInternalIjEERKNS0_13RepeatedFieldIT_EERKNS0_7MessageEPKNS0_15FieldDescriptorE, 
                       __ZNK6google8protobuf10Reflection24GetRepeatedFieldInternalIxEERKNS0_13RepeatedFieldIT_EERKNS0_7MessageEPKNS0_15FieldDescriptorE, 
                       __ZNK6google8protobuf10Reflection24GetRepeatedFieldInternalIyEERKNS0_13RepeatedFieldIT_EERKNS0_7MessageEPKNS0_15FieldDescriptorE, 
                       __ZNK6google8protobuf10Reflection24MutableRawRepeatedStringEPNS0_7MessageEPKNS0_15FieldDescriptorEb, 
                       __ZNK6google8protobuf10Reflection25GetDefaultMessageInstanceEPKNS0_15FieldDescriptorE, 
                       __ZNK6google8protobuf10Reflection25SupportsUnknownEnumValuesEv, 
                       __ZNK6google8protobuf10Reflection25UnsafeArenaReleaseMessageEPNS0_7MessageEPKNS0_15FieldDescriptorEPNS0_14MessageFactoryE, 
                       __ZNK6google8protobuf10Reflection26FindKnownExtensionByNumberEi, 
                       __ZNK6google8protobuf10Reflection26GetRepeatedStringReferenceERKNS0_7MessageEPKNS0_15FieldDescriptorEiPNSt3__112basic_stringIcNS8_11char_traitsIcEENS8_9allocatorIcEEEE, 
                       __ZNK6google8protobuf10Reflection27ListFieldsMayFailOnStrippedERKNS0_7MessageEbPNSt3__16vectorIPKNS0_15FieldDescriptorENS5_9allocatorIS9_EEEE, 
                       __ZNK6google8protobuf10Reflection28MutableRepeatedFieldInternalIbEEPNS0_13RepeatedFieldIT_EEPNS0_7MessageEPKNS0_15FieldDescriptorE, 
                       __ZNK6google8protobuf10Reflection28MutableRepeatedFieldInternalIdEEPNS0_13RepeatedFieldIT_EEPNS0_7MessageEPKNS0_15FieldDescriptorE, 
                       __ZNK6google8protobuf10Reflection28MutableRepeatedFieldInternalIfEEPNS0_13RepeatedFieldIT_EEPNS0_7MessageEPKNS0_15FieldDescriptorE, 
                       __ZNK6google8protobuf10Reflection28MutableRepeatedFieldInternalIiEEPNS0_13RepeatedFieldIT_EEPNS0_7MessageEPKNS0_15FieldDescriptorE, 
                       __ZNK6google8protobuf10Reflection28MutableRepeatedFieldInternalIjEEPNS0_13RepeatedFieldIT_EEPNS0_7MessageEPKNS0_15FieldDescriptorE, 
                       __ZNK6google8protobuf10Reflection28MutableRepeatedFieldInternalIxEEPNS0_13RepeatedFieldIT_EEPNS0_7MessageEPKNS0_15FieldDescriptorE, 
                       __ZNK6google8protobuf10Reflection28MutableRepeatedFieldInternalIyEEPNS0_13RepeatedFieldIT_EEPNS0_7MessageEPKNS0_15FieldDescriptorE, 
                       __ZNK6google8protobuf10Reflection28SetRepeatedEnumValueInternalEPNS0_7MessageEPKNS0_15FieldDescriptorEii, 
                       __ZNK6google8protobuf10Reflection30UnsafeArenaSetAllocatedMessageEPNS0_7MessageES3_PKNS0_15FieldDescriptorE, 
                       __ZNK6google8protobuf10Reflection4SwapEPNS0_7MessageES3_, 
                       __ZNK6google8protobuf10Reflection6MapEndEPNS0_7MessageEPKNS0_15FieldDescriptorE, 
                       __ZNK6google8protobuf10Reflection7AddBoolEPNS0_7MessageEPKNS0_15FieldDescriptorEb, 
                       __ZNK6google8protobuf10Reflection7AddEnumEPNS0_7MessageEPKNS0_15FieldDescriptorEPKNS0_19EnumValueDescriptorE, 
                       __ZNK6google8protobuf10Reflection7GetBoolERKNS0_7MessageEPKNS0_15FieldDescriptorE, 
                       __ZNK6google8protobuf10Reflection7GetEnumERKNS0_7MessageEPKNS0_15FieldDescriptorE, 
                       __ZNK6google8protobuf10Reflection7MapSizeERKNS0_7MessageEPKNS0_15FieldDescriptorE, 
                       __ZNK6google8protobuf10Reflection7SetBoolEPNS0_7MessageEPKNS0_15FieldDescriptorEb, 
                       __ZNK6google8protobuf10Reflection7SetEnumEPNS0_7MessageEPKNS0_15FieldDescriptorEPKNS0_19EnumValueDescriptorE, 
                       __ZNK6google8protobuf10Reflection8AddFloatEPNS0_7MessageEPKNS0_15FieldDescriptorEf, 
                       __ZNK6google8protobuf10Reflection8AddInt32EPNS0_7MessageEPKNS0_15FieldDescriptorEi, 
                       __ZNK6google8protobuf10Reflection8AddInt64EPNS0_7MessageEPKNS0_15FieldDescriptorEx, 
                       __ZNK6google8protobuf10Reflection8GetFloatERKNS0_7MessageEPKNS0_15FieldDescriptorE, 
                       __ZNK6google8protobuf10Reflection8GetInt32ERKNS0_7MessageEPKNS0_15FieldDescriptorE, 
                       __ZNK6google8protobuf10Reflection8GetInt64ERKNS0_7MessageEPKNS0_15FieldDescriptorE, 
                       __ZNK6google8protobuf10Reflection8HasFieldERKNS0_7MessageEPKNS0_15FieldDescriptorE, 
                       __ZNK6google8protobuf10Reflection8HasOneofERKNS0_7MessageEPKNS0_15OneofDescriptorE, 
                       __ZNK6google8protobuf10Reflection8MapBeginEPNS0_7MessageEPKNS0_15FieldDescriptorE, 
                       __ZNK6google8protobuf10Reflection8SetFloatEPNS0_7MessageEPKNS0_15FieldDescriptorEf, 
                       __ZNK6google8protobuf10Reflection8SetInt32EPNS0_7MessageEPKNS0_15FieldDescriptorEi, 
                       __ZNK6google8protobuf10Reflection8SetInt64EPNS0_7MessageEPKNS0_15FieldDescriptorEx, 
                       __ZNK6google8protobuf10Reflection9AddDoubleEPNS0_7MessageEPKNS0_15FieldDescriptorEd, 
                       __ZNK6google8protobuf10Reflection9AddStringEPNS0_7MessageEPKNS0_15FieldDescriptorENSt3__112basic_stringIcNS7_11char_traitsIcEENS7_9allocatorIcEEEE, 
                       __ZNK6google8protobuf10Reflection9AddUInt32EPNS0_7MessageEPKNS0_15FieldDescriptorEj, 
                       __ZNK6google8protobuf10Reflection9AddUInt64EPNS0_7MessageEPKNS0_15FieldDescriptorEy, 
                       __ZNK6google8protobuf10Reflection9FieldSizeERKNS0_7MessageEPKNS0_15FieldDescriptorE, 
                       __ZNK6google8protobuf10Reflection9GetDoubleERKNS0_7MessageEPKNS0_15FieldDescriptorE, 
                       __ZNK6google8protobuf10Reflection9GetStringERKNS0_7MessageEPKNS0_15FieldDescriptorE, 
                       __ZNK6google8protobuf10Reflection9GetUInt32ERKNS0_7MessageEPKNS0_15FieldDescriptorE, 
                       __ZNK6google8protobuf10Reflection9GetUInt64ERKNS0_7MessageEPKNS0_15FieldDescriptorE, 
                       __ZNK6google8protobuf10Reflection9SetDoubleEPNS0_7MessageEPKNS0_15FieldDescriptorEd, 
                       __ZNK6google8protobuf10Reflection9SetStringEPNS0_7MessageEPKNS0_15FieldDescriptorENSt3__112basic_stringIcNS7_11char_traitsIcEENS7_9allocatorIcEEEE, 
                       __ZNK6google8protobuf10Reflection9SetUInt32EPNS0_7MessageEPKNS0_15FieldDescriptorEj, 
                       __ZNK6google8protobuf10Reflection9SetUInt64EPNS0_7MessageEPKNS0_15FieldDescriptorEy, 
                       __ZNK6google8protobuf10Reflection9SwapFieldEPNS0_7MessageES3_PKNS0_15FieldDescriptorE, 
                       __ZNK6google8protobuf10TextFormat13ParseInfoTree11GetLocationEPKNS0_15FieldDescriptorEi, 
                       __ZNK6google8protobuf10TextFormat13ParseInfoTree16GetTreeForNestedEPKNS0_15FieldDescriptorEi, 
                       __ZNK6google8protobuf10TextFormat17FieldValuePrinter10PrintBytesERKNSt3__112basic_stringIcNS3_11char_traitsIcEENS3_9allocatorIcEEEE, 
                       __ZNK6google8protobuf10TextFormat17FieldValuePrinter10PrintFloatEf, 
                       __ZNK6google8protobuf10TextFormat17FieldValuePrinter10PrintInt32Ei, 
                       __ZNK6google8protobuf10TextFormat17FieldValuePrinter10PrintInt64Ex, 
                       __ZNK6google8protobuf10TextFormat17FieldValuePrinter11PrintDoubleEd, 
                       __ZNK6google8protobuf10TextFormat17FieldValuePrinter11PrintStringERKNSt3__112basic_stringIcNS3_11char_traitsIcEENS3_9allocatorIcEEEE, 
                       __ZNK6google8protobuf10TextFormat17FieldValuePrinter11PrintUInt32Ej, 
                       __ZNK6google8protobuf10TextFormat17FieldValuePrinter11PrintUInt64Ey, 
                       __ZNK6google8protobuf10TextFormat17FieldValuePrinter14PrintFieldNameERKNS0_7MessageEPKNS0_10ReflectionEPKNS0_15FieldDescriptorE, 
                       __ZNK6google8protobuf10TextFormat17FieldValuePrinter15PrintMessageEndERKNS0_7MessageEiib, 
                       __ZNK6google8protobuf10TextFormat17FieldValuePrinter17PrintMessageStartERKNS0_7MessageEiib, 
                       __ZNK6google8protobuf10TextFormat17FieldValuePrinter9PrintBoolEb, 
                       __ZNK6google8protobuf10TextFormat17FieldValuePrinter9PrintEnumEiRKNSt3__112basic_stringIcNS3_11char_traitsIcEENS3_9allocatorIcEEEE, 
                       __ZNK6google8protobuf10TextFormat21FastFieldValuePrinter10PrintBytesERKNSt3__112basic_stringIcNS3_11char_traitsIcEENS3_9allocatorIcEEEEPNS1_17BaseTextGeneratorE, 
                       __ZNK6google8protobuf10TextFormat21FastFieldValuePrinter10PrintFloatEfPNS1_17BaseTextGeneratorE, 
                       __ZNK6google8protobuf10TextFormat21FastFieldValuePrinter10PrintInt32EiPNS1_17BaseTextGeneratorE, 
                       __ZNK6google8protobuf10TextFormat21FastFieldValuePrinter10PrintInt64ExPNS1_17BaseTextGeneratorE, 
                       __ZNK6google8protobuf10TextFormat21FastFieldValuePrinter11PrintDoubleEdPNS1_17BaseTextGeneratorE, 
                       __ZNK6google8protobuf10TextFormat21FastFieldValuePrinter11PrintStringERKNSt3__112basic_stringIcNS3_11char_traitsIcEENS3_9allocatorIcEEEEPNS1_17BaseTextGeneratorE, 
                       __ZNK6google8protobuf10TextFormat21FastFieldValuePrinter11PrintUInt32EjPNS1_17BaseTextGeneratorE, 
                       __ZNK6google8protobuf10TextFormat21FastFieldValuePrinter11PrintUInt64EyPNS1_17BaseTextGeneratorE, 
                       __ZNK6google8protobuf10TextFormat21FastFieldValuePrinter14PrintFieldNameERKNS0_7MessageEPKNS0_10ReflectionEPKNS0_15FieldDescriptorEPNS1_17BaseTextGeneratorE, 
                       __ZNK6google8protobuf10TextFormat21FastFieldValuePrinter14PrintFieldNameERKNS0_7MessageEiiPKNS0_10ReflectionEPKNS0_15FieldDescriptorEPNS1_17BaseTextGeneratorE, 
                       __ZNK6google8protobuf10TextFormat21FastFieldValuePrinter15PrintMessageEndERKNS0_7MessageEiibPNS1_17BaseTextGeneratorE, 
                       __ZNK6google8protobuf10TextFormat21FastFieldValuePrinter17PrintMessageStartERKNS0_7MessageEiibPNS1_17BaseTextGeneratorE, 
                       __ZNK6google8protobuf10TextFormat21FastFieldValuePrinter19PrintMessageContentERKNS0_7MessageEiibPNS1_17BaseTextGeneratorE, 
                       __ZNK6google8protobuf10TextFormat21FastFieldValuePrinter9PrintBoolEbPNS1_17BaseTextGeneratorE, 
                       __ZNK6google8protobuf10TextFormat21FastFieldValuePrinter9PrintEnumEiRKNSt3__112basic_stringIcNS3_11char_traitsIcEENS3_9allocatorIcEEEEPNS1_17BaseTextGeneratorE, 
                       __ZNK6google8protobuf10TextFormat6Finder11FindAnyTypeERKNS0_7MessageERKNSt3__112basic_stringIcNS6_11char_traitsIcEENS6_9allocatorIcEEEESE_, 
                       __ZNK6google8protobuf10TextFormat6Finder13FindExtensionEPNS0_7MessageERKNSt3__112basic_stringIcNS5_11char_traitsIcEENS5_9allocatorIcEEEE, 
                       __ZNK6google8protobuf10TextFormat6Finder20FindExtensionFactoryEPKNS0_15FieldDescriptorE, 
                       __ZNK6google8protobuf10TextFormat6Finder21FindExtensionByNumberEPKNS0_10DescriptorEi, 
                       __ZNK6google8protobuf10TextFormat7Printer10PrintFieldERKNS0_7MessageEPKNS0_10ReflectionEPKNS0_15FieldDescriptorEPNS2_13TextGeneratorE, 
                       __ZNK6google8protobuf10TextFormat7Printer13PrintToStringERKNS0_7MessageEPNSt3__112basic_stringIcNS6_11char_traitsIcEENS6_9allocatorIcEEEE, 
                       __ZNK6google8protobuf10TextFormat7Printer14PrintFieldNameERKNS0_7MessageEiiPKNS0_10ReflectionEPKNS0_15FieldDescriptorEPNS2_13TextGeneratorE, 
                       __ZNK6google8protobuf10TextFormat7Printer15PrintFieldValueERKNS0_7MessageEPKNS0_10ReflectionEPKNS0_15FieldDescriptorEiPNS2_13TextGeneratorE, 
                       __ZNK6google8protobuf10TextFormat7Printer18PrintUnknownFieldsERKNS0_15UnknownFieldSetEPNS0_2io20ZeroCopyOutputStreamE, 
                       __ZNK6google8protobuf10TextFormat7Printer18PrintUnknownFieldsERKNS0_15UnknownFieldSetEPNS2_13TextGeneratorEi, 
                       __ZNK6google8protobuf10TextFormat7Printer23PrintFieldValueToStringERKNS0_7MessageEPKNS0_15FieldDescriptorEiPNSt3__112basic_stringIcNS9_11char_traitsIcEENS9_9allocatorIcEEEE, 
                       __ZNK6google8protobuf10TextFormat7Printer23PrintShortRepeatedFieldERKNS0_7MessageEPKNS0_10ReflectionEPKNS0_15FieldDescriptorEPNS2_13TextGeneratorE, 
                       __ZNK6google8protobuf10TextFormat7Printer26PrintUnknownFieldsToStringERKNS0_15UnknownFieldSetEPNSt3__112basic_stringIcNS6_11char_traitsIcEENS6_9allocatorIcEEEE, 
                       __ZNK6google8protobuf10TextFormat7Printer5PrintERKNS0_7MessageEPNS0_2io20ZeroCopyOutputStreamE, 
                       __ZNK6google8protobuf10TextFormat7Printer5PrintERKNS0_7MessageEPNS2_13TextGeneratorE, 
                       __ZNK6google8protobuf10TextFormat7Printer8PrintAnyERKNS0_7MessageEPNS2_13TextGeneratorE, 
                       __ZNK6google8protobuf11EnumOptions11GetMetadataEv, __ZNK6google8protobuf11EnumOptions12ByteSizeLongEv, 
                       __ZNK6google8protobuf11EnumOptions13IsInitializedEv, __ZNK6google8protobuf11EnumOptions13SetCachedSizeEi, 
                       __ZNK6google8protobuf11EnumOptions18_InternalSerializeEPhPNS0_2io19EpsCopyOutputStreamE, 
                       __ZNK6google8protobuf11FileOptions11GetMetadataEv, __ZNK6google8protobuf11FileOptions12ByteSizeLongEv, 
                       __ZNK6google8protobuf11FileOptions13IsInitializedEv, __ZNK6google8protobuf11FileOptions13SetCachedSizeEi, 
                       __ZNK6google8protobuf11FileOptions18_InternalSerializeEPhPNS0_2io19EpsCopyOutputStreamE, 
                       __ZNK6google8protobuf11MessageLite11DebugStringEv, __ZNK6google8protobuf11MessageLite14AppendToStringEPNSt3__112basic_stringIcNS2_11char_traitsIcEENS2_9allocatorIcEEEE, 
                       __ZNK6google8protobuf11MessageLite16SerializeToArrayEPvi, 
                       __ZNK6google8protobuf11MessageLite17SerializeAsStringEv, __ZNK6google8protobuf11MessageLite17SerializeToStringEPNSt3__112basic_stringIcNS2_11char_traitsIcEENS2_9allocatorIcEEEE, 
                       __ZNK6google8protobuf11MessageLite18SerializeToOstreamEPNSt3__113basic_ostreamIcNS2_11char_traitsIcEEEE, 
                       __ZNK6google8protobuf11MessageLite21AppendPartialToStringEPNSt3__112basic_stringIcNS2_11char_traitsIcEENS2_9allocatorIcEEEE, 
                       __ZNK6google8protobuf11MessageLite22SerializeToCodedStreamEPNS0_2io17CodedOutputStreamE, 
                       __ZNK6google8protobuf11MessageLite23SerializePartialToArrayEPvi, 
                       __ZNK6google8protobuf11MessageLite24SerializePartialAsStringEv, 
                       __ZNK6google8protobuf11MessageLite24SerializePartialToStringEPNSt3__112basic_stringIcNS2_11char_traitsIcEENS2_9allocatorIcEEEE, 
                       __ZNK6google8protobuf11MessageLite25InitializationErrorStringEv, 
                       __ZNK6google8protobuf11MessageLite25SerializePartialToOstreamEPNSt3__113basic_ostreamIcNS2_11char_traitsIcEEEE, 
                       __ZNK6google8protobuf11MessageLite25SerializeToFileDescriptorEi, 
                       __ZNK6google8protobuf11MessageLite25SerializeToZeroCopyStreamEPNS0_2io20ZeroCopyOutputStreamE, 
                       __ZNK6google8protobuf11MessageLite29LogInitializationErrorMessageEv, 
                       __ZNK6google8protobuf11MessageLite29SerializePartialToCodedStreamEPNS0_2io17CodedOutputStreamE, 
                       __ZNK6google8protobuf11MessageLite31SerializeWithCachedSizesToArrayEPh, 
                       __ZNK6google8protobuf11MessageLite32SerializePartialToFileDescriptorEi, 
                       __ZNK6google8protobuf11MessageLite32SerializePartialToZeroCopyStreamEPNS0_2io20ZeroCopyOutputStreamE, 
                       __ZNK6google8protobuf11MessageLite3NewEPNS0_5ArenaE, __ZNK6google8protobuf11StringPiece12CopyToStringEPNSt3__112basic_stringIcNS2_11char_traitsIcEENS2_9allocatorIcEEEE, 
                       __ZNK6google8protobuf11StringPiece12find_last_ofES1_m, __ZNK6google8protobuf11StringPiece13find_first_ofES1_m, 
                       __ZNK6google8protobuf11StringPiece14AppendToStringEPNSt3__112basic_stringIcNS2_11char_traitsIcEENS2_9allocatorIcEEEE, 
                       __ZNK6google8protobuf11StringPiece16find_last_not_ofES1_m, 
                       __ZNK6google8protobuf11StringPiece16find_last_not_ofEcm, __ZNK6google8protobuf11StringPiece17find_first_not_ofES1_m, 
                       __ZNK6google8protobuf11StringPiece17find_first_not_ofEcm, 
                       __ZNK6google8protobuf11StringPiece4copyEPcmm, __ZNK6google8protobuf11StringPiece4findES1_m, 
                       __ZNK6google8protobuf11StringPiece4findEcm, __ZNK6google8protobuf11StringPiece5rfindES1_m, 
                       __ZNK6google8protobuf11StringPiece5rfindEcm, __ZNK6google8protobuf11StringPiece6substrEmm, 
                       __ZNK6google8protobuf11StringPiece8containsES1_, __ZNK6google8protobuf12FieldOptions11GetMetadataEv, 
                       __ZNK6google8protobuf12FieldOptions12ByteSizeLongEv, __ZNK6google8protobuf12FieldOptions13IsInitializedEv, 
                       __ZNK6google8protobuf12FieldOptions13SetCachedSizeEi, __ZNK6google8protobuf12FieldOptions18_InternalSerializeEPhPNS0_2io19EpsCopyOutputStreamE, 
                       __ZNK6google8protobuf12OneofOptions11GetMetadataEv, __ZNK6google8protobuf12OneofOptions12ByteSizeLongEv, 
                       __ZNK6google8protobuf12OneofOptions13IsInitializedEv, __ZNK6google8protobuf12OneofOptions13SetCachedSizeEi, 
                       __ZNK6google8protobuf12OneofOptions18_InternalSerializeEPhPNS0_2io19EpsCopyOutputStreamE, 
                       __ZNK6google8protobuf12UnknownField37InternalSerializeLengthDelimitedNoTagEPhPNS0_2io19EpsCopyOutputStreamE, 
                       __ZNK6google8protobuf13MethodOptions11GetMetadataEv, __ZNK6google8protobuf13MethodOptions12ByteSizeLongEv, 
                       __ZNK6google8protobuf13MethodOptions13IsInitializedEv, __ZNK6google8protobuf13MethodOptions13SetCachedSizeEi, 
                       __ZNK6google8protobuf13MethodOptions18_InternalSerializeEPhPNS0_2io19EpsCopyOutputStreamE, 
                       __ZNK6google8protobuf14DescriptorPool14FindFileByNameERKNSt3__112basic_stringIcNS2_11char_traitsIcEENS2_9allocatorIcEEEE, 
                       __ZNK6google8protobuf14DescriptorPool14NewPlaceholderENS0_11StringPieceENS1_15PlaceholderTypeE, 
                       __ZNK6google8protobuf14DescriptorPool15FindFieldByNameERKNSt3__112basic_stringIcNS2_11char_traitsIcEENS2_9allocatorIcEEEE, 
                       __ZNK6google8protobuf14DescriptorPool15FindOneofByNameERKNSt3__112basic_stringIcNS2_11char_traitsIcEENS2_9allocatorIcEEEE, 
                       __ZNK6google8protobuf14DescriptorPool16FindMethodByNameERKNSt3__112basic_stringIcNS2_11char_traitsIcEENS2_9allocatorIcEEEE, 
                       __ZNK6google8protobuf14DescriptorPool17FindAllExtensionsEPKNS0_10DescriptorEPNSt3__16vectorIPKNS0_15FieldDescriptorENS5_9allocatorIS9_EEEE, 
                       __ZNK6google8protobuf14DescriptorPool17FindServiceByNameERKNSt3__112basic_stringIcNS2_11char_traitsIcEENS2_9allocatorIcEEEE, 
                       __ZNK6google8protobuf14DescriptorPool18FindEnumTypeByNameERKNSt3__112basic_stringIcNS2_11char_traitsIcEENS2_9allocatorIcEEEE, 
                       __ZNK6google8protobuf14DescriptorPool18NewPlaceholderFileENS0_11StringPieceE, 
                       __ZNK6google8protobuf14DescriptorPool19FindEnumValueByNameERKNSt3__112basic_stringIcNS2_11char_traitsIcEENS2_9allocatorIcEEEE, 
                       __ZNK6google8protobuf14DescriptorPool19FindExtensionByNameERKNSt3__112basic_stringIcNS2_11char_traitsIcEENS2_9allocatorIcEEEE, 
                       __ZNK6google8protobuf14DescriptorPool20InternalIsFileLoadedERKNSt3__112basic_stringIcNS2_11char_traitsIcEENS2_9allocatorIcEEEE, 
                       __ZNK6google8protobuf14DescriptorPool21BuildFileFromDatabaseERKNS0_19FileDescriptorProtoE, 
                       __ZNK6google8protobuf14DescriptorPool21FindExtensionByNumberEPKNS0_10DescriptorEi, 
                       __ZNK6google8protobuf14DescriptorPool21FindMessageTypeByNameERKNSt3__112basic_stringIcNS2_11char_traitsIcEENS2_9allocatorIcEEEE, 
                       __ZNK6google8protobuf14DescriptorPool22IsSubSymbolOfBuiltTypeENS0_11StringPieceE, 
                       __ZNK6google8protobuf14DescriptorPool23CrossLinkOnDemandHelperENS0_11StringPieceEb, 
                       __ZNK6google8protobuf14DescriptorPool24FindFileContainingSymbolERKNSt3__112basic_stringIcNS2_11char_traitsIcEENS2_9allocatorIcEEEE, 
                       __ZNK6google8protobuf14DescriptorPool27NewPlaceholderWithMutexHeldENS0_11StringPieceENS1_15PlaceholderTypeE, 
                       __ZNK6google8protobuf14DescriptorPool28FindExtensionByPrintableNameEPKNS0_10DescriptorERKNSt3__112basic_stringIcNS5_11char_traitsIcEENS5_9allocatorIcEEEE, 
                       __ZNK6google8protobuf14DescriptorPool29TryFindFileInFallbackDatabaseENS0_11StringPieceE, 
                       __ZNK6google8protobuf14DescriptorPool31NewPlaceholderFileWithMutexHeldENS0_11StringPieceE, 
                       __ZNK6google8protobuf14DescriptorPool31TryFindSymbolInFallbackDatabaseENS0_11StringPieceE, 
                       __ZNK6google8protobuf14DescriptorPool34TryFindExtensionInFallbackDatabaseEPKNS0_10DescriptorEi, 
                       __ZNK6google8protobuf14DescriptorPool35InternalFindExtensionByNumberNoLockEPKNS0_10DescriptorEi, 
                       __ZNK6google8protobuf14DynamicMessage11GetMetadataEv, __ZNK6google8protobuf14DynamicMessage13GetCachedSizeEv, 
                       __ZNK6google8protobuf14DynamicMessage13SetCachedSizeEi, __ZNK6google8protobuf14DynamicMessage3NewEPNS0_5ArenaE, 
                       __ZNK6google8protobuf14DynamicMessage3NewEv, __ZNK6google8protobuf14EnumDescriptor11DebugStringEiPNSt3__112basic_stringIcNS2_11char_traitsIcEENS2_9allocatorIcEEEERKNS0_18DebugStringOptionsE, 
                       __ZNK6google8protobuf14EnumDescriptor11DebugStringEv, __ZNK6google8protobuf14EnumDescriptor15FindValueByNameERKNSt3__112basic_stringIcNS2_11char_traitsIcEENS2_9allocatorIcEEEE, 
                       __ZNK6google8protobuf14EnumDescriptor15GetLocationPathEPNSt3__16vectorIiNS2_9allocatorIiEEEE, 
                       __ZNK6google8protobuf14EnumDescriptor17FindValueByNumberEi, 
                       __ZNK6google8protobuf14EnumDescriptor17GetSourceLocationEPNS0_14SourceLocationE, 
                       __ZNK6google8protobuf14EnumDescriptor22DebugStringWithOptionsERKNS0_18DebugStringOptionsE, 
                       __ZNK6google8protobuf14EnumDescriptor33FindReservedRangeContainingNumberEi, 
                       __ZNK6google8protobuf14EnumDescriptor34FindValueByNumberCreatingIfUnknownEi, 
                       __ZNK6google8protobuf14EnumDescriptor6CopyToEPNS0_19EnumDescriptorProtoE, 
                       __ZNK6google8protobuf14FatalException4whatEv, __ZNK6google8protobuf14FileDescriptor10dependencyEi, 
                       __ZNK6google8protobuf14FileDescriptor11DebugStringEv, __ZNK6google8protobuf14FileDescriptor14CopyJsonNameToEPNS0_19FileDescriptorProtoE, 
                       __ZNK6google8protobuf14FileDescriptor17FindServiceByNameERKNSt3__112basic_stringIcNS2_11char_traitsIcEENS2_9allocatorIcEEEE, 
                       __ZNK6google8protobuf14FileDescriptor17GetSourceLocationEPNS0_14SourceLocationE, 
                       __ZNK6google8protobuf14FileDescriptor17GetSourceLocationERKNSt3__16vectorIiNS2_9allocatorIiEEEEPNS0_14SourceLocationE, 
                       __ZNK6google8protobuf14FileDescriptor18FindEnumTypeByNameERKNSt3__112basic_stringIcNS2_11char_traitsIcEENS2_9allocatorIcEEEE, 
                       __ZNK6google8protobuf14FileDescriptor19FindEnumValueByNameERKNSt3__112basic_stringIcNS2_11char_traitsIcEENS2_9allocatorIcEEEE, 
                       __ZNK6google8protobuf14FileDescriptor19FindExtensionByNameERKNSt3__112basic_stringIcNS2_11char_traitsIcEENS2_9allocatorIcEEEE, 
                       __ZNK6google8protobuf14FileDescriptor20CopySourceCodeInfoToEPNS0_19FileDescriptorProtoE, 
                       __ZNK6google8protobuf14FileDescriptor21FindMessageTypeByNameERKNSt3__112basic_stringIcNS2_11char_traitsIcEENS2_9allocatorIcEEEE, 
                       __ZNK6google8protobuf14FileDescriptor22DebugStringWithOptionsERKNS0_18DebugStringOptionsE, 
                       __ZNK6google8protobuf14FileDescriptor28FindExtensionByCamelcaseNameERKNSt3__112basic_stringIcNS2_11char_traitsIcEENS2_9allocatorIcEEEE, 
                       __ZNK6google8protobuf14FileDescriptor28FindExtensionByLowercaseNameERKNSt3__112basic_stringIcNS2_11char_traitsIcEENS2_9allocatorIcEEEE, 
                       __ZNK6google8protobuf14FileDescriptor28InternalDependenciesOnceInitEv, 
                       __ZNK6google8protobuf14FileDescriptor6CopyToEPNS0_19FileDescriptorProtoE, 
                       __ZNK6google8protobuf14MessageOptions11GetMetadataEv, __ZNK6google8protobuf14MessageOptions12ByteSizeLongEv, 
                       __ZNK6google8protobuf14MessageOptions13IsInitializedEv, __ZNK6google8protobuf14MessageOptions13SetCachedSizeEi, 
                       __ZNK6google8protobuf14MessageOptions18_InternalSerializeEPhPNS0_2io19EpsCopyOutputStreamE, 
                       __ZNK6google8protobuf14ServiceOptions11GetMetadataEv, __ZNK6google8protobuf14ServiceOptions12ByteSizeLongEv, 
                       __ZNK6google8protobuf14ServiceOptions13IsInitializedEv, __ZNK6google8protobuf14ServiceOptions13SetCachedSizeEi, 
                       __ZNK6google8protobuf14ServiceOptions18_InternalSerializeEPhPNS0_2io19EpsCopyOutputStreamE, 
                       __ZNK6google8protobuf14SourceCodeInfo11GetMetadataEv, __ZNK6google8protobuf14SourceCodeInfo12ByteSizeLongEv, 
                       __ZNK6google8protobuf14SourceCodeInfo13IsInitializedEv, __ZNK6google8protobuf14SourceCodeInfo13SetCachedSizeEi, 
                       __ZNK6google8protobuf14SourceCodeInfo18_InternalSerializeEPhPNS0_2io19EpsCopyOutputStreamE, 
                       __ZNK6google8protobuf15DescriptorProto11GetMetadataEv, __ZNK6google8protobuf15DescriptorProto12ByteSizeLongEv, 
                       __ZNK6google8protobuf15DescriptorProto13IsInitializedEv, __ZNK6google8protobuf15DescriptorProto13SetCachedSizeEi, 
                       __ZNK6google8protobuf15DescriptorProto18_InternalSerializeEPhPNS0_2io19EpsCopyOutputStreamE, 
                       __ZNK6google8protobuf15FieldDescriptor11DebugStringEiPNSt3__112basic_stringIcNS2_11char_traitsIcEENS2_9allocatorIcEEEERKNS0_18DebugStringOptionsE, 
                       __ZNK6google8protobuf15FieldDescriptor11DebugStringEv, __ZNK6google8protobuf15FieldDescriptor12message_typeEv, 
                       __ZNK6google8protobuf15FieldDescriptor14CopyJsonNameToEPNS0_20FieldDescriptorProtoE, 
                       __ZNK6google8protobuf15FieldDescriptor15GetLocationPathEPNSt3__16vectorIiNS2_9allocatorIiEEEE, 
                       __ZNK6google8protobuf15FieldDescriptor17GetSourceLocationEPNS0_14SourceLocationE, 
                       __ZNK6google8protobuf15FieldDescriptor18default_value_enumEv, 
                       __ZNK6google8protobuf15FieldDescriptor19is_map_message_typeEv, 
                       __ZNK6google8protobuf15FieldDescriptor20DefaultValueAsStringEb, 
                       __ZNK6google8protobuf15FieldDescriptor20InternalTypeOnceInitEv, 
                       __ZNK6google8protobuf15FieldDescriptor22DebugStringWithOptionsERKNS0_18DebugStringOptionsE, 
                       __ZNK6google8protobuf15FieldDescriptor24FieldTypeNameDebugStringEv, 
                       __ZNK6google8protobuf15FieldDescriptor25PrintableNameForExtensionEv, 
                       __ZNK6google8protobuf15FieldDescriptor6CopyToEPNS0_20FieldDescriptorProtoE, 
                       __ZNK6google8protobuf15FieldDescriptor9enum_typeEv, __ZNK6google8protobuf15FieldDescriptor9is_packedEv, 
                       __ZNK6google8protobuf15OneofDescriptor11DebugStringEiPNSt3__112basic_stringIcNS2_11char_traitsIcEENS2_9allocatorIcEEEERKNS0_18DebugStringOptionsE, 
                       __ZNK6google8protobuf15OneofDescriptor11DebugStringEv, __ZNK6google8protobuf15OneofDescriptor15GetLocationPathEPNSt3__16vectorIiNS2_9allocatorIiEEEE, 
                       __ZNK6google8protobuf15OneofDescriptor17GetSourceLocationEPNS0_14SourceLocationE, 
                       __ZNK6google8protobuf15OneofDescriptor22DebugStringWithOptionsERKNS0_18DebugStringOptionsE, 
                       __ZNK6google8protobuf15OneofDescriptor6CopyToEPNS0_20OneofDescriptorProtoE, 
                       __ZNK6google8protobuf15UnknownFieldSet13SpaceUsedLongEv, __ZNK6google8protobuf15UnknownFieldSet26SpaceUsedExcludingSelfLongEv, 
                       __ZNK6google8protobuf16EnumValueOptions11GetMetadataEv, __ZNK6google8protobuf16EnumValueOptions12ByteSizeLongEv, 
                       __ZNK6google8protobuf16EnumValueOptions13IsInitializedEv, 
                       __ZNK6google8protobuf16EnumValueOptions13SetCachedSizeEi, 
                       __ZNK6google8protobuf16EnumValueOptions18_InternalSerializeEPhPNS0_2io19EpsCopyOutputStreamE, 
                       __ZNK6google8protobuf16MethodDescriptor10input_typeEv, __ZNK6google8protobuf16MethodDescriptor11DebugStringEiPNSt3__112basic_stringIcNS2_11char_traitsIcEENS2_9allocatorIcEEEERKNS0_18DebugStringOptionsE, 
                       __ZNK6google8protobuf16MethodDescriptor11DebugStringEv, __ZNK6google8protobuf16MethodDescriptor11output_typeEv, 
                       __ZNK6google8protobuf16MethodDescriptor15GetLocationPathEPNSt3__16vectorIiNS2_9allocatorIiEEEE, 
                       __ZNK6google8protobuf16MethodDescriptor17GetSourceLocationEPNS0_14SourceLocationE, 
                       __ZNK6google8protobuf16MethodDescriptor22DebugStringWithOptionsERKNS0_18DebugStringOptionsE, 
                       __ZNK6google8protobuf16MethodDescriptor6CopyToEPNS0_21MethodDescriptorProtoE, 
                       __ZNK6google8protobuf17FileDescriptorSet11GetMetadataEv, __ZNK6google8protobuf17FileDescriptorSet12ByteSizeLongEv, 
                       __ZNK6google8protobuf17FileDescriptorSet13IsInitializedEv, 
                       __ZNK6google8protobuf17FileDescriptorSet13SetCachedSizeEi, 
                       __ZNK6google8protobuf17FileDescriptorSet18_InternalSerializeEPhPNS0_2io19EpsCopyOutputStreamE, 
                       __ZNK6google8protobuf17GeneratedCodeInfo11GetMetadataEv, __ZNK6google8protobuf17GeneratedCodeInfo12ByteSizeLongEv, 
                       __ZNK6google8protobuf17GeneratedCodeInfo13IsInitializedEv, 
                       __ZNK6google8protobuf17GeneratedCodeInfo13SetCachedSizeEi, 
                       __ZNK6google8protobuf17GeneratedCodeInfo18_InternalSerializeEPhPNS0_2io19EpsCopyOutputStreamE, 
                       __ZNK6google8protobuf17ServiceDescriptor11DebugStringEPNSt3__112basic_stringIcNS2_11char_traitsIcEENS2_9allocatorIcEEEERKNS0_18DebugStringOptionsE, 
                       __ZNK6google8protobuf17ServiceDescriptor11DebugStringEv, __ZNK6google8protobuf17ServiceDescriptor15GetLocationPathEPNSt3__16vectorIiNS2_9allocatorIiEEEE, 
                       __ZNK6google8protobuf17ServiceDescriptor16FindMethodByNameERKNSt3__112basic_stringIcNS2_11char_traitsIcEENS2_9allocatorIcEEEE, 
                       __ZNK6google8protobuf17ServiceDescriptor17GetSourceLocationEPNS0_14SourceLocationE, 
                       __ZNK6google8protobuf17ServiceDescriptor22DebugStringWithOptionsERKNS0_18DebugStringOptionsE, 
                       __ZNK6google8protobuf17ServiceDescriptor6CopyToEPNS0_22ServiceDescriptorProtoE, 
                       __ZNK6google8protobuf19EnumDescriptorProto11GetMetadataEv, 
                       __ZNK6google8protobuf19EnumDescriptorProto12ByteSizeLongEv, 
                       __ZNK6google8protobuf19EnumDescriptorProto13IsInitializedEv, 
                       __ZNK6google8protobuf19EnumDescriptorProto13SetCachedSizeEi, 
                       __ZNK6google8protobuf19EnumDescriptorProto18_InternalSerializeEPhPNS0_2io19EpsCopyOutputStreamE, 
                       __ZNK6google8protobuf19EnumValueDescriptor11DebugStringEiPNSt3__112basic_stringIcNS2_11char_traitsIcEENS2_9allocatorIcEEEERKNS0_18DebugStringOptionsE, 
                       __ZNK6google8protobuf19EnumValueDescriptor11DebugStringEv, 
                       __ZNK6google8protobuf19EnumValueDescriptor15GetLocationPathEPNSt3__16vectorIiNS2_9allocatorIiEEEE, 
                       __ZNK6google8protobuf19EnumValueDescriptor17GetSourceLocationEPNS0_14SourceLocationE, 
                       __ZNK6google8protobuf19EnumValueDescriptor22DebugStringWithOptionsERKNS0_18DebugStringOptionsE, 
                       __ZNK6google8protobuf19EnumValueDescriptor6CopyToEPNS0_24EnumValueDescriptorProtoE, 
                       __ZNK6google8protobuf19FileDescriptorProto11GetMetadataEv, 
                       __ZNK6google8protobuf19FileDescriptorProto12ByteSizeLongEv, 
                       __ZNK6google8protobuf19FileDescriptorProto13IsInitializedEv, 
                       __ZNK6google8protobuf19FileDescriptorProto13SetCachedSizeEi, 
                       __ZNK6google8protobuf19FileDescriptorProto18_InternalSerializeEPhPNS0_2io19EpsCopyOutputStreamE, 
                       __ZNK6google8protobuf19UninterpretedOption11GetMetadataEv, 
                       __ZNK6google8protobuf19UninterpretedOption12ByteSizeLongEv, 
                       __ZNK6google8protobuf19UninterpretedOption13IsInitializedEv, 
                       __ZNK6google8protobuf19UninterpretedOption13SetCachedSizeEi, 
                       __ZNK6google8protobuf19UninterpretedOption18_InternalSerializeEPhPNS0_2io19EpsCopyOutputStreamE, 
                       __ZNK6google8protobuf20FieldDescriptorProto11GetMetadataEv, 
                       __ZNK6google8protobuf20FieldDescriptorProto12ByteSizeLongEv, 
                       __ZNK6google8protobuf20FieldDescriptorProto13IsInitializedEv, 
                       __ZNK6google8protobuf20FieldDescriptorProto13SetCachedSizeEi, 
                       __ZNK6google8protobuf20FieldDescriptorProto18_InternalSerializeEPhPNS0_2io19EpsCopyOutputStreamE, 
                       __ZNK6google8protobuf20FileDescriptorTables17GetSourceLocationERKNSt3__16vectorIiNS2_9allocatorIiEEEEPKNS0_14SourceCodeInfoE, 
                       __ZNK6google8protobuf20FileDescriptorTables24FindParentForFieldsByMapEPKNS0_15FieldDescriptorE, 
                       __ZNK6google8protobuf20FileDescriptorTables38FieldsByCamelcaseNamesLazyInitInternalEv, 
                       __ZNK6google8protobuf20FileDescriptorTables38FieldsByLowercaseNamesLazyInitInternalEv, 
                       __ZNK6google8protobuf20OneofDescriptorProto11GetMetadataEv, 
                       __ZNK6google8protobuf20OneofDescriptorProto12ByteSizeLongEv, 
                       __ZNK6google8protobuf20OneofDescriptorProto13IsInitializedEv, 
                       __ZNK6google8protobuf20OneofDescriptorProto13SetCachedSizeEi, 
                       __ZNK6google8protobuf20OneofDescriptorProto18_InternalSerializeEPhPNS0_2io19EpsCopyOutputStreamE, 
                       __ZNK6google8protobuf21ExtensionRangeOptions11GetMetadataEv, 
                       __ZNK6google8protobuf21ExtensionRangeOptions12ByteSizeLongEv, 
                       __ZNK6google8protobuf21ExtensionRangeOptions13IsInitializedEv, 
                       __ZNK6google8protobuf21ExtensionRangeOptions13SetCachedSizeEi, 
                       __ZNK6google8protobuf21ExtensionRangeOptions18_InternalSerializeEPhPNS0_2io19EpsCopyOutputStreamE, 
                       __ZNK6google8protobuf21MethodDescriptorProto11GetMetadataEv, 
                       __ZNK6google8protobuf21MethodDescriptorProto12ByteSizeLongEv, 
                       __ZNK6google8protobuf21MethodDescriptorProto13IsInitializedEv, 
                       __ZNK6google8protobuf21MethodDescriptorProto13SetCachedSizeEi, 
                       __ZNK6google8protobuf21MethodDescriptorProto18_InternalSerializeEPhPNS0_2io19EpsCopyOutputStreamE, 
                       __ZNK6google8protobuf22ServiceDescriptorProto11GetMetadataEv, 
                       __ZNK6google8protobuf22ServiceDescriptorProto12ByteSizeLongEv, 
                       __ZNK6google8protobuf22ServiceDescriptorProto13IsInitializedEv, 
                       __ZNK6google8protobuf22ServiceDescriptorProto13SetCachedSizeEi, 
                       __ZNK6google8protobuf22ServiceDescriptorProto18_InternalSerializeEPhPNS0_2io19EpsCopyOutputStreamE, 
                       __ZNK6google8protobuf23SourceCodeInfo_Location11GetMetadataEv, 
                       __ZNK6google8protobuf23SourceCodeInfo_Location12ByteSizeLongEv, 
                       __ZNK6google8protobuf23SourceCodeInfo_Location13IsInitializedEv, 
                       __ZNK6google8protobuf23SourceCodeInfo_Location13SetCachedSizeEi, 
                       __ZNK6google8protobuf23SourceCodeInfo_Location18_InternalSerializeEPhPNS0_2io19EpsCopyOutputStreamE, 
                       __ZNK6google8protobuf24EnumValueDescriptorProto11GetMetadataEv, 
                       __ZNK6google8protobuf24EnumValueDescriptorProto12ByteSizeLongEv, 
                       __ZNK6google8protobuf24EnumValueDescriptorProto13IsInitializedEv, 
                       __ZNK6google8protobuf24EnumValueDescriptorProto13SetCachedSizeEi, 
                       __ZNK6google8protobuf24EnumValueDescriptorProto18_InternalSerializeEPhPNS0_2io19EpsCopyOutputStreamE, 
                       __ZNK6google8protobuf25EncodedDescriptorDatabase15DescriptorIndex16FindAllFileNamesEPNSt3__16vectorINS3_12basic_stringIcNS3_11char_traitsIcEENS3_9allocatorIcEEEENS8_ISA_EEEE, 
                       __ZNK6google8protobuf25EncodedDescriptorDatabase15DescriptorIndex18FindSymbolOnlyFlatENS0_11StringPieceE, 
                       __ZNK6google8protobuf28GeneratedCodeInfo_Annotation11GetMetadataEv, 
                       __ZNK6google8protobuf28GeneratedCodeInfo_Annotation12ByteSizeLongEv, 
                       __ZNK6google8protobuf28GeneratedCodeInfo_Annotation13IsInitializedEv, 
                       __ZNK6google8protobuf28GeneratedCodeInfo_Annotation13SetCachedSizeEi, 
                       __ZNK6google8protobuf28GeneratedCodeInfo_Annotation18_InternalSerializeEPhPNS0_2io19EpsCopyOutputStreamE, 
                       __ZNK6google8protobuf28UninterpretedOption_NamePart11GetMetadataEv, 
                       __ZNK6google8protobuf28UninterpretedOption_NamePart12ByteSizeLongEv, 
                       __ZNK6google8protobuf28UninterpretedOption_NamePart13IsInitializedEv, 
                       __ZNK6google8protobuf28UninterpretedOption_NamePart13SetCachedSizeEi, 
                       __ZNK6google8protobuf28UninterpretedOption_NamePart18_InternalSerializeEPhPNS0_2io19EpsCopyOutputStreamE, 
                       __ZNK6google8protobuf28UninterpretedOption_NamePart30RequiredFieldsByteSizeFallbackEv, 
                       __ZNK6google8protobuf29DescriptorProto_ReservedRange11GetMetadataEv, 
                       __ZNK6google8protobuf29DescriptorProto_ReservedRange12ByteSizeLongEv, 
                       __ZNK6google8protobuf29DescriptorProto_ReservedRange13IsInitializedEv, 
                       __ZNK6google8protobuf29DescriptorProto_ReservedRange13SetCachedSizeEi, 
                       __ZNK6google8protobuf29DescriptorProto_ReservedRange18_InternalSerializeEPhPNS0_2io19EpsCopyOutputStreamE, 
                       __ZNK6google8protobuf2io15FileInputStream9ByteCountEv, __ZNK6google8protobuf2io16ArrayInputStream9ByteCountEv, 
                       __ZNK6google8protobuf2io16CodedInputStream15BytesUntilLimitEv, 
                       __ZNK6google8protobuf2io16CodedInputStream25BytesUntilTotalBytesLimitEv, 
                       __ZNK6google8protobuf2io17ArrayOutputStream9ByteCountEv, __ZNK6google8protobuf2io18IstreamInputStream9ByteCountEv, 
                       __ZNK6google8protobuf2io18StringOutputStream9ByteCountEv, 
                       __ZNK6google8protobuf2io19EpsCopyOutputStream9ByteCountEPh, 
                       __ZNK6google8protobuf2io19LimitingInputStream9ByteCountEv, 
                       __ZNK6google8protobuf2io19OstreamOutputStream9ByteCountEv, 
                       __ZNK6google8protobuf2io24ConcatenatingInputStream9ByteCountEv, 
                       __ZNK6google8protobuf2io25CopyingInputStreamAdaptor9ByteCountEv, 
                       __ZNK6google8protobuf2io26CopyingOutputStreamAdaptor9ByteCountEv, 
                       __ZNK6google8protobuf30DescriptorProto_ExtensionRange11GetMetadataEv, 
                       __ZNK6google8protobuf30DescriptorProto_ExtensionRange12ByteSizeLongEv, 
                       __ZNK6google8protobuf30DescriptorProto_ExtensionRange13IsInitializedEv, 
                       __ZNK6google8protobuf30DescriptorProto_ExtensionRange13SetCachedSizeEi, 
                       __ZNK6google8protobuf30DescriptorProto_ExtensionRange18_InternalSerializeEPhPNS0_2io19EpsCopyOutputStreamE, 
                       __ZNK6google8protobuf37EnumDescriptorProto_EnumReservedRange11GetMetadataEv, 
                       __ZNK6google8protobuf37EnumDescriptorProto_EnumReservedRange12ByteSizeLongEv, 
                       __ZNK6google8protobuf37EnumDescriptorProto_EnumReservedRange13IsInitializedEv, 
                       __ZNK6google8protobuf37EnumDescriptorProto_EnumReservedRange13SetCachedSizeEi, 
                       __ZNK6google8protobuf37EnumDescriptorProto_EnumReservedRange18_InternalSerializeEPhPNS0_2io19EpsCopyOutputStreamE, 
                       __ZNK6google8protobuf4util18MessageDifferencer19GetMapKeyComparatorEPKNS0_15FieldDescriptorE, 
                       __ZNK6google8protobuf4util18MessageDifferencer21MapEntryKeyComparator7IsMatchERKNS0_7MessageES6_RKNSt3__16vectorINS2_13SpecificFieldENS7_9allocatorIS9_EEEE, 
                       __ZNK6google8protobuf4util22DefaultFieldComparator17ResultFromBooleanEb, 
                       __ZNK6google8protobuf4util6Status8ToStringEv, __ZNK6google8protobuf4util6StatuseqERKS2_, 
                       __ZNK6google8protobuf7Message11DebugStringEv, __ZNK6google8protobuf7Message11GetTypeNameEv, 
                       __ZNK6google8protobuf7Message12ByteSizeLongEv, __ZNK6google8protobuf7Message13IsInitializedEv, 
                       __ZNK6google8protobuf7Message13SetCachedSizeEi, __ZNK6google8protobuf7Message13SpaceUsedLongEv, 
                       __ZNK6google8protobuf7Message15Utf8DebugStringEv, __ZNK6google8protobuf7Message16CheckInitializedEv, 
                       __ZNK6google8protobuf7Message16PrintDebugStringEv, __ZNK6google8protobuf7Message16ShortDebugStringEv, 
                       __ZNK6google8protobuf7Message18_InternalSerializeEPhPNS0_2io19EpsCopyOutputStreamE, 
                       __ZNK6google8protobuf7Message24FindInitializationErrorsEPNSt3__16vectorINS2_12basic_stringIcNS2_11char_traitsIcEENS2_9allocatorIcEEEENS7_IS9_EEEE, 
                       __ZNK6google8protobuf7Message25InitializationErrorStringEv, 
                       __ZNK6google8protobuf8internal10LazyString4InitEv, __ZNK6google8protobuf8internal11AnyMetadata10InternalIsENS0_11StringPieceE, 
                       __ZNK6google8protobuf8internal11AnyMetadata16InternalUnpackToENS0_11StringPieceEPNS0_11MessageLiteE, 
                       __ZNK6google8protobuf8internal11AnyMetadata8UnpackToEPNS0_7MessageE, 
                       __ZNK6google8protobuf8internal11SerialArena9SpaceUsedEv, __ZNK6google8protobuf8internal12ExtensionSet10FindOrNullEi, 
                       __ZNK6google8protobuf8internal12ExtensionSet10GetMessageEiPKNS0_10DescriptorEPNS0_14MessageFactoryE, 
                       __ZNK6google8protobuf8internal12ExtensionSet10GetMessageEiRKNS0_11MessageLiteE, 
                       __ZNK6google8protobuf8internal12ExtensionSet12AppendToListEPKNS0_10DescriptorEPKNS0_14DescriptorPoolEPNSt3__16vectorIPKNS0_15FieldDescriptorENS9_9allocatorISD_EEEE, 
                       __ZNK6google8protobuf8internal12ExtensionSet13ExtensionSizeEi, 
                       __ZNK6google8protobuf8internal12ExtensionSet13ExtensionTypeEi, 
                       __ZNK6google8protobuf8internal12ExtensionSet13IsInitializedEv, 
                       __ZNK6google8protobuf8internal12ExtensionSet13NumExtensionsEv, 
                       __ZNK6google8protobuf8internal12ExtensionSet15GetRepeatedBoolEii, 
                       __ZNK6google8protobuf8internal12ExtensionSet15GetRepeatedEnumEii, 
                       __ZNK6google8protobuf8internal12ExtensionSet16GetRepeatedFloatEii, 
                       __ZNK6google8protobuf8internal12ExtensionSet16GetRepeatedInt32Eii, 
                       __ZNK6google8protobuf8internal12ExtensionSet16GetRepeatedInt64Eii, 
                       __ZNK6google8protobuf8internal12ExtensionSet17GetRepeatedDoubleEii, 
                       __ZNK6google8protobuf8internal12ExtensionSet17GetRepeatedStringEii, 
                       __ZNK6google8protobuf8internal12ExtensionSet17GetRepeatedUInt32Eii, 
                       __ZNK6google8protobuf8internal12ExtensionSet17GetRepeatedUInt64Eii, 
                       __ZNK6google8protobuf8internal12ExtensionSet18GetRepeatedMessageEii, 
                       __ZNK6google8protobuf8internal12ExtensionSet18MessageSetByteSizeEv, 
                       __ZNK6google8protobuf8internal12ExtensionSet18_InternalSerializeEiiPhPNS0_2io19EpsCopyOutputStreamE, 
                       __ZNK6google8protobuf8internal12ExtensionSet19GetRawRepeatedFieldEiPKv, 
                       __ZNK6google8protobuf8internal12ExtensionSet20FindOrNullInLargeMapEi, 
                       __ZNK6google8protobuf8internal12ExtensionSet22SpaceUsedExcludingSelfEv, 
                       __ZNK6google8protobuf8internal12ExtensionSet26SpaceUsedExcludingSelfLongEv, 
                       __ZNK6google8protobuf8internal12ExtensionSet3HasEi, __ZNK6google8protobuf8internal12ExtensionSet41SerializeMessageSetWithCachedSizesToArrayEPh, 
                       __ZNK6google8protobuf8internal12ExtensionSet49InternalSerializeMessageSetWithCachedSizesToArrayEPhPNS0_2io19EpsCopyOutputStreamE, 
                       __ZNK6google8protobuf8internal12ExtensionSet7GetBoolEib, __ZNK6google8protobuf8internal12ExtensionSet7GetEnumEii, 
                       __ZNK6google8protobuf8internal12ExtensionSet8ByteSizeEv, __ZNK6google8protobuf8internal12ExtensionSet8GetFloatEif, 
                       __ZNK6google8protobuf8internal12ExtensionSet8GetInt32Eii, 
                       __ZNK6google8protobuf8internal12ExtensionSet8GetInt64Eix, 
                       __ZNK6google8protobuf8internal12ExtensionSet9Extension13IsInitializedEv, 
                       __ZNK6google8protobuf8internal12ExtensionSet9Extension22MessageSetItemByteSizeEi, 
                       __ZNK6google8protobuf8internal12ExtensionSet9Extension26SpaceUsedExcludingSelfLongEv, 
                       __ZNK6google8protobuf8internal12ExtensionSet9Extension44InternalSerializeFieldWithCachedSizesToArrayEiPhPNS0_2io19EpsCopyOutputStreamE, 
                       __ZNK6google8protobuf8internal12ExtensionSet9Extension53InternalSerializeMessageSetItemWithCachedSizesToArrayEiPhPNS0_2io19EpsCopyOutputStreamE, 
                       __ZNK6google8protobuf8internal12ExtensionSet9Extension7GetSizeEv, 
                       __ZNK6google8protobuf8internal12ExtensionSet9Extension8ByteSizeEi, 
                       __ZNK6google8protobuf8internal12ExtensionSet9GetDoubleEid, 
                       __ZNK6google8protobuf8internal12ExtensionSet9GetStringEiRKNSt3__112basic_stringIcNS3_11char_traitsIcEENS3_9allocatorIcEEEE, 
                       __ZNK6google8protobuf8internal12ExtensionSet9GetUInt32Eij, 
                       __ZNK6google8protobuf8internal12ExtensionSet9GetUInt64Eiy, 
                       __ZNK6google8protobuf8internal12MapFieldBase10IsMapValidEv, 
                       __ZNK6google8protobuf8internal12MapFieldBase16GetRepeatedFieldEv, 
                       __ZNK6google8protobuf8internal12MapFieldBase20IsRepeatedFieldValidEv, 
                       __ZNK6google8protobuf8internal12MapFieldBase24SyncMapWithRepeatedFieldEv, 
                       __ZNK6google8protobuf8internal12MapFieldBase24SyncRepeatedFieldWithMapEv, 
                       __ZNK6google8protobuf8internal12MapFieldBase26SpaceUsedExcludingSelfLongEv, 
                       __ZNK6google8protobuf8internal12MapFieldBase28SpaceUsedExcludingSelfNoLockEv, 
                       __ZNK6google8protobuf8internal12MapFieldBase30SyncRepeatedFieldWithMapNoLockEv, 
                       __ZNK6google8protobuf8internal15DynamicMapField14ContainsMapKeyERKNS0_6MapKeyE, 
                       __ZNK6google8protobuf8internal15DynamicMapField14LookupMapValueERKNS0_6MapKeyEPNS0_16MapValueConstRefE, 
                       __ZNK6google8protobuf8internal15DynamicMapField19SetMapIteratorValueEPNS0_11MapIteratorE, 
                       __ZNK6google8protobuf8internal15DynamicMapField28SpaceUsedExcludingSelfNoLockEv, 
                       __ZNK6google8protobuf8internal15DynamicMapField30SyncMapWithRepeatedFieldNoLockEv, 
                       __ZNK6google8protobuf8internal15DynamicMapField30SyncRepeatedFieldWithMapNoLockEv, 
                       __ZNK6google8protobuf8internal15DynamicMapField4sizeEv, __ZNK6google8protobuf8internal15DynamicMapField6GetMapEv, 
                       __ZNK6google8protobuf8internal9ArenaImpl14SpaceAllocatedEv, 
                       __ZNK6google8protobuf8internal9ArenaImpl9SpaceUsedEv, __ZNK6snappy15ByteArraySource9AvailableEv, 
                       __ZTIN3TSP12SnappySourceE, __ZTIN3TSP19DatabaseInputStream26CopyingDatabaseInputStreamE, 
                       __ZTIN3TSP19DatabaseInputStreamE, __ZTIN3TSP20DatabaseOutputStream27CopyingDatabaseOutputStreamE, 
                       __ZTIN3TSP20DatabaseOutputStreamE, __ZTIN3TSP23DispatchDataInputStreamE, 
                       __ZTIN3TSP24DispatchDataOutputStreamE, __ZTIN6google8protobuf10TextFormat17BaseTextGeneratorE, 
                       __ZTIN6google8protobuf10TextFormat17FieldValuePrinterE, __ZTIN6google8protobuf10TextFormat21FastFieldValuePrinterE, 
                       __ZTIN6google8protobuf10TextFormat6FinderE, __ZTIN6google8protobuf11EnumOptionsE, 
                       __ZTIN6google8protobuf11FileOptionsE, __ZTIN6google8protobuf11MessageLiteE, 
                       __ZTIN6google8protobuf12FieldOptionsE, __ZTIN6google8protobuf12OneofOptionsE, 
                       __ZTIN6google8protobuf13MethodOptionsE, __ZTIN6google8protobuf14DescriptorPool14ErrorCollectorE, 
                       __ZTIN6google8protobuf14DynamicMessageE, __ZTIN6google8protobuf14FatalExceptionE, 
                       __ZTIN6google8protobuf14MessageFactoryE, __ZTIN6google8protobuf14MessageOptionsE, 
                       __ZTIN6google8protobuf14ServiceOptionsE, __ZTIN6google8protobuf14SourceCodeInfoE, 
                       __ZTIN6google8protobuf15DescriptorProtoE, __ZTIN6google8protobuf16EnumValueOptionsE, 
                       __ZTIN6google8protobuf17FileDescriptorSetE, __ZTIN6google8protobuf17GeneratedCodeInfoE, 
                       __ZTIN6google8protobuf18DescriptorDatabaseE, __ZTIN6google8protobuf19EnumDescriptorProtoE, 
                       __ZTIN6google8protobuf19FileDescriptorProtoE, __ZTIN6google8protobuf19UninterpretedOptionE, 
                       __ZTIN6google8protobuf20FieldDescriptorProtoE, __ZTIN6google8protobuf20OneofDescriptorProtoE, 
                       __ZTIN6google8protobuf21DynamicMessageFactoryE, __ZTIN6google8protobuf21ExtensionRangeOptionsE, 
                       __ZTIN6google8protobuf21MethodDescriptorProtoE, __ZTIN6google8protobuf22DescriptorPoolDatabaseE, 
                       __ZTIN6google8protobuf22ServiceDescriptorProtoE, __ZTIN6google8protobuf23SourceCodeInfo_LocationE, 
                       __ZTIN6google8protobuf24EnumValueDescriptorProtoE, __ZTIN6google8protobuf24MergedDescriptorDatabaseE, 
                       __ZTIN6google8protobuf24SimpleDescriptorDatabaseE, __ZTIN6google8protobuf25EncodedDescriptorDatabaseE, 
                       __ZTIN6google8protobuf28GeneratedCodeInfo_AnnotationE, __ZTIN6google8protobuf28UninterpretedOption_NamePartE, 
                       __ZTIN6google8protobuf29DescriptorProto_ReservedRangeE, __ZTIN6google8protobuf2io14ErrorCollectorE, 
                       __ZTIN6google8protobuf2io15FileInputStream22CopyingFileInputStreamE, 
                       __ZTIN6google8protobuf2io15FileInputStreamE, __ZTIN6google8protobuf2io16ArrayInputStreamE, 
                       __ZTIN6google8protobuf2io16FileOutputStream23CopyingFileOutputStreamE, 
                       __ZTIN6google8protobuf2io16FileOutputStreamE, __ZTIN6google8protobuf2io17ArrayOutputStreamE, 
                       __ZTIN6google8protobuf2io18CopyingInputStreamE, __ZTIN6google8protobuf2io18IstreamInputStream25CopyingIstreamInputStreamE, 
                       __ZTIN6google8protobuf2io18IstreamInputStreamE, __ZTIN6google8protobuf2io18StringOutputStreamE, 
                       __ZTIN6google8protobuf2io19LimitingInputStreamE, __ZTIN6google8protobuf2io19OstreamOutputStream26CopyingOstreamOutputStreamE, 
                       __ZTIN6google8protobuf2io19OstreamOutputStreamE, __ZTIN6google8protobuf2io20ZeroCopyOutputStreamE, 
                       __ZTIN6google8protobuf2io24ConcatenatingInputStreamE, __ZTIN6google8protobuf2io25CopyingInputStreamAdaptorE, 
                       __ZTIN6google8protobuf2io26CopyingOutputStreamAdaptorE, __ZTIN6google8protobuf30DescriptorProto_ExtensionRangeE, 
                       __ZTIN6google8protobuf37EnumDescriptorProto_EnumReservedRangeE, 
                       __ZTIN6google8protobuf4util15FieldComparatorE, __ZTIN6google8protobuf4util18MessageDifferencer14IgnoreCriteriaE, 
                       __ZTIN6google8protobuf4util18MessageDifferencer14StreamReporterE, 
                       __ZTIN6google8protobuf4util18MessageDifferencer16MapKeyComparatorE, 
                       __ZTIN6google8protobuf4util18MessageDifferencer21MapEntryKeyComparatorE, 
                       __ZTIN6google8protobuf4util18MessageDifferencer8ReporterE, 
                       __ZTIN6google8protobuf4util22DefaultFieldComparatorE, __ZTIN6google8protobuf7ClosureE, 
                       __ZTIN6google8protobuf7MessageE, __ZTIN6google8protobuf8internal12ExtensionSet20LazyMessageExtensionE, 
                       __ZTIN6google8protobuf8internal12FieldSkipperE, __ZTIN6google8protobuf8internal12MapFieldBaseE, 
                       __ZTIN6google8protobuf8internal15DynamicMapFieldE, __ZTIN6google8protobuf8internal15ExtensionFinderE, 
                       __ZTIN6google8protobuf8internal16FunctionClosure0E, __ZTIN6google8protobuf8internal19ImplicitWeakMessageE, 
                       __ZTIN6google8protobuf8internal21ArenaMetricsCollectorE, __ZTIN6google8protobuf8internal22MessageSetFieldSkipperE, 
                       __ZTIN6google8protobuf8internal24GeneratedExtensionFinderE, 
                       __ZTIN6google8protobuf8internal27UnknownFieldSetFieldSkipperE, 
                       __ZTIN6google8protobuf8internal29CodedOutputStreamFieldSkipperE, 
                       __ZTIN6google8protobuf8internal29DescriptorPoolExtensionFinderE, 
                       __ZTIN6snappy15ByteArraySourceE, __ZTIN6snappy22UncheckedByteArraySinkE, 
                       __ZTIN6snappy4SinkE, __ZTIN6snappy6SourceE, __ZTSN3TSP12SnappySourceE, 
                       __ZTSN3TSP19DatabaseInputStream26CopyingDatabaseInputStreamE, 
                       __ZTSN3TSP19DatabaseInputStreamE, __ZTSN3TSP20DatabaseOutputStream27CopyingDatabaseOutputStreamE, 
                       __ZTSN3TSP20DatabaseOutputStreamE, __ZTSN3TSP23DispatchDataInputStreamE, 
                       __ZTSN3TSP24DispatchDataOutputStreamE, __ZTSN6google8protobuf10TextFormat17BaseTextGeneratorE, 
                       __ZTSN6google8protobuf10TextFormat17FieldValuePrinterE, __ZTSN6google8protobuf10TextFormat21FastFieldValuePrinterE, 
                       __ZTSN6google8protobuf10TextFormat6FinderE, __ZTSN6google8protobuf11EnumOptionsE, 
                       __ZTSN6google8protobuf11FileOptionsE, __ZTSN6google8protobuf11MessageLiteE, 
                       __ZTSN6google8protobuf12FieldOptionsE, __ZTSN6google8protobuf12OneofOptionsE, 
                       __ZTSN6google8protobuf13MethodOptionsE, __ZTSN6google8protobuf14DescriptorPool14ErrorCollectorE, 
                       __ZTSN6google8protobuf14DynamicMessageE, __ZTSN6google8protobuf14FatalExceptionE, 
                       __ZTSN6google8protobuf14MessageFactoryE, __ZTSN6google8protobuf14MessageOptionsE, 
                       __ZTSN6google8protobuf14ServiceOptionsE, __ZTSN6google8protobuf14SourceCodeInfoE, 
                       __ZTSN6google8protobuf15DescriptorProtoE, __ZTSN6google8protobuf16EnumValueOptionsE, 
                       __ZTSN6google8protobuf17FileDescriptorSetE, __ZTSN6google8protobuf17GeneratedCodeInfoE, 
                       __ZTSN6google8protobuf18DescriptorDatabaseE, __ZTSN6google8protobuf19EnumDescriptorProtoE, 
                       __ZTSN6google8protobuf19FileDescriptorProtoE, __ZTSN6google8protobuf19UninterpretedOptionE, 
                       __ZTSN6google8protobuf20FieldDescriptorProtoE, __ZTSN6google8protobuf20OneofDescriptorProtoE, 
                       __ZTSN6google8protobuf21DynamicMessageFactoryE, __ZTSN6google8protobuf21ExtensionRangeOptionsE, 
                       __ZTSN6google8protobuf21MethodDescriptorProtoE, __ZTSN6google8protobuf22DescriptorPoolDatabaseE, 
                       __ZTSN6google8protobuf22ServiceDescriptorProtoE, __ZTSN6google8protobuf23SourceCodeInfo_LocationE, 
                       __ZTSN6google8protobuf24EnumValueDescriptorProtoE, __ZTSN6google8protobuf24MergedDescriptorDatabaseE, 
                       __ZTSN6google8protobuf24SimpleDescriptorDatabaseE, __ZTSN6google8protobuf25EncodedDescriptorDatabaseE, 
                       __ZTSN6google8protobuf28GeneratedCodeInfo_AnnotationE, __ZTSN6google8protobuf28UninterpretedOption_NamePartE, 
                       __ZTSN6google8protobuf29DescriptorProto_ReservedRangeE, __ZTSN6google8protobuf2io14ErrorCollectorE, 
                       __ZTSN6google8protobuf2io15FileInputStream22CopyingFileInputStreamE, 
                       __ZTSN6google8protobuf2io15FileInputStreamE, __ZTSN6google8protobuf2io16ArrayInputStreamE, 
                       __ZTSN6google8protobuf2io16FileOutputStream23CopyingFileOutputStreamE, 
                       __ZTSN6google8protobuf2io16FileOutputStreamE, __ZTSN6google8protobuf2io17ArrayOutputStreamE, 
                       __ZTSN6google8protobuf2io18CopyingInputStreamE, __ZTSN6google8protobuf2io18IstreamInputStream25CopyingIstreamInputStreamE, 
                       __ZTSN6google8protobuf2io18IstreamInputStreamE, __ZTSN6google8protobuf2io18StringOutputStreamE, 
                       __ZTSN6google8protobuf2io19LimitingInputStreamE, __ZTSN6google8protobuf2io19OstreamOutputStream26CopyingOstreamOutputStreamE, 
                       __ZTSN6google8protobuf2io19OstreamOutputStreamE, __ZTSN6google8protobuf2io20ZeroCopyOutputStreamE, 
                       __ZTSN6google8protobuf2io24ConcatenatingInputStreamE, __ZTSN6google8protobuf2io25CopyingInputStreamAdaptorE, 
                       __ZTSN6google8protobuf2io26CopyingOutputStreamAdaptorE, __ZTSN6google8protobuf30DescriptorProto_ExtensionRangeE, 
                       __ZTSN6google8protobuf37EnumDescriptorProto_EnumReservedRangeE, 
                       __ZTSN6google8protobuf4util15FieldComparatorE, __ZTSN6google8protobuf4util18MessageDifferencer14IgnoreCriteriaE, 
                       __ZTSN6google8protobuf4util18MessageDifferencer14StreamReporterE, 
                       __ZTSN6google8protobuf4util18MessageDifferencer16MapKeyComparatorE, 
                       __ZTSN6google8protobuf4util18MessageDifferencer21MapEntryKeyComparatorE, 
                       __ZTSN6google8protobuf4util18MessageDifferencer8ReporterE, 
                       __ZTSN6google8protobuf4util22DefaultFieldComparatorE, __ZTSN6google8protobuf7ClosureE, 
                       __ZTSN6google8protobuf7MessageE, __ZTSN6google8protobuf8internal12ExtensionSet20LazyMessageExtensionE, 
                       __ZTSN6google8protobuf8internal12FieldSkipperE, __ZTSN6google8protobuf8internal12MapFieldBaseE, 
                       __ZTSN6google8protobuf8internal15DynamicMapFieldE, __ZTSN6google8protobuf8internal15ExtensionFinderE, 
                       __ZTSN6google8protobuf8internal16FunctionClosure0E, __ZTSN6google8protobuf8internal19ImplicitWeakMessageE, 
                       __ZTSN6google8protobuf8internal21ArenaMetricsCollectorE, __ZTSN6google8protobuf8internal22MessageSetFieldSkipperE, 
                       __ZTSN6google8protobuf8internal24GeneratedExtensionFinderE, 
                       __ZTSN6google8protobuf8internal27UnknownFieldSetFieldSkipperE, 
                       __ZTSN6google8protobuf8internal29CodedOutputStreamFieldSkipperE, 
                       __ZTSN6google8protobuf8internal29DescriptorPoolExtensionFinderE, 
                       __ZTSN6snappy15ByteArraySourceE, __ZTSN6snappy22UncheckedByteArraySinkE, 
                       __ZTSN6snappy4SinkE, __ZTSN6snappy6SourceE, __ZTVN3TSP12SnappySourceE, 
                       __ZTVN3TSP19DatabaseInputStream26CopyingDatabaseInputStreamE, 
                       __ZTVN3TSP19DatabaseInputStreamE, __ZTVN3TSP20DatabaseOutputStream27CopyingDatabaseOutputStreamE, 
                       __ZTVN3TSP20DatabaseOutputStreamE, __ZTVN3TSP23DispatchDataInputStreamE, 
                       __ZTVN3TSP24DispatchDataOutputStreamE, __ZTVN6google8protobuf10TextFormat17BaseTextGeneratorE, 
                       __ZTVN6google8protobuf10TextFormat17FieldValuePrinterE, __ZTVN6google8protobuf10TextFormat21FastFieldValuePrinterE, 
                       __ZTVN6google8protobuf10TextFormat6FinderE, __ZTVN6google8protobuf11EnumOptionsE, 
                       __ZTVN6google8protobuf11FileOptionsE, __ZTVN6google8protobuf11MessageLiteE, 
                       __ZTVN6google8protobuf12FieldOptionsE, __ZTVN6google8protobuf12OneofOptionsE, 
                       __ZTVN6google8protobuf13MethodOptionsE, __ZTVN6google8protobuf14DescriptorPool14ErrorCollectorE, 
                       __ZTVN6google8protobuf14DynamicMessageE, __ZTVN6google8protobuf14FatalExceptionE, 
                       __ZTVN6google8protobuf14MessageFactoryE, __ZTVN6google8protobuf14MessageOptionsE, 
                       __ZTVN6google8protobuf14ServiceOptionsE, __ZTVN6google8protobuf14SourceCodeInfoE, 
                       __ZTVN6google8protobuf15DescriptorProtoE, __ZTVN6google8protobuf16EnumValueOptionsE, 
                       __ZTVN6google8protobuf17FileDescriptorSetE, __ZTVN6google8protobuf17GeneratedCodeInfoE, 
                       __ZTVN6google8protobuf18DescriptorDatabaseE, __ZTVN6google8protobuf19EnumDescriptorProtoE, 
                       __ZTVN6google8protobuf19FileDescriptorProtoE, __ZTVN6google8protobuf19UninterpretedOptionE, 
                       __ZTVN6google8protobuf20FieldDescriptorProtoE, __ZTVN6google8protobuf20OneofDescriptorProtoE, 
                       __ZTVN6google8protobuf21DynamicMessageFactoryE, __ZTVN6google8protobuf21ExtensionRangeOptionsE, 
                       __ZTVN6google8protobuf21MethodDescriptorProtoE, __ZTVN6google8protobuf22DescriptorPoolDatabaseE, 
                       __ZTVN6google8protobuf22ServiceDescriptorProtoE, __ZTVN6google8protobuf23SourceCodeInfo_LocationE, 
                       __ZTVN6google8protobuf24EnumValueDescriptorProtoE, __ZTVN6google8protobuf24MergedDescriptorDatabaseE, 
                       __ZTVN6google8protobuf24SimpleDescriptorDatabaseE, __ZTVN6google8protobuf25EncodedDescriptorDatabaseE, 
                       __ZTVN6google8protobuf28GeneratedCodeInfo_AnnotationE, __ZTVN6google8protobuf28UninterpretedOption_NamePartE, 
                       __ZTVN6google8protobuf29DescriptorProto_ReservedRangeE, __ZTVN6google8protobuf2io14ErrorCollectorE, 
                       __ZTVN6google8protobuf2io15FileInputStream22CopyingFileInputStreamE, 
                       __ZTVN6google8protobuf2io15FileInputStreamE, __ZTVN6google8protobuf2io16ArrayInputStreamE, 
                       __ZTVN6google8protobuf2io16FileOutputStream23CopyingFileOutputStreamE, 
                       __ZTVN6google8protobuf2io16FileOutputStreamE, __ZTVN6google8protobuf2io17ArrayOutputStreamE, 
                       __ZTVN6google8protobuf2io18CopyingInputStreamE, __ZTVN6google8protobuf2io18IstreamInputStream25CopyingIstreamInputStreamE, 
                       __ZTVN6google8protobuf2io18IstreamInputStreamE, __ZTVN6google8protobuf2io18StringOutputStreamE, 
                       __ZTVN6google8protobuf2io19LimitingInputStreamE, __ZTVN6google8protobuf2io19OstreamOutputStream26CopyingOstreamOutputStreamE, 
                       __ZTVN6google8protobuf2io19OstreamOutputStreamE, __ZTVN6google8protobuf2io20ZeroCopyOutputStreamE, 
                       __ZTVN6google8protobuf2io24ConcatenatingInputStreamE, __ZTVN6google8protobuf2io25CopyingInputStreamAdaptorE, 
                       __ZTVN6google8protobuf2io26CopyingOutputStreamAdaptorE, __ZTVN6google8protobuf30DescriptorProto_ExtensionRangeE, 
                       __ZTVN6google8protobuf37EnumDescriptorProto_EnumReservedRangeE, 
                       __ZTVN6google8protobuf4util15FieldComparatorE, __ZTVN6google8protobuf4util18MessageDifferencer14IgnoreCriteriaE, 
                       __ZTVN6google8protobuf4util18MessageDifferencer14StreamReporterE, 
                       __ZTVN6google8protobuf4util18MessageDifferencer16MapKeyComparatorE, 
                       __ZTVN6google8protobuf4util18MessageDifferencer21MapEntryKeyComparatorE, 
                       __ZTVN6google8protobuf4util18MessageDifferencer8ReporterE, 
                       __ZTVN6google8protobuf4util22DefaultFieldComparatorE, __ZTVN6google8protobuf7ClosureE, 
                       __ZTVN6google8protobuf7MessageE, __ZTVN6google8protobuf8internal12ExtensionSet20LazyMessageExtensionE, 
                       __ZTVN6google8protobuf8internal12FieldSkipperE, __ZTVN6google8protobuf8internal12MapFieldBaseE, 
                       __ZTVN6google8protobuf8internal15DynamicMapFieldE, __ZTVN6google8protobuf8internal15ExtensionFinderE, 
                       __ZTVN6google8protobuf8internal16FunctionClosure0E, __ZTVN6google8protobuf8internal19ImplicitWeakMessageE, 
                       __ZTVN6google8protobuf8internal21ArenaMetricsCollectorE, __ZTVN6google8protobuf8internal22MessageSetFieldSkipperE, 
                       __ZTVN6google8protobuf8internal24GeneratedExtensionFinderE, 
                       __ZTVN6google8protobuf8internal27UnknownFieldSetFieldSkipperE, 
                       __ZTVN6google8protobuf8internal29CodedOutputStreamFieldSkipperE, 
                       __ZTVN6google8protobuf8internal29DescriptorPoolExtensionFinderE, 
                       __ZTVN6snappy15ByteArraySourceE, __ZTVN6snappy22UncheckedByteArraySinkE, 
                       __ZTVN6snappy4SinkE, __ZTVN6snappy6SourceE, _descriptor_table_google_2fprotobuf_2fdescriptor_2eproto, 
                       _kSFAPassphraseVerifierFilename, _kTSPDffClassInfoEntrySignature, 
                       _kTSPDffClassInfoHeaderLength, _kTSPDffCurrentVersion, _kTSPDffDefaultObjectVersion, 
                       _kTSPDffFileDescriptorProtoEntrySignature, _kTSPDffFileDescriptorProtoHeaderLength, 
                       _kTSPDffFileHeaderFixedLength, _kTSPDffFileSignature, _kTSPDffHasProtobufDescriptors, 
                       _kTSPDffHasTableOfContents, _kTSPDffObjectEntrySignature, 
                       _kTSPDffObjectHasRelativeDataPath, _kTSPDffObjectHasVersion, 
                       _kTSPDffObjectHeaderFixedLength, _kTSPDffObjectVersionTangier, 
                       _kTSPDffObjectVersionUnspecified, _kTSPDffSourceDocumentWasClosedCleanly, 
                       _kTSPDffTocEntryLength, _kTSPDffTocEntrySignature, _kTSPDffTocLocatorLength, 
                       _kTSPDffTocLocatorSignature, _sSharedDocumentResourceLegacySageRegistryOnceToken, 
                       _sSharedDocumentResourceLegacyTangierRegistryOnceToken, _sSharedDocumentResourceRegistryOnceToken, 
                       _scc_info_DescriptorProto_ExtensionRange_google_2fprotobuf_2fdescriptor_2eproto, 
                       _scc_info_DescriptorProto_ReservedRange_google_2fprotobuf_2fdescriptor_2eproto, 
                       _scc_info_DescriptorProto_google_2fprotobuf_2fdescriptor_2eproto, 
                       _scc_info_EnumDescriptorProto_EnumReservedRange_google_2fprotobuf_2fdescriptor_2eproto, 
                       _scc_info_EnumDescriptorProto_google_2fprotobuf_2fdescriptor_2eproto, 
                       _scc_info_EnumOptions_google_2fprotobuf_2fdescriptor_2eproto, 
                       _scc_info_EnumValueDescriptorProto_google_2fprotobuf_2fdescriptor_2eproto, 
                       _scc_info_EnumValueOptions_google_2fprotobuf_2fdescriptor_2eproto, 
                       _scc_info_ExtensionRangeOptions_google_2fprotobuf_2fdescriptor_2eproto, 
                       _scc_info_FieldDescriptorProto_google_2fprotobuf_2fdescriptor_2eproto, 
                       _scc_info_FieldOptions_google_2fprotobuf_2fdescriptor_2eproto, 
                       _scc_info_FileDescriptorProto_google_2fprotobuf_2fdescriptor_2eproto, 
                       _scc_info_FileDescriptorSet_google_2fprotobuf_2fdescriptor_2eproto, 
                       _scc_info_FileOptions_google_2fprotobuf_2fdescriptor_2eproto, 
                       _scc_info_GeneratedCodeInfo_Annotation_google_2fprotobuf_2fdescriptor_2eproto, 
                       _scc_info_GeneratedCodeInfo_google_2fprotobuf_2fdescriptor_2eproto, 
                       _scc_info_MessageOptions_google_2fprotobuf_2fdescriptor_2eproto, 
                       _scc_info_MethodDescriptorProto_google_2fprotobuf_2fdescriptor_2eproto, 
                       _scc_info_MethodOptions_google_2fprotobuf_2fdescriptor_2eproto, 
                       _scc_info_OneofDescriptorProto_google_2fprotobuf_2fdescriptor_2eproto, 
                       _scc_info_OneofOptions_google_2fprotobuf_2fdescriptor_2eproto, 
                       _scc_info_ServiceDescriptorProto_google_2fprotobuf_2fdescriptor_2eproto, 
                       _scc_info_ServiceOptions_google_2fprotobuf_2fdescriptor_2eproto, 
                       _scc_info_SourceCodeInfo_Location_google_2fprotobuf_2fdescriptor_2eproto, 
                       _scc_info_SourceCodeInfo_google_2fprotobuf_2fdescriptor_2eproto, 
                       _scc_info_UninterpretedOption_NamePart_google_2fprotobuf_2fdescriptor_2eproto, 
                       _scc_info_UninterpretedOption_google_2fprotobuf_2fdescriptor_2eproto ]
    objc-classes:    [ TSPAVAssetResourceLoaderDelegate, TSPAbstractMutableLargeArray, 
                       TSPAbstractMutableLargeArraySegment, TSPAlternateArchiver, 
                       TSPAlternateArchiverKey, TSPArchiver, TSPArchiverBase, TSPArchiverManager, 
                       TSPArchivingUtility, TSPCGDataConsumer, TSPCancellationState, 
                       TSPClassRegistry, TSPComponent, TSPComponentDataReferenceInfo, 
                       TSPComponentDataReferenceMap, TSPComponentExternalReferenceMap, 
                       TSPComponentManager, TSPComponentObjectUUIDMap, TSPComponentParser, 
                       TSPComponentReader, TSPComponentWriteChannelAdapter, TSPComponentWriter, 
                       TSPCompression, TSPCompressionComponentWriteChannel, TSPContainedObject, 
                       TSPCopyArchiver, TSPCryptoComponentWriteChannel, TSPCryptoInfoInternal, 
                       TSPCryptoReadChannel, TSPCryptoTranscodeReadChannel, TSPData, 
                       TSPDataAttributes, TSPDataAttributesSnapshot, TSPDataBookmarkContext, 
                       TSPDataCopyProviderConcrete, TSPDataDownloadManager, TSPDataDownloadObserverInfo, 
                       TSPDataDownloadScheduleItem, TSPDataManager, TSPDataMetadata, 
                       TSPDataMetadataMap, TSPDataObserverInfo, TSPDataReferenceMap, 
                       TSPDataRepReadChannel, TSPDataStorageWriteResult, TSPDataUniqueIdentifier, 
                       TSPDatabase, TSPDatabaseArchiveManager, TSPDatabaseArchiverWriter, 
                       TSPDatabaseDataObject, TSPDatabaseDataRepresentation, TSPDatabaseInputStream, 
                       TSPDatabaseObject, TSPDatabaseObjectWithDataState, TSPDatabaseObjectWithFileState, 
                       TSPDatabaseReadCoordinator, TSPDatabaseReader, TSPDatabaseUnarchiver, 
                       TSPDecoderDataInfo, TSPDecoderReadCoordinator, TSPDeepCopyArchiver, 
                       TSPDeepCopyMetadata, TSPDeepCopyObjectMap, TSPDeepCopyReadAssistant, 
                       TSPDeepCopyWriteAssistant, TSPDescriptionComponentReader, 
                       TSPDescriptionGenerator, TSPDigest, TSPDirectoryPackage, TSPDirectoryPackageConverter, 
                       TSPDirectoryPackageDataStorage, TSPDirectoryPackageDataWriter, 
                       TSPDirectoryPackageWriter, TSPDirectoryPackageWriterComponentFileWriteChannel, 
                       TSPDistributableArchive, TSPDistributableArchiveEntry, TSPDistributableArchiveOutputStream, 
                       TSPDistributableFileManager, TSPDistributableReader, TSPDistributableWriter, 
                       TSPDocumentLoadValidationPolicy, TSPDocumentMetadata, TSPDocumentProperties, 
                       TSPDocumentResourceCache, TSPDocumentResourceDataAssetStorage, 
                       TSPDocumentResourceFileDataStorage, TSPDocumentResourceInfo, 
                       TSPDocumentResourceLegacyInfo, TSPDocumentResourceLegacyRegistry, 
                       TSPDocumentResourceLegacyTangierRegistry, TSPDocumentResourceRegistry, 
                       TSPDocumentResourceRequest, TSPDocumentResourceTagAnalyzer, 
                       TSPDocumentRevision, TSPDocumentSaveOperationState, TSPDocumentSaveValidationPolicy, 
                       TSPDownloadObserverManager, TSPEncoderWriteCoordinator, TSPExpandedDirectoryPackage, 
                       TSPExternalReferenceDataStorage, TSPFeatureInfo, TSPFeatureLocalization, 
                       TSPFieldTree, TSPFieldTreeNode, TSPFieldTreeNodeWithChildren, 
                       TSPFieldTreeNodeWithUnknownField, TSPFileDataStorage, TSPFileManager, 
                       TSPFilePackage, TSPFilePackageConverter, TSPFilePackageDataStorage, 
                       TSPFilePackageWriter, TSPFileResourceCache, TSPFinalizeHandlerQueue, 
                       TSPIOHandlerWriteChannelAdapter, TSPKnownField, TSPKnownFieldDataReference, 
                       TSPKnownFieldEnumValue, TSPKnownFieldMessage, TSPKnownFieldNumericValue, 
                       TSPKnownFieldObjectReference, TSPKnownFieldReferencesHelper, 
                       TSPKnownFieldRepeatedDataReference, TSPKnownFieldRepeatedEnumValue, 
                       TSPKnownFieldRepeatedMessage, TSPKnownFieldRepeatedNumericValue, 
                       TSPKnownFieldRepeatedObjectReference, TSPKnownFieldRepeatedStringValue, 
                       TSPKnownFieldStringValue, TSPKnownFieldToRemove, TSPKnownFieldVersionRequirementsMap, 
                       TSPLargeArraySegmentWrapper, TSPLargeArrayWrapper, TSPLazyReference, 
                       TSPLazyReferenceArray, TSPLazyReferenceFromDataToObject, TSPLazyReferenceInternal, 
                       TSPMemoryComponentWriteChannel, TSPMemoryDecoder, TSPMemoryEncoder, 
                       TSPMemoryReadChannel, TSPMutableComponentDataReferenceMap, 
                       TSPMutableComponentObjectUUIDMap, TSPMutableCryptoInfoInternal, 
                       TSPMutableLargeLazyObjectArray, TSPMutableLargeLazyReferenceArraySegment, 
                       TSPMutableLargeNumberArray, TSPMutableLargeNumberArraySegment, 
                       TSPMutableLargeObjectArray, TSPMutableLargeObjectArraySegment, 
                       TSPMutableLargeStringArray, TSPMutableLargeStringArraySegment, 
                       TSPMutableLargeUUIDArray, TSPMutableLargeUUIDArraySegment, 
                       TSPObject, TSPObjectCollection, TSPObjectContainer, TSPObjectContext, 
                       TSPObjectContextDeterministicUUIDSet, TSPObjectContextObserver, 
                       TSPObjectInfo, TSPObjectReferenceMap, TSPObjectSerializationArchiver, 
                       TSPObjectSerializationAsPasteboardArchiver, TSPObjectSerializationDecoder, 
                       TSPObjectSerializationDirectoryEntry, TSPObjectSerializationEncoder, 
                       TSPObjectSerializationMetadata, TSPObjectSerializationReadAssistant, 
                       TSPObjectSerializationWriteAssistant, TSPObjectUUIDMap, TSPPackage, 
                       TSPPackageConverter, TSPPackageConverterFileCoordinatorDelegate, 
                       TSPPackageDataReader, TSPPackageEntryInfo, TSPPackageMetadata, 
                       TSPPackageMetadataDataInfo, TSPPackageReadCoordinator, TSPPackageWriteCoordinator, 
                       TSPPackageWriter, TSPPackageWriterComponentWriteChannel, TSPPackageWriterCopyDataResult, 
                       TSPPasteboard, TSPPasteboardMetadata, TSPPasteboardNSPasteboard, 
                       TSPPasteboardObject, TSPPasteboardReadChannel, TSPPersistedDataReferenceMap, 
                       TSPPersistedObjectUUIDMap, TSPReadChannelUtils, TSPReadCompletionInfo, 
                       TSPReadCoordinatorBase, TSPReadOnlyFileDataStorage, TSPReadOnlyMemoryDataStorage, 
                       TSPReader, TSPReaderReferenceInfo, TSPReferenceOrderedSet, 
                       TSPReflectionArchiver, TSPRegistry, TSPRemoteDataStorage, 
                       TSPRemoteDataStorageSaveOperationState, TSPResourceContext, 
                       TSPResourceLocationProvider, TSPResourceRequestManager, TSPSaveOperationState, 
                       TSPSnappyComponentWriteChannel, TSPSnappyReadChannel, TSPStreamDataStorage, 
                       TSPSupportManager, TSPSupportMetadata, TSPSupportPackageReadCoordinator, 
                       TSPSupportPackageWriteCoordinator, TSPSupportSaveOperationState, 
                       TSPTemporaryDataStorage, TSPTemporaryDataStorageURL, TSPTemporaryFileCoordinatorDelegate, 
                       TSPTemporaryObjectContextDelegate, TSPTemporaryObjectContextDelegateWithPackageDataForWrite, 
                       TSPUnarchiver, TSPUnknownContent, TSPUnknownContentSnapshot, 
                       TSPUnknownField, TSPUnknownFieldDataReference, TSPUnknownFieldMessage, 
                       TSPUnknownFieldObjectReference, TSPUnknownMessage, TSPUnknownObject, 
                       TSPUnknownObjectUnarchiver, TSPViewStateMetadata, TSPWeakAsStrongCopyArchiver, 
                       TSPWeakAsStrongObjectSerializationArchiver, TSPWrittenComponentMetadataDictionary, 
                       TSPZipFileWriteChannel, _TtC13TSPersistence15TSPReferenceMap, 
                       _TtC13TSPersistence16TSPIdentifierSet, _TtC13TSPersistence22TSPMutableReferenceMap, 
                       _TtC13TSPersistence23TSPMutableIdentifierSet ]
    objc-ivars:      [ TSPCancellationState._isCancelled, TSPComponentObjectUUIDMap._identifierToUUIDMap, 
                       TSPComponentObjectUUIDMap._uuidToIdentifierMap, TSPFieldTreeNodeWithChildren._children, 
                       TSPKnownField._fieldInfo, TSPKnownField._number, TSPKnownField._type, 
                       TSPKnownFieldDataReference._data, TSPKnownFieldEnumValue._unknownFieldSet, 
                       TSPKnownFieldMessage._referencesHelper, TSPKnownFieldNumericValue._value, 
                       TSPKnownFieldObjectReference._reference, TSPKnownFieldReferencesHelper._allData, 
                       TSPKnownFieldReferencesHelper._dataReferences, TSPKnownFieldReferencesHelper._objectReferences, 
                       TSPKnownFieldReferencesHelper._strongObjects, TSPKnownFieldReferencesHelper._weakObjects, 
                       TSPKnownFieldRepeatedDataReference._allData, TSPKnownFieldRepeatedEnumValue._unknownFieldSet, 
                       TSPKnownFieldRepeatedMessage._referencesHelper, TSPKnownFieldRepeatedNumericValue._values, 
                       TSPKnownFieldRepeatedObjectReference._strongObjects, TSPKnownFieldRepeatedObjectReference._weakObjects, 
                       TSPKnownFieldRepeatedStringValue._values, TSPKnownFieldStringValue._value, 
                       TSPPackageReadCoordinator._areExternalDataReferencesAllowed, 
                       TSPPackageReadCoordinator._cachedMetadata, TSPPackageReadCoordinator._completionGroup, 
                       TSPPackageReadCoordinator._componentIdentifiersWithDuplicatedUUIDs, 
                       TSPPackageReadCoordinator._componentQueue, TSPPackageReadCoordinator._componentsToUpgrade, 
                       TSPPackageReadCoordinator._context, TSPPackageReadCoordinator._documentObject, 
                       TSPPackageReadCoordinator._documentUUID, TSPPackageReadCoordinator._duplicatedUUIDs, 
                       TSPPackageReadCoordinator._finalizeHandlerQueue, TSPPackageReadCoordinator._ioCompletionQueue, 
                       TSPPackageReadCoordinator._ioQueue, TSPPackageReadCoordinator._objectQueue, 
                       TSPPackageReadCoordinator._objects, TSPPackageReadCoordinator._package, 
                       TSPPackageReadCoordinator._packageURL, TSPPackageReadCoordinator._persistedUUIDMap, 
                       TSPPackageReadCoordinator._persistedUUIDMapOperations, TSPPackageReadCoordinator._readCompletionQueue, 
                       TSPPackageReadCoordinator._readExternalObjects, TSPPackageReadCoordinator._readIdentifiers, 
                       TSPPackageReadCoordinator._readVersion, TSPPackageReadCoordinator._skipDocumentUpgrade, 
                       TSPPasteboard._pasteboard, TSPUnknownField._fieldInfo, TSPUnknownField._fieldSet, 
                       TSPUnknownFieldDataReference._datas, TSPUnknownFieldMessage._datas, 
                       TSPUnknownFieldMessage._strongObjects, TSPUnknownFieldMessage._weakObjects, 
                       TSPUnknownFieldObjectReference._strongObjects, TSPUnknownFieldObjectReference._weakObjects ]
    weak-symbols:    [ __ZGVZN6google8protobuf20FileDescriptorTables16GetEmptyInstanceEvE22file_descriptor_tables, 
                       __ZGVZN6google8protobuf8internal12ShutdownData3getEvE4data, 
                       __ZN6google8protobuf13RepeatedFieldIbE10RemoveLastEv, __ZN6google8protobuf13RepeatedFieldIbE12InternalSwapEPS2_, 
                       __ZN6google8protobuf13RepeatedFieldIbE12SwapElementsEii, __ZN6google8protobuf13RepeatedFieldIbE12mutable_dataEv, 
                       __ZN6google8protobuf13RepeatedFieldIbE15ExtractSubrangeEiiPb, 
                       __ZN6google8protobuf13RepeatedFieldIbE15UnsafeArenaSwapEPS2_, 
                       __ZN6google8protobuf13RepeatedFieldIbE18AddAlreadyReservedERKb, 
                       __ZN6google8protobuf13RepeatedFieldIbE18AddAlreadyReservedEv, 
                       __ZN6google8protobuf13RepeatedFieldIbE18InternalDeallocateEPNS2_3RepEi, 
                       __ZN6google8protobuf13RepeatedFieldIbE19AddNAlreadyReservedEi, 
                       __ZN6google8protobuf13RepeatedFieldIbE2atEi, __ZN6google8protobuf13RepeatedFieldIbE3AddERKb, 
                       __ZN6google8protobuf13RepeatedFieldIbE3AddEv, __ZN6google8protobuf13RepeatedFieldIbE3SetEiRKb, 
                       __ZN6google8protobuf13RepeatedFieldIbE3endEv, __ZN6google8protobuf13RepeatedFieldIbE4SwapEPS2_, 
                       __ZN6google8protobuf13RepeatedFieldIbE4rendEv, __ZN6google8protobuf13RepeatedFieldIbE5ClearEv, 
                       __ZN6google8protobuf13RepeatedFieldIbE5beginEv, __ZN6google8protobuf13RepeatedFieldIbE5eraseEPKb, 
                       __ZN6google8protobuf13RepeatedFieldIbE5eraseEPKbS4_, __ZN6google8protobuf13RepeatedFieldIbE6ResizeEiRKb, 
                       __ZN6google8protobuf13RepeatedFieldIbE6rbeginEv, __ZN6google8protobuf13RepeatedFieldIbE7MutableEi, 
                       __ZN6google8protobuf13RepeatedFieldIbE7ReserveEi, __ZN6google8protobuf13RepeatedFieldIbE8CopyFromERKS2_, 
                       __ZN6google8protobuf13RepeatedFieldIbE8TruncateEi, __ZN6google8protobuf13RepeatedFieldIbE9CopyArrayEPbPKbi, 
                       __ZN6google8protobuf13RepeatedFieldIbE9MergeFromERKS2_, __ZN6google8protobuf13RepeatedFieldIbE9MoveArrayEPbS3_i, 
                       __ZN6google8protobuf13RepeatedFieldIbEC1EOS2_, __ZN6google8protobuf13RepeatedFieldIbEC1EPNS0_5ArenaE, 
                       __ZN6google8protobuf13RepeatedFieldIbEC1ERKS2_, __ZN6google8protobuf13RepeatedFieldIbEC1Ev, 
                       __ZN6google8protobuf13RepeatedFieldIbEC2EOS2_, __ZN6google8protobuf13RepeatedFieldIbEC2EPNS0_5ArenaE, 
                       __ZN6google8protobuf13RepeatedFieldIbEC2ERKS2_, __ZN6google8protobuf13RepeatedFieldIbEC2Ev, 
                       __ZN6google8protobuf13RepeatedFieldIbED1Ev, __ZN6google8protobuf13RepeatedFieldIbED2Ev, 
                       __ZN6google8protobuf13RepeatedFieldIbEaSEOS2_, __ZN6google8protobuf13RepeatedFieldIbEaSERKS2_, 
                       __ZN6google8protobuf13RepeatedFieldIbEixEi, __ZN6google8protobuf13RepeatedFieldIdE10RemoveLastEv, 
                       __ZN6google8protobuf13RepeatedFieldIdE12InternalSwapEPS2_, 
                       __ZN6google8protobuf13RepeatedFieldIdE12SwapElementsEii, __ZN6google8protobuf13RepeatedFieldIdE12mutable_dataEv, 
                       __ZN6google8protobuf13RepeatedFieldIdE15ExtractSubrangeEiiPd, 
                       __ZN6google8protobuf13RepeatedFieldIdE15UnsafeArenaSwapEPS2_, 
                       __ZN6google8protobuf13RepeatedFieldIdE18AddAlreadyReservedERKd, 
                       __ZN6google8protobuf13RepeatedFieldIdE18AddAlreadyReservedEv, 
                       __ZN6google8protobuf13RepeatedFieldIdE18InternalDeallocateEPNS2_3RepEi, 
                       __ZN6google8protobuf13RepeatedFieldIdE19AddNAlreadyReservedEi, 
                       __ZN6google8protobuf13RepeatedFieldIdE2atEi, __ZN6google8protobuf13RepeatedFieldIdE3AddERKd, 
                       __ZN6google8protobuf13RepeatedFieldIdE3AddEv, __ZN6google8protobuf13RepeatedFieldIdE3SetEiRKd, 
                       __ZN6google8protobuf13RepeatedFieldIdE3endEv, __ZN6google8protobuf13RepeatedFieldIdE4SwapEPS2_, 
                       __ZN6google8protobuf13RepeatedFieldIdE4rendEv, __ZN6google8protobuf13RepeatedFieldIdE5ClearEv, 
                       __ZN6google8protobuf13RepeatedFieldIdE5beginEv, __ZN6google8protobuf13RepeatedFieldIdE5eraseEPKd, 
                       __ZN6google8protobuf13RepeatedFieldIdE5eraseEPKdS4_, __ZN6google8protobuf13RepeatedFieldIdE6ResizeEiRKd, 
                       __ZN6google8protobuf13RepeatedFieldIdE6rbeginEv, __ZN6google8protobuf13RepeatedFieldIdE7MutableEi, 
                       __ZN6google8protobuf13RepeatedFieldIdE7ReserveEi, __ZN6google8protobuf13RepeatedFieldIdE8CopyFromERKS2_, 
                       __ZN6google8protobuf13RepeatedFieldIdE8TruncateEi, __ZN6google8protobuf13RepeatedFieldIdE9CopyArrayEPdPKdi, 
                       __ZN6google8protobuf13RepeatedFieldIdE9MergeFromERKS2_, __ZN6google8protobuf13RepeatedFieldIdE9MoveArrayEPdS3_i, 
                       __ZN6google8protobuf13RepeatedFieldIdEC1EOS2_, __ZN6google8protobuf13RepeatedFieldIdEC1EPNS0_5ArenaE, 
                       __ZN6google8protobuf13RepeatedFieldIdEC1ERKS2_, __ZN6google8protobuf13RepeatedFieldIdEC1Ev, 
                       __ZN6google8protobuf13RepeatedFieldIdEC2EOS2_, __ZN6google8protobuf13RepeatedFieldIdEC2EPNS0_5ArenaE, 
                       __ZN6google8protobuf13RepeatedFieldIdEC2ERKS2_, __ZN6google8protobuf13RepeatedFieldIdEC2Ev, 
                       __ZN6google8protobuf13RepeatedFieldIdED1Ev, __ZN6google8protobuf13RepeatedFieldIdED2Ev, 
                       __ZN6google8protobuf13RepeatedFieldIdEaSEOS2_, __ZN6google8protobuf13RepeatedFieldIdEaSERKS2_, 
                       __ZN6google8protobuf13RepeatedFieldIdEixEi, __ZN6google8protobuf13RepeatedFieldIfE10RemoveLastEv, 
                       __ZN6google8protobuf13RepeatedFieldIfE12InternalSwapEPS2_, 
                       __ZN6google8protobuf13RepeatedFieldIfE12SwapElementsEii, __ZN6google8protobuf13RepeatedFieldIfE12mutable_dataEv, 
                       __ZN6google8protobuf13RepeatedFieldIfE15ExtractSubrangeEiiPf, 
                       __ZN6google8protobuf13RepeatedFieldIfE15UnsafeArenaSwapEPS2_, 
                       __ZN6google8protobuf13RepeatedFieldIfE18AddAlreadyReservedERKf, 
                       __ZN6google8protobuf13RepeatedFieldIfE18AddAlreadyReservedEv, 
                       __ZN6google8protobuf13RepeatedFieldIfE18InternalDeallocateEPNS2_3RepEi, 
                       __ZN6google8protobuf13RepeatedFieldIfE19AddNAlreadyReservedEi, 
                       __ZN6google8protobuf13RepeatedFieldIfE2atEi, __ZN6google8protobuf13RepeatedFieldIfE3AddERKf, 
                       __ZN6google8protobuf13RepeatedFieldIfE3AddEv, __ZN6google8protobuf13RepeatedFieldIfE3SetEiRKf, 
                       __ZN6google8protobuf13RepeatedFieldIfE3endEv, __ZN6google8protobuf13RepeatedFieldIfE4SwapEPS2_, 
                       __ZN6google8protobuf13RepeatedFieldIfE4rendEv, __ZN6google8protobuf13RepeatedFieldIfE5ClearEv, 
                       __ZN6google8protobuf13RepeatedFieldIfE5beginEv, __ZN6google8protobuf13RepeatedFieldIfE5eraseEPKf, 
                       __ZN6google8protobuf13RepeatedFieldIfE5eraseEPKfS4_, __ZN6google8protobuf13RepeatedFieldIfE6ResizeEiRKf, 
                       __ZN6google8protobuf13RepeatedFieldIfE6rbeginEv, __ZN6google8protobuf13RepeatedFieldIfE7MutableEi, 
                       __ZN6google8protobuf13RepeatedFieldIfE7ReserveEi, __ZN6google8protobuf13RepeatedFieldIfE8CopyFromERKS2_, 
                       __ZN6google8protobuf13RepeatedFieldIfE8TruncateEi, __ZN6google8protobuf13RepeatedFieldIfE9CopyArrayEPfPKfi, 
                       __ZN6google8protobuf13RepeatedFieldIfE9MergeFromERKS2_, __ZN6google8protobuf13RepeatedFieldIfE9MoveArrayEPfS3_i, 
                       __ZN6google8protobuf13RepeatedFieldIfEC1EOS2_, __ZN6google8protobuf13RepeatedFieldIfEC1EPNS0_5ArenaE, 
                       __ZN6google8protobuf13RepeatedFieldIfEC1ERKS2_, __ZN6google8protobuf13RepeatedFieldIfEC1Ev, 
                       __ZN6google8protobuf13RepeatedFieldIfEC2EOS2_, __ZN6google8protobuf13RepeatedFieldIfEC2EPNS0_5ArenaE, 
                       __ZN6google8protobuf13RepeatedFieldIfEC2ERKS2_, __ZN6google8protobuf13RepeatedFieldIfEC2Ev, 
                       __ZN6google8protobuf13RepeatedFieldIfED1Ev, __ZN6google8protobuf13RepeatedFieldIfED2Ev, 
                       __ZN6google8protobuf13RepeatedFieldIfEaSEOS2_, __ZN6google8protobuf13RepeatedFieldIfEaSERKS2_, 
                       __ZN6google8protobuf13RepeatedFieldIfEixEi, __ZN6google8protobuf13RepeatedFieldIiE10RemoveLastEv, 
                       __ZN6google8protobuf13RepeatedFieldIiE12InternalSwapEPS2_, 
                       __ZN6google8protobuf13RepeatedFieldIiE12SwapElementsEii, __ZN6google8protobuf13RepeatedFieldIiE12mutable_dataEv, 
                       __ZN6google8protobuf13RepeatedFieldIiE15ExtractSubrangeEiiPi, 
                       __ZN6google8protobuf13RepeatedFieldIiE15UnsafeArenaSwapEPS2_, 
                       __ZN6google8protobuf13RepeatedFieldIiE18AddAlreadyReservedERKi, 
                       __ZN6google8protobuf13RepeatedFieldIiE18AddAlreadyReservedEv, 
                       __ZN6google8protobuf13RepeatedFieldIiE18InternalDeallocateEPNS2_3RepEi, 
                       __ZN6google8protobuf13RepeatedFieldIiE19AddNAlreadyReservedEi, 
                       __ZN6google8protobuf13RepeatedFieldIiE2atEi, __ZN6google8protobuf13RepeatedFieldIiE3AddERKi, 
                       __ZN6google8protobuf13RepeatedFieldIiE3AddEv, __ZN6google8protobuf13RepeatedFieldIiE3SetEiRKi, 
                       __ZN6google8protobuf13RepeatedFieldIiE3endEv, __ZN6google8protobuf13RepeatedFieldIiE4SwapEPS2_, 
                       __ZN6google8protobuf13RepeatedFieldIiE4rendEv, __ZN6google8protobuf13RepeatedFieldIiE5ClearEv, 
                       __ZN6google8protobuf13RepeatedFieldIiE5beginEv, __ZN6google8protobuf13RepeatedFieldIiE5eraseEPKi, 
                       __ZN6google8protobuf13RepeatedFieldIiE5eraseEPKiS4_, __ZN6google8protobuf13RepeatedFieldIiE6ResizeEiRKi, 
                       __ZN6google8protobuf13RepeatedFieldIiE6rbeginEv, __ZN6google8protobuf13RepeatedFieldIiE7MutableEi, 
                       __ZN6google8protobuf13RepeatedFieldIiE7ReserveEi, __ZN6google8protobuf13RepeatedFieldIiE8CopyFromERKS2_, 
                       __ZN6google8protobuf13RepeatedFieldIiE8TruncateEi, __ZN6google8protobuf13RepeatedFieldIiE9CopyArrayEPiPKii, 
                       __ZN6google8protobuf13RepeatedFieldIiE9MergeFromERKS2_, __ZN6google8protobuf13RepeatedFieldIiE9MoveArrayEPiS3_i, 
                       __ZN6google8protobuf13RepeatedFieldIiEC1EOS2_, __ZN6google8protobuf13RepeatedFieldIiEC1EPNS0_5ArenaE, 
                       __ZN6google8protobuf13RepeatedFieldIiEC1ERKS2_, __ZN6google8protobuf13RepeatedFieldIiEC1Ev, 
                       __ZN6google8protobuf13RepeatedFieldIiEC2EOS2_, __ZN6google8protobuf13RepeatedFieldIiEC2EPNS0_5ArenaE, 
                       __ZN6google8protobuf13RepeatedFieldIiEC2ERKS2_, __ZN6google8protobuf13RepeatedFieldIiEC2Ev, 
                       __ZN6google8protobuf13RepeatedFieldIiED1Ev, __ZN6google8protobuf13RepeatedFieldIiED2Ev, 
                       __ZN6google8protobuf13RepeatedFieldIiEaSEOS2_, __ZN6google8protobuf13RepeatedFieldIiEaSERKS2_, 
                       __ZN6google8protobuf13RepeatedFieldIiEixEi, __ZN6google8protobuf13RepeatedFieldIjE10RemoveLastEv, 
                       __ZN6google8protobuf13RepeatedFieldIjE12InternalSwapEPS2_, 
                       __ZN6google8protobuf13RepeatedFieldIjE12SwapElementsEii, __ZN6google8protobuf13RepeatedFieldIjE12mutable_dataEv, 
                       __ZN6google8protobuf13RepeatedFieldIjE15ExtractSubrangeEiiPj, 
                       __ZN6google8protobuf13RepeatedFieldIjE15UnsafeArenaSwapEPS2_, 
                       __ZN6google8protobuf13RepeatedFieldIjE18AddAlreadyReservedERKj, 
                       __ZN6google8protobuf13RepeatedFieldIjE18AddAlreadyReservedEv, 
                       __ZN6google8protobuf13RepeatedFieldIjE18InternalDeallocateEPNS2_3RepEi, 
                       __ZN6google8protobuf13RepeatedFieldIjE19AddNAlreadyReservedEi, 
                       __ZN6google8protobuf13RepeatedFieldIjE2atEi, __ZN6google8protobuf13RepeatedFieldIjE3AddERKj, 
                       __ZN6google8protobuf13RepeatedFieldIjE3AddEv, __ZN6google8protobuf13RepeatedFieldIjE3SetEiRKj, 
                       __ZN6google8protobuf13RepeatedFieldIjE3endEv, __ZN6google8protobuf13RepeatedFieldIjE4SwapEPS2_, 
                       __ZN6google8protobuf13RepeatedFieldIjE4rendEv, __ZN6google8protobuf13RepeatedFieldIjE5ClearEv, 
                       __ZN6google8protobuf13RepeatedFieldIjE5beginEv, __ZN6google8protobuf13RepeatedFieldIjE5eraseEPKj, 
                       __ZN6google8protobuf13RepeatedFieldIjE5eraseEPKjS4_, __ZN6google8protobuf13RepeatedFieldIjE6ResizeEiRKj, 
                       __ZN6google8protobuf13RepeatedFieldIjE6rbeginEv, __ZN6google8protobuf13RepeatedFieldIjE7MutableEi, 
                       __ZN6google8protobuf13RepeatedFieldIjE7ReserveEi, __ZN6google8protobuf13RepeatedFieldIjE8CopyFromERKS2_, 
                       __ZN6google8protobuf13RepeatedFieldIjE8TruncateEi, __ZN6google8protobuf13RepeatedFieldIjE9CopyArrayEPjPKji, 
                       __ZN6google8protobuf13RepeatedFieldIjE9MergeFromERKS2_, __ZN6google8protobuf13RepeatedFieldIjE9MoveArrayEPjS3_i, 
                       __ZN6google8protobuf13RepeatedFieldIjEC1EOS2_, __ZN6google8protobuf13RepeatedFieldIjEC1EPNS0_5ArenaE, 
                       __ZN6google8protobuf13RepeatedFieldIjEC1ERKS2_, __ZN6google8protobuf13RepeatedFieldIjEC1Ev, 
                       __ZN6google8protobuf13RepeatedFieldIjEC2EOS2_, __ZN6google8protobuf13RepeatedFieldIjEC2EPNS0_5ArenaE, 
                       __ZN6google8protobuf13RepeatedFieldIjEC2ERKS2_, __ZN6google8protobuf13RepeatedFieldIjEC2Ev, 
                       __ZN6google8protobuf13RepeatedFieldIjED1Ev, __ZN6google8protobuf13RepeatedFieldIjED2Ev, 
                       __ZN6google8protobuf13RepeatedFieldIjEaSEOS2_, __ZN6google8protobuf13RepeatedFieldIjEaSERKS2_, 
                       __ZN6google8protobuf13RepeatedFieldIjEixEi, __ZN6google8protobuf13RepeatedFieldIxE10RemoveLastEv, 
                       __ZN6google8protobuf13RepeatedFieldIxE12InternalSwapEPS2_, 
                       __ZN6google8protobuf13RepeatedFieldIxE12SwapElementsEii, __ZN6google8protobuf13RepeatedFieldIxE12mutable_dataEv, 
                       __ZN6google8protobuf13RepeatedFieldIxE15ExtractSubrangeEiiPx, 
                       __ZN6google8protobuf13RepeatedFieldIxE15UnsafeArenaSwapEPS2_, 
                       __ZN6google8protobuf13RepeatedFieldIxE18AddAlreadyReservedERKx, 
                       __ZN6google8protobuf13RepeatedFieldIxE18AddAlreadyReservedEv, 
                       __ZN6google8protobuf13RepeatedFieldIxE18InternalDeallocateEPNS2_3RepEi, 
                       __ZN6google8protobuf13RepeatedFieldIxE19AddNAlreadyReservedEi, 
                       __ZN6google8protobuf13RepeatedFieldIxE2atEi, __ZN6google8protobuf13RepeatedFieldIxE3AddERKx, 
                       __ZN6google8protobuf13RepeatedFieldIxE3AddEv, __ZN6google8protobuf13RepeatedFieldIxE3SetEiRKx, 
                       __ZN6google8protobuf13RepeatedFieldIxE3endEv, __ZN6google8protobuf13RepeatedFieldIxE4SwapEPS2_, 
                       __ZN6google8protobuf13RepeatedFieldIxE4rendEv, __ZN6google8protobuf13RepeatedFieldIxE5ClearEv, 
                       __ZN6google8protobuf13RepeatedFieldIxE5beginEv, __ZN6google8protobuf13RepeatedFieldIxE5eraseEPKx, 
                       __ZN6google8protobuf13RepeatedFieldIxE5eraseEPKxS4_, __ZN6google8protobuf13RepeatedFieldIxE6ResizeEiRKx, 
                       __ZN6google8protobuf13RepeatedFieldIxE6rbeginEv, __ZN6google8protobuf13RepeatedFieldIxE7MutableEi, 
                       __ZN6google8protobuf13RepeatedFieldIxE7ReserveEi, __ZN6google8protobuf13RepeatedFieldIxE8CopyFromERKS2_, 
                       __ZN6google8protobuf13RepeatedFieldIxE8TruncateEi, __ZN6google8protobuf13RepeatedFieldIxE9CopyArrayEPxPKxi, 
                       __ZN6google8protobuf13RepeatedFieldIxE9MergeFromERKS2_, __ZN6google8protobuf13RepeatedFieldIxE9MoveArrayEPxS3_i, 
                       __ZN6google8protobuf13RepeatedFieldIxEC1EOS2_, __ZN6google8protobuf13RepeatedFieldIxEC1EPNS0_5ArenaE, 
                       __ZN6google8protobuf13RepeatedFieldIxEC1ERKS2_, __ZN6google8protobuf13RepeatedFieldIxEC1Ev, 
                       __ZN6google8protobuf13RepeatedFieldIxEC2EOS2_, __ZN6google8protobuf13RepeatedFieldIxEC2EPNS0_5ArenaE, 
                       __ZN6google8protobuf13RepeatedFieldIxEC2ERKS2_, __ZN6google8protobuf13RepeatedFieldIxEC2Ev, 
                       __ZN6google8protobuf13RepeatedFieldIxED1Ev, __ZN6google8protobuf13RepeatedFieldIxED2Ev, 
                       __ZN6google8protobuf13RepeatedFieldIxEaSEOS2_, __ZN6google8protobuf13RepeatedFieldIxEaSERKS2_, 
                       __ZN6google8protobuf13RepeatedFieldIxEixEi, __ZN6google8protobuf13RepeatedFieldIyE10RemoveLastEv, 
                       __ZN6google8protobuf13RepeatedFieldIyE12InternalSwapEPS2_, 
                       __ZN6google8protobuf13RepeatedFieldIyE12SwapElementsEii, __ZN6google8protobuf13RepeatedFieldIyE12mutable_dataEv, 
                       __ZN6google8protobuf13RepeatedFieldIyE15ExtractSubrangeEiiPy, 
                       __ZN6google8protobuf13RepeatedFieldIyE15UnsafeArenaSwapEPS2_, 
                       __ZN6google8protobuf13RepeatedFieldIyE18AddAlreadyReservedERKy, 
                       __ZN6google8protobuf13RepeatedFieldIyE18AddAlreadyReservedEv, 
                       __ZN6google8protobuf13RepeatedFieldIyE18InternalDeallocateEPNS2_3RepEi, 
                       __ZN6google8protobuf13RepeatedFieldIyE19AddNAlreadyReservedEi, 
                       __ZN6google8protobuf13RepeatedFieldIyE2atEi, __ZN6google8protobuf13RepeatedFieldIyE3AddERKy, 
                       __ZN6google8protobuf13RepeatedFieldIyE3AddEv, __ZN6google8protobuf13RepeatedFieldIyE3SetEiRKy, 
                       __ZN6google8protobuf13RepeatedFieldIyE3endEv, __ZN6google8protobuf13RepeatedFieldIyE4SwapEPS2_, 
                       __ZN6google8protobuf13RepeatedFieldIyE4rendEv, __ZN6google8protobuf13RepeatedFieldIyE5ClearEv, 
                       __ZN6google8protobuf13RepeatedFieldIyE5beginEv, __ZN6google8protobuf13RepeatedFieldIyE5eraseEPKy, 
                       __ZN6google8protobuf13RepeatedFieldIyE5eraseEPKyS4_, __ZN6google8protobuf13RepeatedFieldIyE6ResizeEiRKy, 
                       __ZN6google8protobuf13RepeatedFieldIyE6rbeginEv, __ZN6google8protobuf13RepeatedFieldIyE7MutableEi, 
                       __ZN6google8protobuf13RepeatedFieldIyE7ReserveEi, __ZN6google8protobuf13RepeatedFieldIyE8CopyFromERKS2_, 
                       __ZN6google8protobuf13RepeatedFieldIyE8TruncateEi, __ZN6google8protobuf13RepeatedFieldIyE9CopyArrayEPyPKyi, 
                       __ZN6google8protobuf13RepeatedFieldIyE9MergeFromERKS2_, __ZN6google8protobuf13RepeatedFieldIyE9MoveArrayEPyS3_i, 
                       __ZN6google8protobuf13RepeatedFieldIyEC1EOS2_, __ZN6google8protobuf13RepeatedFieldIyEC1EPNS0_5ArenaE, 
                       __ZN6google8protobuf13RepeatedFieldIyEC1ERKS2_, __ZN6google8protobuf13RepeatedFieldIyEC1Ev, 
                       __ZN6google8protobuf13RepeatedFieldIyEC2EOS2_, __ZN6google8protobuf13RepeatedFieldIyEC2EPNS0_5ArenaE, 
                       __ZN6google8protobuf13RepeatedFieldIyEC2ERKS2_, __ZN6google8protobuf13RepeatedFieldIyEC2Ev, 
                       __ZN6google8protobuf13RepeatedFieldIyED1Ev, __ZN6google8protobuf13RepeatedFieldIyED2Ev, 
                       __ZN6google8protobuf13RepeatedFieldIyEaSEOS2_, __ZN6google8protobuf13RepeatedFieldIyEaSERKS2_, 
                       __ZN6google8protobuf13RepeatedFieldIyEixEi, __ZN6google8protobuf16RepeatedPtrFieldINSt3__112basic_stringIcNS2_11char_traitsIcEENS2_9allocatorIcEEEEE10AddClearedEPS8_, 
                       __ZN6google8protobuf16RepeatedPtrFieldINSt3__112basic_stringIcNS2_11char_traitsIcEENS2_9allocatorIcEEEEE10RemoveLastEv, 
                       __ZN6google8protobuf16RepeatedPtrFieldINSt3__112basic_stringIcNS2_11char_traitsIcEENS2_9allocatorIcEEEEE11ReleaseLastEv, 
                       __ZN6google8protobuf16RepeatedPtrFieldINSt3__112basic_stringIcNS2_11char_traitsIcEENS2_9allocatorIcEEEEE11pointer_endEv, 
                       __ZN6google8protobuf16RepeatedPtrFieldINSt3__112basic_stringIcNS2_11char_traitsIcEENS2_9allocatorIcEEEEE12AddAllocatedEPS8_, 
                       __ZN6google8protobuf16RepeatedPtrFieldINSt3__112basic_stringIcNS2_11char_traitsIcEENS2_9allocatorIcEEEEE12InternalSwapEPS9_, 
                       __ZN6google8protobuf16RepeatedPtrFieldINSt3__112basic_stringIcNS2_11char_traitsIcEENS2_9allocatorIcEEEEE12SwapElementsEii, 
                       __ZN6google8protobuf16RepeatedPtrFieldINSt3__112basic_stringIcNS2_11char_traitsIcEENS2_9allocatorIcEEEEE12mutable_dataEv, 
                       __ZN6google8protobuf16RepeatedPtrFieldINSt3__112basic_stringIcNS2_11char_traitsIcEENS2_9allocatorIcEEEEE13pointer_beginEv, 
                       __ZN6google8protobuf16RepeatedPtrFieldINSt3__112basic_stringIcNS2_11char_traitsIcEENS2_9allocatorIcEEEEE14DeleteSubrangeEii, 
                       __ZN6google8protobuf16RepeatedPtrFieldINSt3__112basic_stringIcNS2_11char_traitsIcEENS2_9allocatorIcEEEEE14ReleaseClearedEv, 
                       __ZN6google8protobuf16RepeatedPtrFieldINSt3__112basic_stringIcNS2_11char_traitsIcEENS2_9allocatorIcEEEEE15ExtractSubrangeEiiPPS8_, 
                       __ZN6google8protobuf16RepeatedPtrFieldINSt3__112basic_stringIcNS2_11char_traitsIcEENS2_9allocatorIcEEEEE15UnsafeArenaSwapEPS9_, 
                       __ZN6google8protobuf16RepeatedPtrFieldINSt3__112basic_stringIcNS2_11char_traitsIcEENS2_9allocatorIcEEEEE22UnsafeArenaReleaseLastEv, 
                       __ZN6google8protobuf16RepeatedPtrFieldINSt3__112basic_stringIcNS2_11char_traitsIcEENS2_9allocatorIcEEEEE23ExtractSubrangeInternalEiiPPS8_NS2_17integral_constantIbLb0EEE, 
                       __ZN6google8protobuf16RepeatedPtrFieldINSt3__112basic_stringIcNS2_11char_traitsIcEENS2_9allocatorIcEEEEE23ExtractSubrangeInternalEiiPPS8_NS2_17integral_constantIbLb1EEE, 
                       __ZN6google8protobuf16RepeatedPtrFieldINSt3__112basic_stringIcNS2_11char_traitsIcEENS2_9allocatorIcEEEEE23UnsafeArenaAddAllocatedEPS8_, 
                       __ZN6google8protobuf16RepeatedPtrFieldINSt3__112basic_stringIcNS2_11char_traitsIcEENS2_9allocatorIcEEEEE26UnsafeArenaExtractSubrangeEiiPPS8_, 
                       __ZN6google8protobuf16RepeatedPtrFieldINSt3__112basic_stringIcNS2_11char_traitsIcEENS2_9allocatorIcEEEEE2atEi, 
                       __ZN6google8protobuf16RepeatedPtrFieldINSt3__112basic_stringIcNS2_11char_traitsIcEENS2_9allocatorIcEEEEE3AddEOS8_, 
                       __ZN6google8protobuf16RepeatedPtrFieldINSt3__112basic_stringIcNS2_11char_traitsIcEENS2_9allocatorIcEEEEE3AddEv, 
                       __ZN6google8protobuf16RepeatedPtrFieldINSt3__112basic_stringIcNS2_11char_traitsIcEENS2_9allocatorIcEEEEE3endEv, 
                       __ZN6google8protobuf16RepeatedPtrFieldINSt3__112basic_stringIcNS2_11char_traitsIcEENS2_9allocatorIcEEEEE4SwapEPS9_, 
                       __ZN6google8protobuf16RepeatedPtrFieldINSt3__112basic_stringIcNS2_11char_traitsIcEENS2_9allocatorIcEEEEE4rendEv, 
                       __ZN6google8protobuf16RepeatedPtrFieldINSt3__112basic_stringIcNS2_11char_traitsIcEENS2_9allocatorIcEEEEE5ClearEv, 
                       __ZN6google8protobuf16RepeatedPtrFieldINSt3__112basic_stringIcNS2_11char_traitsIcEENS2_9allocatorIcEEEEE5beginEv, 
                       __ZN6google8protobuf16RepeatedPtrFieldINSt3__112basic_stringIcNS2_11char_traitsIcEENS2_9allocatorIcEEEEE5eraseENS0_8internal19RepeatedPtrIteratorIKS8_EE, 
                       __ZN6google8protobuf16RepeatedPtrFieldINSt3__112basic_stringIcNS2_11char_traitsIcEENS2_9allocatorIcEEEEE5eraseENS0_8internal19RepeatedPtrIteratorIKS8_EESD_, 
                       __ZN6google8protobuf16RepeatedPtrFieldINSt3__112basic_stringIcNS2_11char_traitsIcEENS2_9allocatorIcEEEEE6rbeginEv, 
                       __ZN6google8protobuf16RepeatedPtrFieldINSt3__112basic_stringIcNS2_11char_traitsIcEENS2_9allocatorIcEEEEE7MutableEi, 
                       __ZN6google8protobuf16RepeatedPtrFieldINSt3__112basic_stringIcNS2_11char_traitsIcEENS2_9allocatorIcEEEEE7ReserveEi, 
                       __ZN6google8protobuf16RepeatedPtrFieldINSt3__112basic_stringIcNS2_11char_traitsIcEENS2_9allocatorIcEEEEE8CopyFromERKS9_, 
                       __ZN6google8protobuf16RepeatedPtrFieldINSt3__112basic_stringIcNS2_11char_traitsIcEENS2_9allocatorIcEEEEE9MergeFromERKS9_, 
                       __ZN6google8protobuf16RepeatedPtrFieldINSt3__112basic_stringIcNS2_11char_traitsIcEENS2_9allocatorIcEEEEEC1EOS9_, 
                       __ZN6google8protobuf16RepeatedPtrFieldINSt3__112basic_stringIcNS2_11char_traitsIcEENS2_9allocatorIcEEEEEC1EPNS0_5ArenaE, 
                       __ZN6google8protobuf16RepeatedPtrFieldINSt3__112basic_stringIcNS2_11char_traitsIcEENS2_9allocatorIcEEEEEC1ERKS9_, 
                       __ZN6google8protobuf16RepeatedPtrFieldINSt3__112basic_stringIcNS2_11char_traitsIcEENS2_9allocatorIcEEEEEC1Ev, 
                       __ZN6google8protobuf16RepeatedPtrFieldINSt3__112basic_stringIcNS2_11char_traitsIcEENS2_9allocatorIcEEEEEC2EOS9_, 
                       __ZN6google8protobuf16RepeatedPtrFieldINSt3__112basic_stringIcNS2_11char_traitsIcEENS2_9allocatorIcEEEEEC2EPNS0_5ArenaE, 
                       __ZN6google8protobuf16RepeatedPtrFieldINSt3__112basic_stringIcNS2_11char_traitsIcEENS2_9allocatorIcEEEEEC2ERKS9_, 
                       __ZN6google8protobuf16RepeatedPtrFieldINSt3__112basic_stringIcNS2_11char_traitsIcEENS2_9allocatorIcEEEEEC2Ev, 
                       __ZN6google8protobuf16RepeatedPtrFieldINSt3__112basic_stringIcNS2_11char_traitsIcEENS2_9allocatorIcEEEEED1Ev, 
                       __ZN6google8protobuf16RepeatedPtrFieldINSt3__112basic_stringIcNS2_11char_traitsIcEENS2_9allocatorIcEEEEED2Ev, 
                       __ZN6google8protobuf16RepeatedPtrFieldINSt3__112basic_stringIcNS2_11char_traitsIcEENS2_9allocatorIcEEEEEaSEOS9_, 
                       __ZN6google8protobuf16RepeatedPtrFieldINSt3__112basic_stringIcNS2_11char_traitsIcEENS2_9allocatorIcEEEEEaSERKS9_, 
                       __ZN6google8protobuf16RepeatedPtrFieldINSt3__112basic_stringIcNS2_11char_traitsIcEENS2_9allocatorIcEEEEEixEi, 
                       __ZN6google8protobuf2io19EpsCopyOutputStream14ZigZagEncode32Ei, 
                       __ZN6google8protobuf2io19EpsCopyOutputStream14ZigZagEncode64Ex, 
                       __ZN6google8protobuf2io19EpsCopyOutputStream8Encode32Ej, __ZN6google8protobuf2io19EpsCopyOutputStream8Encode64Ey, 
                       __ZN6google8protobuf8internal13MergeFromImplILb0EEEbNS0_11StringPieceEPNS0_11MessageLiteENS4_10ParseFlagsE, 
                       __ZN6google8protobuf8internal13MergeFromImplILb0EEEbNS1_11BoundedZCISEPNS0_11MessageLiteENS4_10ParseFlagsE, 
                       __ZN6google8protobuf8internal13MergeFromImplILb0EEEbPNS0_2io19ZeroCopyInputStreamEPNS0_11MessageLiteENS6_10ParseFlagsE, 
                       __ZN6google8protobuf8internal13MergeFromImplILb1EEEbNS0_11StringPieceEPNS0_11MessageLiteENS4_10ParseFlagsE, 
                       __ZN6google8protobuf8internal13MergeFromImplILb1EEEbNS1_11BoundedZCISEPNS0_11MessageLiteENS4_10ParseFlagsE, 
                       __ZN6google8protobuf8internal13MergeFromImplILb1EEEbPNS0_2io19ZeroCopyInputStreamEPNS0_11MessageLiteENS6_10ParseFlagsE, 
                       __ZN6snappy19SnappySinkAllocator7DeleterEPvPKcm, __ZNK6google8protobuf13RepeatedFieldIbE15unsafe_elementsEv, 
                       __ZNK6google8protobuf13RepeatedFieldIbE22SpaceUsedExcludingSelfEv, 
                       __ZNK6google8protobuf13RepeatedFieldIbE26SpaceUsedExcludingSelfLongEv, 
                       __ZNK6google8protobuf13RepeatedFieldIbE2atEi, __ZNK6google8protobuf13RepeatedFieldIbE3GetEi, 
                       __ZNK6google8protobuf13RepeatedFieldIbE3endEv, __ZNK6google8protobuf13RepeatedFieldIbE3repEv, 
                       __ZNK6google8protobuf13RepeatedFieldIbE4cendEv, __ZNK6google8protobuf13RepeatedFieldIbE4dataEv, 
                       __ZNK6google8protobuf13RepeatedFieldIbE4rendEv, __ZNK6google8protobuf13RepeatedFieldIbE4sizeEv, 
                       __ZNK6google8protobuf13RepeatedFieldIbE5beginEv, __ZNK6google8protobuf13RepeatedFieldIbE5emptyEv, 
                       __ZNK6google8protobuf13RepeatedFieldIbE6cbeginEv, __ZNK6google8protobuf13RepeatedFieldIbE6rbeginEv, 
                       __ZNK6google8protobuf13RepeatedFieldIbE8CapacityEv, __ZNK6google8protobuf13RepeatedFieldIbE8GetArenaEv, 
                       __ZNK6google8protobuf13RepeatedFieldIbE8elementsEv, __ZNK6google8protobuf13RepeatedFieldIbEixEi, 
                       __ZNK6google8protobuf13RepeatedFieldIdE15unsafe_elementsEv, 
                       __ZNK6google8protobuf13RepeatedFieldIdE22SpaceUsedExcludingSelfEv, 
                       __ZNK6google8protobuf13RepeatedFieldIdE26SpaceUsedExcludingSelfLongEv, 
                       __ZNK6google8protobuf13RepeatedFieldIdE2atEi, __ZNK6google8protobuf13RepeatedFieldIdE3GetEi, 
                       __ZNK6google8protobuf13RepeatedFieldIdE3endEv, __ZNK6google8protobuf13RepeatedFieldIdE3repEv, 
                       __ZNK6google8protobuf13RepeatedFieldIdE4cendEv, __ZNK6google8protobuf13RepeatedFieldIdE4dataEv, 
                       __ZNK6google8protobuf13RepeatedFieldIdE4rendEv, __ZNK6google8protobuf13RepeatedFieldIdE4sizeEv, 
                       __ZNK6google8protobuf13RepeatedFieldIdE5beginEv, __ZNK6google8protobuf13RepeatedFieldIdE5emptyEv, 
                       __ZNK6google8protobuf13RepeatedFieldIdE6cbeginEv, __ZNK6google8protobuf13RepeatedFieldIdE6rbeginEv, 
                       __ZNK6google8protobuf13RepeatedFieldIdE8CapacityEv, __ZNK6google8protobuf13RepeatedFieldIdE8GetArenaEv, 
                       __ZNK6google8protobuf13RepeatedFieldIdE8elementsEv, __ZNK6google8protobuf13RepeatedFieldIdEixEi, 
                       __ZNK6google8protobuf13RepeatedFieldIfE15unsafe_elementsEv, 
                       __ZNK6google8protobuf13RepeatedFieldIfE22SpaceUsedExcludingSelfEv, 
                       __ZNK6google8protobuf13RepeatedFieldIfE26SpaceUsedExcludingSelfLongEv, 
                       __ZNK6google8protobuf13RepeatedFieldIfE2atEi, __ZNK6google8protobuf13RepeatedFieldIfE3GetEi, 
                       __ZNK6google8protobuf13RepeatedFieldIfE3endEv, __ZNK6google8protobuf13RepeatedFieldIfE3repEv, 
                       __ZNK6google8protobuf13RepeatedFieldIfE4cendEv, __ZNK6google8protobuf13RepeatedFieldIfE4dataEv, 
                       __ZNK6google8protobuf13RepeatedFieldIfE4rendEv, __ZNK6google8protobuf13RepeatedFieldIfE4sizeEv, 
                       __ZNK6google8protobuf13RepeatedFieldIfE5beginEv, __ZNK6google8protobuf13RepeatedFieldIfE5emptyEv, 
                       __ZNK6google8protobuf13RepeatedFieldIfE6cbeginEv, __ZNK6google8protobuf13RepeatedFieldIfE6rbeginEv, 
                       __ZNK6google8protobuf13RepeatedFieldIfE8CapacityEv, __ZNK6google8protobuf13RepeatedFieldIfE8GetArenaEv, 
                       __ZNK6google8protobuf13RepeatedFieldIfE8elementsEv, __ZNK6google8protobuf13RepeatedFieldIfEixEi, 
                       __ZNK6google8protobuf13RepeatedFieldIiE15unsafe_elementsEv, 
                       __ZNK6google8protobuf13RepeatedFieldIiE22SpaceUsedExcludingSelfEv, 
                       __ZNK6google8protobuf13RepeatedFieldIiE26SpaceUsedExcludingSelfLongEv, 
                       __ZNK6google8protobuf13RepeatedFieldIiE2atEi, __ZNK6google8protobuf13RepeatedFieldIiE3GetEi, 
                       __ZNK6google8protobuf13RepeatedFieldIiE3endEv, __ZNK6google8protobuf13RepeatedFieldIiE3repEv, 
                       __ZNK6google8protobuf13RepeatedFieldIiE4cendEv, __ZNK6google8protobuf13RepeatedFieldIiE4dataEv, 
                       __ZNK6google8protobuf13RepeatedFieldIiE4rendEv, __ZNK6google8protobuf13RepeatedFieldIiE4sizeEv, 
                       __ZNK6google8protobuf13RepeatedFieldIiE5beginEv, __ZNK6google8protobuf13RepeatedFieldIiE5emptyEv, 
                       __ZNK6google8protobuf13RepeatedFieldIiE6cbeginEv, __ZNK6google8protobuf13RepeatedFieldIiE6rbeginEv, 
                       __ZNK6google8protobuf13RepeatedFieldIiE8CapacityEv, __ZNK6google8protobuf13RepeatedFieldIiE8GetArenaEv, 
                       __ZNK6google8protobuf13RepeatedFieldIiE8elementsEv, __ZNK6google8protobuf13RepeatedFieldIiEixEi, 
                       __ZNK6google8protobuf13RepeatedFieldIjE15unsafe_elementsEv, 
                       __ZNK6google8protobuf13RepeatedFieldIjE22SpaceUsedExcludingSelfEv, 
                       __ZNK6google8protobuf13RepeatedFieldIjE26SpaceUsedExcludingSelfLongEv, 
                       __ZNK6google8protobuf13RepeatedFieldIjE2atEi, __ZNK6google8protobuf13RepeatedFieldIjE3GetEi, 
                       __ZNK6google8protobuf13RepeatedFieldIjE3endEv, __ZNK6google8protobuf13RepeatedFieldIjE3repEv, 
                       __ZNK6google8protobuf13RepeatedFieldIjE4cendEv, __ZNK6google8protobuf13RepeatedFieldIjE4dataEv, 
                       __ZNK6google8protobuf13RepeatedFieldIjE4rendEv, __ZNK6google8protobuf13RepeatedFieldIjE4sizeEv, 
                       __ZNK6google8protobuf13RepeatedFieldIjE5beginEv, __ZNK6google8protobuf13RepeatedFieldIjE5emptyEv, 
                       __ZNK6google8protobuf13RepeatedFieldIjE6cbeginEv, __ZNK6google8protobuf13RepeatedFieldIjE6rbeginEv, 
                       __ZNK6google8protobuf13RepeatedFieldIjE8CapacityEv, __ZNK6google8protobuf13RepeatedFieldIjE8GetArenaEv, 
                       __ZNK6google8protobuf13RepeatedFieldIjE8elementsEv, __ZNK6google8protobuf13RepeatedFieldIjEixEi, 
                       __ZNK6google8protobuf13RepeatedFieldIxE15unsafe_elementsEv, 
                       __ZNK6google8protobuf13RepeatedFieldIxE22SpaceUsedExcludingSelfEv, 
                       __ZNK6google8protobuf13RepeatedFieldIxE26SpaceUsedExcludingSelfLongEv, 
                       __ZNK6google8protobuf13RepeatedFieldIxE2atEi, __ZNK6google8protobuf13RepeatedFieldIxE3GetEi, 
                       __ZNK6google8protobuf13RepeatedFieldIxE3endEv, __ZNK6google8protobuf13RepeatedFieldIxE3repEv, 
                       __ZNK6google8protobuf13RepeatedFieldIxE4cendEv, __ZNK6google8protobuf13RepeatedFieldIxE4dataEv, 
                       __ZNK6google8protobuf13RepeatedFieldIxE4rendEv, __ZNK6google8protobuf13RepeatedFieldIxE4sizeEv, 
                       __ZNK6google8protobuf13RepeatedFieldIxE5beginEv, __ZNK6google8protobuf13RepeatedFieldIxE5emptyEv, 
                       __ZNK6google8protobuf13RepeatedFieldIxE6cbeginEv, __ZNK6google8protobuf13RepeatedFieldIxE6rbeginEv, 
                       __ZNK6google8protobuf13RepeatedFieldIxE8CapacityEv, __ZNK6google8protobuf13RepeatedFieldIxE8GetArenaEv, 
                       __ZNK6google8protobuf13RepeatedFieldIxE8elementsEv, __ZNK6google8protobuf13RepeatedFieldIxEixEi, 
                       __ZNK6google8protobuf13RepeatedFieldIyE15unsafe_elementsEv, 
                       __ZNK6google8protobuf13RepeatedFieldIyE22SpaceUsedExcludingSelfEv, 
                       __ZNK6google8protobuf13RepeatedFieldIyE26SpaceUsedExcludingSelfLongEv, 
                       __ZNK6google8protobuf13RepeatedFieldIyE2atEi, __ZNK6google8protobuf13RepeatedFieldIyE3GetEi, 
                       __ZNK6google8protobuf13RepeatedFieldIyE3endEv, __ZNK6google8protobuf13RepeatedFieldIyE3repEv, 
                       __ZNK6google8protobuf13RepeatedFieldIyE4cendEv, __ZNK6google8protobuf13RepeatedFieldIyE4dataEv, 
                       __ZNK6google8protobuf13RepeatedFieldIyE4rendEv, __ZNK6google8protobuf13RepeatedFieldIyE4sizeEv, 
                       __ZNK6google8protobuf13RepeatedFieldIyE5beginEv, __ZNK6google8protobuf13RepeatedFieldIyE5emptyEv, 
                       __ZNK6google8protobuf13RepeatedFieldIyE6cbeginEv, __ZNK6google8protobuf13RepeatedFieldIyE6rbeginEv, 
                       __ZNK6google8protobuf13RepeatedFieldIyE8CapacityEv, __ZNK6google8protobuf13RepeatedFieldIyE8GetArenaEv, 
                       __ZNK6google8protobuf13RepeatedFieldIyE8elementsEv, __ZNK6google8protobuf13RepeatedFieldIyEixEi, 
                       __ZNK6google8protobuf16RepeatedPtrFieldINSt3__112basic_stringIcNS2_11char_traitsIcEENS2_9allocatorIcEEEEE11pointer_endEv, 
                       __ZNK6google8protobuf16RepeatedPtrFieldINSt3__112basic_stringIcNS2_11char_traitsIcEENS2_9allocatorIcEEEEE12ClearedCountEv, 
                       __ZNK6google8protobuf16RepeatedPtrFieldINSt3__112basic_stringIcNS2_11char_traitsIcEENS2_9allocatorIcEEEEE13pointer_beginEv, 
                       __ZNK6google8protobuf16RepeatedPtrFieldINSt3__112basic_stringIcNS2_11char_traitsIcEENS2_9allocatorIcEEEEE22SpaceUsedExcludingSelfEv, 
                       __ZNK6google8protobuf16RepeatedPtrFieldINSt3__112basic_stringIcNS2_11char_traitsIcEENS2_9allocatorIcEEEEE26SpaceUsedExcludingSelfLongEv, 
                       __ZNK6google8protobuf16RepeatedPtrFieldINSt3__112basic_stringIcNS2_11char_traitsIcEENS2_9allocatorIcEEEEE2atEi, 
                       __ZNK6google8protobuf16RepeatedPtrFieldINSt3__112basic_stringIcNS2_11char_traitsIcEENS2_9allocatorIcEEEEE3GetEi, 
                       __ZNK6google8protobuf16RepeatedPtrFieldINSt3__112basic_stringIcNS2_11char_traitsIcEENS2_9allocatorIcEEEEE3endEv, 
                       __ZNK6google8protobuf16RepeatedPtrFieldINSt3__112basic_stringIcNS2_11char_traitsIcEENS2_9allocatorIcEEEEE4cendEv, 
                       __ZNK6google8protobuf16RepeatedPtrFieldINSt3__112basic_stringIcNS2_11char_traitsIcEENS2_9allocatorIcEEEEE4dataEv, 
                       __ZNK6google8protobuf16RepeatedPtrFieldINSt3__112basic_stringIcNS2_11char_traitsIcEENS2_9allocatorIcEEEEE4rendEv, 
                       __ZNK6google8protobuf16RepeatedPtrFieldINSt3__112basic_stringIcNS2_11char_traitsIcEENS2_9allocatorIcEEEEE4sizeEv, 
                       __ZNK6google8protobuf16RepeatedPtrFieldINSt3__112basic_stringIcNS2_11char_traitsIcEENS2_9allocatorIcEEEEE5beginEv, 
                       __ZNK6google8protobuf16RepeatedPtrFieldINSt3__112basic_stringIcNS2_11char_traitsIcEENS2_9allocatorIcEEEEE5emptyEv, 
                       __ZNK6google8protobuf16RepeatedPtrFieldINSt3__112basic_stringIcNS2_11char_traitsIcEENS2_9allocatorIcEEEEE6cbeginEv, 
                       __ZNK6google8protobuf16RepeatedPtrFieldINSt3__112basic_stringIcNS2_11char_traitsIcEENS2_9allocatorIcEEEEE6rbeginEv, 
                       __ZNK6google8protobuf16RepeatedPtrFieldINSt3__112basic_stringIcNS2_11char_traitsIcEENS2_9allocatorIcEEEEE8CapacityEv, 
                       __ZNK6google8protobuf16RepeatedPtrFieldINSt3__112basic_stringIcNS2_11char_traitsIcEENS2_9allocatorIcEEEEE8GetArenaEv, 
                       __ZNK6google8protobuf16RepeatedPtrFieldINSt3__112basic_stringIcNS2_11char_traitsIcEENS2_9allocatorIcEEEEEixEi, 
                       __ZZN6google8protobuf20FileDescriptorTables16GetEmptyInstanceEvE22file_descriptor_tables, 
                       __ZZN6google8protobuf8internal12ShutdownData3getEvE4data, 
                       __ZZN6google8protobuf8internal16OnShutdownDeleteINS0_14DescriptorPoolEEEPT_S5_ENUlPKvE_8__invokeES7_, 
                       __ZZN6google8protobuf8internal16OnShutdownDeleteINS0_15UnknownFieldSetEEEPT_S5_ENUlPKvE_8__invokeES7_, 
                       __ZZN6google8protobuf8internal16OnShutdownDeleteINS0_16RepeatedPtrFieldINSt3__112basic_stringIcNS4_11char_traitsIcEENS4_9allocatorIcEEEEEEEEPT_SD_ENUlPKvE_8__invokeESF_, 
                       __ZZN6google8protobuf8internal16OnShutdownDeleteINS0_20FileDescriptorTablesEEEPT_S5_ENUlPKvE_8__invokeES7_, 
                       __ZZN6google8protobuf8internal16OnShutdownDeleteINS0_25EncodedDescriptorDatabaseEEEPT_S5_ENUlPKvE_8__invokeES7_, 
                       __ZZN6google8protobuf8internal16OnShutdownDeleteINS1_25RepeatedPrimitiveDefaultsEEEPT_S5_ENUlPKvE_8__invokeES7_, 
                       __ZZN6google8protobuf8internal16OnShutdownDeleteINSt3__13setINS3_12basic_stringIcNS3_11char_traitsIcEENS3_9allocatorIcEEEENS3_4lessISA_EENS8_ISA_EEEEEEPT_SG_ENUlPKvE_8__invokeESI_ ]
    thread-local-symbols: [ __ZN6google8protobuf8internal9ArenaImpl13thread_cache_E ]
  - targets:         [ arm64e-macos, arm64-macos ]
    symbols:         [ __ZN3TSP13FieldInfoNode31ProcessUnknownFieldsFromMessageEPKN6google8protobuf7MessageEPNSt3__113unordered_mapIKNS_9FieldPathEbNS_13FieldPathHashENS_16FieldPathEqualToENS6_9allocatorINS6_4pairIS9_bEEEEEEPU15__autoreleasingP14NSMutableArraySL_Pb, 
                       __ZN3TSP13FieldInfoTree31ProcessUnknownFieldsFromMessageEPKN6google8protobuf7MessageEPNSt3__113unordered_mapIKNS_9FieldPathEbNS_13FieldPathHashENS_16FieldPathEqualToENS6_9allocatorINS6_4pairIS9_bEEEEEEPU15__autoreleasingP14NSMutableArraySL_Pb, 
                       __ZN3TSP27DataCollaborationPropertiesC1Ebbi19TSPDataUploadStatusb, 
                       __ZN3TSP27DataCollaborationPropertiesC2Ebbi19TSPDataUploadStatusb, 
                       __ZN6google8protobuf13StringAppendVEPNSt3__112basic_stringIcNS1_11char_traitsIcEENS1_9allocatorIcEEEEPKcPc ]
...
