--- !tapi-tbd-v3
archs:           [ x86_64 ]
uuids:           [ 'x86_64: A504521D-88B0-392F-B62C-8821DC9C66FA', 'x86_64: A504521D-88B0-392F-B62C-8821DC9C66FA' ]
platform:        zippered
install-name:    '/System/Library/PrivateFrameworks/FontServices.framework/libhvf.dylib'
exports:         
  - archs:           [ x86_64 ]
    symbols:         [ __ZN3hvf10PartLoaderD0Ev, __ZN3hvf10PartLoaderD1Ev, __ZN3hvf10PartLoaderD2Ev, 
                       __ZN3hvf5Shape23calculateSegmentFactorsEv, __ZN3hvf6LoaderD0Ev, 
                       __ZN3hvf6LoaderD1Ev, __ZN3hvf6LoaderD2Ev, __ZN3hvf8Renderer16newWithTableDataEPKvm, 
                       __ZN3hvf8Renderer18newWithPartsLoaderENSt3__110unique_ptrINS_6LoaderENS1_8functionIFvPS3_EEEEE, 
                       __ZN3hvf8RendererD0Ev, __ZN3hvf8RendererD1Ev, __ZN3hvf8RendererD2Ev, 
                       __ZN4Util10AllocStats10deallocateEmm, __ZN4Util10AllocStats10printStatsEv, 
                       __ZN4Util10AllocStats6Bucket5resetEv, __ZN4Util10AllocStats8allocateEmm, 
                       __ZN4Util10AllocStats9bucketForEmm, __ZN4Util13getAllocStatsEv, 
                       __ZN4Util14MemoryResource11do_allocateEmm, __ZN4Util14MemoryResource13do_deallocateEPvmm, 
                       __ZN4Util14MemoryResource15defaultResourceEv, __ZN4Util14MemoryResourceD0Ev, 
                       __ZN4Util14MemoryResourceD1Ev, __ZN4Util14MemoryResourceD2Ev, 
                       __ZN4Util16StackMemResource11do_allocateEmm, __ZN4Util16StackMemResource13do_deallocateEPvmm, 
                       __ZN4Util16StackMemResource5resetEPNS_14MemoryResourceE, __ZN4Util16StackMemResource5resetEmPSt4byte, 
                       __ZN4Util16StackMemResource5resetEv, __ZN4Util16StackMemResourceD0Ev, 
                       __ZN4Util16StackMemResourceD1Ev, __ZN4Util16StackMemResourceD2Ev, 
                       __ZNK4Util10AllocStats6Bucket10printStatsEv, __ZNK4Util16StackMemResource4ownsEPv, 
                       __ZTVN3hvf10PartLoaderE, __ZTVN3hvf6LoaderE, __ZTVN3hvf8RendererE, 
                       __ZTVN4Util14MemoryResourceE, __ZTVN4Util16StackMemResourceE ]
    objc-classes:    [ HVFPartTransform, HVFRenderer ]
...
