--- !tapi-tbd
tbd-version:     4
targets:         [ x86_64-macos, x86_64-maccatalyst, arm64-macos, arm64-maccatalyst, 
                   arm64e-macos, arm64e-maccatalyst ]
uuids:
  - target:          x86_64-macos
    value:           746AD8C6-F112-336E-B96D-C2EB48072E8E
  - target:          x86_64-maccatalyst
    value:           746AD8C6-F112-336E-B96D-C2EB48072E8E
  - target:          arm64-macos
    value:           00000000-0000-0000-0000-000000000000
  - target:          arm64-maccatalyst
    value:           00000000-0000-0000-0000-000000000000
  - target:          arm64e-macos
    value:           702B748C-1ECE-38FC-A1AF-DC60F7B24423
  - target:          arm64e-maccatalyst
    value:           702B748C-1ECE-38FC-A1AF-DC60F7B24423
install-name:    '/System/Library/PrivateFrameworks/FontServices.framework/libFontParser.dylib'
exports:
  - targets:         [ x86_64-maccatalyst, x86_64-macos ]
    weak-symbols:    [ __ZTINSt3__110__function6__baseIFvjPbEEE, __ZTINSt3__117bad_function_callE, 
                       __ZTSNSt3__110__function6__baseIFvjPbEEE, __ZTSNSt3__110shared_ptrI10MCacheDataE27__shared_ptr_default_deleteIS1_S1_EE, 
                       __ZTSNSt3__117bad_function_callE ]
  - targets:         [ x86_64-maccatalyst, x86_64-macos, arm64e-maccatalyst, arm64e-macos, 
                       arm64-macos, arm64-maccatalyst ]
    symbols:         [ _CreateFontForScaler, _FPFontCanCreatePostScriptSubset, _FPFontCopyAllNames, 
                       _FPFontCopyCharacterSet, _FPFontCopyFamilyName, _FPFontCopyFullName, 
                       _FPFontCopyGlyphBitmap, _FPFontCopyGlyphNameForGlyph, _FPFontCopyGlyphPath, 
                       _FPFontCopyMetadata, _FPFontCopyNameTablePostScriptName, _FPFontCopyNames, 
                       _FPFontCopyOriginalGlyphPath, _FPFontCopyPath, _FPFontCopyPostScriptName, 
                       _FPFontCopyRegistryOrderingSupplement, _FPFontCopySplicedStash, 
                       _FPFontCopyTable, _FPFontCopyTableTags, _FPFontCopyURLPerRegistryOrdering, 
                       _FPFontCreateCopyWithVariation, _FPFontCreateFontSubset, _FPFontCreateFontsFromData, 
                       _FPFontCreateFontsWithPath, _FPFontCreatePostScriptEncoding, 
                       _FPFontCreatePostScriptSubset, _FPFontCreateVariationFromPostScriptNameSuffix, 
                       _FPFontCreateWithData, _FPFontCreateWithDataAndExtra, _FPFontCreateWithPathAndName, 
                       _FPFontGetAscent, _FPFontGetAverageAdvance, _FPFontGetBoundingBox, 
                       _FPFontGetCIDsForGlyphs, _FPFontGetCapHeight, _FPFontGetDefaultInstance, 
                       _FPFontGetDescent, _FPFontGetFontInfo, _FPFontGetFormat, _FPFontGetGlyphDeviceAdvance, 
                       _FPFontGetGlyphDeviceBounds, _FPFontGetGlyphDeviceVerticalAdvance, 
                       _FPFontGetGlyphDeviceVerticalBounds, _FPFontGetGlyphForGlyphName, 
                       _FPFontGetGlyphIdealAdvanceAndSideBearing, _FPFontGetGlyphIdealAdvanceWidth, 
                       _FPFontGetGlyphIdealAdvanceWidths, _FPFontGetGlyphIdealBounds, 
                       _FPFontGetGlyphIdealVerticalAdvanceWidth, _FPFontGetGlyphIdealVerticalBounds, 
                       _FPFontGetGlyphNameMaxLength, _FPFontGetGlyphVerticalTranslate, 
                       _FPFontGetGlyphsForCIDs, _FPFontGetGlyphsForCharacterRange, 
                       _FPFontGetGlyphsForGlyphNames, _FPFontGetGlyphsForText, _FPFontGetGlyphsForUnichars, 
                       _FPFontGetGlyphsXo, _FPFontGetInstanceNameID, _FPFontGetItalicAngle, 
                       _FPFontGetLineGap, _FPFontGetMaximumAdvance, _FPFontGetMinimumLeftSideBearing, 
                       _FPFontGetMinimumRightSideBearing, _FPFontGetNumberOfGlyphs, 
                       _FPFontGetOS2UnicodeRanges, _FPFontGetPostScriptName, _FPFontGetStemH, 
                       _FPFontGetStemV, _FPFontGetTrueTypeEncoding, _FPFontGetTupleCount, 
                       _FPFontGetType1Encoding, _FPFontGetUnderlinePosition, _FPFontGetUnderlineThickness, 
                       _FPFontGetUnicharsForGlyph, _FPFontGetUnitsPerEm, _FPFontGetVMetrics, 
                       _FPFontGetVariation, _FPFontGetVariationAxes, _FPFontGetVariationAxisFlags, 
                       _FPFontGetVariationScalar, _FPFontGetVariationScalars, _FPFontGetVariationValues, 
                       _FPFontGetVersion, _FPFontGetXHeight, _FPFontIsBitmapOnly, 
                       _FPFontIsItalic, _FPFontIsMonospaced, _FPFontIsNamedInstance, 
                       _FPFontIsSFNT, _FPFontIsSuitcase, _FPFontPurgeCaches, _FPFontPurgeFromCaches, 
                       _FPFontRelease, _FPFontRetain, _FPFontShouldAutoHint, _FPGetFontSubsetFormat, 
                       _FPTurnOffXoMetaData, _ReleaseFontForScaler, _TTScalerOpen, 
                       __Z24FPGetStandardEncodingSIDh, __Z25FPGetStandardEncodingNameh, 
                       __Z29GenerateGlyphNameForCIDPerROSt9TAdobeROSPc, __ZN10MCacheDataD0Ev, 
                       __ZN10MCacheDataD1Ev, __ZN10MCacheDataD2Ev, __ZN10TExceptionD0Ev, 
                       __ZN10TExceptionD1Ev, __ZN10TExceptionD2Ev, __ZN11TCharString8CharDataEv, 
                       __ZN11TCharStringC1EtRK14TDataReference, __ZN11TCharStringC1EtRK14TDataReferencem, 
                       __ZN11TCharStringC1EtmPKv, __ZN11TCharStringC1Ev, __ZN11TCharStringC2EtRK14TDataReference, 
                       __ZN11TCharStringC2EtRK14TDataReferencem, __ZN11TCharStringC2EtmPKv, 
                       __ZN11TCharStringC2Ev, __ZN11TCharStringD0Ev, __ZN11TCharStringD1Ev, 
                       __ZN11TCharStringD2Ev, __ZN12MScalerCacheD0Ev, __ZN12MScalerCacheD1Ev, 
                       __ZN12MScalerCacheD2Ev, __ZN12TDefaultHeap4FreeEPv, __ZN12TDefaultHeap6CallocEmm, 
                       __ZN12TDefaultHeap6MallocEm, __ZN12TDefaultHeap7ReallocEPvm, 
                       __ZN12TDefaultHeapD0Ev, __ZN12TDefaultHeapD1Ev, __ZN12TDefaultHeapD2Ev, 
                       __ZN14MDataReferenceC1ERKS_im, __ZN14MDataReferenceC2ERKS_im, 
                       __ZN14MDataReferenceD0Ev, __ZN14MDataReferenceD1Ev, __ZN14MDataReferenceD2Ev, 
                       __ZN14TDataReferenceC1ERK9TFragmenti, __ZN14TDataReferenceC1ERKS_i, 
                       __ZN14TDataReferenceC1Ev, __ZN14TDataReferenceC2ERK9TFragmenti, 
                       __ZN14TDataReferenceC2ERKS_i, __ZN14TDataReferenceC2Ev, __ZN14TDataReferenceD0Ev, 
                       __ZN14TDataReferenceD1Ev, __ZN14TDataReferenceD2Ev, __ZN14TDataReferenceaSERKS_, 
                       __ZN14TFontSurrogateC1EPK5TFont, __ZN14TFontSurrogateC1ERKS_, 
                       __ZN14TFontSurrogateC1Ev, __ZN14TFontSurrogateC2EPK5TFont, 
                       __ZN14TFontSurrogateC2ERKS_, __ZN14TFontSurrogateC2Ev, __ZN14TFontSurrogateD0Ev, 
                       __ZN14TFontSurrogateD1Ev, __ZN14TFontSurrogateD2Ev, __ZN14TFontSurrogateaSERKS_, 
                       __ZN18TFileDataSurrogateC1EPK22TFileFragmentReference, __ZN18TFileDataSurrogateC1EPK22TFileFragmentReferenceb, 
                       __ZN18TFileDataSurrogateC1EPKc8timespec, __ZN18TFileDataSurrogateC1ERKS_, 
                       __ZN18TFileDataSurrogateC1Ev, __ZN18TFileDataSurrogateC2EPK22TFileFragmentReference, 
                       __ZN18TFileDataSurrogateC2EPK22TFileFragmentReferenceb, __ZN18TFileDataSurrogateC2EPKc8timespec, 
                       __ZN18TFileDataSurrogateC2ERKS_, __ZN18TFileDataSurrogateC2Ev, 
                       __ZN18TFileDataSurrogateD0Ev, __ZN18TFileDataSurrogateD1Ev, 
                       __ZN18TFileDataSurrogateD2Ev, __ZN18TFileDataSurrogateaSERKS_, 
                       __ZN18TStrikeDescriptionC1Ev, __ZN18TStrikeDescriptionC2Ev, 
                       __ZN18TStrikeDescriptionD0Ev, __ZN18TStrikeDescriptionD1Ev, 
                       __ZN18TStrikeDescriptionD2Ev, __ZN22TResourceForkSurrogateC1EPKc8timespecb, 
                       __ZN22TResourceForkSurrogateC1ERK26TResourceForkFileReference, 
                       __ZN22TResourceForkSurrogateC2EPKc8timespecb, __ZN22TResourceForkSurrogateC2ERK26TResourceForkFileReference, 
                       __ZN22TResourceForkSurrogateD0Ev, __ZN22TResourceForkSurrogateD1Ev, 
                       __ZN22TResourceForkSurrogateD2Ev, __ZN26TResourceFileDataSurrogateC1ERK22TResourceForkSurrogate, 
                       __ZN26TResourceFileDataSurrogateC1ERK22TResourceForkSurrogatejPKh, 
                       __ZN26TResourceFileDataSurrogateC1ERK22TResourceForkSurrogatejj, 
                       __ZN26TResourceFileDataSurrogateC1ERK22TResourceForkSurrogatejs, 
                       __ZN26TResourceFileDataSurrogateC1ERKS_, __ZN26TResourceFileDataSurrogateC2ERK22TResourceForkSurrogate, 
                       __ZN26TResourceFileDataSurrogateC2ERK22TResourceForkSurrogatejPKh, 
                       __ZN26TResourceFileDataSurrogateC2ERK22TResourceForkSurrogatejj, 
                       __ZN26TResourceFileDataSurrogateC2ERK22TResourceForkSurrogatejs, 
                       __ZN26TResourceFileDataSurrogateC2ERKS_, __ZN26TResourceFileDataSurrogateD0Ev, 
                       __ZN26TResourceFileDataSurrogateD1Ev, __ZN26TResourceFileDataSurrogateD2Ev, 
                       __ZN26TResourceFileDataSurrogateaSERKS_, __ZN26TResourceForkFileReferenceC1EPKcb, 
                       __ZN26TResourceForkFileReferenceC2EPKcb, __ZN26TResourceForkFileReferenceD0Ev, 
                       __ZN26TResourceForkFileReferenceD1Ev, __ZN26TResourceForkFileReferenceD2Ev, 
                       __ZN5THeapC2Ev, __ZN5THeapD0Ev, __ZN5THeapD1Ev, __ZN5THeapD2Ev, 
                       __ZNK10TException12GetErrorCodeEv, __ZNK12MScalerCache12SetCacheDataEP10MCacheData, 
                       __ZNK13TNFNTFontInfo11GetNFNTDataEsPm, __ZNK14TDataReference11AddRefCountEv, 
                       __ZNK14TDataReference11DucRefCountEv, __ZNK14TDataReference7GetDataEv, 
                       __ZNK14TDataReference7GetSizeEv, __ZNK14TDataReferenceeqERKS_, 
                       __ZNK14TFontSurrogate12GetTablePartEjjjRj, __ZNK14TFontSurrogate13GetTableIndexEjPj, 
                       __ZNK14TFontSurrogate14GetTableOffsetEjPj, __ZNK14TFontSurrogate15FontTableExistsEj, 
                       __ZNK14TFontSurrogate16GetFontTableSizeEj, __ZNK14TFontSurrogate17GetTableDirectoryEv, 
                       __ZNK14TFontSurrogate21GetFontProtectionInfoEPj, __ZNK14TFontSurrogate8GetTableEjjPj, 
                       __ZNK14TFontSurrogate9GetFormatEv, __ZNK18TFileDataSurrogate11GetDataSizeEv, 
                       __ZNK18TFileDataSurrogate11GetFileSizeEv, __ZNK18TFileDataSurrogate16GetDataReferenceEim, 
                       __ZNK26TResourceFileDataSurrogate11GetDataSizeEv, __ZNK26TResourceFileDataSurrogate11GetFileSizeEv, 
                       __ZNK26TResourceFileDataSurrogate16GetDataReferenceEim, __ZNK26TResourceFileDataSurrogate7GetPathEv, 
                       __ZNK26TResourceForkFileReference11GetResourceEjsPmPh, __ZNK26TResourceForkFileReference14IsResourceFileEv, 
                       __ZNK26TResourceForkFileReference16GetNamedResourceEjPKhPsPm, 
                       __ZNK26TResourceForkFileReference16GetResourceCountEj, __ZNK26TResourceForkFileReference18GetIndexedResourceEjjPsPmPh, 
                       __ZNK26TResourceForkFileReference21GetMappedResourceForkERm, 
                       __ZTI10MCacheData, __ZTI10TException, __ZTI11TCharString, 
                       __ZTI12MScalerCache, __ZTI12TDefaultHeap, __ZTI14MDataReference, 
                       __ZTI14TDataReference, __ZTI14TFontSurrogate, __ZTI18TFileDataSurrogate, 
                       __ZTI18TStrikeDescription, __ZTI22TResourceForkSurrogate, 
                       __ZTI26TResourceFileDataSurrogate, __ZTI26TResourceForkFileReference, 
                       __ZTI5THeap, __ZTS10MCacheData, __ZTS10TException, __ZTS11TCharString, 
                       __ZTS12MScalerCache, __ZTS12TDefaultHeap, __ZTS14MDataReference, 
                       __ZTS14TDataReference, __ZTS14TFontSurrogate, __ZTS18TFileDataSurrogate, 
                       __ZTS18TStrikeDescription, __ZTS22TResourceForkSurrogate, 
                       __ZTS26TResourceFileDataSurrogate, __ZTS26TResourceForkFileReference, 
                       __ZTS5THeap, __ZTV10MCacheData, __ZTV10TException, __ZTV11TCharString, 
                       __ZTV12MScalerCache, __ZTV12TDefaultHeap, __ZTV14MDataReference, 
                       __ZTV14TDataReference, __ZTV14TFontSurrogate, __ZTV18TFileDataSurrogate, 
                       __ZTV18TStrikeDescription, __ZTV22TResourceForkSurrogate, 
                       __ZTV26TResourceFileDataSurrogate, __ZTV26TResourceForkFileReference, 
                       __ZTV5THeap, __ZThn24_N26TResourceForkFileReferenceD0Ev, __ZThn24_N26TResourceForkFileReferenceD1Ev, 
                       _dFPPrintCaches, _kFPFontCopyrightName, _kFPFontFamilyName, 
                       _kFPFontFullName, _kFPFontPostscriptName, _kFPFontStyleName, 
                       _kFPFontTrademarkName, _kFPFontUniqueName, _kFPFontVersionName, 
                       _kFPNameKeyKind, _kFPNameKeyLanguage, _kFPNameKeyLocaleIdentifier, 
                       _kFPNameKeyPlatform, _kFPNameKeyScript, _kFPNameKeyString ]
...
