--- !tapi-tbd
tbd-version:     4
targets:         [ x86_64-macos, arm64-macos, arm64e-macos ]
uuids:
  - target:          x86_64-macos
    value:           27FCD2E0-6BF7-3514-8FA5-0BB109D0752F
  - target:          arm64-macos
    value:           00000000-0000-0000-0000-000000000000
  - target:          arm64e-macos
    value:           DCE10FD0-A620-3375-99FC-350AFB902FEE
install-name:    '/System/Library/PrivateFrameworks/IPTelephony.framework/Support/libIPTelephony.dylib'
exports:
  - targets:         [ x86_64-macos ]
    weak-symbols:    [ __ZTI17BambiUssdDelegate, __ZTI17IPTelephonyModule, __ZTIN19CapSuppServicesInfo7ServiceE, 
                       __ZTIN3ims10httpDigest8ResponseE, __ZTIN3ims12AuthResponseE, 
                       __ZTIN3ims16DisconnectReasonE, __ZTIN3ims17CallEventDelegateE, 
                       __ZTIN3ims17XcapEventDelegateE, __ZTIN3ims18StackEventDelegateE, 
                       __ZTIN3ims20MessageEventDelegateE, __ZTIN3ims24CallManagerEventDelegateE, 
                       __ZTINSt3__113basic_filebufIcNS_11char_traitsIcEEEE, __ZTINSt3__114basic_ifstreamIcNS_11char_traitsIcEEEE, 
                       __ZTINSt3__114basic_ofstreamIcNS_11char_traitsIcEEEE, __ZTINSt3__115basic_stringbufIcNS_11char_traitsIcEENS_9allocatorIcEEEE, 
                       __ZTINSt3__117bad_function_callE, __ZTINSt3__118basic_stringstreamIcNS_11char_traitsIcEENS_9allocatorIcEEEE, 
                       __ZTINSt3__119basic_istringstreamIcNS_11char_traitsIcEENS_9allocatorIcEEEE, 
                       __ZTINSt3__119basic_ostringstreamIcNS_11char_traitsIcEENS_9allocatorIcEEEE, 
                       __ZTINSt3__120__shared_ptr_emplaceI11ClientStateNS_9allocatorIS1_EEEE, 
                       __ZTS17BambiUssdDelegate, __ZTS17IPTelephonyModule, __ZTSN19CapSuppServicesInfo7ServiceE, 
                       __ZTSN3ims10httpDigest8ResponseE, __ZTSN3ims12AuthResponseE, 
                       __ZTSN3ims16DisconnectReasonE, __ZTSN3ims17CallEventDelegateE, 
                       __ZTSN3ims17XcapEventDelegateE, __ZTSN3ims18StackEventDelegateE, 
                       __ZTSN3ims20MessageEventDelegateE, __ZTSN3ims24CallManagerEventDelegateE, 
                       __ZTSNSt3__113basic_filebufIcNS_11char_traitsIcEEEE, __ZTSNSt3__114basic_ifstreamIcNS_11char_traitsIcEEEE, 
                       __ZTSNSt3__114basic_ofstreamIcNS_11char_traitsIcEEEE, __ZTSNSt3__115basic_stringbufIcNS_11char_traitsIcEENS_9allocatorIcEEEE, 
                       __ZTSNSt3__117bad_function_callE, __ZTSNSt3__118basic_stringstreamIcNS_11char_traitsIcEENS_9allocatorIcEEEE, 
                       __ZTSNSt3__119basic_istringstreamIcNS_11char_traitsIcEENS_9allocatorIcEEEE, 
                       __ZTSNSt3__119basic_ostringstreamIcNS_11char_traitsIcEENS_9allocatorIcEEEE, 
                       __ZTSNSt3__120__shared_ptr_emplaceI11ClientStateNS_9allocatorIS1_EEEE ]
  - targets:         [ x86_64-macos, arm64e-macos, arm64-macos ]
    symbols:         [ _IMSClientEventToString, _InitializeIPTelephony, __Z10IMSEndCallPN3ims12ClientHandleEhbb, 
                       __Z10IMSSendSMSPN3ims12ClientHandleERKNSt3__112basic_stringIcNS2_11char_traitsIcEENS2_9allocatorIcEEEESA_RKNS2_6vectorIhNS6_IhEEEESA_, 
                       __Z11IMSPullCallPN3ims12ClientHandleERKNSt3__112basic_stringIcNS2_11char_traitsIcEENS2_9allocatorIcEEEEPK14__CFDictionary, 
                       __Z11IMSStopTonePN3ims12ClientHandleE, __Z12IMSStartCallPN3ims12ClientHandleERKNSt3__112basic_stringIcNS2_11char_traitsIcEENS2_9allocatorIcEEEEPK14__CFDictionary, 
                       __Z12IMSStartTonePN3ims12ClientHandleEh, __Z13IMSAnswerCallPN3ims12ClientHandleEhPK14__CFDictionary, 
                       __Z13IMSDeRegisterPN3ims12ClientHandleE, __Z13IMSMergeCallsPN3ims12ClientHandleERNSt3__16vectorIhNS2_9allocatorIhEEEE, 
                       __Z13IMSSetRTTModePN3ims12ClientHandleEhPK14__CFDictionary, 
                       __Z13IMSSetTTYModePN3ims12ClientHandleEPK14__CFDictionary, 
                       __Z14IMSClientDebugPN3ims12ClientHandleERKNSt3__112basic_stringIcNS2_11char_traitsIcEENS2_9allocatorIcEEEESA_, 
                       __Z14IMSRefreshCallPN3ims12ClientHandleEh, __Z14IMSSendRegInfoPN3ims12ClientHandleEPK14__CFDictionary, 
                       __Z15IMSActivateCallPN3ims12ClientHandleEhb, __Z15IMSClientCreatePK13__CFAllocatorP16dispatch_queue_sPFv14IMSClientEventPK14__CFDictionaryPvES8_, 
                       __Z15IMSSetRelayModePN3ims12ClientHandleEhPK14__CFDictionary, 
                       __Z16IMSSendBurstDtmfPN3ims12ClientHandleERKNSt3__16vectorIhNS2_9allocatorIhEEEE, 
                       __Z17IMSDeactivateCallPN3ims12ClientHandleEh, __Z17IMSSendUpdatedRegPN3ims12ClientHandleEPK14__CFDictionary, 
                       __Z17IMSSetPreferencesPN3ims12ClientHandleEPK14__CFDictionary, 
                       __Z18IMSClientDumpStatePN3ims12ClientHandleERKNSt3__112basic_stringIcNS2_11char_traitsIcEENS2_9allocatorIcEEEESA_, 
                       __Z19IMSClientResetStatePN3ims12ClientHandleE, __Z19IMSSetMuteVoiceCallPN3ims12ClientHandleEb, 
                       __Z20IMSEndCallWithReasonPN3ims12ClientHandleEhNS_13CallEndReasonE, 
                       __Z20IMSEndConferenceCallPN3ims12ClientHandleEh, __Z21IMSClientSendUSSDDataPN3ims12ClientHandleERKNSt3__112basic_stringIcNS2_11char_traitsIcEENS2_9allocatorIcEEEE, 
                       __Z24IMSDeRegisterWithOptionsPN3ims12ClientHandleEPK14__CFDictionary, 
                       __Z24IMSRefreshCallWithReasonPN3ims12ClientHandleEhNS_13RefreshReasonE, 
                       __Z25IMSSetPreferredMediaStackPN3ims12ClientHandleEPK14__CFDictionary, 
                       __Z26IMSClientCancelUSSDSessionPN3ims12ClientHandleE, __Z26IMSClientSetLoggingEnabledPN3ims12ClientHandleEb, 
                       __Z26IMSClientSetThumperEnabledPN3ims12ClientHandleEb, __Z26IMSSendRingingNotificationPN3ims12ClientHandleEh, 
                       __Z26IMSUpdateAccessNetworkInfoPN3ims12ClientHandleEPK14__CFDictionary, 
                       __Z27IMSClientHandleDeviceEventsPN3ims12ClientHandleEPK14__CFDictionary, 
                       __Z27IMSSendLimitedAccessRegInfoPN3ims12ClientHandleEPK14__CFDictionary, 
                       __Z27IMSSendSuppServicesProvInfoPN3ims12ClientHandleEPK14__CFDictionary, 
                       __Z28IMSClientHandleNetworkEventsPN3ims12ClientHandleEPK14__CFDictionary, 
                       __Z28IMSClientResetEmergencyStatePN3ims12ClientHandleE, __Z28IMSSendAuthChallengeResponsePN3ims12ClientHandleERKNS_21AuthChallengeResponseE, 
                       __Z29IMSSendSuppServicesConfigInfoPN3ims12ClientHandleEPK14__CFDictionary, 
                       __Z30IMSClientResetStateWithOptionsPN3ims12ClientHandleEPK14__CFDictionary, 
                       __Z31IMSClientSetCallWaitingDisabledPN3ims12ClientHandleEb, 
                       __Z32IMSClientRegisterForNotificationPN3ims12ClientHandleE14IMSClientEventbPFvS2_PK14__CFDictionaryPvES6_, 
                       __Z36IMSClientQualityOfServiceEstablishedPN3ims12ClientHandleEPK14__CFDictionary, 
                       __ZN11ClientStateC1Ev, __ZN11ClientStateC2Ev, __ZN11ClientStateD1Ev, 
                       __ZN11ClientStateD2Ev, __ZN11IMSCallInfo10answerCallERKNSt3__112basic_stringIcNS0_11char_traitsIcEENS0_9allocatorIcEEEE, 
                       __ZN11IMSCallInfo12continueCallEv, __ZN11IMSCallInfo12setRelayModeEb, 
                       __ZN11IMSCallInfo15handleLRBTEventEP14BambiCallEventb, __ZN11IMSCallInfo16createCallHandleEv, 
                       __ZN11IMSCallInfo16logIncomingPrackERK10SipRequestPK9BambiCall, 
                       __ZN11IMSCallInfo16logPrackResponseERK11SipResponsePK9BambiCall, 
                       __ZN11IMSCallInfo17handleTryingEventEP14BambiCallEvent, __ZN11IMSCallInfo17setBasebandCallIdEh, 
                       __ZN11IMSCallInfo18handleRingingEventEP33BambiCallProvisionalResponseEvent, 
                       __ZN11IMSCallInfo21handleCallInvalidatedEP9BambiCall, __ZN11IMSCallInfo21handleMetricOnlyEventEP14BambiCallEvent, 
                       __ZN11IMSCallInfo22handleUnprocessedEventEP14BambiCallEvent, 
                       __ZN11IMSCallInfo22handleVocoderInfoEventEPK10__CFStringPK10__CFNumber, 
                       __ZN11IMSCallInfo23setTextMediaSessionModeEN3ims20TextMediaSessionModeE, 
                       __ZN11IMSCallInfo25handleTextStreamHeldEventEb, __ZN11IMSCallInfo26handleMediaActivationEventEP14BambiCallEventb, 
                       __ZN11IMSCallInfo26handleSessionProgressEventEP33BambiCallProvisionalResponseEvent, 
                       __ZN11IMSCallInfo26handleTextStreamTokenEventEPK10__CFNumber, 
                       __ZN11IMSCallInfo27handleJoinedConferenceEventEP30BambiCallJoinedConferenceEvent, 
                       __ZN11IMSCallInfo27handleMediaInitializedEventEP14BambiCallEvent, 
                       __ZN11IMSCallInfo27handleSessionActivatedEventEP14BambiCallEvent, 
                       __ZN11IMSCallInfo27handleSessionConfirmedEventEP30BambiCallSessionConfirmedEvent, 
                       __ZN11IMSCallInfo27handleSessionLocalHeldEventEP14BambiCallEvent, 
                       __ZN11IMSCallInfo27handleSessionRequestedEventEP30BambiCallSessionRequestedEvent, 
                       __ZN11IMSCallInfo27sendAccessBarringDisconnectEv, __ZN11IMSCallInfo28handleSessionHoldFailedEventEP14BambiCallEvent, 
                       __ZN11IMSCallInfo28handleSessionTerminatedEventEP31BambiCallSessionTerminatedEvent, 
                       __ZN11IMSCallInfo28handleTextMediaDetectedEventEP14BambiCallEvent, 
                       __ZN11IMSCallInfo28sendSessionTerminationMetricEP36BambiCallSessionTerminationBaseEventPb, 
                       __ZN11IMSCallInfo29handleSessionTerminatingEventEP32BambiCallSessionTerminatingEvent, 
                       __ZN11IMSCallInfo29handleSessionTerminationEventEP36BambiCallSessionTerminationBaseEvent, 
                       __ZN11IMSCallInfo30handleInputFrequencyLevelEventEPK9BambiCallPK8__CFData, 
                       __ZN11IMSCallInfo30handleSessionAcknowledgedEventEP14BambiCallEvent, 
                       __ZN11IMSCallInfo30handleSessionResumeFailedEventEP14BambiCallEvent, 
                       __ZN11IMSCallInfo31handleOutputFrequencyLevelEventEPK9BambiCallPK8__CFData, 
                       __ZN11IMSCallInfo31handleParticipantLeftConferenceEP26BambiConferenceParticipantb, 
                       __ZN11IMSCallInfo31handleTextMediaDeactivatedEventEP14BambiCallEvent, 
                       __ZN11IMSCallInfo33handlePreconditionsSatisfiedEventEP36BambiCallPreconditionsSatisfiedEvent, 
                       __ZN11IMSCallInfo5stackEv, __ZN11IMSCallInfo6redialEv, __ZN11IMSCallInfo7endCallERKNSt3__112basic_stringIcNS0_11char_traitsIcEENS0_9allocatorIcEEEE, 
                       __ZN11IMSCallInfo7refreshEb, __ZN11IMSCallInfo8playDtmfERKNSt3__16vectorIhNS0_9allocatorIhEEEE, 
                       __ZN11IMSCallInfo8playDtmfEh, __ZN11IMSCallInfo8ringCallEv, 
                       __ZN11IMSCallInfo8stopDtmfEv, __ZN11IMSCallInfo9setActiveEb, 
                       __ZN11IMSCallInfo9startCallERK6SipUriRK16BambiCallOptionsPK25BambiEmergencyCallOptions, 
                       __ZN11IMSCallInfoC1EP14IMSCallManager7ImsUuidRKNSt3__112basic_stringIcNS3_11char_traitsIcEENS3_9allocatorIcEEEEP11BambiClientP9BambiCall, 
                       __ZN11IMSCallInfoC2EP14IMSCallManager7ImsUuidRKNSt3__112basic_stringIcNS3_11char_traitsIcEENS3_9allocatorIcEEEEP11BambiClientP9BambiCall, 
                       __ZN11IMSCallInfoD0Ev, __ZN11IMSCallInfoD1Ev, __ZN11IMSCallInfoD2Ev, 
                       __ZN13IMSSMSManager10prepareSMSER10PendingSMS, __ZN13IMSSMSManager11handleTimerEP17SipTimerContainerRKNSt3__112basic_stringIcNS2_11char_traitsIcEENS2_9allocatorIcEEEE, 
                       __ZN13IMSSMSManager13clearLocationEv, __ZN13IMSSMSManager13reportFailureERKNSt3__112basic_stringIcNS0_11char_traitsIcEENS0_9allocatorIcEEEEb, 
                       __ZN13IMSSMSManager13reportSuccessERKNSt3__112basic_stringIcNS0_11char_traitsIcEENS0_9allocatorIcEEEE, 
                       __ZN13IMSSMSManager15acquireLocationEP8SipStack, __ZN13IMSSMSManager17handleMessageSentERKNSt3__112basic_stringIcNS0_11char_traitsIcEENS0_9allocatorIcEEEEj, 
                       __ZN13IMSSMSManager18handleMessageErrorERKNSt3__112basic_stringIcNS0_11char_traitsIcEENS0_9allocatorIcEEEEjRK9ImsResultb, 
                       __ZN13IMSSMSManager19sipStackInitializedERKNSt3__112basic_stringIcNS0_11char_traitsIcEENS0_9allocatorIcEEEE, 
                       __ZN13IMSSMSManager19sipStackInvalidatedERKNSt3__112basic_stringIcNS0_11char_traitsIcEENS0_9allocatorIcEEEE, 
                       __ZN13IMSSMSManager21handleIncomingMessageERKNSt3__112basic_stringIcNS0_11char_traitsIcEENS0_9allocatorIcEEEERK6SipUriS8_PK7SipBody, 
                       __ZN13IMSSMSManager21handleIncomingMessageERKNSt3__112basic_stringIcNS0_11char_traitsIcEENS0_9allocatorIcEEEERK6SipUriS8_S8_S8_, 
                       __ZN13IMSSMSManager24handleUacBarringResponseERKNSt3__112basic_stringIcNS0_11char_traitsIcEENS0_9allocatorIcEEEE17UacAccessResponse, 
                       __ZN13IMSSMSManager24initialLocationAvailableERN3ims12LocationInfoE, 
                       __ZN13IMSSMSManager25handleMessageRequestErrorERKNSt3__112basic_stringIcNS0_11char_traitsIcEENS0_9allocatorIcEEEE, 
                       __ZN13IMSSMSManager27initialLocationNotAvailableEv, __ZN13IMSSMSManager28handleMessageRequestReceivedERKNSt3__112basic_stringIcNS0_11char_traitsIcEENS0_9allocatorIcEEEE, 
                       __ZN13IMSSMSManager30sendPendingSMSWithBestLocationEv, __ZN13IMSSMSManager7sendSMSERKNSt3__112basic_stringIcNS0_11char_traitsIcEENS0_9allocatorIcEEEERK6SipUriS8_S8_S8_N3ims12LocationInfoE, 
                       __ZN13IMSSMSManager7sendSMSERKNSt3__112basic_stringIcNS0_11char_traitsIcEENS0_9allocatorIcEEEES8_S8_RKNS0_6vectorIhNS4_IhEEEES8_b, 
                       __ZN13IMSSMSManagerC1EP18IPTelephonyManager, __ZN13IMSSMSManagerC2EP18IPTelephonyManager, 
                       __ZN13IMSSMSManagerD0Ev, __ZN13IMSSMSManagerD1Ev, __ZN13IMSSMSManagerD2Ev, 
                       __ZN14IMSCallManager10answerCallE7ImsUuidRKNSt3__112basic_stringIcNS1_11char_traitsIcEENS1_9allocatorIcEEEE, 
                       __ZN14IMSCallManager11refreshCallE7ImsUuidb, __ZN14IMSCallManager12activateCallE7ImsUuid, 
                       __ZN14IMSCallManager12setRelayModeE7ImsUuidb, __ZN14IMSCallManager13endLegacyCallEhRKN3ims13CallEndReasonE, 
                       __ZN14IMSCallManager13mergeAllCallsEv, __ZN14IMSCallManager14deactivateCallE7ImsUuid, 
                       __ZN14IMSCallManager14removeCallInfoEP11IMSCallInfo, __ZN14IMSCallManager15callInfoForUuidE7ImsUuid, 
                       __ZN14IMSCallManager17endConferenceCallEv, __ZN14IMSCallManager18initializePullCallE14IMSCallOptions, 
                       __ZN14IMSCallManager18nextBasebandCallIdEv, __ZN14IMSCallManager18sendBambiCallEventEP14BambiCallEvent, 
                       __ZN14IMSCallManager18sendCallEndRequestEP11IMSCallInfob, 
                       __ZN14IMSCallManager19callOptionsFromDictERKNSt3__112basic_stringIcNS0_11char_traitsIcEENS0_9allocatorIcEEEEN3ctu2cf11CFSharedRefIK14__CFDictionaryEEP14IMSCallOptions, 
                       __ZN14IMSCallManager19sipStackInitializedERKNSt3__112basic_stringIcNS0_11char_traitsIcEENS0_9allocatorIcEEEE, 
                       __ZN14IMSCallManager19sipStackInvalidatedERKNSt3__112basic_stringIcNS0_11char_traitsIcEENS0_9allocatorIcEEEE, 
                       __ZN14IMSCallManager20callInfoForSipCallIdERKNSt3__112basic_stringIcNS0_11char_traitsIcEENS0_9allocatorIcEEEE, 
                       __ZN14IMSCallManager21_sendLegacyDisconnectEhRKNSt3__112basic_stringIcNS0_11char_traitsIcEENS0_9allocatorIcEEEEbjP14BambiCallEvent, 
                       __ZN14IMSCallManager21handleCallInvalidatedEP9BambiCall, __ZN14IMSCallManager21handleConferenceEventEP24BambiCallConferenceEvent, 
                       __ZN14IMSCallManager21sendCallStatusRequestERKNSt3__112basic_stringIcNS0_11char_traitsIcEENS0_9allocatorIcEEEE13UacCallStatusbbb, 
                       __ZN14IMSCallManager23delegateForIncomingCallEP11BambiClientP9BambiCall, 
                       __ZN14IMSCallManager23initializeEmergencyCallERKNSt3__112basic_stringIcNS0_11char_traitsIcEENS0_9allocatorIcEEEE14IMSCallOptionsRKN3ims11StackConfigES8_, 
                       __ZN14IMSCallManager23setConferenceCallActiveEb, __ZN14IMSCallManager23setTextMediaSessionModeE7ImsUuidN3ims20TextMediaSessionModeE, 
                       __ZN14IMSCallManager23setTextMediaSessionModeERKNSt3__112basic_stringIcNS0_11char_traitsIcEENS0_9allocatorIcEEEEN3ims20TextMediaSessionModeEb, 
                       __ZN14IMSCallManager24handleUacBarringResponseERKNSt3__112basic_stringIcNS0_11char_traitsIcEENS0_9allocatorIcEEEE17UacAccessResponse, 
                       __ZN14IMSCallManager24resendCallStatusForStackERKNSt3__112basic_stringIcNS0_11char_traitsIcEENS0_9allocatorIcEEEE, 
                       __ZN14IMSCallManager26handleMediaActivationEventEP14BambiCallEventb, 
                       __ZN14IMSCallManager26initializeNonEmergencyCallERKNSt3__112basic_stringIcNS0_11char_traitsIcEENS0_9allocatorIcEEEE14IMSCallOptions, 
                       __ZN14IMSCallManager27handleBasebandCallIdForCallEP9BambiCallhh, 
                       __ZN14IMSCallManager27handleBurstDtmfSendCompleteEv, __ZN14IMSCallManager27handleSessionActivatedEventEP14BambiCallEvent, 
                       __ZN14IMSCallManager27handleSessionConfirmedEventEP30BambiCallSessionConfirmedEvent, 
                       __ZN14IMSCallManager27handleSessionLocalHeldEventEP14BambiCallEvent, 
                       __ZN14IMSCallManager27sendCallStatusToIRatManagerEP9BambiCallb7ImsUuid, 
                       __ZN14IMSCallManager27sendVocoderInfoNotificationE7ImsUuidPK10__CFStringPK10__CFNumber, 
                       __ZN14IMSCallManager28_sendLegacyCallStatusChangedEP11IMSCallInfoPK10__CFString7ImsUuidP14BambiCallEventh, 
                       __ZN14IMSCallManager28handleSessionHoldFailedEventEP14BambiCallEvent, 
                       __ZN14IMSCallManager28handleSessionTerminatedEventEP31BambiCallSessionTerminatedEvent, 
                       __ZN14IMSCallManager29_sendLegacyIncomingCallStatusEP11IMSCallInfoP14BambiCallEvent, 
                       __ZN14IMSCallManager29handleQualityOfServiceRevokedEj, __ZN14IMSCallManager30handleInputFrequencyLevelEventEPK9BambiCallPK8__CFData, 
                       __ZN14IMSCallManager30handleMediaStackSwitchCompleteERKNSt3__112basic_stringIcNS0_11char_traitsIcEENS0_9allocatorIcEEEE12RTPStackTypeb, 
                       __ZN14IMSCallManager30handleSessionAcknowledgedEventEP14BambiCallEvent, 
                       __ZN14IMSCallManager30handleSessionResumeFailedEventEP14BambiCallEvent, 
                       __ZN14IMSCallManager31handleOutputFrequencyLevelEventEPK9BambiCallPK8__CFData, 
                       __ZN14IMSCallManager31sendConferenceSubscriptionEventERKNSt3__112basic_stringIcNS0_11char_traitsIcEENS0_9allocatorIcEEEEb, 
                       __ZN14IMSCallManager31sendTextStreamTokenNotificationERKNSt3__112basic_stringIcNS0_11char_traitsIcEENS0_9allocatorIcEEEEPK10__CFStringhPK10__CFNumber, 
                       __ZN14IMSCallManager33handleQualityOfServiceEstablishedERKNSt3__16vectorIjNS0_9allocatorIjEEEE, 
                       __ZN14IMSCallManager33handleQualityOfServiceEstablishedEjbRKNSt3__16vectorItNS0_9allocatorItEEEEb, 
                       __ZN14IMSCallManager33sendCallDisconnectionNotificationE7ImsUuidRKNSt3__112basic_stringIcNS1_11char_traitsIcEENS1_9allocatorIcEEEERKN3ims14DisconnectInfoEP14BambiCallEvent, 
                       __ZN14IMSCallManager33sendCallDisconnectionNotificationE7ImsUuidRKNSt3__112basic_stringIcNS1_11char_traitsIcEENS1_9allocatorIcEEEES9_, 
                       __ZN14IMSCallManager33sendCallStatusChangedNotificationE7ImsUuidPK10__CFStringP14BambiCallEvent, 
                       __ZN14IMSCallManager33sendCallStatusChangedNotificationE7ImsUuidPK10__CFStringhP14BambiCallEvent, 
                       __ZN14IMSCallManager34sendIncomingCallStatusNotificationEP11IMSCallInfoP14BambiCallEvent, 
                       __ZN14IMSCallManager35_sendLegacyEmergencySessionRequiredEhRK6SipUribP38BambiCallEmergencySessionRequiredEvent, 
                       __ZN14IMSCallManager36handleSessionActivationAcceptedEventEP14BambiCallEvent, 
                       __ZN14IMSCallManager40sendEmergencySessionRequiredNotificationE7ImsUuidRK6SipUribP38BambiCallEmergencySessionRequiredEvent, 
                       __ZN14IMSCallManager41sendInputFrequencyLevelUpdateNotificationE7ImsUuidPK8__CFData, 
                       __ZN14IMSCallManager42sendOutputFrequencyLevelUpdateNotificationE7ImsUuidPK8__CFData, 
                       __ZN14IMSCallManager7endCallE7ImsUuidRKNSt3__112basic_stringIcNS1_11char_traitsIcEENS1_9allocatorIcEEEE, 
                       __ZN14IMSCallManager8initCallERKNSt3__112basic_stringIcNS0_11char_traitsIcEENS0_9allocatorIcEEEES8_N3ctu2cf11CFSharedRefIK14__CFDictionaryEES8_PK10__CFStringb, 
                       __ZN14IMSCallManager8playDtmfE7ImsUuidNSt3__16vectorIhNS1_9allocatorIhEEEE, 
                       __ZN14IMSCallManager8playDtmfE7ImsUuidh, __ZN14IMSCallManager8pullCallENSt3__112basic_stringIcNS0_11char_traitsIcEENS0_9allocatorIcEEEEN3ctu2cf11CFSharedRefIK14__CFDictionaryEE, 
                       __ZN14IMSCallManager8ringCallE7ImsUuid, __ZN14IMSCallManager8stopDtmfE7ImsUuid, 
                       __ZN14IMSCallManager9startCallENSt3__112basic_stringIcNS0_11char_traitsIcEENS0_9allocatorIcEEEEN3ctu2cf11CFSharedRefIK14__CFDictionaryEE, 
                       __ZN14IMSCallManagerC1EP18IPTelephonyManager, __ZN14IMSCallManagerC2EP18IPTelephonyManager, 
                       __ZN14IMSCallManagerD0Ev, __ZN14IMSCallManagerD1Ev, __ZN14IMSCallManagerD2Ev, 
                       __ZN14IMSXcapManager10initializeERK10XcapConfigRKNSt3__112basic_stringIcNS3_11char_traitsIcEENS3_9allocatorIcEEEERK8ImsPrefs, 
                       __ZN14IMSXcapManager11initializedERKNSt3__112basic_stringIcNS0_11char_traitsIcEENS0_9allocatorIcEEEE, 
                       __ZN14IMSXcapManager12deinitializeERKNSt3__112basic_stringIcNS0_11char_traitsIcEENS0_9allocatorIcEEEE, 
                       __ZN14IMSXcapManager13fetchKsExtNafERKNSt3__112basic_stringIcNS0_11char_traitsIcEENS0_9allocatorIcEEEERKNS0_6vectorIhNS4_IhEEEESD_S8_S8_, 
                       __ZN14IMSXcapManager13handleRequestERKNSt3__112basic_stringIcNS0_11char_traitsIcEENS0_9allocatorIcEEEEPK14__CFDictionary, 
                       __ZN14IMSXcapManager14_fromImsResultEP17XcapCarrierHandleRK9ImsResult, 
                       __ZN14IMSXcapManager17_handleOIPRequestEP17XcapCarrierHandleN19CapSuppServicesInfo6ActionEPKNS2_20CallerIdPresentationERKNSt3__112basic_stringIcNS7_11char_traitsIcEENS7_9allocatorIcEEEE, 
                       __ZN14IMSXcapManager17_handleOIRRequestEP17XcapCarrierHandleN19CapSuppServicesInfo6ActionEPKNS2_19CallerIdRestrictionERKNSt3__112basic_stringIcNS7_11char_traitsIcEENS7_9allocatorIcEEEE, 
                       __ZN14IMSXcapManager17internalDumpStateER12ImsOutStream, __ZN14IMSXcapManager18fetchPreferredImpuERKNSt3__112basic_stringIcNS0_11char_traitsIcEENS0_9allocatorIcEEEE, 
                       __ZN14IMSXcapManager18handleAuthResponseEP15BambiXcapClientRKNSt3__112basic_stringIcNS2_11char_traitsIcEENS2_9allocatorIcEEEERK15SipAuthResponse, 
                       __ZN14IMSXcapManager22handleAkaAuthChallengeERKNSt3__112basic_stringIcNS0_11char_traitsIcEENS0_9allocatorIcEEEERK19SipAkaAuthChallenge, 
                       __ZN14IMSXcapManager25_handleCallBarringRequestEP17XcapCarrierHandleN19CapSuppServicesInfo6ActionEPKNS2_11CallBarringERKNSt3__112basic_stringIcNS7_11char_traitsIcEENS7_9allocatorIcEEEE, 
                       __ZN14IMSXcapManager25_handleCallForwardRequestEP17XcapCarrierHandleN19CapSuppServicesInfo6ActionEPKNS2_11CallForwardERKNSt3__112basic_stringIcNS7_11char_traitsIcEENS7_9allocatorIcEEEE, 
                       __ZN14IMSXcapManager25_handleCallWaitingRequestEP17XcapCarrierHandleN19CapSuppServicesInfo6ActionEPKNS2_11CallWaitingERKNSt3__112basic_stringIcNS7_11char_traitsIcEENS7_9allocatorIcEEEE, 
                       __ZN14IMSXcapManager25_handleServiceOIPResponseEP17XcapCarrierHandleN11HttpRequest6MethodE9ImsResultPK15XcapDocumentOIPRKNSt3__112basic_stringIcNS8_11char_traitsIcEENS8_9allocatorIcEEEE, 
                       __ZN14IMSXcapManager25_handleServiceOIRResponseEP17XcapCarrierHandleN11HttpRequest6MethodE9ImsResultPK15XcapDocumentOIRRKNSt3__112basic_stringIcNS8_11char_traitsIcEENS8_9allocatorIcEEEE, 
                       __ZN14IMSXcapManager25handleDigestAuthChallengeERKNSt3__112basic_stringIcNS0_11char_traitsIcEENS0_9allocatorIcEEEERK22SipDigestAuthChallenge, 
                       __ZN14IMSXcapManager27handleAuthChallengeResponseERKNSt3__112basic_stringIcNS0_11char_traitsIcEENS0_9allocatorIcEEEERKN3ims3aka8ResponseE, 
                       __ZN14IMSXcapManager33_handleServiceCallBarringResponseEP17XcapCarrierHandleN11HttpRequest6MethodE9ImsResultPK23XcapDocumentCallBarringN19CapSuppServicesInfo11CallBarring4Rule8FacilityERKNSt3__112basic_stringIcNSC_11char_traitsIcEENSC_9allocatorIcEEEE, 
                       __ZN14IMSXcapManager33_handleServiceCallForwardResponseEP17XcapCarrierHandleN11HttpRequest6MethodE9ImsResultPK25XcapDocumentCommDiversionRKNSt3__112basic_stringIcNS8_11char_traitsIcEENS8_9allocatorIcEEEE, 
                       __ZN14IMSXcapManager33_handleServiceCallWaitingResponseEP17XcapCarrierHandleN11HttpRequest6MethodE9ImsResultPK23XcapDocumentCommWaitingRKNSt3__112basic_stringIcNS8_11char_traitsIcEENS8_9allocatorIcEEEE, 
                       __ZN14IMSXcapManager37_triggerUnsolicitedCallBarringRequestEP17XcapCarrierHandleRKNSt3__112basic_stringIcNS2_11char_traitsIcEENS2_9allocatorIcEEEE, 
                       __ZN14IMSXcapManager37_triggerUnsolicitedCallForwardRequestEP17XcapCarrierHandleRKNSt3__112basic_stringIcNS2_11char_traitsIcEENS2_9allocatorIcEEEE, 
                       __ZN14IMSXcapManagerC1EP18IPTelephonyManager, __ZN14IMSXcapManagerC2EP18IPTelephonyManager, 
                       __ZN14IMSXcapManagerD0Ev, __ZN14IMSXcapManagerD1Ev, __ZN14IMSXcapManagerD2Ev, 
                       __ZN16IMSClientManager11flushBlocksEv, __ZN16IMSClientManager12createClientERKNSt3__112basic_stringIcNS0_11char_traitsIcEENS0_9allocatorIcEEEEP16dispatch_queue_s, 
                       __ZN16IMSClientManager12performBlockERK14LoggableStringNSt3__110shared_ptrI21MediaSessionInterfaceEEU13block_pointerFvvE, 
                       __ZN16IMSClientManager12performBlockERK14LoggableStringP11SipLockableU13block_pointerFvvE, 
                       __ZN16IMSClientManager12performBlockERK14LoggableStringRKN3ims7PhantomEU13block_pointerFvvE, 
                       __ZN16IMSClientManager12removeClientERKNSt3__112basic_stringIcNS0_11char_traitsIcEENS0_9allocatorIcEEEE, 
                       __ZN16IMSClientManager12timerManagerEv, __ZN16IMSClientManager13kDefaultStackE, 
                       __ZN16IMSClientManager14performBlockOrERK14LoggableStringP11SipLockableU13block_pointerFvvES6_, 
                       __ZN16IMSClientManager15callOnMainQueueEU13block_pointerFvvE, 
                       __ZN16IMSClientManager15kEmergencyStackE, __ZN16IMSClientManager16delegateForStackERKNSt3__112basic_stringIcNS0_11char_traitsIcEENS0_9allocatorIcEEEE, 
                       __ZN16IMSClientManager16isEmergencyStackERKNSt3__112basic_stringIcNS0_11char_traitsIcEENS0_9allocatorIcEEEE, 
                       __ZN16IMSClientManager16telephonyManagerEv, __ZN16IMSClientManager17callOnClientQueueERKNSt3__112basic_stringIcNS0_11char_traitsIcEENS0_9allocatorIcEEEEU13block_pointerFvP15IMSClientRecordE, 
                       __ZN16IMSClientManager17callOnClientQueueERKNSt3__112basic_stringIcNS0_11char_traitsIcEENS0_9allocatorIcEEEEU13block_pointerFvvE, 
                       __ZN16IMSClientManager18updateCallDelegateERKNSt3__112basic_stringIcNS0_11char_traitsIcEENS0_9allocatorIcEEEES8_NS0_10shared_ptrIN3ims17CallEventDelegateEEEP16dispatch_queue_s, 
                       __ZN16IMSClientManager18updateXcapDelegateERKNSt3__112basic_stringIcNS0_11char_traitsIcEENS0_9allocatorIcEEEES8_NS0_10shared_ptrIN3ims17XcapEventDelegateEEEP16dispatch_queue_s, 
                       __ZN16IMSClientManager19updateStackDelegateERKNSt3__112basic_stringIcNS0_11char_traitsIcEENS0_9allocatorIcEEEES8_NS0_10shared_ptrIN3ims18StackEventDelegateEEEP16dispatch_queue_s, 
                       __ZN16IMSClientManager21updateEmergencyClientEP16dispatch_queue_s, 
                       __ZN16IMSClientManager21updateManagerDelegateERKNSt3__112basic_stringIcNS0_11char_traitsIcEENS0_9allocatorIcEEEES8_NS0_10shared_ptrIN3ims24CallManagerEventDelegateEEEP16dispatch_queue_s, 
                       __ZN16IMSClientManager21updateMessageDelegateERKNSt3__112basic_stringIcNS0_11char_traitsIcEENS0_9allocatorIcEEEES8_NS0_10shared_ptrIN3ims20MessageEventDelegateEEEP16dispatch_queue_s, 
                       __ZN16IMSClientManager22callOnDestinationQueueEP16dispatch_queue_sU13block_pointerFvvE, 
                       __ZN16IMSClientManager6_mutexE, __ZN16IMSClientManager8instanceEv, 
                       __ZN16IMSClientManager9_instanceE, __ZN16IMSClientManagerC1Ev, 
                       __ZN16IMSClientManagerC2Ev, __ZN16IMSClientManagerD0Ev, __ZN16IMSClientManagerD1Ev, 
                       __ZN16IMSClientManagerD2Ev, __ZN18IMSWrapperDelegate14handlePdnResetEv, 
                       __ZN18IMSWrapperDelegate14handleUssdDataERKNSt3__112basic_stringIcNS0_11char_traitsIcEENS0_9allocatorIcEEEEb, 
                       __ZN18IMSWrapperDelegate15addCallDelegateERKNSt3__112basic_stringIcNS0_11char_traitsIcEENS0_9allocatorIcEEEEP16dispatch_queue_sNS0_10shared_ptrIN3ims17CallEventDelegateEEE, 
                       __ZN18IMSWrapperDelegate15addXcapDelegateERKNSt3__112basic_stringIcNS0_11char_traitsIcEENS0_9allocatorIcEEEEP16dispatch_queue_sNS0_10shared_ptrIN3ims17XcapEventDelegateEEE, 
                       __ZN18IMSWrapperDelegate15handleStateDumpERKNSt3__112basic_stringIcNS0_11char_traitsIcEENS0_9allocatorIcEEEE, 
                       __ZN18IMSWrapperDelegate15handleUssdErrorERKNSt3__112basic_stringIcNS0_11char_traitsIcEENS0_9allocatorIcEEEEj, 
                       __ZN18IMSWrapperDelegate16addStackDelegateERKNSt3__112basic_stringIcNS0_11char_traitsIcEENS0_9allocatorIcEEEEP16dispatch_queue_sNS0_10shared_ptrIN3ims18StackEventDelegateEEE, 
                       __ZN18IMSWrapperDelegate16handleHoldFailedERKNSt3__112basic_stringIcNS0_11char_traitsIcEENS0_9allocatorIcEEEE, 
                       __ZN18IMSWrapperDelegate17handleActiveEventERKNSt3__112basic_stringIcNS0_11char_traitsIcEENS0_9allocatorIcEEEE, 
                       __ZN18IMSWrapperDelegate17handleClientErrorERKNSt3__112basic_stringIcNS0_11char_traitsIcEENS0_9allocatorIcEEEEj, 
                       __ZN18IMSWrapperDelegate17handleInitializedEj, __ZN18IMSWrapperDelegate17handleJoinedEventERKNSt3__112basic_stringIcNS0_11char_traitsIcEENS0_9allocatorIcEEEE, 
                       __ZN18IMSWrapperDelegate17handleTryingEventERKNSt3__112basic_stringIcNS0_11char_traitsIcEENS0_9allocatorIcEEEE, 
                       __ZN18IMSWrapperDelegate18addMessageDelegateERKNSt3__112basic_stringIcNS0_11char_traitsIcEENS0_9allocatorIcEEEEP16dispatch_queue_sNS0_10shared_ptrIN3ims20MessageEventDelegateEEE, 
                       __ZN18IMSWrapperDelegate18handleAuthenticateERKN3ims3aka7RequestE, 
                       __ZN18IMSWrapperDelegate18handleMergeFailureEv, __ZN18IMSWrapperDelegate18handleMergeSuccessEv, 
                       __ZN18IMSWrapperDelegate18handleResumeFailedERKNSt3__112basic_stringIcNS0_11char_traitsIcEENS0_9allocatorIcEEEE, 
                       __ZN18IMSWrapperDelegate18handleRingingEventERKNSt3__112basic_stringIcNS0_11char_traitsIcEENS0_9allocatorIcEEEE, 
                       __ZN18IMSWrapperDelegate18removeCallDelegateERKNSt3__112basic_stringIcNS0_11char_traitsIcEENS0_9allocatorIcEEEE, 
                       __ZN18IMSWrapperDelegate18removeXcapDelegateERKNSt3__112basic_stringIcNS0_11char_traitsIcEENS0_9allocatorIcEEEE, 
                       __ZN18IMSWrapperDelegate19handleInactiveEventERKNSt3__112basic_stringIcNS0_11char_traitsIcEENS0_9allocatorIcEEEE, 
                       __ZN18IMSWrapperDelegate19handleIncomingEventEPN3ims10CallHandleERKNS0_16CallIncomingInfoE, 
                       __ZN18IMSWrapperDelegate19handleUninitializedEj, __ZN18IMSWrapperDelegate19removeStackDelegateERKNSt3__112basic_stringIcNS0_11char_traitsIcEENS0_9allocatorIcEEEE, 
                       __ZN18IMSWrapperDelegate21handleDisconnectEventERKNSt3__112basic_stringIcNS0_11char_traitsIcEENS0_9allocatorIcEEEES8_RKN3ims14DisconnectInfoE, 
                       __ZN18IMSWrapperDelegate21handleInProgressEventERKNSt3__112basic_stringIcNS0_11char_traitsIcEENS0_9allocatorIcEEEE, 
                       __ZN18IMSWrapperDelegate21handleMessageReceivedERKN3ims11MessageInfoE, 
                       __ZN18IMSWrapperDelegate21handleProceedingEventERKNSt3__112basic_stringIcNS0_11char_traitsIcEENS0_9allocatorIcEEEES8_, 
                       __ZN18IMSWrapperDelegate21removeMessageDelegateERKNSt3__112basic_stringIcNS0_11char_traitsIcEENS0_9allocatorIcEEEE, 
                       __ZN18IMSWrapperDelegate22addCallManagerDelegateERKNSt3__112basic_stringIcNS0_11char_traitsIcEENS0_9allocatorIcEEEEP16dispatch_queue_sNS0_10shared_ptrIN3ims24CallManagerEventDelegateEEE, 
                       __ZN18IMSWrapperDelegate22handleMediaStatusEventERKNSt3__112basic_stringIcNS0_11char_traitsIcEENS0_9allocatorIcEEEEb, 
                       __ZN18IMSWrapperDelegate22handleThumperCallErrorEb, __ZN18IMSWrapperDelegate23handleAcknowledgedEventERKNSt3__112basic_stringIcNS0_11char_traitsIcEENS0_9allocatorIcEEEE, 
                       __ZN18IMSWrapperDelegate23handleRegistrationEventERKN3ims16RegistrationInfoE, 
                       __ZN18IMSWrapperDelegate23handleRingbackToneEventERKNSt3__112basic_stringIcNS0_11char_traitsIcEENS0_9allocatorIcEEEEb, 
                       __ZN18IMSWrapperDelegate24handleMessageSendFailureEb, __ZN18IMSWrapperDelegate24handleMessageSendSuccessEv, 
                       __ZN18IMSWrapperDelegate24handleRegistrationActiveERKN3ims22RegistrationActiveInfoE, 
                       __ZN18IMSWrapperDelegate25handleRegistrationAllowedEv, __ZN18IMSWrapperDelegate25handleThumperCallRegisterERKNSt3__112basic_stringIcNS0_11char_traitsIcEENS0_9allocatorIcEEEE, 
                       __ZN18IMSWrapperDelegate25removeCallManagerDelegateERKNSt3__112basic_stringIcNS0_11char_traitsIcEENS0_9allocatorIcEEEE, 
                       __ZN18IMSWrapperDelegate26handleTextStreamTokenEventERKNSt3__112basic_stringIcNS0_11char_traitsIcEENS0_9allocatorIcEEEEN3ctu2cf11CFSharedRefIK10__CFNumberEE, 
                       __ZN18IMSWrapperDelegate27handleMediaInitializedEventERKNSt3__112basic_stringIcNS0_11char_traitsIcEENS0_9allocatorIcEEEE, 
                       __ZN18IMSWrapperDelegate27handleThumperCallDeregisterERKNSt3__112basic_stringIcNS0_11char_traitsIcEENS0_9allocatorIcEEEE, 
                       __ZN18IMSWrapperDelegate27handleXcapRequestCompletionEN3ctu2cf11CFSharedRefIK14__CFDictionaryEE, 
                       __ZN18IMSWrapperDelegate28handleRegistrationIdentitiesERKNSt3__16vectorIN3ims20RegistrationIdentityENS0_9allocatorIS3_EEEE, 
                       __ZN18IMSWrapperDelegate28handleTextMediaDetectedEventERKNSt3__112basic_stringIcNS0_11char_traitsIcEENS0_9allocatorIcEEEE, 
                       __ZN18IMSWrapperDelegate30handleConferenceSubscribeEventEb, 
                       __ZN18IMSWrapperDelegate30handleEmergencySessionFinishedEv, 
                       __ZN18IMSWrapperDelegate30handleEmergencySessionRequiredERKNSt3__112basic_stringIcNS0_11char_traitsIcEENS0_9allocatorIcEEEES8_b, 
                       __ZN18IMSWrapperDelegate30handleMediaStackSwitchCompleteEbRKN3ims10MediaStackERKNSt3__112basic_stringIcNS4_11char_traitsIcEENS4_9allocatorIcEEEE, 
                       __ZN18IMSWrapperDelegate30handleRegistrationStateChangedERKN3ims17RegistrationStateE, 
                       __ZN18IMSWrapperDelegate31handleTextMediaDeactivatedEventERKNSt3__112basic_stringIcNS0_11char_traitsIcEENS0_9allocatorIcEEEE, 
                       __ZN18IMSWrapperDelegate35handleTextMediaRemoteDirectionEventERKNSt3__112basic_stringIcNS0_11char_traitsIcEENS0_9allocatorIcEEEEb, 
                       __ZN18IMSWrapperDelegate9dumpStateER12ImsOutStream, __ZN18IPTelephonyManager10_deferInitERKNSt3__112basic_stringIcNS0_11char_traitsIcEENS0_9allocatorIcEEEES8_RKN3ims11StackConfigE, 
                       __ZN18IPTelephonyManager10_deferInitERKNSt3__112basic_stringIcNS0_11char_traitsIcEENS0_9allocatorIcEEEES8_RKN3ims11StackConfigES8_14IMSCallOptions, 
                       __ZN18IPTelephonyManager10reregisterEv, __ZN18IPTelephonyManager10reregisterEyRKN3ims14AccessNetworksERKNSt3__112basic_stringIcNS4_11char_traitsIcEENS4_9allocatorIcEEEESC_, 
                       __ZN18IPTelephonyManager11_initializeEP8SipStackRKN3ims11StackConfigE, 
                       __ZN18IPTelephonyManager11getInstanceEv, __ZN18IPTelephonyManager11killProcessEv, 
                       __ZN18IPTelephonyManager12deinitializeERKNSt3__112basic_stringIcNS0_11char_traitsIcEENS0_9allocatorIcEEEEbb, 
                       __ZN18IPTelephonyManager12sendUssdDataERKNSt3__112basic_stringIcNS0_11char_traitsIcEENS0_9allocatorIcEEEES8_, 
                       __ZN18IPTelephonyManager12setDelegatesERKNSt3__112basic_stringIcNS0_11char_traitsIcEENS0_9allocatorIcEEEEb, 
                       __ZN18IPTelephonyManager13getSMSManagerEv, __ZN18IPTelephonyManager13setAutoAnswerERKNSt3__112basic_stringIcNS0_11char_traitsIcEENS0_9allocatorIcEEEEb, 
                       __ZN18IPTelephonyManager14getBambiClientEv, __ZN18IPTelephonyManager14getCallManagerEv, 
                       __ZN18IPTelephonyManager14getXcapManagerEv, __ZN18IPTelephonyManager14handleUssdDataEP16BambiUssdSessionRKNSt3__112basic_stringIcNS2_11char_traitsIcEENS2_9allocatorIcEEEEb, 
                       __ZN18IPTelephonyManager14initializeXcapERKNSt3__112basic_stringIcNS0_11char_traitsIcEENS0_9allocatorIcEEEERK10XcapConfigPK14__CFDictionary, 
                       __ZN18IPTelephonyManager14networkManagerEv, __ZN18IPTelephonyManager15handleUssdErrorEP16BambiUssdSessionRKNSt3__112basic_stringIcNS2_11char_traitsIcEENS2_9allocatorIcEEEEj, 
                       __ZN18IPTelephonyManager15makeOutgoingUriEP8SipStackRKNSt3__112basic_stringIcNS2_11char_traitsIcEENS2_9allocatorIcEEEEP6SipUri, 
                       __ZN18IPTelephonyManager16getClientManagerEv, __ZN18IPTelephonyManager16handleSystemWakeEv, 
                       __ZN18IPTelephonyManager16isNasInitializedERKNSt3__112basic_stringIcNS0_11char_traitsIcEENS0_9allocatorIcEEEE, 
                       __ZN18IPTelephonyManager17auditCarrierPrefsERKNSt3__112basic_stringIcNS0_11char_traitsIcEENS0_9allocatorIcEEEES8_, 
                       __ZN18IPTelephonyManager17cancelUssdSessionERKNSt3__112basic_stringIcNS0_11char_traitsIcEENS0_9allocatorIcEEEE, 
                       __ZN18IPTelephonyManager17initializeFromSIMERKNSt3__112basic_stringIcNS0_11char_traitsIcEENS0_9allocatorIcEEEES8_RKN3ims11StackConfigEP8ImsPrefs, 
                       __ZN18IPTelephonyManager17initializeFromSIMERKNSt3__112basic_stringIcNS0_11char_traitsIcEENS0_9allocatorIcEEEES8_RKN3ims11StackConfigEPK14__CFDictionary, 
                       __ZN18IPTelephonyManager17initializeFromSIMERKNSt3__112basic_stringIcNS0_11char_traitsIcEENS0_9allocatorIcEEEES8_RKN3ims11StackConfigEPK14__CFDictionarySF_, 
                       __ZN18IPTelephonyManager17internalDumpStateERKNSt3__112basic_stringIcNS0_11char_traitsIcEENS0_9allocatorIcEEEEbb, 
                       __ZN18IPTelephonyManager17reportClientErrorERKNSt3__112basic_stringIcNS0_11char_traitsIcEENS0_9allocatorIcEEEES8_S8_j, 
                       __ZN18IPTelephonyManager17setAPMediaManagerERKNSt3__112basic_stringIcNS0_11char_traitsIcEENS0_9allocatorIcEEEEbhb, 
                       __ZN18IPTelephonyManager17setLoggingEnabledEb, __ZN18IPTelephonyManager17setNetworkManagerEP17ImsNetworkManager, 
                       __ZN18IPTelephonyManager17setThumperEnabledERKNSt3__112basic_stringIcNS0_11char_traitsIcEENS0_9allocatorIcEEEEb, 
                       __ZN18IPTelephonyManager17updateContactUserERKNSt3__112basic_stringIcNS0_11char_traitsIcEENS0_9allocatorIcEEEES8_S8_, 
                       __ZN18IPTelephonyManager18_initializeFromSIMERKNSt3__112basic_stringIcNS0_11char_traitsIcEENS0_9allocatorIcEEEERKN3ims11StackConfigE, 
                       __ZN18IPTelephonyManager18exitEmergencyStateEv, __ZN18IPTelephonyManager18handleAuthResponseEP11BambiClientRKNSt3__112basic_stringIcNS2_11char_traitsIcEENS2_9allocatorIcEEEERK15SipAuthResponse, 
                       __ZN18IPTelephonyManager18handleDebugCommandERKNSt3__112basic_stringIcNS0_11char_traitsIcEENS0_9allocatorIcEEEES8_, 
                       __ZN18IPTelephonyManager18handleDeviceEventsERKNSt3__112basic_stringIcNS0_11char_traitsIcEENS0_9allocatorIcEEEERKj, 
                       __ZN18IPTelephonyManager19createMetricsLoggerEv, __ZN18IPTelephonyManager19fillConfigFromPrefsEP8SipStackPN3ims11StackConfigE, 
                       __ZN18IPTelephonyManager19handleNetworkEventsERKNSt3__112basic_stringIcNS0_11char_traitsIcEENS0_9allocatorIcEEEEPK14__CFDictionary, 
                       __ZN18IPTelephonyManager19initializeEmergencyERKNSt3__112basic_stringIcNS0_11char_traitsIcEENS0_9allocatorIcEEEE14IMSCallOptionsRKN3ims11StackConfigES8_PK14__CFDictionarySG_, 
                       __ZN18IPTelephonyManager19initializeNasClientERKNSt3__112basic_stringIcNS0_11char_traitsIcEENS0_9allocatorIcEEEEj, 
                       __ZN18IPTelephonyManager19restoreLoggingStateEv, __ZN18IPTelephonyManager20getBambiServicesMaskEy, 
                       __ZN18IPTelephonyManager20handleLegacyUssdDataEP16BambiUssdSessionRKNSt3__16vectorIhNS2_9allocatorIhEEEEb, 
                       __ZN18IPTelephonyManager20nasSystemInitializedERKNSt3__112basic_stringIcNS0_11char_traitsIcEENS0_9allocatorIcEEEE, 
                       __ZN18IPTelephonyManager20updateSimAccessClassERKNSt3__112basic_stringIcNS0_11char_traitsIcEENS0_9allocatorIcEEEERKj, 
                       __ZN18IPTelephonyManager20updateUacBarringInfoERKNSt3__112basic_stringIcNS0_11char_traitsIcEENS0_9allocatorIcEEEE17UacAccessResponseN18BambiAccessBarring4InfoEb, 
                       __ZN18IPTelephonyManager21deinitializeNasClientERKNSt3__112basic_stringIcNS0_11char_traitsIcEENS0_9allocatorIcEEEE, 
                       __ZN18IPTelephonyManager21handleAkaAuthResponseERKNSt3__112basic_stringIcNS0_11char_traitsIcEENS0_9allocatorIcEEEERKN3ims21AuthChallengeResponseE, 
                       __ZN18IPTelephonyManager21handleTransportErrorsERKNSt3__112basic_stringIcNS0_11char_traitsIcEENS0_9allocatorIcEEEE, 
                       __ZN18IPTelephonyManager21sendCallStatusRequestERKNSt3__112basic_stringIcNS0_11char_traitsIcEENS0_9allocatorIcEEEE13UacCallStatusjbbb, 
                       __ZN18IPTelephonyManager21updateNetworkServicesERKNSt3__112basic_stringIcNS0_11char_traitsIcEENS0_9allocatorIcEEEERKN3ims15NetworkServicesEb, 
                       __ZN18IPTelephonyManager22getRegistrationManagerEv, __ZN18IPTelephonyManager22handleAkaAuthChallengeEP11BambiClientRK19SipAkaAuthChallengeRKNSt3__112basic_stringIcNS5_11char_traitsIcEENS5_9allocatorIcEEEE, 
                       __ZN18IPTelephonyManager22handleRequestStateDumpERKNSt3__112basic_stringIcNS0_11char_traitsIcEENS0_9allocatorIcEEEES8_, 
                       __ZN18IPTelephonyManager22handleSipTimeoutReportERKNSt3__112basic_stringIcNS0_11char_traitsIcEENS0_9allocatorIcEEEERKN3ims15IRatTimeoutInfoE, 
                       __ZN18IPTelephonyManager22initializeImpuRankingsEP8SipStackNSt3__112basic_stringIcNS2_11char_traitsIcEENS2_9allocatorIcEEEE, 
                       __ZN18IPTelephonyManager22makeOutgoingUriForPullERKNSt3__112basic_stringIcNS0_11char_traitsIcEENS0_9allocatorIcEEEES8_P6SipUri, 
                       __ZN18IPTelephonyManager22reportCallStatusToIRatERKN3ims14IRatCallStatusE, 
                       __ZN18IPTelephonyManager22reportSipTimeoutToIRatERKN3ims15IRatTimeoutInfoE, 
                       __ZN18IPTelephonyManager22setCallWaitingDisabledERKNSt3__112basic_stringIcNS0_11char_traitsIcEENS0_9allocatorIcEEEEb, 
                       __ZN18IPTelephonyManager23updateAccessBarringInfoERKNSt3__112basic_stringIcNS0_11char_traitsIcEENS0_9allocatorIcEEEEN18BambiAccessBarring4InfoE, 
                       __ZN18IPTelephonyManager24handleClientStatusChangeERKNSt3__112basic_stringIcNS0_11char_traitsIcEENS0_9allocatorIcEEEE17BambiClientStatus, 
                       __ZN18IPTelephonyManager24handleConnectivityChangeERKNSt3__112basic_stringIcNS0_11char_traitsIcEENS0_9allocatorIcEEEEb, 
                       __ZN18IPTelephonyManager24handleThumperAuthFailureERKNSt3__112basic_stringIcNS0_11char_traitsIcEENS0_9allocatorIcEEEEb, 
                       __ZN18IPTelephonyManager25handleDigestAuthChallengeEP11BambiClientRK22SipDigestAuthChallengeRKNSt3__112basic_stringIcNS5_11char_traitsIcEENS5_9allocatorIcEEEE, 
                       __ZN18IPTelephonyManager25handleRequestNetworkResetERKNSt3__112basic_stringIcNS0_11char_traitsIcEENS0_9allocatorIcEEEE, 
                       __ZN18IPTelephonyManager25updatePolicyInterfaceListERKNSt3__112basic_stringIcNS0_11char_traitsIcEENS0_9allocatorIcEEEE, 
                       __ZN18IPTelephonyManager26handleEmergencyStateExitedERKNSt3__112basic_stringIcNS0_11char_traitsIcEENS0_9allocatorIcEEEE, 
                       __ZN18IPTelephonyManager28handleUssdSessionInvalidatedEP16BambiUssdSession, 
                       __ZN18IPTelephonyManager29handleRequestCallWaitingStateEv, 
                       __ZN18IPTelephonyManager29initializeForSimlessEmergencyERKNSt3__112basic_stringIcNS0_11char_traitsIcEENS0_9allocatorIcEEEEPK14__CFDictionarySB_, 
                       __ZN18IPTelephonyManager29initiateLimitedAccessRegisterERKNSt3__112basic_stringIcNS0_11char_traitsIcEENS0_9allocatorIcEEEEjS8_RKNS0_6vectorIS6_NS4_IS6_EEEE, 
                       __ZN18IPTelephonyManager32handleEmergencyRegistrationErrorERK32SipRegistrationErrorNotification, 
                       __ZN18IPTelephonyManager33handleEmergencyRegistrationActiveERK33SipRegistrationActiveNotification, 
                       __ZN18IPTelephonyManager34handleTransportInitializedForStackEP8SipStack, 
                       __ZN18IPTelephonyManager7setMuteERKNSt3__112basic_stringIcNS0_11char_traitsIcEENS0_9allocatorIcEEEEb, 
                       __ZN18IPTelephonyManager9dumpStateERKNSt3__112basic_stringIcNS0_11char_traitsIcEENS0_9allocatorIcEEEES8_, 
                       __ZN18IPTelephonyManagerC1Ev, __ZN18IPTelephonyManagerC2Ev, 
                       __ZN18IPTelephonyManagerD0Ev, __ZN18IPTelephonyManagerD1Ev, 
                       __ZN18IPTelephonyManagerD2Ev, __ZN19CapSuppServicesInfo11CallBarring11deserializeEPK14__CFDictionary, 
                       __ZN19CapSuppServicesInfo11CallBarring4Rule11deserializeEPK14__CFDictionary, 
                       __ZN19CapSuppServicesInfo11CallForward11deserializeEPK14__CFDictionary, 
                       __ZN19CapSuppServicesInfo11CallForward4Rule11deserializeEPK14__CFDictionary, 
                       __ZN19CapSuppServicesInfo11CallWaiting11deserializeEPK14__CFDictionary, 
                       __ZN19CapSuppServicesInfo11deserializeEPK14__CFDictionary, 
                       __ZN19CapSuppServicesInfo19CallerIdRestriction11deserializeEPK14__CFDictionary, 
                       __ZN19CapSuppServicesInfo20CallerIdPresentation11deserializeEPK14__CFDictionary, 
                       __ZN19CapSuppServicesInfo6Result11deserializeEPK14__CFDictionary, 
                       __ZN19CapSuppServicesInfoC1Ev, __ZN19CapSuppServicesInfoC2Ev, 
                       __ZN19CapSuppServicesInfoD1Ev, __ZN19CapSuppServicesInfoD2Ev, 
                       __ZN3ims10CallHandle12setRelayCallEb, __ZN3ims10CallHandle17setCallIdBlockingEbb, 
                       __ZN3ims10CallHandle23setTextMediaSessionModeENS_20TextMediaSessionModeE, 
                       __ZN3ims10CallHandleC1ERKNSt3__112basic_stringIcNS1_11char_traitsIcEENS1_9allocatorIcEEEES9_, 
                       __ZN3ims10CallHandleC2ERKNSt3__112basic_stringIcNS1_11char_traitsIcEENS1_9allocatorIcEEEES9_, 
                       __ZN3ims10CallHandleD0Ev, __ZN3ims10CallHandleD1Ev, __ZN3ims10CallHandleD2Ev, 
                       __ZN3ims10kIMSConfigE, __ZN3ims10kIMSRegMCCE, __ZN3ims10kIMSRegMDNE, 
                       __ZN3ims10kIMSRegMNCE, __ZN3ims11DeviceEvent12nameForEventENS0_9EventTypeE, 
                       __ZN3ims11DeviceEvent13eventWithNameERKNSt3__112basic_stringIcNS1_11char_traitsIcEENS1_9allocatorIcEEEE, 
                       __ZN3ims11kIMSRegIMSIE, __ZN3ims12ClientHandle10qosRevokedEj, 
                       __ZN3ims12ClientHandle11setTextModeENS_20TextMediaSessionModeEb, 
                       __ZN3ims12ClientHandle15addXcapDelegateERKNSt3__112basic_stringIcNS1_11char_traitsIcEENS1_9allocatorIcEEEENS1_10shared_ptrINS_17XcapEventDelegateEEEP16dispatch_queue_s, 
                       __ZN3ims12ClientHandle15setXcapDelegateEPNS_17XcapEventDelegateE, 
                       __ZN3ims12ClientHandle16addStackDelegateERKNSt3__112basic_stringIcNS1_11char_traitsIcEENS1_9allocatorIcEEEENS1_10shared_ptrINS_18StackEventDelegateEEEP16dispatch_queue_s, 
                       __ZN3ims12ClientHandle16setStackDelegateEPNS_18StackEventDelegateE, 
                       __ZN3ims12ClientHandle18addMessageDelegateERKNSt3__112basic_stringIcNS1_11char_traitsIcEENS1_9allocatorIcEEEENS1_10shared_ptrINS_20MessageEventDelegateEEEP16dispatch_queue_s, 
                       __ZN3ims12ClientHandle18removeXcapDelegateERKNSt3__112basic_stringIcNS1_11char_traitsIcEENS1_9allocatorIcEEEE, 
                       __ZN3ims12ClientHandle18setMessageDelegateEPNS_20MessageEventDelegateE, 
                       __ZN3ims12ClientHandle19removeStackDelegateERKNSt3__112basic_stringIcNS1_11char_traitsIcEENS1_9allocatorIcEEEE, 
                       __ZN3ims12ClientHandle21authChallengeResponseERKNS_21AuthChallengeResponseE, 
                       __ZN3ims12ClientHandle21removeMessageDelegateERKNSt3__112basic_stringIcNS1_11char_traitsIcEENS1_9allocatorIcEEEE, 
                       __ZN3ims12ClientHandle22addCallManagerDelegateERKNSt3__112basic_stringIcNS1_11char_traitsIcEENS1_9allocatorIcEEEENS1_10shared_ptrINS_24CallManagerEventDelegateEEEP16dispatch_queue_s, 
                       __ZN3ims12ClientHandle22addDefaultCallDelegateERKNSt3__112basic_stringIcNS1_11char_traitsIcEENS1_9allocatorIcEEEENS1_10shared_ptrINS_17CallEventDelegateEEEP16dispatch_queue_s, 
                       __ZN3ims12ClientHandle22setCallManagerDelegateEPNS_24CallManagerEventDelegateE, 
                       __ZN3ims12ClientHandle22setDefaultCallDelegateEPNS_17CallEventDelegateE, 
                       __ZN3ims12ClientHandle23qosEstablishedForBearerEjbRKNSt3__16vectorItNS1_9allocatorItEEEE, 
                       __ZN3ims12ClientHandle24sendSuppServicesProvInfoEPK14__CFDictionary, 
                       __ZN3ims12ClientHandle25removeCallManagerDelegateERKNSt3__112basic_stringIcNS1_11char_traitsIcEENS1_9allocatorIcEEEE, 
                       __ZN3ims12ClientHandle25removeDefaultCallDelegateERKNSt3__112basic_stringIcNS1_11char_traitsIcEENS1_9allocatorIcEEEE, 
                       __ZN3ims12ClientHandle26sendSuppServicesConfigInfoEPK14__CFDictionaryS3_, 
                       __ZN3ims12ClientHandleD0Ev, __ZN3ims12ClientHandleD1Ev, __ZN3ims12ClientHandleD2Ev, 
                       __ZN3ims13AccessNetwork19kAccessType_3GPP_NRE, __ZN3ims13AccessNetwork20kAccessType_3GPP2_1XE, 
                       __ZN3ims13AccessNetwork20kAccessType_IEEE_802E, __ZN3ims13AccessNetwork22kAccessType_3GPP_GERANE, 
                       __ZN3ims13AccessNetwork23kAccessType_3GPP2_EHRPDE, __ZN3ims13AccessNetwork23kAccessType_3GPP_NR_FDDE, 
                       __ZN3ims13AccessNetwork23kAccessType_3GPP_NR_TDDE, __ZN3ims13AccessNetwork24kAccessType_3GPP_E_UTRANE, 
                       __ZN3ims13AccessNetwork25kAccessType_3GPP2_1X_HRPDE, __ZN3ims13AccessNetwork25kAccessType_3GPP_NR_U_FDDE, 
                       __ZN3ims13AccessNetwork25kAccessType_3GPP_NR_U_TDDE, __ZN3ims13AccessNetwork26kAccessType_3GPP_UTRAN_FDDE, 
                       __ZN3ims13AccessNetwork26kAccessType_3GPP_UTRAN_TDDE, __ZN3ims13AccessNetwork28kAccessType_3GPP_E_UTRAN_FDDE, 
                       __ZN3ims13AccessNetwork28kAccessType_3GPP_E_UTRAN_TDDE, __ZN3ims13AccessNetwork3setERKNSt3__112basic_stringIcNS1_11char_traitsIcEENS1_9allocatorIcEEEES9_, 
                       __ZN3ims13AccessNetwork3setERKS0_, __ZN3ims13EmergencyCall4dialERKNSt3__112basic_stringIcNS1_11char_traitsIcEENS1_9allocatorIcEEEES9_RKNS_10CallConfigERKNS_11StackConfigE, 
                       __ZN3ims13EmergencyCallC1ERKNSt3__112basic_stringIcNS1_11char_traitsIcEENS1_9allocatorIcEEEE, 
                       __ZN3ims13EmergencyCallC2ERKNSt3__112basic_stringIcNS1_11char_traitsIcEENS1_9allocatorIcEEEE, 
                       __ZN3ims13kIMSRegIsHomeE, __ZN3ims15CreateNewClientEP16dispatch_queue_s, 
                       __ZN3ims15EmergencyClient18exitEmergencyStateEv, __ZN3ims15EmergencyClientC1Ev, 
                       __ZN3ims15EmergencyClientC2Ev, __ZN3ims15kIMSRegDeviceIDE, 
                       __ZN3ims15kIMSRegSimFilesE, __ZN3ims15kIMSRegSipErrorE, __ZN3ims16kIMSRegCarrierIDE, 
                       __ZN3ims16kIMSRegDeviceSVNE, __ZN3ims16kIMSRegIsRoamingE, 
                       __ZN3ims17kIMSRegRetryAfterE, __ZN3ims18kIMSRegDeviceRefIDE, 
                       __ZN3ims18kIMSRegIsimPresentE, __ZN3ims19kIMSRegNetworkAwareE, 
                       __ZN3ims19kIMSRegServicesMaskE, __ZN3ims20kIMSRegApplicationIDE, 
                       __ZN3ims20kIMSRegFailureReasonE, __ZN3ims20kIMSRegIMSInterfacesE, 
                       __ZN3ims20kIMSRegTransportModeE, __ZN3ims21AuthChallengeResponse11DeserializeEPK14__CFDictionary, 
                       __ZN3ims21CreateEmergencyClientEP16dispatch_queue_s, __ZN3ims21kIMSRegDigestPasswordE, 
                       __ZN3ims21kIMSRegDigestUsernameE, __ZN3ims21kIMSRegIsVoLTEEnabledE, 
                       __ZN3ims22kIMSRegIsPrimaryDeviceE, __ZN3ims22kIMSRegLocalDeregisterE, 
                       __ZN3ims23kIMSRegIsLimitedServiceE, __ZN3ims23kIMSRegNetworkInterfaceE, 
                       __ZN3ims23kIMSRegTransportModeLTEE, __ZN3ims24kIMSRegAccessNetworkInfoE, 
                       __ZN3ims24kIMSRegAccessNetworkTypeE, __ZN3ims24kIMSRegIMSIBasedIdentityE, 
                       __ZN3ims24kIMSRegTransportModeWifiE, __ZN3ims25kIMSDeviceEventAudioReadyE, 
                       __ZN3ims26kIMSDeviceEventSimInsertedE, __ZN3ims26kIMSRegSecondaryInterfacesE, 
                       __ZN3ims26kIMSSuppServicesProvActionE, __ZN3ims26kIMSSuppServicesProvResultE, 
                       __ZN3ims27kIMSCampedAccessNetworkInfoE, __ZN3ims27kIMSCampedAccessNetworkTypeE, 
                       __ZN3ims27kIMSRegCountryOfOriginationE, __ZN3ims27kIMSSuppServicesProvMsgTypeE, 
                       __ZN3ims28kIMSNetworkEventSRVCCStartedE, __ZN3ims28kIMSRegForEmergencyCallOnSOSE, 
                       __ZN3ims28kIMSRegLastAccessNetworkInfoE, __ZN3ims28kIMSRegLastAccessNetworkTypeE, 
                       __ZN3ims31kIMSSuppServicesProvServiceTypeE, __ZN3ims32kIMSSuppServicesProvResultReasonE, 
                       __ZN3ims33kIMSRegLastAccessNetworkTimestampE, __ZN3ims33kIMSSuppServicesProvResultSuccessE, 
                       __ZN3ims33kIMSSuppServicesProvServiceEnableE, __ZN3ims34kIMSDeviceEventAirplaneModeToggledE, 
                       __ZN3ims34kIMSSuppServicesProvServiceTypeOIPE, __ZN3ims34kIMSSuppServicesProvServiceTypeOIRE, 
                       __ZN3ims36kIMSSuppServicesProvCallBarringAllowE, __ZN3ims36kIMSSuppServicesProvCallBarringRulesE, 
                       __ZN3ims36kIMSSuppServicesProvCallForwardRulesE, __ZN3ims37kIMSSuppServicesProvCallForwardReasonE, 
                       __ZN3ims37kIMSSuppServicesProvResultFailureTypeE, __ZN3ims38kIMSSuppServicesProvOIRDefaultBehaviorE, 
                       __ZN3ims39kIMSSuppServicesProvCallBarringActivateE, __ZN3ims39kIMSSuppServicesProvCallBarringFacilityE, 
                       __ZN3ims39kIMSSuppServicesProvCallForwardActivateE, __ZN3ims3aka11AuthSuccess11DeserializeERKNS0_4ModeEPK14__CFDictionary, 
                       __ZN3ims3aka15AuthSyncFailure11DeserializeEPK14__CFDictionary, 
                       __ZN3ims3aka7Request11DeserializeEPK14__CFDictionary, __ZN3ims3aka8Response11DeserializeEPK14__CFDictionary, 
                       __ZN3ims3aka8asStringENS0_10ResultTypeE, __ZN3ims3aka8asStringENS0_4ModeE, 
                       __ZN3ims3aka8asStringENS0_7ContextE, __ZN3ims41kIMSSuppServicesProvCallForwardRuleActionE, 
                       __ZN3ims42kIMSSuppServicesProvCallForwardPhoneNumberE, __ZN3ims42kIMSSuppServicesProvServiceTypeCallBarringE, 
                       __ZN3ims42kIMSSuppServicesProvServiceTypeCallForwardE, __ZN3ims42kIMSSuppServicesProvServiceTypeCallWaitingE, 
                       __ZN3ims43kIMSSuppServicesProvCallForwardNoReplyTimerE, __ZN3ims4Call4dialERKNSt3__112basic_stringIcNS1_11char_traitsIcEENS1_9allocatorIcEEEERKNS_10CallConfigES9_, 
                       __ZN3ims4Call4pullERKNSt3__112basic_stringIcNS1_11char_traitsIcEENS1_9allocatorIcEEEERKNS_10CallConfigE, 
                       __ZN3ims4CallC1ERKNSt3__112basic_stringIcNS1_11char_traitsIcEENS1_9allocatorIcEEEEPNS_12ClientHandleE, 
                       __ZN3ims4CallC1ERKNSt3__112basic_stringIcNS1_11char_traitsIcEENS1_9allocatorIcEEEES9_, 
                       __ZN3ims4CallC2ERKNSt3__112basic_stringIcNS1_11char_traitsIcEENS1_9allocatorIcEEEEPNS_12ClientHandleE, 
                       __ZN3ims4CallC2ERKNSt3__112basic_stringIcNS1_11char_traitsIcEENS1_9allocatorIcEEEES9_, 
                       __ZN3ims6Client10initializeERKNS_11StackConfigE, __ZN3ims6Client10initializeERKNSt3__112basic_stringIcNS1_11char_traitsIcEENS1_9allocatorIcEEEERKNS_11StackConfigE, 
                       __ZN3ims6Client12deinitializeEb, __ZN3ims6Client17setThumperEnabledEb, 
                       __ZN3ims6Client20updateSimAccessClassERKj, __ZN3ims6Client21updateNetworkServicesERKNS_15NetworkServicesE, 
                       __ZN3ims6Client23initializeLimitedAccessERKNS_13NetworkConfigE, 
                       __ZN3ims6ClientC1Ev, __ZN3ims6ClientC2Ev, __ZN3ims6ClientD0Ev, 
                       __ZN3ims6ClientD1Ev, __ZN3ims6ClientD2Ev, __ZN3ims8Services12namesForMaskEj, 
                       __ZN3ims8Services14nameForServiceENS0_11ServiceTypeE, __ZN3ims8Services15serviceWithNameERKNSt3__112basic_stringIcNS1_11char_traitsIcEENS1_9allocatorIcEEEE, 
                       __ZN3ims8asStringENS_11ServiceTypeE, __ZN3ims9IsimFiles11DeserializeEPK14__CFDictionary, 
                       __ZN3imslsER12ImsOutStreamRKNS_13AccessNetworkE, __ZNK11IMSCallInfo10isAlertingEv, 
                       __ZNK11IMSCallInfo11isEmergencyEv, __ZNK11IMSCallInfo12isMultiPartyEv, 
                       __ZNK11IMSCallInfo8isActiveEv, __ZNK14IMSCallManager13getActiveCallEv, 
                       __ZNK14IMSCallManager14getDialingCallERKNSt3__112basic_stringIcNS0_11char_traitsIcEENS0_9allocatorIcEEEE, 
                       __ZNK14IMSCallManager20getInfoForActiveCallEv, __ZNK14IMSCallManager24getInfoForBasebandCallIdEj, 
                       __ZNK14IMSXcapManager11printConfigER12ImsOutStreamP17XcapCarrierHandle, 
                       __ZNK14IMSXcapManager13_notifyClientEN3ctu2cf11CFSharedRefIK14__CFDictionaryEERKNSt3__112basic_stringIcNS6_11char_traitsIcEENS6_9allocatorIcEEEE, 
                       __ZNK14IMSXcapManager22_toInternalCBConditionEN19CapSuppServicesInfo11CallBarring4Rule8FacilityE, 
                       __ZNK14IMSXcapManager23_defaultXcapImpuRankingEv, __ZNK14IMSXcapManager24_fromInternalCBConditionENSt3__14pairIN23XcapDocumentCallBarring9DirectionEN15XcapCBCondition9ConditionEEE, 
                       __ZNK14IMSXcapManager24_toInternalCDIVConditionEN19CapSuppServicesInfo11CallForward4Rule6ReasonE, 
                       __ZNK14IMSXcapManager26_fromInternalCDIVConditionEN15XcapCDCondition9ConditionE, 
                       __ZNK14IMSXcapManager27_sendGenericFailureResponseEN19CapSuppServicesInfo6ActionENS0_11ServiceTypeERKNSt3__112basic_stringIcNS3_11char_traitsIcEENS3_9allocatorIcEEEE, 
                       __ZNK16IMSClientManager17getClientForStackERKNSt3__112basic_stringIcNS0_11char_traitsIcEENS0_9allocatorIcEEEE, 
                       __ZNK16IMSClientManager5queueEv, __ZNK19CapSuppServicesInfo11CallBarring4Rule9serializeEv, 
                       __ZNK19CapSuppServicesInfo11CallBarring9serializeEv, __ZNK19CapSuppServicesInfo11CallForward4Rule9serializeEv, 
                       __ZNK19CapSuppServicesInfo11CallForward9serializeEv, __ZNK19CapSuppServicesInfo11CallWaiting9serializeEv, 
                       __ZNK19CapSuppServicesInfo19CallerIdRestriction9serializeEv, 
                       __ZNK19CapSuppServicesInfo20CallerIdPresentation9serializeEv, 
                       __ZNK19CapSuppServicesInfo6Result19asStringFailureTypeEv, 
                       __ZNK19CapSuppServicesInfo6Result8asStringEv, __ZNK19CapSuppServicesInfo6Result9serializeEv, 
                       __ZNK19CapSuppServicesInfo9serializeEv, __ZNK3ims10CallHandle6answerERKNSt3__112basic_stringIcNS1_11char_traitsIcEENS1_9allocatorIcEEEE, 
                       __ZNK3ims10CallHandle6hangupERKNS_13CallEndReasonE, __ZNK3ims10CallHandle8playDtmfERKNSt3__16vectorIhNS1_9allocatorIhEEEE, 
                       __ZNK3ims10CallHandle8playDtmfEh, __ZNK3ims10CallHandle8stopDtmfEv, 
                       __ZNK3ims12ClientHandle13setCapabilityERKNS_12CapabilitiesEb, 
                       __ZNK3ims12ClientHandle14qosEstablishedERKNSt3__16vectorIjNS1_9allocatorIjEEEE, 
                       __ZNK3ims12ClientHandle17reportDeviceEventERKj, __ZNK3ims12ClientHandle27reportConnectivityAvailableEb, 
                       __ZNK3ims12ClientHandle7setMuteEb, __ZNK3ims12ClientHandle9dumpStateERKNSt3__112basic_stringIcNS1_11char_traitsIcEENS1_9allocatorIcEEEES9_, 
                       __ZNK3ims13AccessNetwork4isNREv, __ZNK3ims13AccessNetwork5isFDDEv, 
                       __ZNK3ims13AccessNetwork5isGSMEv, __ZNK3ims13AccessNetwork5isIMSEv, 
                       __ZNK3ims13AccessNetwork5isLTEEv, __ZNK3ims13AccessNetwork5isTDDEv, 
                       __ZNK3ims13AccessNetwork6isUMTSEv, __ZNK3ims13AccessNetwork6isWifiEv, 
                       __ZNK3ims13AccessNetwork7is3GPP2Ev, __ZNK3ims13AccessNetwork7isEHRPDEv, 
                       __ZNK3ims14AccessNetworks19isIwlanOverCellularEv, __ZNK3ims14AccessNetworks3logER12ImsOutStreami, 
                       __ZNK3ims14AccessNetworks8cellularEv, __ZNK3ims21AuthChallengeResponse9SerializeEv, 
                       __ZNK3ims3aka11AuthSuccess7isValidERKNS0_4ModeE, __ZNK3ims3aka11AuthSuccess9SerializeERKNS0_4ModeE, 
                       __ZNK3ims3aka15AuthSyncFailure7isValidEv, __ZNK3ims3aka15AuthSyncFailure9SerializeEv, 
                       __ZNK3ims3aka7Request7isValidEv, __ZNK3ims3aka7Request9SerializeEv, 
                       __ZNK3ims3aka8Response9SerializeEv, __ZNK3ims4Call4holdEv, 
                       __ZNK3ims4Call4ringEv, __ZNK3ims4Call6resumeEv, __ZNK3ims4Call7refreshEb, 
                       __ZNK3ims6Client10cancelUssdEv, __ZNK3ims6Client13mergeAllCallsEv, 
                       __ZNK3ims6Client17endConferenceCallEv, __ZNK3ims6Client7sendSMSERKNSt3__112basic_stringIcNS1_11char_traitsIcEENS1_9allocatorIcEEEES9_RKNS1_6vectorIhNS5_IhEEEES9_b, 
                       __ZNK3ims6Client8sendUssdERKNSt3__112basic_stringIcNS1_11char_traitsIcEENS1_9allocatorIcEEEE, 
                       __ZNK3ims9IsimFiles7isValidEv, __ZNK3ims9IsimFiles9SerializeEv, 
                       __ZTI11IMSCallInfo, __ZTI13IMSSMSManager, __ZTI14IMSCallManager, 
                       __ZTI14IMSXcapManager, __ZTI16IMSClientManager, __ZTI18IMSWrapperDelegate, 
                       __ZTI18IPTelephonyManager, __ZTIN19CapSuppServicesInfo11CallBarringE, 
                       __ZTIN19CapSuppServicesInfo11CallForwardE, __ZTIN19CapSuppServicesInfo11CallWaitingE, 
                       __ZTIN19CapSuppServicesInfo19CallerIdRestrictionE, __ZTIN19CapSuppServicesInfo20CallerIdPresentationE, 
                       __ZTIN3ims10CallHandleE, __ZTIN3ims12ClientHandleE, __ZTIN3ims13EmergencyCallE, 
                       __ZTIN3ims15EmergencyClientE, __ZTIN3ims3aka8ResponseE, __ZTIN3ims4CallE, 
                       __ZTIN3ims6ClientE, __ZTS11IMSCallInfo, __ZTS13IMSSMSManager, 
                       __ZTS14IMSCallManager, __ZTS14IMSXcapManager, __ZTS16IMSClientManager, 
                       __ZTS18IMSWrapperDelegate, __ZTS18IPTelephonyManager, __ZTSN19CapSuppServicesInfo11CallBarringE, 
                       __ZTSN19CapSuppServicesInfo11CallForwardE, __ZTSN19CapSuppServicesInfo11CallWaitingE, 
                       __ZTSN19CapSuppServicesInfo19CallerIdRestrictionE, __ZTSN19CapSuppServicesInfo20CallerIdPresentationE, 
                       __ZTSN3ims10CallHandleE, __ZTSN3ims12ClientHandleE, __ZTSN3ims13EmergencyCallE, 
                       __ZTSN3ims15EmergencyClientE, __ZTSN3ims3aka8ResponseE, __ZTSN3ims4CallE, 
                       __ZTSN3ims6ClientE, __ZTV11IMSCallInfo, __ZTV13IMSSMSManager, 
                       __ZTV14IMSCallManager, __ZTV14IMSXcapManager, __ZTV16IMSClientManager, 
                       __ZTV18IMSWrapperDelegate, __ZTV18IPTelephonyManager, __ZTVN19CapSuppServicesInfo11CallBarringE, 
                       __ZTVN19CapSuppServicesInfo11CallForwardE, __ZTVN19CapSuppServicesInfo11CallWaitingE, 
                       __ZTVN19CapSuppServicesInfo19CallerIdRestrictionE, __ZTVN19CapSuppServicesInfo20CallerIdPresentationE, 
                       __ZTVN3ims10CallHandleE, __ZTVN3ims12ClientHandleE, __ZTVN3ims13EmergencyCallE, 
                       __ZTVN3ims15EmergencyClientE, __ZTVN3ims3aka8ResponseE, __ZTVN3ims4CallE, 
                       __ZTVN3ims6ClientE, __ZThn104_N18IPTelephonyManager20nasSystemInitializedERKNSt3__112basic_stringIcNS0_11char_traitsIcEENS0_9allocatorIcEEEE, 
                       __ZThn104_N18IPTelephonyManager20updateUacBarringInfoERKNSt3__112basic_stringIcNS0_11char_traitsIcEENS0_9allocatorIcEEEE17UacAccessResponseN18BambiAccessBarring4InfoEb, 
                       __ZThn104_N18IPTelephonyManager23updateAccessBarringInfoERKNSt3__112basic_stringIcNS0_11char_traitsIcEENS0_9allocatorIcEEEEN18BambiAccessBarring4InfoE, 
                       __ZThn16_N11IMSCallInfo16logIncomingPrackERK10SipRequestPK9BambiCall, 
                       __ZThn16_N11IMSCallInfo16logPrackResponseERK11SipResponsePK9BambiCall, 
                       __ZThn16_N11IMSCallInfoD0Ev, __ZThn16_N11IMSCallInfoD1Ev, 
                       __ZThn16_N13IMSSMSManager24initialLocationAvailableERN3ims12LocationInfoE, 
                       __ZThn16_N13IMSSMSManager27initialLocationNotAvailableEv, 
                       __ZThn16_N13IMSSMSManagerD0Ev, __ZThn16_N13IMSSMSManagerD1Ev, 
                       __ZThn16_N14IMSCallManager21handleCallInvalidatedEP9BambiCall, 
                       __ZThn16_N14IMSCallManager21handleConferenceEventEP24BambiCallConferenceEvent, 
                       __ZThn16_N14IMSCallManager26handleMediaActivationEventEP14BambiCallEventb, 
                       __ZThn16_N14IMSCallManager27handleSessionActivatedEventEP14BambiCallEvent, 
                       __ZThn16_N14IMSCallManager27handleSessionConfirmedEventEP30BambiCallSessionConfirmedEvent, 
                       __ZThn16_N14IMSCallManager27handleSessionLocalHeldEventEP14BambiCallEvent, 
                       __ZThn16_N14IMSCallManager28handleSessionHoldFailedEventEP14BambiCallEvent, 
                       __ZThn16_N14IMSCallManager28handleSessionTerminatedEventEP31BambiCallSessionTerminatedEvent, 
                       __ZThn16_N14IMSCallManager30handleInputFrequencyLevelEventEPK9BambiCallPK8__CFData, 
                       __ZThn16_N14IMSCallManager30handleSessionAcknowledgedEventEP14BambiCallEvent, 
                       __ZThn16_N14IMSCallManager30handleSessionResumeFailedEventEP14BambiCallEvent, 
                       __ZThn16_N14IMSCallManager31handleOutputFrequencyLevelEventEPK9BambiCallPK8__CFData, 
                       __ZThn16_N14IMSCallManager36handleSessionActivationAcceptedEventEP14BambiCallEvent, 
                       __ZThn16_N14IMSCallManagerD0Ev, __ZThn16_N14IMSCallManagerD1Ev, 
                       __ZThn16_N18IMSWrapperDelegate14handleUssdDataERKNSt3__112basic_stringIcNS0_11char_traitsIcEENS0_9allocatorIcEEEEb, 
                       __ZThn16_N18IMSWrapperDelegate15handleUssdErrorERKNSt3__112basic_stringIcNS0_11char_traitsIcEENS0_9allocatorIcEEEEj, 
                       __ZThn16_N18IMSWrapperDelegate18handleMergeFailureEv, __ZThn16_N18IMSWrapperDelegate18handleMergeSuccessEv, 
                       __ZThn16_N18IMSWrapperDelegate19handleIncomingEventEPN3ims10CallHandleERKNS0_16CallIncomingInfoE, 
                       __ZThn16_N18IMSWrapperDelegate22handleThumperCallErrorEb, 
                       __ZThn16_N18IMSWrapperDelegate30handleConferenceSubscribeEventEb, 
                       __ZThn16_N18IMSWrapperDelegate30handleEmergencySessionFinishedEv, 
                       __ZThn16_N18IMSWrapperDelegate30handleMediaStackSwitchCompleteEbRKN3ims10MediaStackERKNSt3__112basic_stringIcNS4_11char_traitsIcEENS4_9allocatorIcEEEE, 
                       __ZThn16_N18IPTelephonyManagerD0Ev, __ZThn16_N18IPTelephonyManagerD1Ev, 
                       __ZThn24_N13IMSSMSManager11handleTimerEP17SipTimerContainerRKNSt3__112basic_stringIcNS2_11char_traitsIcEENS2_9allocatorIcEEEE, 
                       __ZThn24_N13IMSSMSManagerD0Ev, __ZThn24_N13IMSSMSManagerD1Ev, 
                       __ZThn24_N14IMSCallManagerD0Ev, __ZThn24_N14IMSCallManagerD1Ev, 
                       __ZThn48_N18IMSWrapperDelegate21handleMessageReceivedERKN3ims11MessageInfoE, 
                       __ZThn48_N18IMSWrapperDelegate24handleMessageSendFailureEb, 
                       __ZThn48_N18IMSWrapperDelegate24handleMessageSendSuccessEv, 
                       __ZThn56_N18IMSWrapperDelegate27handleXcapRequestCompletionEN3ctu2cf11CFSharedRefIK14__CFDictionaryEE, 
                       __ZThn8_N11IMSCallInfo31handleParticipantLeftConferenceEP26BambiConferenceParticipantb, 
                       __ZThn8_N11IMSCallInfoD0Ev, __ZThn8_N11IMSCallInfoD1Ev, __ZThn8_N13IMSSMSManager17handleMessageSentERKNSt3__112basic_stringIcNS0_11char_traitsIcEENS0_9allocatorIcEEEEj, 
                       __ZThn8_N13IMSSMSManager18handleMessageErrorERKNSt3__112basic_stringIcNS0_11char_traitsIcEENS0_9allocatorIcEEEEjRK9ImsResultb, 
                       __ZThn8_N13IMSSMSManager21handleIncomingMessageERKNSt3__112basic_stringIcNS0_11char_traitsIcEENS0_9allocatorIcEEEERK6SipUriS8_PK7SipBody, 
                       __ZThn8_N13IMSSMSManager21handleIncomingMessageERKNSt3__112basic_stringIcNS0_11char_traitsIcEENS0_9allocatorIcEEEERK6SipUriS8_S8_S8_, 
                       __ZThn8_N13IMSSMSManager25handleMessageRequestErrorERKNSt3__112basic_stringIcNS0_11char_traitsIcEENS0_9allocatorIcEEEE, 
                       __ZThn8_N13IMSSMSManager28handleMessageRequestReceivedERKNSt3__112basic_stringIcNS0_11char_traitsIcEENS0_9allocatorIcEEEE, 
                       __ZThn8_N13IMSSMSManagerD0Ev, __ZThn8_N13IMSSMSManagerD1Ev, 
                       __ZThn8_N14IMSCallManager23delegateForIncomingCallEP11BambiClientP9BambiCall, 
                       __ZThn8_N14IMSCallManager27handleBurstDtmfSendCompleteEv, 
                       __ZThn8_N14IMSCallManager30handleMediaStackSwitchCompleteERKNSt3__112basic_stringIcNS0_11char_traitsIcEENS0_9allocatorIcEEEE12RTPStackTypeb, 
                       __ZThn8_N14IMSXcapManager18handleAuthResponseEP15BambiXcapClientRKNSt3__112basic_stringIcNS2_11char_traitsIcEENS2_9allocatorIcEEEERK15SipAuthResponse, 
                       __ZThn8_N14IMSXcapManagerD0Ev, __ZThn8_N14IMSXcapManagerD1Ev, 
                       __ZThn8_N18IMSWrapperDelegate14handlePdnResetEv, __ZThn8_N18IMSWrapperDelegate15handleStateDumpERKNSt3__112basic_stringIcNS0_11char_traitsIcEENS0_9allocatorIcEEEE, 
                       __ZThn8_N18IMSWrapperDelegate17handleClientErrorERKNSt3__112basic_stringIcNS0_11char_traitsIcEENS0_9allocatorIcEEEEj, 
                       __ZThn8_N18IMSWrapperDelegate17handleInitializedEj, __ZThn8_N18IMSWrapperDelegate18handleAuthenticateERKN3ims3aka7RequestE, 
                       __ZThn8_N18IMSWrapperDelegate19handleUninitializedEj, __ZThn8_N18IMSWrapperDelegate23handleRegistrationEventERKN3ims16RegistrationInfoE, 
                       __ZThn8_N18IMSWrapperDelegate24handleRegistrationActiveERKN3ims22RegistrationActiveInfoE, 
                       __ZThn8_N18IMSWrapperDelegate25handleRegistrationAllowedEv, 
                       __ZThn8_N18IMSWrapperDelegate28handleRegistrationIdentitiesERKNSt3__16vectorIN3ims20RegistrationIdentityENS0_9allocatorIS3_EEEE, 
                       __ZThn8_N18IMSWrapperDelegate30handleRegistrationStateChangedERKN3ims17RegistrationStateE, 
                       __ZThn8_N18IPTelephonyManager14handleUssdDataEP16BambiUssdSessionRKNSt3__112basic_stringIcNS2_11char_traitsIcEENS2_9allocatorIcEEEEb, 
                       __ZThn8_N18IPTelephonyManager15handleUssdErrorEP16BambiUssdSessionRKNSt3__112basic_stringIcNS2_11char_traitsIcEENS2_9allocatorIcEEEEj, 
                       __ZThn8_N18IPTelephonyManager20handleLegacyUssdDataEP16BambiUssdSessionRKNSt3__16vectorIhNS2_9allocatorIhEEEEb, 
                       __ZThn8_N18IPTelephonyManager28handleUssdSessionInvalidatedEP16BambiUssdSession, 
                       __ZThn96_N18IPTelephonyManager18handleAuthResponseEP11BambiClientRKNSt3__112basic_stringIcNS2_11char_traitsIcEENS2_9allocatorIcEEEERK15SipAuthResponse, 
                       __ZThn96_N18IPTelephonyManagerD0Ev, __ZThn96_N18IPTelephonyManagerD1Ev, 
                       __ZlsRNSt3__113basic_ostreamIcNS_11char_traitsIcEEEERKN19CapSuppServicesInfo6ResultE, 
                       _gValidContentTypes, _kIMSAudioFrequencyLevel, _kIMSBasebandCallId, 
                       _kIMSCallAudioSourceId, _kIMSCallCallingLineIdRestrictionEnabled, 
                       _kIMSCallCity, _kIMSCallCountry, _kIMSCallDisconnectionIsLocalKey, 
                       _kIMSCallDisconnectionReasonAccessBarring, _kIMSCallDisconnectionReasonAnsweredElsewhere, 
                       _kIMSCallDisconnectionReasonAudioUnit, _kIMSCallDisconnectionReasonBasebandCrash, 
                       _kIMSCallDisconnectionReasonEmergencySessionRequired, _kIMSCallDisconnectionReasonForbidden, 
                       _kIMSCallDisconnectionReasonInviteTimeout, _kIMSCallDisconnectionReasonKey, 
                       _kIMSCallDisconnectionReasonLocalBusy, _kIMSCallDisconnectionReasonLocalSocketError, 
                       _kIMSCallDisconnectionReasonMediaError, _kIMSCallDisconnectionReasonMediaHeartbeatTimeout, 
                       _kIMSCallDisconnectionReasonMediaTimeout, _kIMSCallDisconnectionReasonMediaserverCrash, 
                       _kIMSCallDisconnectionReasonNetworkError, _kIMSCallDisconnectionReasonNoEmergencyCallLocation, 
                       _kIMSCallDisconnectionReasonNormal, _kIMSCallDisconnectionReasonOnEmergencyCall, 
                       _kIMSCallDisconnectionReasonRemoteBusy, _kIMSCallDisconnectionReasonRequiresCSFB, 
                       _kIMSCallDisconnectionReasonSecondaryDeviceAlreadyInUse, _kIMSCallDisconnectionReasonTransferredToOtherDevice, 
                       _kIMSCallDisconnectionReasonUnknownError, _kIMSCallDisconnectionResponseCode, 
                       _kIMSCallEmergencyCategory, _kIMSCallEmergencySessionImsOnly, 
                       _kIMSCallEmergencySessionUrn, _kIMSCallId, _kIMSCallIsEmergency, 
                       _kIMSCallIsShortCode, _kIMSCallLatitude, _kIMSCallLongitude, 
                       _kIMSCallOptionsInternal, _kIMSCallPostalCode, _kIMSCallRTTEnabled, 
                       _kIMSCallRelayEnabled, _kIMSCallState, _kIMSCallStatus, _kIMSCallStatusAcknowledged, 
                       _kIMSCallStatusActive, _kIMSCallStatusConferenceSubscribeFailed, 
                       _kIMSCallStatusConferenceSubscribeSuccess, _kIMSCallStatusDialing, 
                       _kIMSCallStatusDisconnected, _kIMSCallStatusHoldFailed, _kIMSCallStatusInProgress, 
                       _kIMSCallStatusInactive, _kIMSCallStatusIncoming, _kIMSCallStatusJoinedConference, 
                       _kIMSCallStatusMediaActive, _kIMSCallStatusMediaInactive, 
                       _kIMSCallStatusMediaInitialized, _kIMSCallStatusMergeCallsFailed, 
                       _kIMSCallStatusMergedCalls, _kIMSCallStatusPlayLRBT, _kIMSCallStatusPulling, 
                       _kIMSCallStatusResumeFailed, _kIMSCallStatusRinging, _kIMSCallStatusStopLRBT, 
                       _kIMSCallStatusTextMediaDeactivated, _kIMSCallStatusTextMediaDetected, 
                       _kIMSCallStatusTrying, _kIMSCallSubject, _kIMSCallTTYEnabled, 
                       _kIMSCallUuid, _kIMSCodecAMR, _kIMSCodecAMRWB, _kIMSCodecPCMA, 
                       _kIMSCodecPCMU, _kIMSDumpReason, _kIMSExtCallCanPull, _kIMSExtCallDirection, 
                       _kIMSExtCallDuration, _kIMSExtCallId, _kIMSExtCallIsEmergency, 
                       _kIMSExtCallLocal, _kIMSExtCallLocalSD, _kIMSExtCallLocalURI, 
                       _kIMSExtCallOnHold, _kIMSExtCallRemote, _kIMSExtCallRemoteSD, 
                       _kIMSExtCallRemoteURI, _kIMSExtCallState, _kIMSExtCallState_FSM_Confirmed, 
                       _kIMSExtCallState_FSM_Terminated, _kIMSFurtherInfoRequired, 
                       _kIMSIncomingCallerCountryCode, _kIMSIncomingCallerId, _kIMSIncomingCallerIdBlocked, 
                       _kIMSIncomingCallerName, _kIMSIncomingLegacyUSSDData, _kIMSIncomingUSSDData, 
                       _kIMSIncomingUSSDError, _kIMSIsEmergencyMediaManager, _kIMSPreferredMediaStackAP, 
                       _kIMSPreferredMediaStackBaseband, _kIMSPreferredMediaStackKey, 
                       _kIMSQOSInfoPortList, _kIMSTextStreamToken, _kIMSThumperDialogId, 
                       _kIMSVocoderCodec, _kIMSVocoderSampleRate, _shouldSuppressLoggingOfEvent ]
...
