--- !tapi-tbd
tbd-version:     4
targets:         [ x86_64-macos, x86_64-maccatalyst, arm64-macos, arm64-maccatalyst, 
                   arm64e-macos, arm64e-maccatalyst ]
uuids:
  - target:          x86_64-macos
    value:           00784F09-BC27-30FE-8F9B-83C052EEA40C
  - target:          x86_64-maccatalyst
    value:           00784F09-BC27-30FE-8F9B-83C052EEA40C
  - target:          arm64-macos
    value:           00000000-0000-0000-0000-000000000000
  - target:          arm64-maccatalyst
    value:           00000000-0000-0000-0000-000000000000
  - target:          arm64e-macos
    value:           5943FA73-CF64-33A1-9561-F6530304CB98
  - target:          arm64e-maccatalyst
    value:           5943FA73-CF64-33A1-9561-F6530304CB98
install-name:    '/System/Library/PrivateFrameworks/AudioSession.framework/libSessionUtility.dylib'
exports:
  - targets:         [ x86_64-maccatalyst, x86_64-macos ]
    weak-symbols:    [ __ZTINSt3__117bad_function_callE, __ZTISt11logic_error, __ZTISt12length_error, 
                       __ZTISt9exception, __ZTSNSt3__117bad_function_callE, __ZTSSt11logic_error, 
                       __ZTSSt12length_error, __ZTSSt9exception ]
  - targets:         [ x86_64-maccatalyst, x86_64-macos, arm64e-maccatalyst, arm64e-macos, 
                       arm64-macos, arm64-maccatalyst ]
    symbols:         [ __ZN2as12StreamFormat11clearLayoutEv, __ZN2as12StreamFormat13mutableLayoutEv, 
                       __ZN2as12StreamFormat16default_instanceEv, __ZN2as12StreamFormat5clearEv, 
                       __ZN2as12StreamFormat8readFromERN2PB6ReaderE, __ZN2as12StreamFormat9copy_fromERKS0_, 
                       __ZN2as12StreamFormat9move_fromEOS0_, __ZN2as12StreamFormatC1EOS0_, 
                       __ZN2as12StreamFormatC1ERKS0_, __ZN2as12StreamFormatC1Ev, 
                       __ZN2as12StreamFormatC2EOS0_, __ZN2as12StreamFormatC2ERKS0_, 
                       __ZN2as12StreamFormatC2Ev, __ZN2as12StreamFormataSEOS0_, __ZN2as12StreamFormataSERKS0_, 
                       __ZN2as13ChannelLayout15addDescriptionsEv, __ZN2as13ChannelLayout16default_instanceEv, 
                       __ZN2as13ChannelLayout5clearEv, __ZN2as13ChannelLayout8readFromERN2PB6ReaderE, 
                       __ZN2as13ChannelLayout9copy_fromERKS0_, __ZN2as13ChannelLayout9move_fromEOS0_, 
                       __ZN2as13ChannelLayoutC1EOS0_, __ZN2as13ChannelLayoutC1ERKS0_, 
                       __ZN2as13ChannelLayoutC1Ev, __ZN2as13ChannelLayoutC2EOS0_, 
                       __ZN2as13ChannelLayoutC2ERKS0_, __ZN2as13ChannelLayoutC2Ev, 
                       __ZN2as13ChannelLayoutaSEOS0_, __ZN2as13ChannelLayoutaSERKS0_, 
                       __ZN2as14error_category8instanceEv, __ZN2as15AggregateDevice16default_instanceEv, 
                       __ZN2as15AggregateDevice5clearEv, __ZN2as15AggregateDevice8readFromERN2PB6ReaderE, 
                       __ZN2as15AggregateDevice9copy_fromERKS0_, __ZN2as15AggregateDevice9move_fromEOS0_, 
                       __ZN2as15AggregateDeviceC1EOS0_, __ZN2as15AggregateDeviceC1ERKS0_, 
                       __ZN2as15AggregateDeviceC1Ev, __ZN2as15AggregateDeviceC2EOS0_, 
                       __ZN2as15AggregateDeviceC2ERKS0_, __ZN2as15AggregateDeviceC2Ev, 
                       __ZN2as15AggregateDeviceaSEOS0_, __ZN2as15AggregateDeviceaSERKS0_, 
                       __ZN2as15RouteIdentifier16default_instanceEv, __ZN2as15RouteIdentifier19clearCoreIdentifierEv, 
                       __ZN2as15RouteIdentifier21mutableCoreIdentifierEv, __ZN2as15RouteIdentifier5clearEv, 
                       __ZN2as15RouteIdentifier8readFromERN2PB6ReaderE, __ZN2as15RouteIdentifier9copy_fromERKS0_, 
                       __ZN2as15RouteIdentifier9move_fromEOS0_, __ZN2as15RouteIdentifierC1EOS0_, 
                       __ZN2as15RouteIdentifierC1ERKS0_, __ZN2as15RouteIdentifierC1Ev, 
                       __ZN2as15RouteIdentifierC2EOS0_, __ZN2as15RouteIdentifierC2ERKS0_, 
                       __ZN2as15RouteIdentifierC2Ev, __ZN2as15RouteIdentifieraSEOS0_, 
                       __ZN2as15RouteIdentifieraSERKS0_, __ZN2as15SampleRateRange16default_instanceEv, 
                       __ZN2as15SampleRateRange5clearEv, __ZN2as15SampleRateRange8readFromERN2PB6ReaderE, 
                       __ZN2as15SampleRateRange9copy_fromERKS0_, __ZN2as15SampleRateRange9move_fromEOS0_, 
                       __ZN2as15SampleRateRangeC1EOS0_, __ZN2as15SampleRateRangeC1ERKS0_, 
                       __ZN2as15SampleRateRangeC1Ev, __ZN2as15SampleRateRangeC2EOS0_, 
                       __ZN2as15SampleRateRangeC2ERKS0_, __ZN2as15SampleRateRangeC2Ev, 
                       __ZN2as15SampleRateRangeaSEOS0_, __ZN2as15SampleRateRangeaSERKS0_, 
                       __ZN2as17ActivationContext16default_instanceEv, __ZN2as17ActivationContext5clearEv, 
                       __ZN2as17ActivationContext8readFromERN2PB6ReaderE, __ZN2as17ActivationContext9copy_fromERKS0_, 
                       __ZN2as17ActivationContext9move_fromEOS0_, __ZN2as17ActivationContextC1EOS0_, 
                       __ZN2as17ActivationContextC1ERKS0_, __ZN2as17ActivationContextC1Ev, 
                       __ZN2as17ActivationContextC2EOS0_, __ZN2as17ActivationContextC2ERKS0_, 
                       __ZN2as17ActivationContextC2Ev, __ZN2as17ActivationContextaSEOS0_, 
                       __ZN2as17ActivationContextaSERKS0_, __ZN2as18ChannelDescription16default_instanceEv, 
                       __ZN2as18ChannelDescription5clearEv, __ZN2as18ChannelDescription8readFromERN2PB6ReaderE, 
                       __ZN2as18ChannelDescription9copy_fromERKS0_, __ZN2as18ChannelDescription9move_fromEOS0_, 
                       __ZN2as18ChannelDescriptionC1EOS0_, __ZN2as18ChannelDescriptionC1ERKS0_, 
                       __ZN2as18ChannelDescriptionC1Ev, __ZN2as18ChannelDescriptionC2EOS0_, 
                       __ZN2as18ChannelDescriptionC2ERKS0_, __ZN2as18ChannelDescriptionC2Ev, 
                       __ZN2as18ChannelDescriptionaSEOS0_, __ZN2as18ChannelDescriptionaSERKS0_, 
                       __ZN2as19RouteIdentifierCore16default_instanceEv, __ZN2as19RouteIdentifierCore5clearEv, 
                       __ZN2as19RouteIdentifierCore8readFromERN2PB6ReaderE, __ZN2as19RouteIdentifierCore9copy_fromERKS0_, 
                       __ZN2as19RouteIdentifierCore9move_fromEOS0_, __ZN2as19RouteIdentifierCoreC1EOS0_, 
                       __ZN2as19RouteIdentifierCoreC1ERKS0_, __ZN2as19RouteIdentifierCoreC1Ev, 
                       __ZN2as19RouteIdentifierCoreC2EOS0_, __ZN2as19RouteIdentifierCoreC2ERKS0_, 
                       __ZN2as19RouteIdentifierCoreC2Ev, __ZN2as19RouteIdentifierCoreaSEOS0_, 
                       __ZN2as19RouteIdentifierCoreaSERKS0_, __ZN2as21AvailableStreamFormat11clearFormatEv, 
                       __ZN2as21AvailableStreamFormat13mutableFormatEv, __ZN2as21AvailableStreamFormat16default_instanceEv, 
                       __ZN2as21AvailableStreamFormat18addSampleRateRangeEv, __ZN2as21AvailableStreamFormat5clearEv, 
                       __ZN2as21AvailableStreamFormat8readFromERN2PB6ReaderE, __ZN2as21AvailableStreamFormat9copy_fromERKS0_, 
                       __ZN2as21AvailableStreamFormat9move_fromEOS0_, __ZN2as21AvailableStreamFormatC1EOS0_, 
                       __ZN2as21AvailableStreamFormatC1ERKS0_, __ZN2as21AvailableStreamFormatC1Ev, 
                       __ZN2as21AvailableStreamFormatC2EOS0_, __ZN2as21AvailableStreamFormatC2ERKS0_, 
                       __ZN2as21AvailableStreamFormatC2Ev, __ZN2as21AvailableStreamFormataSEOS0_, 
                       __ZN2as21AvailableStreamFormataSERKS0_, __ZN2as21public_error_category8instanceEv, 
                       __ZN2as25smipc_Types_serialization17readAVAudioFormatERKNS_12StreamFormatE, 
                       __ZN2as25smipc_Types_serialization17readChannelLayoutERKNS_13ChannelLayoutERNSt3__110unique_ptrI18AudioChannelLayoutNS4_8functionIFvPS6_EEEEE, 
                       __ZN2as25smipc_Types_serialization18writeAVAudioFormatEP13AVAudioFormatdRNS_12StreamFormatE, 
                       __ZN2as25smipc_Types_serialization18writeChannelLayoutERK18AudioChannelLayoutRNS_13ChannelLayoutE, 
                       __ZN2as25smipc_Types_serialization20writeRouteIdentifierEN4aura15IOTopologyClassENS1_16IOTopologySourceERKN5caulk7xstringERNS_15RouteIdentifierE, 
                       __ZN2as25smipc_Types_serialization22discreteRatesFromRangeERKNS_15SampleRateRangeE, 
                       __ZN2as25smipc_Types_serialization24writeRouteIdentifierCoreEN4aura16IOTopologySourceERKN5caulk7xstringERNS_19RouteIdentifierCoreE, 
                       __ZN2as25smipc_Types_serialization27readAvailableAVAudioFormatsERKNSt3__16vectorINS1_10unique_ptrINS_21AvailableStreamFormatENS1_14default_deleteIS4_EEEENS1_9allocatorIS7_EEEE, 
                       __ZN2as25smipc_Types_serialization8readASBDERKNS_12StreamFormatER27AudioStreamBasicDescriptionRNSt3__110unique_ptrI18AudioChannelLayoutNS6_8functionIFvPS8_EEEEE, 
                       __ZN2as25smipc_Types_serialization9writeASBDERK27AudioStreamBasicDescriptiondRK18AudioChannelLayoutRNS_12StreamFormatE, 
                       __ZN2as26smipc_Server_types_utility18updateDefaultRouteERKNS_15RouteIdentifierERNS_6server19HardwareSystemStateE, 
                       __ZN2as6client11StreamPrefs16default_instanceEv, __ZN2as6client11StreamPrefs17clearStreamFormatEv, 
                       __ZN2as6client11StreamPrefs19mutableStreamFormatEv, __ZN2as6client11StreamPrefs5clearEv, 
                       __ZN2as6client11StreamPrefs8readFromERN2PB6ReaderE, __ZN2as6client11StreamPrefs9copy_fromERKS1_, 
                       __ZN2as6client11StreamPrefs9move_fromEOS1_, __ZN2as6client11StreamPrefsC1EOS1_, 
                       __ZN2as6client11StreamPrefsC1ERKS1_, __ZN2as6client11StreamPrefsC1Ev, 
                       __ZN2as6client11StreamPrefsC2EOS1_, __ZN2as6client11StreamPrefsC2ERKS1_, 
                       __ZN2as6client11StreamPrefsC2Ev, __ZN2as6client11StreamPrefsaSEOS1_, 
                       __ZN2as6client11StreamPrefsaSERKS1_, __ZN2as6client12SessionState12addPortPrefsEv, 
                       __ZN2as6client12SessionState16default_instanceEv, __ZN2as6client12SessionState19clearTurnByTurnPrefEv, 
                       __ZN2as6client12SessionState20addIoControllerPrefsEv, __ZN2as6client12SessionState21mutableTurnByTurnPrefEv, 
                       __ZN2as6client12SessionState22clearActivationContextEv, __ZN2as6client12SessionState24mutableActivationContextEv, 
                       __ZN2as6client12SessionState5clearEv, __ZN2as6client12SessionState8readFromERN2PB6ReaderE, 
                       __ZN2as6client12SessionState9copy_fromERKS1_, __ZN2as6client12SessionState9move_fromEOS1_, 
                       __ZN2as6client12SessionStateC1EOS1_, __ZN2as6client12SessionStateC1ERKS1_, 
                       __ZN2as6client12SessionStateC1Ev, __ZN2as6client12SessionStateC2EOS1_, 
                       __ZN2as6client12SessionStateC2ERKS1_, __ZN2as6client12SessionStateC2Ev, 
                       __ZN2as6client12SessionStateaSEOS1_, __ZN2as6client12SessionStateaSERKS1_, 
                       __ZN2as6client14TurnByTurnPref16default_instanceEv, __ZN2as6client14TurnByTurnPref5clearEv, 
                       __ZN2as6client14TurnByTurnPref8readFromERN2PB6ReaderE, __ZN2as6client14TurnByTurnPref9copy_fromERKS1_, 
                       __ZN2as6client14TurnByTurnPref9move_fromEOS1_, __ZN2as6client14TurnByTurnPrefC1EOS1_, 
                       __ZN2as6client14TurnByTurnPrefC1ERKS1_, __ZN2as6client14TurnByTurnPrefC1Ev, 
                       __ZN2as6client14TurnByTurnPrefC2EOS1_, __ZN2as6client14TurnByTurnPrefC2ERKS1_, 
                       __ZN2as6client14TurnByTurnPrefC2Ev, __ZN2as6client14TurnByTurnPrefaSEOS1_, 
                       __ZN2as6client14TurnByTurnPrefaSERKS1_, __ZN2as6client16PolarPatternPref16default_instanceEv, 
                       __ZN2as6client16PolarPatternPref5clearEv, __ZN2as6client16PolarPatternPref8readFromERN2PB6ReaderE, 
                       __ZN2as6client16PolarPatternPref9copy_fromERKS1_, __ZN2as6client16PolarPatternPref9move_fromEOS1_, 
                       __ZN2as6client16PolarPatternPrefC1EOS1_, __ZN2as6client16PolarPatternPrefC1ERKS1_, 
                       __ZN2as6client16PolarPatternPrefC1Ev, __ZN2as6client16PolarPatternPrefC2EOS1_, 
                       __ZN2as6client16PolarPatternPrefC2ERKS1_, __ZN2as6client16PolarPatternPrefC2Ev, 
                       __ZN2as6client16PolarPatternPrefaSEOS1_, __ZN2as6client16PolarPatternPrefaSERKS1_, 
                       __ZN2as6client17IOControllerPrefs16default_instanceEv, __ZN2as6client17IOControllerPrefs19addInputStreamPrefsEv, 
                       __ZN2as6client17IOControllerPrefs20addOutputStreamPrefsEv, 
                       __ZN2as6client17IOControllerPrefs5clearEv, __ZN2as6client17IOControllerPrefs8readFromERN2PB6ReaderE, 
                       __ZN2as6client17IOControllerPrefs9copy_fromERKS1_, __ZN2as6client17IOControllerPrefs9move_fromEOS1_, 
                       __ZN2as6client17IOControllerPrefsC1EOS1_, __ZN2as6client17IOControllerPrefsC1ERKS1_, 
                       __ZN2as6client17IOControllerPrefsC1Ev, __ZN2as6client17IOControllerPrefsC2EOS1_, 
                       __ZN2as6client17IOControllerPrefsC2ERKS1_, __ZN2as6client17IOControllerPrefsC2Ev, 
                       __ZN2as6client17IOControllerPrefsaSEOS1_, __ZN2as6client17IOControllerPrefsaSERKS1_, 
                       __ZN2as6client9PortPrefs16addPolarPatternsEv, __ZN2as6client9PortPrefs16default_instanceEv, 
                       __ZN2as6client9PortPrefs5clearEv, __ZN2as6client9PortPrefs8readFromERN2PB6ReaderE, 
                       __ZN2as6client9PortPrefs9copy_fromERKS1_, __ZN2as6client9PortPrefs9move_fromEOS1_, 
                       __ZN2as6client9PortPrefsC1EOS1_, __ZN2as6client9PortPrefsC1ERKS1_, 
                       __ZN2as6client9PortPrefsC1Ev, __ZN2as6client9PortPrefsC2EOS1_, 
                       __ZN2as6client9PortPrefsC2ERKS1_, __ZN2as6client9PortPrefsC2Ev, 
                       __ZN2as6client9PortPrefsaSEOS1_, __ZN2as6client9PortPrefsaSERKS1_, 
                       __ZN2as6server11VirtualPort16default_instanceEv, __ZN2as6server11VirtualPort21clearHwPortInvariantsEv, 
                       __ZN2as6server11VirtualPort23mutableHwPortInvariantsEv, __ZN2as6server11VirtualPort34clearActiveMicrophoneConfigurationEv, 
                       __ZN2as6server11VirtualPort36mutableActiveMicrophoneConfigurationEv, 
                       __ZN2as6server11VirtualPort5clearEv, __ZN2as6server11VirtualPort8readFromERN2PB6ReaderE, 
                       __ZN2as6server11VirtualPort9copy_fromERKS1_, __ZN2as6server11VirtualPort9move_fromEOS1_, 
                       __ZN2as6server11VirtualPortC1EOS1_, __ZN2as6server11VirtualPortC1ERKS1_, 
                       __ZN2as6server11VirtualPortC1Ev, __ZN2as6server11VirtualPortC2EOS1_, 
                       __ZN2as6server11VirtualPortC2ERKS1_, __ZN2as6server11VirtualPortC2Ev, 
                       __ZN2as6server11VirtualPortaSEOS1_, __ZN2as6server11VirtualPortaSERKS1_, 
                       __ZN2as6server12ControlValue16default_instanceEv, __ZN2as6server12ControlValue5clearEv, 
                       __ZN2as6server12ControlValue8readFromERN2PB6ReaderE, __ZN2as6server12ControlValue9copy_fromERKS1_, 
                       __ZN2as6server12ControlValue9move_fromEOS1_, __ZN2as6server12ControlValueC1EOS1_, 
                       __ZN2as6server12ControlValueC1ERKS1_, __ZN2as6server12ControlValueC1Ev, 
                       __ZN2as6server12ControlValueC2EOS1_, __ZN2as6server12ControlValueC2ERKS1_, 
                       __ZN2as6server12ControlValueC2Ev, __ZN2as6server12ControlValueaSEOS1_, 
                       __ZN2as6server12ControlValueaSERKS1_, __ZN2as6server12Device_Clock10clearClockEv, 
                       __ZN2as6server12Device_Clock11clearDeviceEv, __ZN2as6server12Device_Clock12mutableClockEv, 
                       __ZN2as6server12Device_Clock13mutableDeviceEv, __ZN2as6server12Device_Clock16default_instanceEv, 
                       __ZN2as6server12Device_Clock5clearEv, __ZN2as6server12Device_Clock8readFromERN2PB6ReaderE, 
                       __ZN2as6server12Device_Clock9copy_fromERKS1_, __ZN2as6server12Device_Clock9move_fromEOS1_, 
                       __ZN2as6server12Device_ClockC1EOS1_, __ZN2as6server12Device_ClockC1ERKS1_, 
                       __ZN2as6server12Device_ClockC1Ev, __ZN2as6server12Device_ClockC2EOS1_, 
                       __ZN2as6server12Device_ClockC2ERKS1_, __ZN2as6server12Device_ClockC2Ev, 
                       __ZN2as6server12Device_ClockaSEOS1_, __ZN2as6server12Device_ClockaSERKS1_, 
                       __ZN2as6server12HardwareInfo16default_instanceEv, __ZN2as6server12HardwareInfo5clearEv, 
                       __ZN2as6server12HardwareInfo8readFromERN2PB6ReaderE, __ZN2as6server12HardwareInfo9copy_fromERKS1_, 
                       __ZN2as6server12HardwareInfo9move_fromEOS1_, __ZN2as6server12HardwareInfoC1EOS1_, 
                       __ZN2as6server12HardwareInfoC1ERKS1_, __ZN2as6server12HardwareInfoC1Ev, 
                       __ZN2as6server12HardwareInfoC2EOS1_, __ZN2as6server12HardwareInfoC2ERKS1_, 
                       __ZN2as6server12HardwareInfoC2Ev, __ZN2as6server12HardwareInfoaSEOS1_, 
                       __ZN2as6server12HardwareInfoaSERKS1_, __ZN2as6server13ChangedObject16default_instanceEv, 
                       __ZN2as6server13ChangedObject18addChangedChildrenEv, __ZN2as6server13ChangedObject18addCreatedChildrenEv, 
                       __ZN2as6server13ChangedObject20addDestroyedChildrenEv, __ZN2as6server13ChangedObject22clearObjectDescriptionEv, 
                       __ZN2as6server13ChangedObject24mutableObjectDescriptionEv, 
                       __ZN2as6server13ChangedObject26addChangedCustomPropertiesEv, 
                       __ZN2as6server13ChangedObject5clearEv, __ZN2as6server13ChangedObject8readFromERN2PB6ReaderE, 
                       __ZN2as6server13ChangedObject9copy_fromERKS1_, __ZN2as6server13ChangedObject9move_fromEOS1_, 
                       __ZN2as6server13ChangedObjectC1EOS1_, __ZN2as6server13ChangedObjectC1ERKS1_, 
                       __ZN2as6server13ChangedObjectC1Ev, __ZN2as6server13ChangedObjectC2EOS1_, 
                       __ZN2as6server13ChangedObjectC2ERKS1_, __ZN2as6server13ChangedObjectC2Ev, 
                       __ZN2as6server13ChangedObjectaSEOS1_, __ZN2as6server13ChangedObjectaSERKS1_, 
                       __ZN2as6server13IOStreamState16default_instanceEv, __ZN2as6server13IOStreamState17clearStreamFormatEv, 
                       __ZN2as6server13IOStreamState19addAvailableFormatsEv, __ZN2as6server13IOStreamState19mutableStreamFormatEv, 
                       __ZN2as6server13IOStreamState5clearEv, __ZN2as6server13IOStreamState8readFromERN2PB6ReaderE, 
                       __ZN2as6server13IOStreamState9copy_fromERKS1_, __ZN2as6server13IOStreamState9move_fromEOS1_, 
                       __ZN2as6server13IOStreamStateC1EOS1_, __ZN2as6server13IOStreamStateC1ERKS1_, 
                       __ZN2as6server13IOStreamStateC1Ev, __ZN2as6server13IOStreamStateC2EOS1_, 
                       __ZN2as6server13IOStreamStateC2ERKS1_, __ZN2as6server13IOStreamStateC2Ev, 
                       __ZN2as6server13IOStreamStateaSEOS1_, __ZN2as6server13IOStreamStateaSERKS1_, 
                       __ZN2as6server14PortInvariants16default_instanceEv, __ZN2as6server14PortInvariants5clearEv, 
                       __ZN2as6server14PortInvariants8readFromERN2PB6ReaderE, __ZN2as6server14PortInvariants9copy_fromERKS1_, 
                       __ZN2as6server14PortInvariants9move_fromEOS1_, __ZN2as6server14PortInvariantsC1EOS1_, 
                       __ZN2as6server14PortInvariantsC1ERKS1_, __ZN2as6server14PortInvariantsC1Ev, 
                       __ZN2as6server14PortInvariantsC2EOS1_, __ZN2as6server14PortInvariantsC2ERKS1_, 
                       __ZN2as6server14PortInvariantsC2Ev, __ZN2as6server14PortInvariantsaSEOS1_, 
                       __ZN2as6server14PortInvariantsaSERKS1_, __ZN2as6server15ControlAndValue10clearValueEv, 
                       __ZN2as6server15ControlAndValue12clearControlEv, __ZN2as6server15ControlAndValue12mutableValueEv, 
                       __ZN2as6server15ControlAndValue14mutableControlEv, __ZN2as6server15ControlAndValue16default_instanceEv, 
                       __ZN2as6server15ControlAndValue5clearEv, __ZN2as6server15ControlAndValue8readFromERN2PB6ReaderE, 
                       __ZN2as6server15ControlAndValue9copy_fromERKS1_, __ZN2as6server15ControlAndValue9move_fromEOS1_, 
                       __ZN2as6server15ControlAndValueC1EOS1_, __ZN2as6server15ControlAndValueC1ERKS1_, 
                       __ZN2as6server15ControlAndValueC1Ev, __ZN2as6server15ControlAndValueC2EOS1_, 
                       __ZN2as6server15ControlAndValueC2ERKS1_, __ZN2as6server15ControlAndValueC2Ev, 
                       __ZN2as6server15ControlAndValueaSEOS1_, __ZN2as6server15ControlAndValueaSERKS1_, 
                       __ZN2as6server15PlatformSupport16default_instanceEv, __ZN2as6server15PlatformSupport5clearEv, 
                       __ZN2as6server15PlatformSupport8readFromERN2PB6ReaderE, __ZN2as6server15PlatformSupport9copy_fromERKS1_, 
                       __ZN2as6server15PlatformSupport9move_fromEOS1_, __ZN2as6server15PlatformSupportC1EOS1_, 
                       __ZN2as6server15PlatformSupportC1ERKS1_, __ZN2as6server15PlatformSupportC1Ev, 
                       __ZN2as6server15PlatformSupportC2EOS1_, __ZN2as6server15PlatformSupportC2ERKS1_, 
                       __ZN2as6server15PlatformSupportC2Ev, __ZN2as6server15PlatformSupportaSEOS1_, 
                       __ZN2as6server15PlatformSupportaSERKS1_, __ZN2as6server15VirtualPortList16default_instanceEv, 
                       __ZN2as6server15VirtualPortList5clearEv, __ZN2as6server15VirtualPortList8addPortsEv, 
                       __ZN2as6server15VirtualPortList8readFromERN2PB6ReaderE, __ZN2as6server15VirtualPortList9copy_fromERKS1_, 
                       __ZN2as6server15VirtualPortList9move_fromEOS1_, __ZN2as6server15VirtualPortListC1EOS1_, 
                       __ZN2as6server15VirtualPortListC1ERKS1_, __ZN2as6server15VirtualPortListC1Ev, 
                       __ZN2as6server15VirtualPortListC2EOS1_, __ZN2as6server15VirtualPortListC2ERKS1_, 
                       __ZN2as6server15VirtualPortListC2Ev, __ZN2as6server15VirtualPortListaSEOS1_, 
                       __ZN2as6server15VirtualPortListaSERKS1_, __ZN2as6server16EligiblePortList16default_instanceEv, 
                       __ZN2as6server16EligiblePortList18clearStandardPortsEv, __ZN2as6server16EligiblePortList19clearDecoupledPortsEv, 
                       __ZN2as6server16EligiblePortList20mutableStandardPortsEv, 
                       __ZN2as6server16EligiblePortList21mutableDecoupledPortsEv, 
                       __ZN2as6server16EligiblePortList5clearEv, __ZN2as6server16EligiblePortList8readFromERN2PB6ReaderE, 
                       __ZN2as6server16EligiblePortList9copy_fromERKS1_, __ZN2as6server16EligiblePortList9move_fromEOS1_, 
                       __ZN2as6server16EligiblePortListC1EOS1_, __ZN2as6server16EligiblePortListC1ERKS1_, 
                       __ZN2as6server16EligiblePortListC1Ev, __ZN2as6server16EligiblePortListC2EOS1_, 
                       __ZN2as6server16EligiblePortListC2ERKS1_, __ZN2as6server16EligiblePortListC2Ev, 
                       __ZN2as6server16EligiblePortListaSEOS1_, __ZN2as6server16EligiblePortListaSERKS1_, 
                       __ZN2as6server16SessionFullState16clearClientStateEv, __ZN2as6server16SessionFullState16clearServerStateEv, 
                       __ZN2as6server16SessionFullState16default_instanceEv, __ZN2as6server16SessionFullState18mutableClientStateEv, 
                       __ZN2as6server16SessionFullState18mutableServerStateEv, __ZN2as6server16SessionFullState5clearEv, 
                       __ZN2as6server16SessionFullState8readFromERN2PB6ReaderE, __ZN2as6server16SessionFullState9copy_fromERKS1_, 
                       __ZN2as6server16SessionFullState9move_fromEOS1_, __ZN2as6server16SessionFullStateC1EOS1_, 
                       __ZN2as6server16SessionFullStateC1ERKS1_, __ZN2as6server16SessionFullStateC1Ev, 
                       __ZN2as6server16SessionFullStateC2EOS1_, __ZN2as6server16SessionFullStateC2ERKS1_, 
                       __ZN2as6server16SessionFullStateC2Ev, __ZN2as6server16SessionFullStateaSEOS1_, 
                       __ZN2as6server16SessionFullStateaSERKS1_, __ZN2as6server16SessionTokenList16default_instanceEv, 
                       __ZN2as6server16SessionTokenList5clearEv, __ZN2as6server16SessionTokenList8readFromERN2PB6ReaderE, 
                       __ZN2as6server16SessionTokenList9copy_fromERKS1_, __ZN2as6server16SessionTokenList9move_fromEOS1_, 
                       __ZN2as6server16SessionTokenListC1EOS1_, __ZN2as6server16SessionTokenListC1ERKS1_, 
                       __ZN2as6server16SessionTokenListC1Ev, __ZN2as6server16SessionTokenListC2EOS1_, 
                       __ZN2as6server16SessionTokenListC2ERKS1_, __ZN2as6server16SessionTokenListC2Ev, 
                       __ZN2as6server16SessionTokenListaSEOS1_, __ZN2as6server16SessionTokenListaSERKS1_, 
                       __ZN2as6server17IOControllerState16default_instanceEv, __ZN2as6server17IOControllerState17addInputIOStreamsEv, 
                       __ZN2as6server17IOControllerState18addOutputIOStreamsEv, __ZN2as6server17IOControllerState23addAvailableSampleRatesEv, 
                       __ZN2as6server17IOControllerState5clearEv, __ZN2as6server17IOControllerState8readFromERN2PB6ReaderE, 
                       __ZN2as6server17IOControllerState9copy_fromERKS1_, __ZN2as6server17IOControllerState9move_fromEOS1_, 
                       __ZN2as6server17IOControllerStateC1EOS1_, __ZN2as6server17IOControllerStateC1ERKS1_, 
                       __ZN2as6server17IOControllerStateC1Ev, __ZN2as6server17IOControllerStateC2EOS1_, 
                       __ZN2as6server17IOControllerStateC2ERKS1_, __ZN2as6server17IOControllerStateC2Ev, 
                       __ZN2as6server17IOControllerStateaSEOS1_, __ZN2as6server17IOControllerStateaSERKS1_, 
                       __ZN2as6server17ObjectDescription10clearClockEv, __ZN2as6server17ObjectDescription10mutableBoxEv, 
                       __ZN2as6server17ObjectDescription11clearDeviceEv, __ZN2as6server17ObjectDescription11clearDriverEv, 
                       __ZN2as6server17ObjectDescription11clearHwPortEv, __ZN2as6server17ObjectDescription12mutableClockEv, 
                       __ZN2as6server17ObjectDescription13clearHwStreamEv, __ZN2as6server17ObjectDescription13clearIoStreamEv, 
                       __ZN2as6server17ObjectDescription13mutableDeviceEv, __ZN2as6server17ObjectDescription13mutableDriverEv, 
                       __ZN2as6server17ObjectDescription13mutableHwPortEv, __ZN2as6server17ObjectDescription15clearControllerEv, 
                       __ZN2as6server17ObjectDescription15mutableHwStreamEv, __ZN2as6server17ObjectDescription15mutableIoStreamEv, 
                       __ZN2as6server17ObjectDescription16clearVirtualPortEv, __ZN2as6server17ObjectDescription16default_instanceEv, 
                       __ZN2as6server17ObjectDescription17mutableControllerEv, __ZN2as6server17ObjectDescription18mutableVirtualPortEv, 
                       __ZN2as6server17ObjectDescription20clearControlAndValueEv, 
                       __ZN2as6server17ObjectDescription22mutableControlAndValueEv, 
                       __ZN2as6server17ObjectDescription5clearEv, __ZN2as6server17ObjectDescription8clearBoxEv, 
                       __ZN2as6server17ObjectDescription8readFromERN2PB6ReaderE, 
                       __ZN2as6server17ObjectDescription9copy_fromERKS1_, __ZN2as6server17ObjectDescription9move_fromEOS1_, 
                       __ZN2as6server17ObjectDescriptionC1EOS1_, __ZN2as6server17ObjectDescriptionC1ERKS1_, 
                       __ZN2as6server17ObjectDescriptionC1Ev, __ZN2as6server17ObjectDescriptionC2EOS1_, 
                       __ZN2as6server17ObjectDescriptionC2ERKS1_, __ZN2as6server17ObjectDescriptionC2Ev, 
                       __ZN2as6server17ObjectDescriptionaSEOS1_, __ZN2as6server17ObjectDescriptionaSERKS1_, 
                       __ZN2as6server18SessionServerState14addControllersEv, __ZN2as6server18SessionServerState16default_instanceEv, 
                       __ZN2as6server18SessionServerState5clearEv, __ZN2as6server18SessionServerState8addPortsEv, 
                       __ZN2as6server18SessionServerState8readFromERN2PB6ReaderE, 
                       __ZN2as6server18SessionServerState9copy_fromERKS1_, __ZN2as6server18SessionServerState9move_fromEOS1_, 
                       __ZN2as6server18SessionServerStateC1EOS1_, __ZN2as6server18SessionServerStateC1ERKS1_, 
                       __ZN2as6server18SessionServerStateC1Ev, __ZN2as6server18SessionServerStateC2EOS1_, 
                       __ZN2as6server18SessionServerStateC2ERKS1_, __ZN2as6server18SessionServerStateC2Ev, 
                       __ZN2as6server18SessionServerStateaSEOS1_, __ZN2as6server18SessionServerStateaSERKS1_, 
                       __ZN2as6server19ConfigChangeSummary16default_instanceEv, __ZN2as6server19ConfigChangeSummary17addSessionChangesEv, 
                       __ZN2as6server19ConfigChangeSummary25clearHardwareSystemChangeEv, 
                       __ZN2as6server19ConfigChangeSummary27mutableHardwareSystemChangeEv, 
                       __ZN2as6server19ConfigChangeSummary5clearEv, __ZN2as6server19ConfigChangeSummary8readFromERN2PB6ReaderE, 
                       __ZN2as6server19ConfigChangeSummary9copy_fromERKS1_, __ZN2as6server19ConfigChangeSummary9move_fromEOS1_, 
                       __ZN2as6server19ConfigChangeSummaryC1EOS1_, __ZN2as6server19ConfigChangeSummaryC1ERKS1_, 
                       __ZN2as6server19ConfigChangeSummaryC1Ev, __ZN2as6server19ConfigChangeSummaryC2EOS1_, 
                       __ZN2as6server19ConfigChangeSummaryC2ERKS1_, __ZN2as6server19ConfigChangeSummaryC2Ev, 
                       __ZN2as6server19ConfigChangeSummaryaSEOS1_, __ZN2as6server19ConfigChangeSummaryaSERKS1_, 
                       __ZN2as6server19HardwareSystemState10addDriversEv, __ZN2as6server19HardwareSystemState16addDefaultRoutesEv, 
                       __ZN2as6server19HardwareSystemState16default_instanceEv, __ZN2as6server19HardwareSystemState5clearEv, 
                       __ZN2as6server19HardwareSystemState8readFromERN2PB6ReaderE, 
                       __ZN2as6server19HardwareSystemState9copy_fromERKS1_, __ZN2as6server19HardwareSystemState9move_fromEOS1_, 
                       __ZN2as6server19HardwareSystemStateC1EOS1_, __ZN2as6server19HardwareSystemStateC1ERKS1_, 
                       __ZN2as6server19HardwareSystemStateC1Ev, __ZN2as6server19HardwareSystemStateC2EOS1_, 
                       __ZN2as6server19HardwareSystemStateC2ERKS1_, __ZN2as6server19HardwareSystemStateC2Ev, 
                       __ZN2as6server19HardwareSystemStateaSEOS1_, __ZN2as6server19HardwareSystemStateaSERKS1_, 
                       __ZN2as6server19SelectorControlItem16default_instanceEv, __ZN2as6server19SelectorControlItem5clearEv, 
                       __ZN2as6server19SelectorControlItem8readFromERN2PB6ReaderE, 
                       __ZN2as6server19SelectorControlItem9copy_fromERKS1_, __ZN2as6server19SelectorControlItem9move_fromEOS1_, 
                       __ZN2as6server19SelectorControlItemC1EOS1_, __ZN2as6server19SelectorControlItemC1ERKS1_, 
                       __ZN2as6server19SelectorControlItemC1Ev, __ZN2as6server19SelectorControlItemC2EOS1_, 
                       __ZN2as6server19SelectorControlItemC2ERKS1_, __ZN2as6server19SelectorControlItemC2Ev, 
                       __ZN2as6server19SelectorControlItemaSEOS1_, __ZN2as6server19SelectorControlItemaSERKS1_, 
                       __ZN2as6server20SessionUpdateSummary16default_instanceEv, 
                       __ZN2as6server20SessionUpdateSummary5clearEv, __ZN2as6server20SessionUpdateSummary8readFromERN2PB6ReaderE, 
                       __ZN2as6server20SessionUpdateSummary9copy_fromERKS1_, __ZN2as6server20SessionUpdateSummary9move_fromEOS1_, 
                       __ZN2as6server20SessionUpdateSummaryC1EOS1_, __ZN2as6server20SessionUpdateSummaryC1ERKS1_, 
                       __ZN2as6server20SessionUpdateSummaryC1Ev, __ZN2as6server20SessionUpdateSummaryC2EOS1_, 
                       __ZN2as6server20SessionUpdateSummaryC2ERKS1_, __ZN2as6server20SessionUpdateSummaryC2Ev, 
                       __ZN2as6server20SessionUpdateSummaryaSEOS1_, __ZN2as6server20SessionUpdateSummaryaSERKS1_, 
                       __ZN2as6server21CustomPropertyAddress16default_instanceEv, 
                       __ZN2as6server21CustomPropertyAddress5clearEv, __ZN2as6server21CustomPropertyAddress8readFromERN2PB6ReaderE, 
                       __ZN2as6server21CustomPropertyAddress9copy_fromERKS1_, __ZN2as6server21CustomPropertyAddress9move_fromEOS1_, 
                       __ZN2as6server21CustomPropertyAddressC1EOS1_, __ZN2as6server21CustomPropertyAddressC1ERKS1_, 
                       __ZN2as6server21CustomPropertyAddressC1Ev, __ZN2as6server21CustomPropertyAddressC2EOS1_, 
                       __ZN2as6server21CustomPropertyAddressC2ERKS1_, __ZN2as6server21CustomPropertyAddressC2Ev, 
                       __ZN2as6server21CustomPropertyAddressaSEOS1_, __ZN2as6server21CustomPropertyAddressaSERKS1_, 
                       __ZN2as6server23MicrophoneConfiguration16default_instanceEv, 
                       __ZN2as6server23MicrophoneConfiguration5clearEv, __ZN2as6server23MicrophoneConfiguration8readFromERN2PB6ReaderE, 
                       __ZN2as6server23MicrophoneConfiguration9copy_fromERKS1_, __ZN2as6server23MicrophoneConfiguration9move_fromEOS1_, 
                       __ZN2as6server23MicrophoneConfigurationC1EOS1_, __ZN2as6server23MicrophoneConfigurationC1ERKS1_, 
                       __ZN2as6server23MicrophoneConfigurationC1Ev, __ZN2as6server23MicrophoneConfigurationC2EOS1_, 
                       __ZN2as6server23MicrophoneConfigurationC2ERKS1_, __ZN2as6server23MicrophoneConfigurationC2Ev, 
                       __ZN2as6server23MicrophoneConfigurationaSEOS1_, __ZN2as6server23MicrophoneConfigurationaSERKS1_, 
                       __ZN2as6server3Box11addControlsEv, __ZN2as6server3Box16default_instanceEv, 
                       __ZN2as6server3Box17clearHardwareInfoEv, __ZN2as6server3Box19mutableHardwareInfoEv, 
                       __ZN2as6server3Box5clearEv, __ZN2as6server3Box8readFromERN2PB6ReaderE, 
                       __ZN2as6server3Box9copy_fromERKS1_, __ZN2as6server3Box9move_fromEOS1_, 
                       __ZN2as6server3BoxC1EOS1_, __ZN2as6server3BoxC1ERKS1_, __ZN2as6server3BoxC1Ev, 
                       __ZN2as6server3BoxC2EOS1_, __ZN2as6server3BoxC2ERKS1_, __ZN2as6server3BoxC2Ev, 
                       __ZN2as6server3BoxaSEOS1_, __ZN2as6server3BoxaSERKS1_, __ZN2as6server4Port15clearInvariantsEv, 
                       __ZN2as6server4Port16default_instanceEv, __ZN2as6server4Port17clearHardwareInfoEv, 
                       __ZN2as6server4Port17mutableInvariantsEv, __ZN2as6server4Port19mutableHardwareInfoEv, 
                       __ZN2as6server4Port5clearEv, __ZN2as6server4Port8readFromERN2PB6ReaderE, 
                       __ZN2as6server4Port9copy_fromERKS1_, __ZN2as6server4Port9move_fromEOS1_, 
                       __ZN2as6server4PortC1EOS1_, __ZN2as6server4PortC1ERKS1_, __ZN2as6server4PortC1Ev, 
                       __ZN2as6server4PortC2EOS1_, __ZN2as6server4PortC2ERKS1_, __ZN2as6server4PortC2Ev, 
                       __ZN2as6server4PortaSEOS1_, __ZN2as6server4PortaSERKS1_, __ZN2as6server5Clock11addControlsEv, 
                       __ZN2as6server5Clock16default_instanceEv, __ZN2as6server5Clock17clearHardwareInfoEv, 
                       __ZN2as6server5Clock19mutableHardwareInfoEv, __ZN2as6server5Clock23addAvailableSampleRatesEv, 
                       __ZN2as6server5Clock5clearEv, __ZN2as6server5Clock8readFromERN2PB6ReaderE, 
                       __ZN2as6server5Clock9copy_fromERKS1_, __ZN2as6server5Clock9move_fromEOS1_, 
                       __ZN2as6server5ClockC1EOS1_, __ZN2as6server5ClockC1ERKS1_, 
                       __ZN2as6server5ClockC1Ev, __ZN2as6server5ClockC2EOS1_, __ZN2as6server5ClockC2ERKS1_, 
                       __ZN2as6server5ClockC2Ev, __ZN2as6server5ClockaSEOS1_, __ZN2as6server5ClockaSERKS1_, 
                       __ZN2as6server6Device13addInputPortsEv, __ZN2as6server6Device14addOutputPortsEv, 
                       __ZN2as6server6Device15addInputStreamsEv, __ZN2as6server6Device16addOutputStreamsEv, 
                       __ZN2as6server6Device16default_instanceEv, __ZN2as6server6Device5clearEv, 
                       __ZN2as6server6Device8readFromERN2PB6ReaderE, __ZN2as6server6Device9copy_fromERKS1_, 
                       __ZN2as6server6Device9move_fromEOS1_, __ZN2as6server6DeviceC1EOS1_, 
                       __ZN2as6server6DeviceC1ERKS1_, __ZN2as6server6DeviceC1Ev, 
                       __ZN2as6server6DeviceC2EOS1_, __ZN2as6server6DeviceC2ERKS1_, 
                       __ZN2as6server6DeviceC2Ev, __ZN2as6server6DeviceaSEOS1_, __ZN2as6server6DeviceaSERKS1_, 
                       __ZN2as6server6Driver10addDevicesEv, __ZN2as6server6Driver16default_instanceEv, 
                       __ZN2as6server6Driver17clearHardwareInfoEv, __ZN2as6server6Driver19mutableHardwareInfoEv, 
                       __ZN2as6server6Driver5clearEv, __ZN2as6server6Driver8addBoxesEv, 
                       __ZN2as6server6Driver8readFromERN2PB6ReaderE, __ZN2as6server6Driver9addClocksEv, 
                       __ZN2as6server6Driver9copy_fromERKS1_, __ZN2as6server6Driver9move_fromEOS1_, 
                       __ZN2as6server6DriverC1EOS1_, __ZN2as6server6DriverC1ERKS1_, 
                       __ZN2as6server6DriverC1Ev, __ZN2as6server6DriverC2EOS1_, __ZN2as6server6DriverC2ERKS1_, 
                       __ZN2as6server6DriverC2Ev, __ZN2as6server6DriveraSEOS1_, __ZN2as6server6DriveraSERKS1_, 
                       __ZN2as6server7Control16default_instanceEv, __ZN2as6server7Control26addSupportedSelectorValuesEv, 
                       __ZN2as6server7Control5clearEv, __ZN2as6server7Control8readFromERN2PB6ReaderE, 
                       __ZN2as6server7Control9copy_fromERKS1_, __ZN2as6server7Control9move_fromEOS1_, 
                       __ZN2as6server7ControlC1EOS1_, __ZN2as6server7ControlC1ERKS1_, 
                       __ZN2as6server7ControlC1Ev, __ZN2as6server7ControlC2EOS1_, 
                       __ZN2as6server7ControlC2ERKS1_, __ZN2as6server7ControlC2Ev, 
                       __ZN2as6server7ControlaSEOS1_, __ZN2as6server7ControlaSERKS1_, 
                       __ZN2as6server8HWStream16default_instanceEv, __ZN2as6server8HWStream17clearHardwareInfoEv, 
                       __ZN2as6server8HWStream17clearPublicFormatEv, __ZN2as6server8HWStream18clearPrivateFormatEv, 
                       __ZN2as6server8HWStream19mutableHardwareInfoEv, __ZN2as6server8HWStream19mutablePublicFormatEv, 
                       __ZN2as6server8HWStream20mutablePrivateFormatEv, __ZN2as6server8HWStream25addAvailablePublicFormatsEv, 
                       __ZN2as6server8HWStream26addAvailablePrivateFormatsEv, __ZN2as6server8HWStream5clearEv, 
                       __ZN2as6server8HWStream8readFromERN2PB6ReaderE, __ZN2as6server8HWStream9copy_fromERKS1_, 
                       __ZN2as6server8HWStream9move_fromEOS1_, __ZN2as6server8HWStreamC1EOS1_, 
                       __ZN2as6server8HWStreamC1ERKS1_, __ZN2as6server8HWStreamC1Ev, 
                       __ZN2as6server8HWStreamC2EOS1_, __ZN2as6server8HWStreamC2ERKS1_, 
                       __ZN2as6server8HWStreamC2Ev, __ZN2as6server8HWStreamaSEOS1_, 
                       __ZN2as6server8HWStreamaSERKS1_, __ZNK2as12StreamFormat10formatTextERN2PB13TextFormatterEPKc, 
                       __ZNK2as12StreamFormat13isInitializedEv, __ZNK2as12StreamFormat6layoutEv, 
                       __ZNK2as12StreamFormat7writeToERN2PB6WriterE, __ZNK2as12StreamFormateqERKS0_, 
                       __ZNK2as13ChannelLayout10formatTextERN2PB13TextFormatterEPKc, 
                       __ZNK2as13ChannelLayout13isInitializedEv, __ZNK2as13ChannelLayout7writeToERN2PB6WriterE, 
                       __ZNK2as13ChannelLayouteqERKS0_, __ZNK2as14error_category7messageEi, 
                       __ZNK2as15AggregateDevice10formatTextERN2PB13TextFormatterEPKc, 
                       __ZNK2as15AggregateDevice13isInitializedEv, __ZNK2as15AggregateDevice7writeToERN2PB6WriterE, 
                       __ZNK2as15AggregateDeviceeqERKS0_, __ZNK2as15RouteIdentifier10formatTextERN2PB13TextFormatterEPKc, 
                       __ZNK2as15RouteIdentifier13isInitializedEv, __ZNK2as15RouteIdentifier14coreIdentifierEv, 
                       __ZNK2as15RouteIdentifier7writeToERN2PB6WriterE, __ZNK2as15RouteIdentifiereqERKS0_, 
                       __ZNK2as15SampleRateRange10formatTextERN2PB13TextFormatterEPKc, 
                       __ZNK2as15SampleRateRange13isInitializedEv, __ZNK2as15SampleRateRange7writeToERN2PB6WriterE, 
                       __ZNK2as15SampleRateRangeeqERKS0_, __ZNK2as17ActivationContext10formatTextERN2PB13TextFormatterEPKc, 
                       __ZNK2as17ActivationContext13isInitializedEv, __ZNK2as17ActivationContext7writeToERN2PB6WriterE, 
                       __ZNK2as17ActivationContexteqERKS0_, __ZNK2as18ChannelDescription10formatTextERN2PB13TextFormatterEPKc, 
                       __ZNK2as18ChannelDescription13isInitializedEv, __ZNK2as18ChannelDescription7writeToERN2PB6WriterE, 
                       __ZNK2as18ChannelDescriptioneqERKS0_, __ZNK2as19RouteIdentifierCore10formatTextERN2PB13TextFormatterEPKc, 
                       __ZNK2as19RouteIdentifierCore13isInitializedEv, __ZNK2as19RouteIdentifierCore7writeToERN2PB6WriterE, 
                       __ZNK2as19RouteIdentifierCoreeqERKS0_, __ZNK2as21AvailableStreamFormat10formatTextERN2PB13TextFormatterEPKc, 
                       __ZNK2as21AvailableStreamFormat13isInitializedEv, __ZNK2as21AvailableStreamFormat6formatEv, 
                       __ZNK2as21AvailableStreamFormat7writeToERN2PB6WriterE, __ZNK2as21AvailableStreamFormateqERKS0_, 
                       __ZNK2as21public_error_category7messageEi, __ZNK2as6client11StreamPrefs10formatTextERN2PB13TextFormatterEPKc, 
                       __ZNK2as6client11StreamPrefs12streamFormatEv, __ZNK2as6client11StreamPrefs13isInitializedEv, 
                       __ZNK2as6client11StreamPrefs7writeToERN2PB6WriterE, __ZNK2as6client11StreamPrefseqERKS1_, 
                       __ZNK2as6client12SessionState10formatTextERN2PB13TextFormatterEPKc, 
                       __ZNK2as6client12SessionState13isInitializedEv, __ZNK2as6client12SessionState14turnByTurnPrefEv, 
                       __ZNK2as6client12SessionState17activationContextEv, __ZNK2as6client12SessionState7writeToERN2PB6WriterE, 
                       __ZNK2as6client12SessionStateeqERKS1_, __ZNK2as6client14TurnByTurnPref10formatTextERN2PB13TextFormatterEPKc, 
                       __ZNK2as6client14TurnByTurnPref13isInitializedEv, __ZNK2as6client14TurnByTurnPref7writeToERN2PB6WriterE, 
                       __ZNK2as6client14TurnByTurnPrefeqERKS1_, __ZNK2as6client16PolarPatternPref10formatTextERN2PB13TextFormatterEPKc, 
                       __ZNK2as6client16PolarPatternPref13isInitializedEv, __ZNK2as6client16PolarPatternPref7writeToERN2PB6WriterE, 
                       __ZNK2as6client16PolarPatternPrefeqERKS1_, __ZNK2as6client17IOControllerPrefs10formatTextERN2PB13TextFormatterEPKc, 
                       __ZNK2as6client17IOControllerPrefs13isInitializedEv, __ZNK2as6client17IOControllerPrefs7writeToERN2PB6WriterE, 
                       __ZNK2as6client17IOControllerPrefseqERKS1_, __ZNK2as6client9PortPrefs10formatTextERN2PB13TextFormatterEPKc, 
                       __ZNK2as6client9PortPrefs13isInitializedEv, __ZNK2as6client9PortPrefs7writeToERN2PB6WriterE, 
                       __ZNK2as6client9PortPrefseqERKS1_, __ZNK2as6server11VirtualPort10formatTextERN2PB13TextFormatterEPKc, 
                       __ZNK2as6server11VirtualPort13isInitializedEv, __ZNK2as6server11VirtualPort16hwPortInvariantsEv, 
                       __ZNK2as6server11VirtualPort29activeMicrophoneConfigurationEv, 
                       __ZNK2as6server11VirtualPort7writeToERN2PB6WriterE, __ZNK2as6server11VirtualPorteqERKS1_, 
                       __ZNK2as6server12ControlValue10formatTextERN2PB13TextFormatterEPKc, 
                       __ZNK2as6server12ControlValue13isInitializedEv, __ZNK2as6server12ControlValue7writeToERN2PB6WriterE, 
                       __ZNK2as6server12ControlValueeqERKS1_, __ZNK2as6server12Device_Clock10formatTextERN2PB13TextFormatterEPKc, 
                       __ZNK2as6server12Device_Clock13isInitializedEv, __ZNK2as6server12Device_Clock5clockEv, 
                       __ZNK2as6server12Device_Clock6deviceEv, __ZNK2as6server12Device_Clock7writeToERN2PB6WriterE, 
                       __ZNK2as6server12Device_ClockeqERKS1_, __ZNK2as6server12HardwareInfo10formatTextERN2PB13TextFormatterEPKc, 
                       __ZNK2as6server12HardwareInfo13isInitializedEv, __ZNK2as6server12HardwareInfo7writeToERN2PB6WriterE, 
                       __ZNK2as6server12HardwareInfoeqERKS1_, __ZNK2as6server13ChangedObject10formatTextERN2PB13TextFormatterEPKc, 
                       __ZNK2as6server13ChangedObject13isInitializedEv, __ZNK2as6server13ChangedObject17objectDescriptionEv, 
                       __ZNK2as6server13ChangedObject7writeToERN2PB6WriterE, __ZNK2as6server13ChangedObjecteqERKS1_, 
                       __ZNK2as6server13IOStreamState10formatTextERN2PB13TextFormatterEPKc, 
                       __ZNK2as6server13IOStreamState12streamFormatEv, __ZNK2as6server13IOStreamState13isInitializedEv, 
                       __ZNK2as6server13IOStreamState7writeToERN2PB6WriterE, __ZNK2as6server13IOStreamStateeqERKS1_, 
                       __ZNK2as6server14PortInvariants10formatTextERN2PB13TextFormatterEPKc, 
                       __ZNK2as6server14PortInvariants13isInitializedEv, __ZNK2as6server14PortInvariants7writeToERN2PB6WriterE, 
                       __ZNK2as6server14PortInvariantseqERKS1_, __ZNK2as6server15ControlAndValue10formatTextERN2PB13TextFormatterEPKc, 
                       __ZNK2as6server15ControlAndValue13isInitializedEv, __ZNK2as6server15ControlAndValue5valueEv, 
                       __ZNK2as6server15ControlAndValue7controlEv, __ZNK2as6server15ControlAndValue7writeToERN2PB6WriterE, 
                       __ZNK2as6server15ControlAndValueeqERKS1_, __ZNK2as6server15PlatformSupport10formatTextERN2PB13TextFormatterEPKc, 
                       __ZNK2as6server15PlatformSupport13isInitializedEv, __ZNK2as6server15PlatformSupport7writeToERN2PB6WriterE, 
                       __ZNK2as6server15PlatformSupporteqERKS1_, __ZNK2as6server15VirtualPortList10formatTextERN2PB13TextFormatterEPKc, 
                       __ZNK2as6server15VirtualPortList13isInitializedEv, __ZNK2as6server15VirtualPortList7writeToERN2PB6WriterE, 
                       __ZNK2as6server15VirtualPortListeqERKS1_, __ZNK2as6server16EligiblePortList10formatTextERN2PB13TextFormatterEPKc, 
                       __ZNK2as6server16EligiblePortList13isInitializedEv, __ZNK2as6server16EligiblePortList13standardPortsEv, 
                       __ZNK2as6server16EligiblePortList14decoupledPortsEv, __ZNK2as6server16EligiblePortList7writeToERN2PB6WriterE, 
                       __ZNK2as6server16EligiblePortListeqERKS1_, __ZNK2as6server16SessionFullState10formatTextERN2PB13TextFormatterEPKc, 
                       __ZNK2as6server16SessionFullState11clientStateEv, __ZNK2as6server16SessionFullState11serverStateEv, 
                       __ZNK2as6server16SessionFullState13isInitializedEv, __ZNK2as6server16SessionFullState7writeToERN2PB6WriterE, 
                       __ZNK2as6server16SessionFullStateeqERKS1_, __ZNK2as6server16SessionTokenList10formatTextERN2PB13TextFormatterEPKc, 
                       __ZNK2as6server16SessionTokenList13isInitializedEv, __ZNK2as6server16SessionTokenList7writeToERN2PB6WriterE, 
                       __ZNK2as6server16SessionTokenListeqERKS1_, __ZNK2as6server17IOControllerState10formatTextERN2PB13TextFormatterEPKc, 
                       __ZNK2as6server17IOControllerState13isInitializedEv, __ZNK2as6server17IOControllerState7writeToERN2PB6WriterE, 
                       __ZNK2as6server17IOControllerStateeqERKS1_, __ZNK2as6server17ObjectDescription10controllerEv, 
                       __ZNK2as6server17ObjectDescription10formatTextERN2PB13TextFormatterEPKc, 
                       __ZNK2as6server17ObjectDescription11virtualPortEv, __ZNK2as6server17ObjectDescription13isInitializedEv, 
                       __ZNK2as6server17ObjectDescription15controlAndValueEv, __ZNK2as6server17ObjectDescription3boxEv, 
                       __ZNK2as6server17ObjectDescription5clockEv, __ZNK2as6server17ObjectDescription6deviceEv, 
                       __ZNK2as6server17ObjectDescription6driverEv, __ZNK2as6server17ObjectDescription6hwPortEv, 
                       __ZNK2as6server17ObjectDescription7writeToERN2PB6WriterE, 
                       __ZNK2as6server17ObjectDescription8hwStreamEv, __ZNK2as6server17ObjectDescription8ioStreamEv, 
                       __ZNK2as6server17ObjectDescriptioneqERKS1_, __ZNK2as6server18SessionServerState10formatTextERN2PB13TextFormatterEPKc, 
                       __ZNK2as6server18SessionServerState13isInitializedEv, __ZNK2as6server18SessionServerState7writeToERN2PB6WriterE, 
                       __ZNK2as6server18SessionServerStateeqERKS1_, __ZNK2as6server19ConfigChangeSummary10formatTextERN2PB13TextFormatterEPKc, 
                       __ZNK2as6server19ConfigChangeSummary13isInitializedEv, __ZNK2as6server19ConfigChangeSummary20hardwareSystemChangeEv, 
                       __ZNK2as6server19ConfigChangeSummary7writeToERN2PB6WriterE, 
                       __ZNK2as6server19ConfigChangeSummaryeqERKS1_, __ZNK2as6server19HardwareSystemState10formatTextERN2PB13TextFormatterEPKc, 
                       __ZNK2as6server19HardwareSystemState13isInitializedEv, __ZNK2as6server19HardwareSystemState7writeToERN2PB6WriterE, 
                       __ZNK2as6server19HardwareSystemStateeqERKS1_, __ZNK2as6server19SelectorControlItem10formatTextERN2PB13TextFormatterEPKc, 
                       __ZNK2as6server19SelectorControlItem13isInitializedEv, __ZNK2as6server19SelectorControlItem7writeToERN2PB6WriterE, 
                       __ZNK2as6server19SelectorControlItemeqERKS1_, __ZNK2as6server20SessionUpdateSummary10formatTextERN2PB13TextFormatterEPKc, 
                       __ZNK2as6server20SessionUpdateSummary13isInitializedEv, __ZNK2as6server20SessionUpdateSummary7writeToERN2PB6WriterE, 
                       __ZNK2as6server20SessionUpdateSummaryeqERKS1_, __ZNK2as6server21CustomPropertyAddress10formatTextERN2PB13TextFormatterEPKc, 
                       __ZNK2as6server21CustomPropertyAddress13isInitializedEv, __ZNK2as6server21CustomPropertyAddress7writeToERN2PB6WriterE, 
                       __ZNK2as6server21CustomPropertyAddresseqERKS1_, __ZNK2as6server23MicrophoneConfiguration10formatTextERN2PB13TextFormatterEPKc, 
                       __ZNK2as6server23MicrophoneConfiguration13isInitializedEv, 
                       __ZNK2as6server23MicrophoneConfiguration7writeToERN2PB6WriterE, 
                       __ZNK2as6server23MicrophoneConfigurationeqERKS1_, __ZNK2as6server3Box10formatTextERN2PB13TextFormatterEPKc, 
                       __ZNK2as6server3Box12hardwareInfoEv, __ZNK2as6server3Box13isInitializedEv, 
                       __ZNK2as6server3Box7writeToERN2PB6WriterE, __ZNK2as6server3BoxeqERKS1_, 
                       __ZNK2as6server4Port10formatTextERN2PB13TextFormatterEPKc, 
                       __ZNK2as6server4Port10invariantsEv, __ZNK2as6server4Port12hardwareInfoEv, 
                       __ZNK2as6server4Port13isInitializedEv, __ZNK2as6server4Port7writeToERN2PB6WriterE, 
                       __ZNK2as6server4PorteqERKS1_, __ZNK2as6server5Clock10formatTextERN2PB13TextFormatterEPKc, 
                       __ZNK2as6server5Clock12hardwareInfoEv, __ZNK2as6server5Clock13isInitializedEv, 
                       __ZNK2as6server5Clock7writeToERN2PB6WriterE, __ZNK2as6server5ClockeqERKS1_, 
                       __ZNK2as6server6Device10formatTextERN2PB13TextFormatterEPKc, 
                       __ZNK2as6server6Device13isInitializedEv, __ZNK2as6server6Device7writeToERN2PB6WriterE, 
                       __ZNK2as6server6DeviceeqERKS1_, __ZNK2as6server6Driver10formatTextERN2PB13TextFormatterEPKc, 
                       __ZNK2as6server6Driver12hardwareInfoEv, __ZNK2as6server6Driver13isInitializedEv, 
                       __ZNK2as6server6Driver7writeToERN2PB6WriterE, __ZNK2as6server6DrivereqERKS1_, 
                       __ZNK2as6server7Control10formatTextERN2PB13TextFormatterEPKc, 
                       __ZNK2as6server7Control13isInitializedEv, __ZNK2as6server7Control7writeToERN2PB6WriterE, 
                       __ZNK2as6server7ControleqERKS1_, __ZNK2as6server8HWStream10formatTextERN2PB13TextFormatterEPKc, 
                       __ZNK2as6server8HWStream12hardwareInfoEv, __ZNK2as6server8HWStream12publicFormatEv, 
                       __ZNK2as6server8HWStream13isInitializedEv, __ZNK2as6server8HWStream13privateFormatEv, 
                       __ZNK2as6server8HWStream7writeToERN2PB6WriterE, __ZNK2as6server8HWStreameqERKS1_, 
                       __ZTVN2as12StreamFormatE, __ZTVN2as13ChannelLayoutE, __ZTVN2as14error_categoryE, 
                       __ZTVN2as15AggregateDeviceE, __ZTVN2as15RouteIdentifierE, 
                       __ZTVN2as15SampleRateRangeE, __ZTVN2as17ActivationContextE, 
                       __ZTVN2as18ChannelDescriptionE, __ZTVN2as19RouteIdentifierCoreE, 
                       __ZTVN2as21AvailableStreamFormatE, __ZTVN2as21public_error_categoryE, 
                       __ZTVN2as6client11StreamPrefsE, __ZTVN2as6client12SessionStateE, 
                       __ZTVN2as6client14TurnByTurnPrefE, __ZTVN2as6client16PolarPatternPrefE, 
                       __ZTVN2as6client17IOControllerPrefsE, __ZTVN2as6client9PortPrefsE, 
                       __ZTVN2as6server11VirtualPortE, __ZTVN2as6server12ControlValueE, 
                       __ZTVN2as6server12Device_ClockE, __ZTVN2as6server12HardwareInfoE, 
                       __ZTVN2as6server13ChangedObjectE, __ZTVN2as6server13IOStreamStateE, 
                       __ZTVN2as6server14PortInvariantsE, __ZTVN2as6server15ControlAndValueE, 
                       __ZTVN2as6server15PlatformSupportE, __ZTVN2as6server15VirtualPortListE, 
                       __ZTVN2as6server16EligiblePortListE, __ZTVN2as6server16SessionFullStateE, 
                       __ZTVN2as6server16SessionTokenListE, __ZTVN2as6server17IOControllerStateE, 
                       __ZTVN2as6server17ObjectDescriptionE, __ZTVN2as6server18SessionServerStateE, 
                       __ZTVN2as6server19ConfigChangeSummaryE, __ZTVN2as6server19HardwareSystemStateE, 
                       __ZTVN2as6server19SelectorControlItemE, __ZTVN2as6server20SessionUpdateSummaryE, 
                       __ZTVN2as6server21CustomPropertyAddressE, __ZTVN2as6server23MicrophoneConfigurationE, 
                       __ZTVN2as6server3BoxE, __ZTVN2as6server4PortE, __ZTVN2as6server5ClockE, 
                       __ZTVN2as6server6DeviceE, __ZTVN2as6server6DriverE, __ZTVN2as6server7ControlE, 
                       __ZTVN2as6server8HWStreamE, _sessionManagerXPCCallbackInterface, 
                       _sessionManagerXPCInterface ]
...
