---
archs:           [ x86_64 ]
platform:        macosx
install-name:    /System/Library/PrivateFrameworks/WirelessDiagnostics.framework/Versions/A/Libraries/libAWDProtobufCATM.dylib
exports:         
  - archs:           [ x86_64 ]
    symbols:         [ __ZN3awd7metrics16ATM_CallEndEvent10SharedCtorEv, 
                       __ZN3awd7metrics16ATM_CallEndEvent10SharedDtorEv, 
                       __ZN3awd7metrics16ATM_CallEndEvent15kMccFieldNumberE, 
                       __ZN3awd7metrics16ATM_CallEndEvent15kMncFieldNumberE, 
                       __ZN3awd7metrics16ATM_CallEndEvent16default_instanceEv, 
                       __ZN3awd7metrics16ATM_CallEndEvent16kBandFieldNumberE, 
                       __ZN3awd7metrics16ATM_CallEndEvent16kTypeFieldNumberE, 
                       __ZN3awd7metrics16ATM_CallEndEvent17default_instance_E, 
                       __ZN3awd7metrics16ATM_CallEndEvent17kArfcnFieldNumberE, 
                       __ZN3awd7metrics16ATM_CallEndEvent17kCodecFieldNumberE, 
                       __ZN3awd7metrics16ATM_CallEndEvent17kNum01FieldNumberE, 
                       __ZN3awd7metrics16ATM_CallEndEvent17kNum12FieldNumberE, 
                       __ZN3awd7metrics16ATM_CallEndEvent17kNum20FieldNumberE, 
                       __ZN3awd7metrics16ATM_CallEndEvent17kNum23FieldNumberE, 
                       __ZN3awd7metrics16ATM_CallEndEvent17kNum34FieldNumberE, 
                       __ZN3awd7metrics16ATM_CallEndEvent17kNum45FieldNumberE, 
                       __ZN3awd7metrics16ATM_CallEndEvent17kNum56FieldNumberE, 
                       __ZN3awd7metrics16ATM_CallEndEvent17kNum67FieldNumberE, 
                       __ZN3awd7metrics16ATM_CallEndEvent17kNum78FieldNumberE, 
                       __ZN3awd7metrics16ATM_CallEndEvent17kNum89FieldNumberE, 
                       __ZN3awd7metrics16ATM_CallEndEvent18kAreaIdFieldNumberE, 
                       __ZN3awd7metrics16ATM_CallEndEvent18kAudiosFieldNumberE, 
                       __ZN3awd7metrics16ATM_CallEndEvent18kAvgRttFieldNumberE, 
                       __ZN3awd7metrics16ATM_CallEndEvent18kCallIdFieldNumberE, 
                       __ZN3awd7metrics16ATM_CallEndEvent18kCellIdFieldNumberE, 
                       __ZN3awd7metrics16ATM_CallEndEvent18kHashesFieldNumberE, 
                       __ZN3awd7metrics16ATM_CallEndEvent18kInringFieldNumberE, 
                       __ZN3awd7metrics16ATM_CallEndEvent18kNum910FieldNumberE, 
                       __ZN3awd7metrics16ATM_CallEndEvent18kUseTcpFieldNumberE, 
                       __ZN3awd7metrics16ATM_CallEndEvent19kAmrModeFieldNumberE, 
                       __ZN3awd7metrics16ATM_CallEndEvent19kBambiIdFieldNumberE, 
                       __ZN3awd7metrics16ATM_CallEndEvent19kEndTypeFieldNumberE, 
                       __ZN3awd7metrics16ATM_CallEndEvent19kFromUrlFieldNumberE, 
                       __ZN3awd7metrics16ATM_CallEndEvent19kMreasonFieldNumberE, 
                       __ZN3awd7metrics16ATM_CallEndEvent19kNum1011FieldNumberE, 
                       __ZN3awd7metrics16ATM_CallEndEvent19kNum1112FieldNumberE, 
                       __ZN3awd7metrics16ATM_CallEndEvent19kNum1213FieldNumberE, 
                       __ZN3awd7metrics16ATM_CallEndEvent19kNum1314FieldNumberE, 
                       __ZN3awd7metrics16ATM_CallEndEvent19kNum1415FieldNumberE, 
                       __ZN3awd7metrics16ATM_CallEndEvent19kNum1516FieldNumberE, 
                       __ZN3awd7metrics16ATM_CallEndEvent19kNum1617FieldNumberE, 
                       __ZN3awd7metrics16ATM_CallEndEvent19kNum1718FieldNumberE, 
                       __ZN3awd7metrics16ATM_CallEndEvent19kNum1819FieldNumberE, 
                       __ZN3awd7metrics16ATM_CallEndEvent19kNum1920FieldNumberE, 
                       __ZN3awd7metrics16ATM_CallEndEvent19kPServerFieldNumberE, 
                       __ZN3awd7metrics16ATM_CallEndEvent19kQReasonFieldNumberE, 
                       __ZN3awd7metrics16ATM_CallEndEvent19kRatInfoFieldNumberE, 
                       __ZN3awd7metrics16ATM_CallEndEvent19kRatTypeFieldNumberE, 
                       __ZN3awd7metrics16ATM_CallEndEvent19kUMBPeerFieldNumberE, 
                       __ZN3awd7metrics16ATM_CallEndEvent20kBusrtsumFieldNumberE, 
                       __ZN3awd7metrics16ATM_CallEndEvent20kDurationFieldNumberE, 
                       __ZN3awd7metrics16ATM_CallEndEvent20kEndStateFieldNumberE, 
                       __ZN3awd7metrics16ATM_CallEndEvent20kOutgoingFieldNumberE, 
                       __ZN3awd7metrics16ATM_CallEndEvent20kSecAgreeFieldNumberE, 
                       __ZN3awd7metrics16ATM_CallEndEvent21CheckTypeAndMergeFromERKN6google8protobuf11MessageLiteE, 
                       __ZN3awd7metrics16ATM_CallEndEvent21InitAsDefaultInstanceEv, 
                       __ZN3awd7metrics16ATM_CallEndEvent21kAmrFormatFieldNumberE, 
                       __ZN3awd7metrics16ATM_CallEndEvent21kAmrNBtimeFieldNumberE, 
                       __ZN3awd7metrics16ATM_CallEndEvent21kAmrWBtimeFieldNumberE, 
                       __ZN3awd7metrics16ATM_CallEndEvent21kAvgRttLanFieldNumberE, 
                       __ZN3awd7metrics16ATM_CallEndEvent21kAwdCallIdFieldNumberE, 
                       __ZN3awd7metrics16ATM_CallEndEvent21kByeReasonFieldNumberE, 
                       __ZN3awd7metrics16ATM_CallEndEvent21kCallCountFieldNumberE, 
                       __ZN3awd7metrics16ATM_CallEndEvent21kEndReasonFieldNumberE, 
                       __ZN3awd7metrics16ATM_CallEndEvent21kIsTelevccFieldNumberE, 
                       __ZN3awd7metrics16ATM_CallEndEvent21kMediaDescFieldNumberE, 
                       __ZN3awd7metrics16ATM_CallEndEvent21kMediaPortFieldNumberE, 
                       __ZN3awd7metrics16ATM_CallEndEvent21kMediaTypeFieldNumberE, 
                       __ZN3awd7metrics16ATM_CallEndEvent21kOtherCodeFieldNumberE, 
                       __ZN3awd7metrics16ATM_CallEndEvent21kProbbusrtFieldNumberE, 
                       __ZN3awd7metrics16ATM_CallEndEvent21kSupportedFieldNumberE, 
                       __ZN3awd7metrics16ATM_CallEndEvent21kTimestampFieldNumberE, 
                       __ZN3awd7metrics16ATM_CallEndEvent21kUserAgentFieldNumberE, 
                       __ZN3awd7metrics16ATM_CallEndEvent22kAreaIdIos8FieldNumberE, 
                       __ZN3awd7metrics16ATM_CallEndEvent22kCellIdIos8FieldNumberE, 
                       __ZN3awd7metrics16ATM_CallEndEvent22kDchannelOnFieldNumberE, 
                       __ZN3awd7metrics16ATM_CallEndEvent22kInviteTypeFieldNumberE, 
                       __ZN3awd7metrics16ATM_CallEndEvent22kMultipartyFieldNumberE, 
                       __ZN3awd7metrics16ATM_CallEndEvent22kStatusCodeFieldNumberE, 
                       __ZN3awd7metrics16ATM_CallEndEvent22kVideoCodecFieldNumberE, 
                       __ZN3awd7metrics16ATM_CallEndEvent22kVoiceCodecFieldNumberE, 
                       __ZN3awd7metrics16ATM_CallEndEvent23kHasRedialedFieldNumberE, 
                       __ZN3awd7metrics16ATM_CallEndEvent23kHistoryInfoFieldNumberE, 
                       __ZN3awd7metrics16ATM_CallEndEvent23kIsConnectedFieldNumberE, 
                       __ZN3awd7metrics16ATM_CallEndEvent23kLanDurationFieldNumberE, 
                       __ZN3awd7metrics16ATM_CallEndEvent23kMaxForwardsFieldNumberE, 
                       __ZN3awd7metrics16ATM_CallEndEvent23kRecordRouteFieldNumberE, 
                       __ZN3awd7metrics16ATM_CallEndEvent23kRecvPacketsFieldNumberE, 
                       __ZN3awd7metrics16ATM_CallEndEvent23kSendPacketsFieldNumberE, 
                       __ZN3awd7metrics16ATM_CallEndEvent23kTranscodingFieldNumberE, 
                       __ZN3awd7metrics16ATM_CallEndEvent23kTwoWayAudioFieldNumberE, 
                       __ZN3awd7metrics16ATM_CallEndEvent23kUseChannel1FieldNumberE, 
                       __ZN3awd7metrics16ATM_CallEndEvent24kDchannelxrOnFieldNumberE, 
                       __ZN3awd7metrics16ATM_CallEndEvent24kPreconditionFieldNumberE, 
                       __ZN3awd7metrics16ATM_CallEndEvent25kAmrOctetAlignFieldNumberE, 
                       __ZN3awd7metrics16ATM_CallEndEvent25kCallEndStatusFieldNumberE, 
                       __ZN3awd7metrics16ATM_CallEndEvent25kCellbandwidthFieldNumberE, 
                       __ZN3awd7metrics16ATM_CallEndEvent25kHandovereventFieldNumberE, 
                       __ZN3awd7metrics16ATM_CallEndEvent25kNetworkDtimerFieldNumberE, 
                       __ZN3awd7metrics16ATM_CallEndEvent25kSeconddpOwnerFieldNumberE, 
                       __ZN3awd7metrics16ATM_CallEndEvent26kCallSetupDelayFieldNumberE, 
                       __ZN3awd7metrics16ATM_CallEndEvent26kHandoverCountsFieldNumberE, 
                       __ZN3awd7metrics16ATM_CallEndEvent26kIsSimultaneousFieldNumberE, 
                       __ZN3awd7metrics16ATM_CallEndEvent26kLocalAvgJitterFieldNumberE, 
                       __ZN3awd7metrics16ATM_CallEndEvent26kLocalDevJitterFieldNumberE, 
                       __ZN3awd7metrics16ATM_CallEndEvent26kLocalMaxJitterFieldNumberE, 
                       __ZN3awd7metrics16ATM_CallEndEvent26kLocalMinJitterFieldNumberE, 
                       __ZN3awd7metrics16ATM_CallEndEvent26kNoBchannelrecvFieldNumberE, 
                       __ZN3awd7metrics16ATM_CallEndEvent26kNoDchannelrecvFieldNumberE, 
                       __ZN3awd7metrics16ATM_CallEndEvent26kPCarrierHeaderFieldNumberE, 
                       __ZN3awd7metrics16ATM_CallEndEvent27MergePartialFromCodedStreamEPN6google8protobuf2io16CodedInputStreamE, 
                       __ZN3awd7metrics16ATM_CallEndEvent27kGlobalSupportedFieldNumberE, 
                       __ZN3awd7metrics16ATM_CallEndEvent27kNetworkReponsesFieldNumberE, 
                       __ZN3awd7metrics16ATM_CallEndEvent27kRemoteAvgJitterFieldNumberE, 
                       __ZN3awd7metrics16ATM_CallEndEvent27kRemoteDevJitterFieldNumberE, 
                       __ZN3awd7metrics16ATM_CallEndEvent27kRemoteMaxJitterFieldNumberE, 
                       __ZN3awd7metrics16ATM_CallEndEvent27kRemoteMinJitterFieldNumberE, 
                       __ZN3awd7metrics16ATM_CallEndEvent28kDchannelRemoteInFieldNumberE, 
                       __ZN3awd7metrics16ATM_CallEndEvent28kQosEstablishmentFieldNumberE, 
                       __ZN3awd7metrics16ATM_CallEndEvent29kLocalAvgJitterLanFieldNumberE, 
                       __ZN3awd7metrics16ATM_CallEndEvent30kCallAnsweringDelayFieldNumberE, 
                       __ZN3awd7metrics16ATM_CallEndEvent30kDchannelxrRemoteInFieldNumberE, 
                       __ZN3awd7metrics16ATM_CallEndEvent30kLocalAvgPacketLossFieldNumberE, 
                       __ZN3awd7metrics16ATM_CallEndEvent30kNoBchanneltransmitFieldNumberE, 
                       __ZN3awd7metrics16ATM_CallEndEvent30kNoDchanneltransmitFieldNumberE, 
                       __ZN3awd7metrics16ATM_CallEndEvent30kRemoteAvgJitterLanFieldNumberE, 
                       __ZN3awd7metrics16ATM_CallEndEvent31kPublicCalledPartyIdFieldNumberE, 
                       __ZN3awd7metrics16ATM_CallEndEvent31kRemoteAvgPacketLossFieldNumberE, 
                       __ZN3awd7metrics16ATM_CallEndEvent31kSeconddpSessionNameFieldNumberE, 
                       __ZN3awd7metrics16ATM_CallEndEvent32kOnewayHandoverCountsFieldNumberE, 
                       __ZN3awd7metrics16ATM_CallEndEvent32kQosChannelReadyDelayFieldNumberE, 
                       __ZN3awd7metrics16ATM_CallEndEvent33kLocalAvgPacketLossLanFieldNumberE, 
                       __ZN3awd7metrics16ATM_CallEndEvent34kPublicAssertedIdentityFieldNumberE, 
                       __ZN3awd7metrics16ATM_CallEndEvent34kPublicVisitedNetworkIdFieldNumberE, 
                       __ZN3awd7metrics16ATM_CallEndEvent34kRemoteAvgPacketLossLanFieldNumberE, 
                       __ZN3awd7metrics16ATM_CallEndEvent4SwapEPS1_, __ZN3awd7metrics16ATM_CallEndEvent5ClearEv, 
                       __ZN3awd7metrics16ATM_CallEndEvent8CopyFromERKS1_, 
                       __ZN3awd7metrics16ATM_CallEndEvent9MergeFromERKS1_, 
                       __ZN3awd7metrics16ATM_CallEndEventC1ERKS1_, __ZN3awd7metrics16ATM_CallEndEventC1Ev, 
                       __ZN3awd7metrics16ATM_CallEndEventC2ERKS1_, __ZN3awd7metrics16ATM_CallEndEventC2Ev, 
                       __ZN3awd7metrics16ATM_CallEndEventD0Ev, __ZN3awd7metrics16ATM_CallEndEventD1Ev, 
                       __ZN3awd7metrics16ATM_CallEndEventD2Ev, __ZN3awd7metrics20ATM_CallAttemptEvent10SharedCtorEv, 
                       __ZN3awd7metrics20ATM_CallAttemptEvent10SharedDtorEv, 
                       __ZN3awd7metrics20ATM_CallAttemptEvent15kMccFieldNumberE, 
                       __ZN3awd7metrics20ATM_CallAttemptEvent15kMncFieldNumberE, 
                       __ZN3awd7metrics20ATM_CallAttemptEvent16default_instanceEv, 
                       __ZN3awd7metrics20ATM_CallAttemptEvent16kTypeFieldNumberE, 
                       __ZN3awd7metrics20ATM_CallAttemptEvent17default_instance_E, 
                       __ZN3awd7metrics20ATM_CallAttemptEvent17kArfcnFieldNumberE, 
                       __ZN3awd7metrics20ATM_CallAttemptEvent17kCodecFieldNumberE, 
                       __ZN3awd7metrics20ATM_CallAttemptEvent18kAreaIdFieldNumberE, 
                       __ZN3awd7metrics20ATM_CallAttemptEvent18kCallIdFieldNumberE, 
                       __ZN3awd7metrics20ATM_CallAttemptEvent18kCellIdFieldNumberE, 
                       __ZN3awd7metrics20ATM_CallAttemptEvent18kHashesFieldNumberE, 
                       __ZN3awd7metrics20ATM_CallAttemptEvent18kUseTcpFieldNumberE, 
                       __ZN3awd7metrics20ATM_CallAttemptEvent19kAmrModeFieldNumberE, 
                       __ZN3awd7metrics20ATM_CallAttemptEvent19kBambiIdFieldNumberE, 
                       __ZN3awd7metrics20ATM_CallAttemptEvent19kFromUrlFieldNumberE, 
                       __ZN3awd7metrics20ATM_CallAttemptEvent19kPServerFieldNumberE, 
                       __ZN3awd7metrics20ATM_CallAttemptEvent19kRatInfoFieldNumberE, 
                       __ZN3awd7metrics20ATM_CallAttemptEvent19kRatTypeFieldNumberE, 
                       __ZN3awd7metrics20ATM_CallAttemptEvent20kOutgoingFieldNumberE, 
                       __ZN3awd7metrics20ATM_CallAttemptEvent20kSecAgreeFieldNumberE, 
                       __ZN3awd7metrics20ATM_CallAttemptEvent21CheckTypeAndMergeFromERKN6google8protobuf11MessageLiteE, 
                       __ZN3awd7metrics20ATM_CallAttemptEvent21InitAsDefaultInstanceEv, 
                       __ZN3awd7metrics20ATM_CallAttemptEvent21kAmrFormatFieldNumberE, 
                       __ZN3awd7metrics20ATM_CallAttemptEvent21kAwdCallIdFieldNumberE, 
                       __ZN3awd7metrics20ATM_CallAttemptEvent21kCallCountFieldNumberE, 
                       __ZN3awd7metrics20ATM_CallAttemptEvent21kMediaDescFieldNumberE, 
                       __ZN3awd7metrics20ATM_CallAttemptEvent21kMediaPortFieldNumberE, 
                       __ZN3awd7metrics20ATM_CallAttemptEvent21kSupportedFieldNumberE, 
                       __ZN3awd7metrics20ATM_CallAttemptEvent21kTimestampFieldNumberE, 
                       __ZN3awd7metrics20ATM_CallAttemptEvent21kUserAgentFieldNumberE, 
                       __ZN3awd7metrics20ATM_CallAttemptEvent22kAreaIdIos8FieldNumberE, 
                       __ZN3awd7metrics20ATM_CallAttemptEvent22kCallActiveFieldNumberE, 
                       __ZN3awd7metrics20ATM_CallAttemptEvent22kCellIdIos8FieldNumberE, 
                       __ZN3awd7metrics20ATM_CallAttemptEvent22kInviteTypeFieldNumberE, 
                       __ZN3awd7metrics20ATM_CallAttemptEvent22kVideoCodecFieldNumberE, 
                       __ZN3awd7metrics20ATM_CallAttemptEvent22kVoiceCodecFieldNumberE, 
                       __ZN3awd7metrics20ATM_CallAttemptEvent23kHistoryInfoFieldNumberE, 
                       __ZN3awd7metrics20ATM_CallAttemptEvent23kMaxForwardsFieldNumberE, 
                       __ZN3awd7metrics20ATM_CallAttemptEvent23kRecordRouteFieldNumberE, 
                       __ZN3awd7metrics20ATM_CallAttemptEvent23kTwoWayAudioFieldNumberE, 
                       __ZN3awd7metrics20ATM_CallAttemptEvent23kUseChannel1FieldNumberE, 
                       __ZN3awd7metrics20ATM_CallAttemptEvent24kPreconditionFieldNumberE, 
                       __ZN3awd7metrics20ATM_CallAttemptEvent25kAmrOctetAlignFieldNumberE, 
                       __ZN3awd7metrics20ATM_CallAttemptEvent25kCellbandwidthFieldNumberE, 
                       __ZN3awd7metrics20ATM_CallAttemptEvent25kSeconddpOwnerFieldNumberE, 
                       __ZN3awd7metrics20ATM_CallAttemptEvent26kPCarrierHeaderFieldNumberE, 
                       __ZN3awd7metrics20ATM_CallAttemptEvent27MergePartialFromCodedStreamEPN6google8protobuf2io16CodedInputStreamE, 
                       __ZN3awd7metrics20ATM_CallAttemptEvent27kGlobalSupportedFieldNumberE, 
                       __ZN3awd7metrics20ATM_CallAttemptEvent31kPublicCalledPartyIdFieldNumberE, 
                       __ZN3awd7metrics20ATM_CallAttemptEvent31kSeconddpSessionNameFieldNumberE, 
                       __ZN3awd7metrics20ATM_CallAttemptEvent34kPublicAssertedIdentityFieldNumberE, 
                       __ZN3awd7metrics20ATM_CallAttemptEvent34kPublicVisitedNetworkIdFieldNumberE, 
                       __ZN3awd7metrics20ATM_CallAttemptEvent4SwapEPS1_, 
                       __ZN3awd7metrics20ATM_CallAttemptEvent5ClearEv, 
                       __ZN3awd7metrics20ATM_CallAttemptEvent8CopyFromERKS1_, 
                       __ZN3awd7metrics20ATM_CallAttemptEvent9MergeFromERKS1_, 
                       __ZN3awd7metrics20ATM_CallAttemptEventC1ERKS1_, 
                       __ZN3awd7metrics20ATM_CallAttemptEventC1Ev, __ZN3awd7metrics20ATM_CallAttemptEventC2ERKS1_, 
                       __ZN3awd7metrics20ATM_CallAttemptEventC2Ev, __ZN3awd7metrics20ATM_CallAttemptEventD0Ev, 
                       __ZN3awd7metrics20ATM_CallAttemptEventD1Ev, __ZN3awd7metrics20ATM_CallAttemptEventD2Ev, 
                       __ZN3awd7metrics20ATM_CallConnectEvent10SharedCtorEv, 
                       __ZN3awd7metrics20ATM_CallConnectEvent10SharedDtorEv, 
                       __ZN3awd7metrics20ATM_CallConnectEvent15kMccFieldNumberE, 
                       __ZN3awd7metrics20ATM_CallConnectEvent15kMncFieldNumberE, 
                       __ZN3awd7metrics20ATM_CallConnectEvent16default_instanceEv, 
                       __ZN3awd7metrics20ATM_CallConnectEvent16kTypeFieldNumberE, 
                       __ZN3awd7metrics20ATM_CallConnectEvent17default_instance_E, 
                       __ZN3awd7metrics20ATM_CallConnectEvent17kArfcnFieldNumberE, 
                       __ZN3awd7metrics20ATM_CallConnectEvent17kCodecFieldNumberE, 
                       __ZN3awd7metrics20ATM_CallConnectEvent18kAreaIdFieldNumberE, 
                       __ZN3awd7metrics20ATM_CallConnectEvent18kCallIdFieldNumberE, 
                       __ZN3awd7metrics20ATM_CallConnectEvent18kCellIdFieldNumberE, 
                       __ZN3awd7metrics20ATM_CallConnectEvent18kHashesFieldNumberE, 
                       __ZN3awd7metrics20ATM_CallConnectEvent18kUseTcpFieldNumberE, 
                       __ZN3awd7metrics20ATM_CallConnectEvent19kAmrModeFieldNumberE, 
                       __ZN3awd7metrics20ATM_CallConnectEvent19kBambiIdFieldNumberE, 
                       __ZN3awd7metrics20ATM_CallConnectEvent19kFromUrlFieldNumberE, 
                       __ZN3awd7metrics20ATM_CallConnectEvent19kPServerFieldNumberE, 
                       __ZN3awd7metrics20ATM_CallConnectEvent19kRatInfoFieldNumberE, 
                       __ZN3awd7metrics20ATM_CallConnectEvent19kRatTypeFieldNumberE, 
                       __ZN3awd7metrics20ATM_CallConnectEvent19kUMBPeerFieldNumberE, 
                       __ZN3awd7metrics20ATM_CallConnectEvent20kOutgoingFieldNumberE, 
                       __ZN3awd7metrics20ATM_CallConnectEvent20kSecAgreeFieldNumberE, 
                       __ZN3awd7metrics20ATM_CallConnectEvent21CheckTypeAndMergeFromERKN6google8protobuf11MessageLiteE, 
                       __ZN3awd7metrics20ATM_CallConnectEvent21InitAsDefaultInstanceEv, 
                       __ZN3awd7metrics20ATM_CallConnectEvent21kAmrFormatFieldNumberE, 
                       __ZN3awd7metrics20ATM_CallConnectEvent21kAwdCallIdFieldNumberE, 
                       __ZN3awd7metrics20ATM_CallConnectEvent21kCallCountFieldNumberE, 
                       __ZN3awd7metrics20ATM_CallConnectEvent21kMediaDescFieldNumberE, 
                       __ZN3awd7metrics20ATM_CallConnectEvent21kMediaPortFieldNumberE, 
                       __ZN3awd7metrics20ATM_CallConnectEvent21kSupportedFieldNumberE, 
                       __ZN3awd7metrics20ATM_CallConnectEvent21kTimestampFieldNumberE, 
                       __ZN3awd7metrics20ATM_CallConnectEvent21kUserAgentFieldNumberE, 
                       __ZN3awd7metrics20ATM_CallConnectEvent22kAreaIdIos8FieldNumberE, 
                       __ZN3awd7metrics20ATM_CallConnectEvent22kCellIdIos8FieldNumberE, 
                       __ZN3awd7metrics20ATM_CallConnectEvent22kInviteTypeFieldNumberE, 
                       __ZN3awd7metrics20ATM_CallConnectEvent22kVideoCodecFieldNumberE, 
                       __ZN3awd7metrics20ATM_CallConnectEvent22kVoiceCodecFieldNumberE, 
                       __ZN3awd7metrics20ATM_CallConnectEvent23kMaxForwardsFieldNumberE, 
                       __ZN3awd7metrics20ATM_CallConnectEvent23kRecordRouteFieldNumberE, 
                       __ZN3awd7metrics20ATM_CallConnectEvent23kTwoWayAudioFieldNumberE, 
                       __ZN3awd7metrics20ATM_CallConnectEvent23kUseChannel1FieldNumberE, 
                       __ZN3awd7metrics20ATM_CallConnectEvent24kPreconditionFieldNumberE, 
                       __ZN3awd7metrics20ATM_CallConnectEvent25kAmrOctetAlignFieldNumberE, 
                       __ZN3awd7metrics20ATM_CallConnectEvent25kCellbandwidthFieldNumberE, 
                       __ZN3awd7metrics20ATM_CallConnectEvent25kSeconddpOwnerFieldNumberE, 
                       __ZN3awd7metrics20ATM_CallConnectEvent27MergePartialFromCodedStreamEPN6google8protobuf2io16CodedInputStreamE, 
                       __ZN3awd7metrics20ATM_CallConnectEvent27kGlobalSupportedFieldNumberE, 
                       __ZN3awd7metrics20ATM_CallConnectEvent31kPublicCalledPartyIdFieldNumberE, 
                       __ZN3awd7metrics20ATM_CallConnectEvent31kSeconddpSessionNameFieldNumberE, 
                       __ZN3awd7metrics20ATM_CallConnectEvent32kQosChannelReadyDelayFieldNumberE, 
                       __ZN3awd7metrics20ATM_CallConnectEvent34kPublicAssertedIdentityFieldNumberE, 
                       __ZN3awd7metrics20ATM_CallConnectEvent34kPublicVisitedNetworkIdFieldNumberE, 
                       __ZN3awd7metrics20ATM_CallConnectEvent4SwapEPS1_, 
                       __ZN3awd7metrics20ATM_CallConnectEvent5ClearEv, 
                       __ZN3awd7metrics20ATM_CallConnectEvent8CopyFromERKS1_, 
                       __ZN3awd7metrics20ATM_CallConnectEvent9MergeFromERKS1_, 
                       __ZN3awd7metrics20ATM_CallConnectEventC1ERKS1_, 
                       __ZN3awd7metrics20ATM_CallConnectEventC1Ev, __ZN3awd7metrics20ATM_CallConnectEventC2ERKS1_, 
                       __ZN3awd7metrics20ATM_CallConnectEventC2Ev, __ZN3awd7metrics20ATM_CallConnectEventD0Ev, 
                       __ZN3awd7metrics20ATM_CallConnectEventD1Ev, __ZN3awd7metrics20ATM_CallConnectEventD2Ev, 
                       __ZN3awd7metrics21ATM_signaling_message10SharedCtorEv, 
                       __ZN3awd7metrics21ATM_signaling_message10SharedDtorEv, 
                       __ZN3awd7metrics21ATM_signaling_message16default_instanceEv, 
                       __ZN3awd7metrics21ATM_signaling_message16kNoteFieldNumberE, 
                       __ZN3awd7metrics21ATM_signaling_message16kTypeFieldNumberE, 
                       __ZN3awd7metrics21ATM_signaling_message17default_instance_E, 
                       __ZN3awd7metrics21ATM_signaling_message17kMsgidFieldNumberE, 
                       __ZN3awd7metrics21ATM_signaling_message18kCallIdFieldNumberE, 
                       __ZN3awd7metrics21ATM_signaling_message18kMethodFieldNumberE, 
                       __ZN3awd7metrics21ATM_signaling_message19kIsErrorFieldNumberE, 
                       __ZN3awd7metrics21ATM_signaling_message19kQReasonFieldNumberE, 
                       __ZN3awd7metrics21ATM_signaling_message19kRatTypeFieldNumberE, 
                       __ZN3awd7metrics21ATM_signaling_message19kUMBPeerFieldNumberE, 
                       __ZN3awd7metrics21ATM_signaling_message20kOutgoingFieldNumberE, 
                       __ZN3awd7metrics21ATM_signaling_message21CheckTypeAndMergeFromERKN6google8protobuf11MessageLiteE, 
                       __ZN3awd7metrics21ATM_signaling_message21InitAsDefaultInstanceEv, 
                       __ZN3awd7metrics21ATM_signaling_message21kCallCountFieldNumberE, 
                       __ZN3awd7metrics21ATM_signaling_message21kTimestampFieldNumberE, 
                       __ZN3awd7metrics21ATM_signaling_message23kIsConnectedFieldNumberE, 
                       __ZN3awd7metrics21ATM_signaling_message27MergePartialFromCodedStreamEPN6google8protobuf2io16CodedInputStreamE, 
                       __ZN3awd7metrics21ATM_signaling_message4SwapEPS1_, 
                       __ZN3awd7metrics21ATM_signaling_message5ClearEv, 
                       __ZN3awd7metrics21ATM_signaling_message8CopyFromERKS1_, 
                       __ZN3awd7metrics21ATM_signaling_message9MergeFromERKS1_, 
                       __ZN3awd7metrics21ATM_signaling_messageC1ERKS1_, 
                       __ZN3awd7metrics21ATM_signaling_messageC1Ev, __ZN3awd7metrics21ATM_signaling_messageC2ERKS1_, 
                       __ZN3awd7metrics21ATM_signaling_messageC2Ev, __ZN3awd7metrics21ATM_signaling_messageD0Ev, 
                       __ZN3awd7metrics21ATM_signaling_messageD1Ev, __ZN3awd7metrics21ATM_signaling_messageD2Ev, 
                       __ZN3awd7metrics21RESPONSE_Code_IsValidEi, __ZN3awd7metrics21conference_call_event10SharedCtorEv, 
                       __ZN3awd7metrics21conference_call_event10SharedDtorEv, 
                       __ZN3awd7metrics21conference_call_event16default_instanceEv, 
                       __ZN3awd7metrics21conference_call_event16kNoteFieldNumberE, 
                       __ZN3awd7metrics21conference_call_event17default_instance_E, 
                       __ZN3awd7metrics21conference_call_event17kStateFieldNumberE, 
                       __ZN3awd7metrics21conference_call_event18kCallIdFieldNumberE, 
                       __ZN3awd7metrics21conference_call_event20kMemebersFieldNumberE, 
                       __ZN3awd7metrics21conference_call_event21CheckTypeAndMergeFromERKN6google8protobuf11MessageLiteE, 
                       __ZN3awd7metrics21conference_call_event21InitAsDefaultInstanceEv, 
                       __ZN3awd7metrics21conference_call_event21kTimestampFieldNumberE, 
                       __ZN3awd7metrics21conference_call_event27MergePartialFromCodedStreamEPN6google8protobuf2io16CodedInputStreamE, 
                       __ZN3awd7metrics21conference_call_event4SwapEPS1_, 
                       __ZN3awd7metrics21conference_call_event5ClearEv, 
                       __ZN3awd7metrics21conference_call_event8CopyFromERKS1_, 
                       __ZN3awd7metrics21conference_call_event9MergeFromERKS1_, 
                       __ZN3awd7metrics21conference_call_eventC1ERKS1_, 
                       __ZN3awd7metrics21conference_call_eventC1Ev, __ZN3awd7metrics21conference_call_eventC2ERKS1_, 
                       __ZN3awd7metrics21conference_call_eventC2Ev, __ZN3awd7metrics21conference_call_eventD0Ev, 
                       __ZN3awd7metrics21conference_call_eventD1Ev, __ZN3awd7metrics21conference_call_eventD2Ev, 
                       __ZN3awd7metrics21enum_RAT_type_IsValidEi, __ZN3awd7metrics23ATM_Registration_Result10SharedCtorEv, 
                       __ZN3awd7metrics23ATM_Registration_Result10SharedDtorEv, 
                       __ZN3awd7metrics23ATM_Registration_Result15kMccFieldNumberE, 
                       __ZN3awd7metrics23ATM_Registration_Result15kMncFieldNumberE, 
                       __ZN3awd7metrics23ATM_Registration_Result16default_instanceEv, 
                       __ZN3awd7metrics23ATM_Registration_Result16kBandFieldNumberE, 
                       __ZN3awd7metrics23ATM_Registration_Result16kTypeFieldNumberE, 
                       __ZN3awd7metrics23ATM_Registration_Result17default_instance_E, 
                       __ZN3awd7metrics23ATM_Registration_Result17kArfcnFieldNumberE, 
                       __ZN3awd7metrics23ATM_Registration_Result17kToUrlFieldNumberE, 
                       __ZN3awd7metrics23ATM_Registration_Result18kAreaIdFieldNumberE, 
                       __ZN3awd7metrics23ATM_Registration_Result18kCallidFieldNumberE, 
                       __ZN3awd7metrics23ATM_Registration_Result18kCellIdFieldNumberE, 
                       __ZN3awd7metrics23ATM_Registration_Result18kResultFieldNumberE, 
                       __ZN3awd7metrics23ATM_Registration_Result18kSecnumFieldNumberE, 
                       __ZN3awd7metrics23ATM_Registration_Result18kStatusFieldNumberE, 
                       __ZN3awd7metrics23ATM_Registration_Result19kContactFieldNumberE, 
                       __ZN3awd7metrics23ATM_Registration_Result19kExpiresFieldNumberE, 
                       __ZN3awd7metrics23ATM_Registration_Result19kFeatureFieldNumberE, 
                       __ZN3awd7metrics23ATM_Registration_Result19kFromUrlFieldNumberE, 
                       __ZN3awd7metrics23ATM_Registration_Result19kLatencyFieldNumberE, 
                       __ZN3awd7metrics23ATM_Registration_Result19kRatInfoFieldNumberE, 
                       __ZN3awd7metrics23ATM_Registration_Result19kRatTypeFieldNumberE, 
                       __ZN3awd7metrics23ATM_Registration_Result21CheckTypeAndMergeFromERKN6google8protobuf11MessageLiteE, 
                       __ZN3awd7metrics23ATM_Registration_Result21InitAsDefaultInstanceEv, 
                       __ZN3awd7metrics23ATM_Registration_Result21kAppUpTimeFieldNumberE, 
                       __ZN3awd7metrics23ATM_Registration_Result21kTimestampFieldNumberE, 
                       __ZN3awd7metrics23ATM_Registration_Result22kAreaIdIos8FieldNumberE, 
                       __ZN3awd7metrics23ATM_Registration_Result22kCellIdIos8FieldNumberE, 
                       __ZN3awd7metrics23ATM_Registration_Result23kLastregtimeFieldNumberE, 
                       __ZN3awd7metrics23ATM_Registration_Result24kAssociationsFieldNumberE, 
                       __ZN3awd7metrics23ATM_Registration_Result25kTotalregtimesFieldNumberE, 
                       __ZN3awd7metrics23ATM_Registration_Result25kTotalregtimevFieldNumberE, 
                       __ZN3awd7metrics23ATM_Registration_Result27MergePartialFromCodedStreamEPN6google8protobuf2io16CodedInputStreamE, 
                       __ZN3awd7metrics23ATM_Registration_Result27kCurrentregtimesFieldNumberE, 
                       __ZN3awd7metrics23ATM_Registration_Result28kTimeAfterLastRegFieldNumberE, 
                       __ZN3awd7metrics23ATM_Registration_Result4SwapEPS1_, 
                       __ZN3awd7metrics23ATM_Registration_Result5ClearEv, 
                       __ZN3awd7metrics23ATM_Registration_Result8CopyFromERKS1_, 
                       __ZN3awd7metrics23ATM_Registration_Result9MergeFromERKS1_, 
                       __ZN3awd7metrics23ATM_Registration_ResultC1ERKS1_, 
                       __ZN3awd7metrics23ATM_Registration_ResultC1Ev, __ZN3awd7metrics23ATM_Registration_ResultC2ERKS1_, 
                       __ZN3awd7metrics23ATM_Registration_ResultC2Ev, __ZN3awd7metrics23ATM_Registration_ResultD0Ev, 
                       __ZN3awd7metrics23ATM_Registration_ResultD1Ev, __ZN3awd7metrics23ATM_Registration_ResultD2Ev, 
                       __ZN3awd7metrics23enum_codec_type_IsValidEi, __ZN3awd7metrics24ATM_Registration_Attempt10SharedCtorEv, 
                       __ZN3awd7metrics24ATM_Registration_Attempt10SharedDtorEv, 
                       __ZN3awd7metrics24ATM_Registration_Attempt15kMccFieldNumberE, 
                       __ZN3awd7metrics24ATM_Registration_Attempt15kMncFieldNumberE, 
                       __ZN3awd7metrics24ATM_Registration_Attempt16default_instanceEv, 
                       __ZN3awd7metrics24ATM_Registration_Attempt16kBandFieldNumberE, 
                       __ZN3awd7metrics24ATM_Registration_Attempt16kTypeFieldNumberE, 
                       __ZN3awd7metrics24ATM_Registration_Attempt17default_instance_E, 
                       __ZN3awd7metrics24ATM_Registration_Attempt17kArfcnFieldNumberE, 
                       __ZN3awd7metrics24ATM_Registration_Attempt17kToUrlFieldNumberE, 
                       __ZN3awd7metrics24ATM_Registration_Attempt18kAreaIdFieldNumberE, 
                       __ZN3awd7metrics24ATM_Registration_Attempt18kCallidFieldNumberE, 
                       __ZN3awd7metrics24ATM_Registration_Attempt18kCellIdFieldNumberE, 
                       __ZN3awd7metrics24ATM_Registration_Attempt18kStatusFieldNumberE, 
                       __ZN3awd7metrics24ATM_Registration_Attempt19kContactFieldNumberE, 
                       __ZN3awd7metrics24ATM_Registration_Attempt19kExpiresFieldNumberE, 
                       __ZN3awd7metrics24ATM_Registration_Attempt19kFeatureFieldNumberE, 
                       __ZN3awd7metrics24ATM_Registration_Attempt19kFromUrlFieldNumberE, 
                       __ZN3awd7metrics24ATM_Registration_Attempt19kPServerFieldNumberE, 
                       __ZN3awd7metrics24ATM_Registration_Attempt19kRatInfoFieldNumberE, 
                       __ZN3awd7metrics24ATM_Registration_Attempt19kRatTypeFieldNumberE, 
                       __ZN3awd7metrics24ATM_Registration_Attempt20kSecAgreeFieldNumberE, 
                       __ZN3awd7metrics24ATM_Registration_Attempt20kUsingTcpFieldNumberE, 
                       __ZN3awd7metrics24ATM_Registration_Attempt21CheckTypeAndMergeFromERKN6google8protobuf11MessageLiteE, 
                       __ZN3awd7metrics24ATM_Registration_Attempt21InitAsDefaultInstanceEv, 
                       __ZN3awd7metrics24ATM_Registration_Attempt21kTimestampFieldNumberE, 
                       __ZN3awd7metrics24ATM_Registration_Attempt21kUserAgentFieldNumberE, 
                       __ZN3awd7metrics24ATM_Registration_Attempt22kAreaIdIos8FieldNumberE, 
                       __ZN3awd7metrics24ATM_Registration_Attempt22kCellIdIos8FieldNumberE, 
                       __ZN3awd7metrics24ATM_Registration_Attempt25kAllowedEventsFieldNumberE, 
                       __ZN3awd7metrics24ATM_Registration_Attempt27MergePartialFromCodedStreamEPN6google8protobuf2io16CodedInputStreamE, 
                       __ZN3awd7metrics24ATM_Registration_Attempt28kTimeAfterLastRegFieldNumberE, 
                       __ZN3awd7metrics24ATM_Registration_Attempt4SwapEPS1_, 
                       __ZN3awd7metrics24ATM_Registration_Attempt5ClearEv, 
                       __ZN3awd7metrics24ATM_Registration_Attempt8CopyFromERKS1_, 
                       __ZN3awd7metrics24ATM_Registration_Attempt9MergeFromERKS1_, 
                       __ZN3awd7metrics24ATM_Registration_AttemptC1ERKS1_, 
                       __ZN3awd7metrics24ATM_Registration_AttemptC1Ev, 
                       __ZN3awd7metrics24ATM_Registration_AttemptC2ERKS1_, 
                       __ZN3awd7metrics24ATM_Registration_AttemptC2Ev, 
                       __ZN3awd7metrics24ATM_Registration_AttemptD0Ev, 
                       __ZN3awd7metrics24ATM_Registration_AttemptD1Ev, 
                       __ZN3awd7metrics24ATM_Registration_AttemptD2Ev, 
                       __ZN3awd7metrics24MetricATM_SoundUMB_State10SharedCtorEv, 
                       __ZN3awd7metrics24MetricATM_SoundUMB_State10SharedDtorEv, 
                       __ZN3awd7metrics24MetricATM_SoundUMB_State16default_instanceEv, 
                       __ZN3awd7metrics24MetricATM_SoundUMB_State17default_instance_E, 
                       __ZN3awd7metrics24MetricATM_SoundUMB_State19kCountOnFieldNumberE, 
                       __ZN3awd7metrics24MetricATM_SoundUMB_State20kCountOffFieldNumberE, 
                       __ZN3awd7metrics24MetricATM_SoundUMB_State21CheckTypeAndMergeFromERKN6google8protobuf11MessageLiteE, 
                       __ZN3awd7metrics24MetricATM_SoundUMB_State21InitAsDefaultInstanceEv, 
                       __ZN3awd7metrics24MetricATM_SoundUMB_State21kTimestampFieldNumberE, 
                       __ZN3awd7metrics24MetricATM_SoundUMB_State22kSoundumbOnFieldNumberE, 
                       __ZN3awd7metrics24MetricATM_SoundUMB_State27MergePartialFromCodedStreamEPN6google8protobuf2io16CodedInputStreamE, 
                       __ZN3awd7metrics24MetricATM_SoundUMB_State4SwapEPS1_, 
                       __ZN3awd7metrics24MetricATM_SoundUMB_State5ClearEv, 
                       __ZN3awd7metrics24MetricATM_SoundUMB_State8CopyFromERKS1_, 
                       __ZN3awd7metrics24MetricATM_SoundUMB_State9MergeFromERKS1_, 
                       __ZN3awd7metrics24MetricATM_SoundUMB_StateC1ERKS1_, 
                       __ZN3awd7metrics24MetricATM_SoundUMB_StateC1Ev, 
                       __ZN3awd7metrics24MetricATM_SoundUMB_StateC2ERKS1_, 
                       __ZN3awd7metrics24MetricATM_SoundUMB_StateC2Ev, 
                       __ZN3awd7metrics24MetricATM_SoundUMB_StateD0Ev, 
                       __ZN3awd7metrics24MetricATM_SoundUMB_StateD1Ev, 
                       __ZN3awd7metrics24MetricATM_SoundUMB_StateD2Ev, 
                       __ZN3awd7metrics25ATM_CallEndEvent_handover10SharedCtorEv, 
                       __ZN3awd7metrics25ATM_CallEndEvent_handover10SharedDtorEv, 
                       __ZN3awd7metrics25ATM_CallEndEvent_handover16default_instanceEv, 
                       __ZN3awd7metrics25ATM_CallEndEvent_handover17default_instance_E, 
                       __ZN3awd7metrics25ATM_CallEndEvent_handover19kNetworkFieldNumberE, 
                       __ZN3awd7metrics25ATM_CallEndEvent_handover21CheckTypeAndMergeFromERKN6google8protobuf11MessageLiteE, 
                       __ZN3awd7metrics25ATM_CallEndEvent_handover21InitAsDefaultInstanceEv, 
                       __ZN3awd7metrics25ATM_CallEndEvent_handover21kStartTimeFieldNumberE, 
                       __ZN3awd7metrics25ATM_CallEndEvent_handover27MergePartialFromCodedStreamEPN6google8protobuf2io16CodedInputStreamE, 
                       __ZN3awd7metrics25ATM_CallEndEvent_handover4SwapEPS1_, 
                       __ZN3awd7metrics25ATM_CallEndEvent_handover5ClearEv, 
                       __ZN3awd7metrics25ATM_CallEndEvent_handover8CopyFromERKS1_, 
                       __ZN3awd7metrics25ATM_CallEndEvent_handover9MergeFromERKS1_, 
                       __ZN3awd7metrics25ATM_CallEndEvent_handoverC1ERKS1_, 
                       __ZN3awd7metrics25ATM_CallEndEvent_handoverC1Ev, 
                       __ZN3awd7metrics25ATM_CallEndEvent_handoverC2ERKS1_, 
                       __ZN3awd7metrics25ATM_CallEndEvent_handoverC2Ev, 
                       __ZN3awd7metrics25ATM_CallEndEvent_handoverD0Ev, 
                       __ZN3awd7metrics25ATM_CallEndEvent_handoverD1Ev, 
                       __ZN3awd7metrics25ATM_CallEndEvent_handoverD2Ev, 
                       __ZN3awd7metrics25ATM_CallEndEvent_myreason10SharedCtorEv, 
                       __ZN3awd7metrics25ATM_CallEndEvent_myreason10SharedDtorEv, 
                       __ZN3awd7metrics25ATM_CallEndEvent_myreason15kMsgFieldNumberE, 
                       __ZN3awd7metrics25ATM_CallEndEvent_myreason16default_instanceEv, 
                       __ZN3awd7metrics25ATM_CallEndEvent_myreason16kTextFieldNumberE, 
                       __ZN3awd7metrics25ATM_CallEndEvent_myreason17default_instance_E, 
                       __ZN3awd7metrics25ATM_CallEndEvent_myreason17kCauseFieldNumberE, 
                       __ZN3awd7metrics25ATM_CallEndEvent_myreason21CheckTypeAndMergeFromERKN6google8protobuf11MessageLiteE, 
                       __ZN3awd7metrics25ATM_CallEndEvent_myreason21InitAsDefaultInstanceEv, 
                       __ZN3awd7metrics25ATM_CallEndEvent_myreason21kRprotocolFieldNumberE, 
                       __ZN3awd7metrics25ATM_CallEndEvent_myreason27MergePartialFromCodedStreamEPN6google8protobuf2io16CodedInputStreamE, 
                       __ZN3awd7metrics25ATM_CallEndEvent_myreason27kReasonExtensionFieldNumberE, 
                       __ZN3awd7metrics25ATM_CallEndEvent_myreason4SwapEPS1_, 
                       __ZN3awd7metrics25ATM_CallEndEvent_myreason5ClearEv, 
                       __ZN3awd7metrics25ATM_CallEndEvent_myreason8CopyFromERKS1_, 
                       __ZN3awd7metrics25ATM_CallEndEvent_myreason9MergeFromERKS1_, 
                       __ZN3awd7metrics25ATM_CallEndEvent_myreasonC1ERKS1_, 
                       __ZN3awd7metrics25ATM_CallEndEvent_myreasonC1Ev, 
                       __ZN3awd7metrics25ATM_CallEndEvent_myreasonC2ERKS1_, 
                       __ZN3awd7metrics25ATM_CallEndEvent_myreasonC2Ev, 
                       __ZN3awd7metrics25ATM_CallEndEvent_myreasonD0Ev, 
                       __ZN3awd7metrics25ATM_CallEndEvent_myreasonD1Ev, 
                       __ZN3awd7metrics25ATM_CallEndEvent_myreasonD2Ev, 
                       __ZN3awd7metrics25BchannelReceiveStatistics10SharedCtorEv, 
                       __ZN3awd7metrics25BchannelReceiveStatistics10SharedDtorEv, 
                       __ZN3awd7metrics25BchannelReceiveStatistics15kRttFieldNumberE, 
                       __ZN3awd7metrics25BchannelReceiveStatistics16default_instanceEv, 
                       __ZN3awd7metrics25BchannelReceiveStatistics16kSsrcFieldNumberE, 
                       __ZN3awd7metrics25BchannelReceiveStatistics17default_instance_E, 
                       __ZN3awd7metrics25BchannelReceiveStatistics18kUseOctFieldNumberE, 
                       __ZN3awd7metrics25BchannelReceiveStatistics19kAmrModeFieldNumberE, 
                       __ZN3awd7metrics25BchannelReceiveStatistics19kUseIpv4FieldNumberE, 
                       __ZN3awd7metrics25BchannelReceiveStatistics20kDurationFieldNumberE, 
                       __ZN3awd7metrics25BchannelReceiveStatistics20kPktcountFieldNumberE, 
                       __ZN3awd7metrics25BchannelReceiveStatistics21CheckTypeAndMergeFromERKN6google8protobuf11MessageLiteE, 
                       __ZN3awd7metrics25BchannelReceiveStatistics21InitAsDefaultInstanceEv, 
                       __ZN3awd7metrics25BchannelReceiveStatistics21kAmrWbModeFieldNumberE, 
                       __ZN3awd7metrics25BchannelReceiveStatistics21kBytecountFieldNumberE, 
                       __ZN3awd7metrics25BchannelReceiveStatistics21kDevJitterFieldNumberE, 
                       __ZN3awd7metrics25BchannelReceiveStatistics21kMaxJitterFieldNumberE, 
                       __ZN3awd7metrics25BchannelReceiveStatistics21kMinJitterFieldNumberE, 
                       __ZN3awd7metrics25BchannelReceiveStatistics21kTimestampFieldNumberE, 
                       __ZN3awd7metrics25BchannelReceiveStatistics22kDupPacketsFieldNumberE, 
                       __ZN3awd7metrics25BchannelReceiveStatistics22kMeanJitterFieldNumberE, 
                       __ZN3awd7metrics25BchannelReceiveStatistics23kLostPacketsFieldNumberE, 
                       __ZN3awd7metrics25BchannelReceiveStatistics24kSrcipaddressFieldNumberE, 
                       __ZN3awd7metrics25BchannelReceiveStatistics27MergePartialFromCodedStreamEPN6google8protobuf2io16CodedInputStreamE, 
                       __ZN3awd7metrics25BchannelReceiveStatistics4SwapEPS1_, 
                       __ZN3awd7metrics25BchannelReceiveStatistics5ClearEv, 
                       __ZN3awd7metrics25BchannelReceiveStatistics8CopyFromERKS1_, 
                       __ZN3awd7metrics25BchannelReceiveStatistics9MergeFromERKS1_, 
                       __ZN3awd7metrics25BchannelReceiveStatisticsC1ERKS1_, 
                       __ZN3awd7metrics25BchannelReceiveStatisticsC1Ev, 
                       __ZN3awd7metrics25BchannelReceiveStatisticsC2ERKS1_, 
                       __ZN3awd7metrics25BchannelReceiveStatisticsC2Ev, 
                       __ZN3awd7metrics25BchannelReceiveStatisticsD0Ev, 
                       __ZN3awd7metrics25BchannelReceiveStatisticsD1Ev, 
                       __ZN3awd7metrics25BchannelReceiveStatisticsD2Ev, 
                       __ZN3awd7metrics25enum_codec_format_IsValidEi, __ZN3awd7metrics25enum_ims_reg_type_IsValidEi, 
                       __ZN3awd7metrics26BchannelTransmitStatistics10SharedCtorEv, 
                       __ZN3awd7metrics26BchannelTransmitStatistics10SharedDtorEv, 
                       __ZN3awd7metrics26BchannelTransmitStatistics15kRttFieldNumberE, 
                       __ZN3awd7metrics26BchannelTransmitStatistics16default_instanceEv, 
                       __ZN3awd7metrics26BchannelTransmitStatistics16kSsrcFieldNumberE, 
                       __ZN3awd7metrics26BchannelTransmitStatistics17default_instance_E, 
                       __ZN3awd7metrics26BchannelTransmitStatistics18kUseOctFieldNumberE, 
                       __ZN3awd7metrics26BchannelTransmitStatistics19kAmrModeFieldNumberE, 
                       __ZN3awd7metrics26BchannelTransmitStatistics19kUseIpv4FieldNumberE, 
                       __ZN3awd7metrics26BchannelTransmitStatistics20kDurationFieldNumberE, 
                       __ZN3awd7metrics26BchannelTransmitStatistics20kPktcountFieldNumberE, 
                       __ZN3awd7metrics26BchannelTransmitStatistics21CheckTypeAndMergeFromERKN6google8protobuf11MessageLiteE, 
                       __ZN3awd7metrics26BchannelTransmitStatistics21InitAsDefaultInstanceEv, 
                       __ZN3awd7metrics26BchannelTransmitStatistics21kAmrWbModeFieldNumberE, 
                       __ZN3awd7metrics26BchannelTransmitStatistics21kBytecountFieldNumberE, 
                       __ZN3awd7metrics26BchannelTransmitStatistics21kDevJitterFieldNumberE, 
                       __ZN3awd7metrics26BchannelTransmitStatistics21kMaxJitterFieldNumberE, 
                       __ZN3awd7metrics26BchannelTransmitStatistics21kMinJitterFieldNumberE, 
                       __ZN3awd7metrics26BchannelTransmitStatistics21kTimestampFieldNumberE, 
                       __ZN3awd7metrics26BchannelTransmitStatistics22kDupPacketsFieldNumberE, 
                       __ZN3awd7metrics26BchannelTransmitStatistics22kMeanJitterFieldNumberE, 
                       __ZN3awd7metrics26BchannelTransmitStatistics23kLostPacketsFieldNumberE, 
                       __ZN3awd7metrics26BchannelTransmitStatistics24kDstipaddressFieldNumberE, 
                       __ZN3awd7metrics26BchannelTransmitStatistics27MergePartialFromCodedStreamEPN6google8protobuf2io16CodedInputStreamE, 
                       __ZN3awd7metrics26BchannelTransmitStatistics4SwapEPS1_, 
                       __ZN3awd7metrics26BchannelTransmitStatistics5ClearEv, 
                       __ZN3awd7metrics26BchannelTransmitStatistics8CopyFromERKS1_, 
                       __ZN3awd7metrics26BchannelTransmitStatistics9MergeFromERKS1_, 
                       __ZN3awd7metrics26BchannelTransmitStatisticsC1ERKS1_, 
                       __ZN3awd7metrics26BchannelTransmitStatisticsC1Ev, 
                       __ZN3awd7metrics26BchannelTransmitStatisticsC2ERKS1_, 
                       __ZN3awd7metrics26BchannelTransmitStatisticsC2Ev, 
                       __ZN3awd7metrics26BchannelTransmitStatisticsD0Ev, 
                       __ZN3awd7metrics26BchannelTransmitStatisticsD1Ev, 
                       __ZN3awd7metrics26BchannelTransmitStatisticsD2Ev, 
                       __ZN3awd7metrics26enum_ATM_call_type_IsValidEi, 
                       __ZN3awd7metrics27enum_ATM_call_state_IsValidEi, 
                       __ZN3awd7metrics28enum_conf_call_event_IsValidEi, 
                       __ZN3awd7metrics28enum_ims_reg_feature_IsValidEi, 
                       __ZN3awd7metrics29protobuf_AddDesc_CATM_2eprotoEv, 
                       __ZN3awd7metrics30enum_ATM_CallEndReason_IsValidEi, 
                       __ZN3awd7metrics32enum_ATM_call_end_status_IsValidEi, 
                       __ZN3awd7metrics33enum_ATM_invite_call_type_IsValidEi, 
                       __ZN3awd7metrics34protobuf_ShutdownFile_CATM_2eprotoEv, 
                       __ZN3awd7metrics34session_termination_reason_IsValidEi, 
                       __ZN3awd7metrics43static_descriptor_initializer_CATM_2eproto_E, 
                       __ZN3awd7metrics49Local_SoundUMB_Dchannel_XR_VoIPMetricsReportBlock10SharedCtorEv, 
                       __ZN3awd7metrics49Local_SoundUMB_Dchannel_XR_VoIPMetricsReportBlock10SharedDtorEv, 
                       __ZN3awd7metrics49Local_SoundUMB_Dchannel_XR_VoIPMetricsReportBlock15kRttFieldNumberE, 
                       __ZN3awd7metrics49Local_SoundUMB_Dchannel_XR_VoIPMetricsReportBlock16default_instanceEv, 
                       __ZN3awd7metrics49Local_SoundUMB_Dchannel_XR_VoIPMetricsReportBlock16kRerlFieldNumberE, 
                       __ZN3awd7metrics49Local_SoundUMB_Dchannel_XR_VoIPMetricsReportBlock16kSsrcFieldNumberE, 
                       __ZN3awd7metrics49Local_SoundUMB_Dchannel_XR_VoIPMetricsReportBlock17default_instance_E, 
                       __ZN3awd7metrics49Local_SoundUMB_Dchannel_XR_VoIPMetricsReportBlock17kMosCqFieldNumberE, 
                       __ZN3awd7metrics49Local_SoundUMB_Dchannel_XR_VoIPMetricsReportBlock17kMosLqFieldNumberE, 
                       __ZN3awd7metrics49Local_SoundUMB_Dchannel_XR_VoIPMetricsReportBlock19kRFactorFieldNumberE, 
                       __ZN3awd7metrics49Local_SoundUMB_Dchannel_XR_VoIPMetricsReportBlock20kJbAbsMaxFieldNumberE, 
                       __ZN3awd7metrics49Local_SoundUMB_Dchannel_XR_VoIPMetricsReportBlock20kLostRateFieldNumberE, 
                       __ZN3awd7metrics49Local_SoundUMB_Dchannel_XR_VoIPMetricsReportBlock20kRxConfigFieldNumberE, 
                       __ZN3awd7metrics49Local_SoundUMB_Dchannel_XR_VoIPMetricsReportBlock21CheckTypeAndMergeFromERKN6google8protobuf11MessageLiteE, 
                       __ZN3awd7metrics49Local_SoundUMB_Dchannel_XR_VoIPMetricsReportBlock21InitAsDefaultInstanceEv, 
                       __ZN3awd7metrics49Local_SoundUMB_Dchannel_XR_VoIPMetricsReportBlock21kJbMaximumFieldNumberE, 
                       __ZN3awd7metrics49Local_SoundUMB_Dchannel_XR_VoIPMetricsReportBlock21kJbNominalFieldNumberE, 
                       __ZN3awd7metrics49Local_SoundUMB_Dchannel_XR_VoIPMetricsReportBlock21kTimestampFieldNumberE, 
                       __ZN3awd7metrics49Local_SoundUMB_Dchannel_XR_VoIPMetricsReportBlock22kExtRFactorFieldNumberE, 
                       __ZN3awd7metrics49Local_SoundUMB_Dchannel_XR_VoIPMetricsReportBlock22kGapDensityFieldNumberE, 
                       __ZN3awd7metrics49Local_SoundUMB_Dchannel_XR_VoIPMetricsReportBlock22kNoiseLevelFieldNumberE, 
                       __ZN3awd7metrics49Local_SoundUMB_Dchannel_XR_VoIPMetricsReportBlock23kBustDensityFieldNumberE, 
                       __ZN3awd7metrics49Local_SoundUMB_Dchannel_XR_VoIPMetricsReportBlock23kDiscardRateFieldNumberE, 
                       __ZN3awd7metrics49Local_SoundUMB_Dchannel_XR_VoIPMetricsReportBlock23kGapDurationFieldNumberE, 
                       __ZN3awd7metrics49Local_SoundUMB_Dchannel_XR_VoIPMetricsReportBlock23kSignalLevelFieldNumberE, 
                       __ZN3awd7metrics49Local_SoundUMB_Dchannel_XR_VoIPMetricsReportBlock25kBurstDurationFieldNumberE, 
                       __ZN3awd7metrics49Local_SoundUMB_Dchannel_XR_VoIPMetricsReportBlock26kEndSystemDelayFieldNumberE, 
                       __ZN3awd7metrics49Local_SoundUMB_Dchannel_XR_VoIPMetricsReportBlock27MergePartialFromCodedStreamEPN6google8protobuf2io16CodedInputStreamE, 
                       __ZN3awd7metrics49Local_SoundUMB_Dchannel_XR_VoIPMetricsReportBlock4SwapEPS1_, 
                       __ZN3awd7metrics49Local_SoundUMB_Dchannel_XR_VoIPMetricsReportBlock5ClearEv, 
                       __ZN3awd7metrics49Local_SoundUMB_Dchannel_XR_VoIPMetricsReportBlock8CopyFromERKS1_, 
                       __ZN3awd7metrics49Local_SoundUMB_Dchannel_XR_VoIPMetricsReportBlock9MergeFromERKS1_, 
                       __ZN3awd7metrics49Local_SoundUMB_Dchannel_XR_VoIPMetricsReportBlockC1ERKS1_, 
                       __ZN3awd7metrics49Local_SoundUMB_Dchannel_XR_VoIPMetricsReportBlockC1Ev, 
                       __ZN3awd7metrics49Local_SoundUMB_Dchannel_XR_VoIPMetricsReportBlockC2ERKS1_, 
                       __ZN3awd7metrics49Local_SoundUMB_Dchannel_XR_VoIPMetricsReportBlockC2Ev, 
                       __ZN3awd7metrics49Local_SoundUMB_Dchannel_XR_VoIPMetricsReportBlockD0Ev, 
                       __ZN3awd7metrics49Local_SoundUMB_Dchannel_XR_VoIPMetricsReportBlockD1Ev, 
                       __ZN3awd7metrics49Local_SoundUMB_Dchannel_XR_VoIPMetricsReportBlockD2Ev, 
                       __ZN3awd7metrics50Remote_SoundUMB_Dchannel_XR_VoIPMetricsReportBlock10SharedCtorEv, 
                       __ZN3awd7metrics50Remote_SoundUMB_Dchannel_XR_VoIPMetricsReportBlock10SharedDtorEv, 
                       __ZN3awd7metrics50Remote_SoundUMB_Dchannel_XR_VoIPMetricsReportBlock15kRttFieldNumberE, 
                       __ZN3awd7metrics50Remote_SoundUMB_Dchannel_XR_VoIPMetricsReportBlock16default_instanceEv, 
                       __ZN3awd7metrics50Remote_SoundUMB_Dchannel_XR_VoIPMetricsReportBlock16kRerlFieldNumberE, 
                       __ZN3awd7metrics50Remote_SoundUMB_Dchannel_XR_VoIPMetricsReportBlock16kSsrcFieldNumberE, 
                       __ZN3awd7metrics50Remote_SoundUMB_Dchannel_XR_VoIPMetricsReportBlock17default_instance_E, 
                       __ZN3awd7metrics50Remote_SoundUMB_Dchannel_XR_VoIPMetricsReportBlock17kMosCqFieldNumberE, 
                       __ZN3awd7metrics50Remote_SoundUMB_Dchannel_XR_VoIPMetricsReportBlock17kMosLqFieldNumberE, 
                       __ZN3awd7metrics50Remote_SoundUMB_Dchannel_XR_VoIPMetricsReportBlock19kRFactorFieldNumberE, 
                       __ZN3awd7metrics50Remote_SoundUMB_Dchannel_XR_VoIPMetricsReportBlock20kJbAbsMaxFieldNumberE, 
                       __ZN3awd7metrics50Remote_SoundUMB_Dchannel_XR_VoIPMetricsReportBlock20kLostRateFieldNumberE, 
                       __ZN3awd7metrics50Remote_SoundUMB_Dchannel_XR_VoIPMetricsReportBlock20kRxConfigFieldNumberE, 
                       __ZN3awd7metrics50Remote_SoundUMB_Dchannel_XR_VoIPMetricsReportBlock21CheckTypeAndMergeFromERKN6google8protobuf11MessageLiteE, 
                       __ZN3awd7metrics50Remote_SoundUMB_Dchannel_XR_VoIPMetricsReportBlock21InitAsDefaultInstanceEv, 
                       __ZN3awd7metrics50Remote_SoundUMB_Dchannel_XR_VoIPMetricsReportBlock21kJbMaximumFieldNumberE, 
                       __ZN3awd7metrics50Remote_SoundUMB_Dchannel_XR_VoIPMetricsReportBlock21kJbNominalFieldNumberE, 
                       __ZN3awd7metrics50Remote_SoundUMB_Dchannel_XR_VoIPMetricsReportBlock21kTimestampFieldNumberE, 
                       __ZN3awd7metrics50Remote_SoundUMB_Dchannel_XR_VoIPMetricsReportBlock22kExtRFactorFieldNumberE, 
                       __ZN3awd7metrics50Remote_SoundUMB_Dchannel_XR_VoIPMetricsReportBlock22kGapDensityFieldNumberE, 
                       __ZN3awd7metrics50Remote_SoundUMB_Dchannel_XR_VoIPMetricsReportBlock22kNoiseLevelFieldNumberE, 
                       __ZN3awd7metrics50Remote_SoundUMB_Dchannel_XR_VoIPMetricsReportBlock23kBustDensityFieldNumberE, 
                       __ZN3awd7metrics50Remote_SoundUMB_Dchannel_XR_VoIPMetricsReportBlock23kDiscardRateFieldNumberE, 
                       __ZN3awd7metrics50Remote_SoundUMB_Dchannel_XR_VoIPMetricsReportBlock23kGapDurationFieldNumberE, 
                       __ZN3awd7metrics50Remote_SoundUMB_Dchannel_XR_VoIPMetricsReportBlock23kSignalLevelFieldNumberE, 
                       __ZN3awd7metrics50Remote_SoundUMB_Dchannel_XR_VoIPMetricsReportBlock25kBurstDurationFieldNumberE, 
                       __ZN3awd7metrics50Remote_SoundUMB_Dchannel_XR_VoIPMetricsReportBlock26kEndSystemDelayFieldNumberE, 
                       __ZN3awd7metrics50Remote_SoundUMB_Dchannel_XR_VoIPMetricsReportBlock27MergePartialFromCodedStreamEPN6google8protobuf2io16CodedInputStreamE, 
                       __ZN3awd7metrics50Remote_SoundUMB_Dchannel_XR_VoIPMetricsReportBlock4SwapEPS1_, 
                       __ZN3awd7metrics50Remote_SoundUMB_Dchannel_XR_VoIPMetricsReportBlock5ClearEv, 
                       __ZN3awd7metrics50Remote_SoundUMB_Dchannel_XR_VoIPMetricsReportBlock8CopyFromERKS1_, 
                       __ZN3awd7metrics50Remote_SoundUMB_Dchannel_XR_VoIPMetricsReportBlock9MergeFromERKS1_, 
                       __ZN3awd7metrics50Remote_SoundUMB_Dchannel_XR_VoIPMetricsReportBlockC1ERKS1_, 
                       __ZN3awd7metrics50Remote_SoundUMB_Dchannel_XR_VoIPMetricsReportBlockC1Ev, 
                       __ZN3awd7metrics50Remote_SoundUMB_Dchannel_XR_VoIPMetricsReportBlockC2ERKS1_, 
                       __ZN3awd7metrics50Remote_SoundUMB_Dchannel_XR_VoIPMetricsReportBlockC2Ev, 
                       __ZN3awd7metrics50Remote_SoundUMB_Dchannel_XR_VoIPMetricsReportBlockD0Ev, 
                       __ZN3awd7metrics50Remote_SoundUMB_Dchannel_XR_VoIPMetricsReportBlockD1Ev, 
                       __ZN3awd7metrics50Remote_SoundUMB_Dchannel_XR_VoIPMetricsReportBlockD2Ev, 
                       __ZN3awd7metrics55Local_SoundUMB_Dchannel_XR_StatisticsSummaryReportBlock10SharedCtorEv, 
                       __ZN3awd7metrics55Local_SoundUMB_Dchannel_XR_StatisticsSummaryReportBlock10SharedDtorEv, 
                       __ZN3awd7metrics55Local_SoundUMB_Dchannel_XR_StatisticsSummaryReportBlock16default_instanceEv, 
                       __ZN3awd7metrics55Local_SoundUMB_Dchannel_XR_StatisticsSummaryReportBlock16kSsrcFieldNumberE, 
                       __ZN3awd7metrics55Local_SoundUMB_Dchannel_XR_StatisticsSummaryReportBlock17default_instance_E, 
                       __ZN3awd7metrics55Local_SoundUMB_Dchannel_XR_StatisticsSummaryReportBlock18kEndSeqFieldNumberE, 
                       __ZN3awd7metrics55Local_SoundUMB_Dchannel_XR_StatisticsSummaryReportBlock20kBeginSeqFieldNumberE, 
                       __ZN3awd7metrics55Local_SoundUMB_Dchannel_XR_StatisticsSummaryReportBlock20kDevTtlH1FieldNumberE, 
                       __ZN3awd7metrics55Local_SoundUMB_Dchannel_XR_StatisticsSummaryReportBlock20kMaxTtlH1FieldNumberE, 
                       __ZN3awd7metrics55Local_SoundUMB_Dchannel_XR_StatisticsSummaryReportBlock21CheckTypeAndMergeFromERKN6google8protobuf11MessageLiteE, 
                       __ZN3awd7metrics55Local_SoundUMB_Dchannel_XR_StatisticsSummaryReportBlock21InitAsDefaultInstanceEv, 
                       __ZN3awd7metrics55Local_SoundUMB_Dchannel_XR_StatisticsSummaryReportBlock21kDevJitterFieldNumberE, 
                       __ZN3awd7metrics55Local_SoundUMB_Dchannel_XR_StatisticsSummaryReportBlock21kMaxJitterFieldNumberE, 
                       __ZN3awd7metrics55Local_SoundUMB_Dchannel_XR_StatisticsSummaryReportBlock21kMeanTtlH1FieldNumberE, 
                       __ZN3awd7metrics55Local_SoundUMB_Dchannel_XR_StatisticsSummaryReportBlock21kMinJitterFieldNumberE, 
                       __ZN3awd7metrics55Local_SoundUMB_Dchannel_XR_StatisticsSummaryReportBlock21kMintTtlH1FieldNumberE, 
                       __ZN3awd7metrics55Local_SoundUMB_Dchannel_XR_StatisticsSummaryReportBlock21kTimestampFieldNumberE, 
                       __ZN3awd7metrics55Local_SoundUMB_Dchannel_XR_StatisticsSummaryReportBlock22kDupPacketsFieldNumberE, 
                       __ZN3awd7metrics55Local_SoundUMB_Dchannel_XR_StatisticsSummaryReportBlock22kMeanJitterFieldNumberE, 
                       __ZN3awd7metrics55Local_SoundUMB_Dchannel_XR_StatisticsSummaryReportBlock23kLostPacketsFieldNumberE, 
                       __ZN3awd7metrics55Local_SoundUMB_Dchannel_XR_StatisticsSummaryReportBlock27MergePartialFromCodedStreamEPN6google8protobuf2io16CodedInputStreamE, 
                       __ZN3awd7metrics55Local_SoundUMB_Dchannel_XR_StatisticsSummaryReportBlock4SwapEPS1_, 
                       __ZN3awd7metrics55Local_SoundUMB_Dchannel_XR_StatisticsSummaryReportBlock5ClearEv, 
                       __ZN3awd7metrics55Local_SoundUMB_Dchannel_XR_StatisticsSummaryReportBlock8CopyFromERKS1_, 
                       __ZN3awd7metrics55Local_SoundUMB_Dchannel_XR_StatisticsSummaryReportBlock9MergeFromERKS1_, 
                       __ZN3awd7metrics55Local_SoundUMB_Dchannel_XR_StatisticsSummaryReportBlockC1ERKS1_, 
                       __ZN3awd7metrics55Local_SoundUMB_Dchannel_XR_StatisticsSummaryReportBlockC1Ev, 
                       __ZN3awd7metrics55Local_SoundUMB_Dchannel_XR_StatisticsSummaryReportBlockC2ERKS1_, 
                       __ZN3awd7metrics55Local_SoundUMB_Dchannel_XR_StatisticsSummaryReportBlockC2Ev, 
                       __ZN3awd7metrics55Local_SoundUMB_Dchannel_XR_StatisticsSummaryReportBlockD0Ev, 
                       __ZN3awd7metrics55Local_SoundUMB_Dchannel_XR_StatisticsSummaryReportBlockD1Ev, 
                       __ZN3awd7metrics55Local_SoundUMB_Dchannel_XR_StatisticsSummaryReportBlockD2Ev, 
                       __ZN3awd7metrics56Remote_SoundUMB_Dchannel_XR_StatisticsSummaryReportBlock10SharedCtorEv, 
                       __ZN3awd7metrics56Remote_SoundUMB_Dchannel_XR_StatisticsSummaryReportBlock10SharedDtorEv, 
                       __ZN3awd7metrics56Remote_SoundUMB_Dchannel_XR_StatisticsSummaryReportBlock16default_instanceEv, 
                       __ZN3awd7metrics56Remote_SoundUMB_Dchannel_XR_StatisticsSummaryReportBlock16kSsrcFieldNumberE, 
                       __ZN3awd7metrics56Remote_SoundUMB_Dchannel_XR_StatisticsSummaryReportBlock17default_instance_E, 
                       __ZN3awd7metrics56Remote_SoundUMB_Dchannel_XR_StatisticsSummaryReportBlock18kEndSeqFieldNumberE, 
                       __ZN3awd7metrics56Remote_SoundUMB_Dchannel_XR_StatisticsSummaryReportBlock20kBeginSeqFieldNumberE, 
                       __ZN3awd7metrics56Remote_SoundUMB_Dchannel_XR_StatisticsSummaryReportBlock20kDevTtlH1FieldNumberE, 
                       __ZN3awd7metrics56Remote_SoundUMB_Dchannel_XR_StatisticsSummaryReportBlock20kMaxTtlH1FieldNumberE, 
                       __ZN3awd7metrics56Remote_SoundUMB_Dchannel_XR_StatisticsSummaryReportBlock21CheckTypeAndMergeFromERKN6google8protobuf11MessageLiteE, 
                       __ZN3awd7metrics56Remote_SoundUMB_Dchannel_XR_StatisticsSummaryReportBlock21InitAsDefaultInstanceEv, 
                       __ZN3awd7metrics56Remote_SoundUMB_Dchannel_XR_StatisticsSummaryReportBlock21kDevJitterFieldNumberE, 
                       __ZN3awd7metrics56Remote_SoundUMB_Dchannel_XR_StatisticsSummaryReportBlock21kMaxJitterFieldNumberE, 
                       __ZN3awd7metrics56Remote_SoundUMB_Dchannel_XR_StatisticsSummaryReportBlock21kMeanTtlH1FieldNumberE, 
                       __ZN3awd7metrics56Remote_SoundUMB_Dchannel_XR_StatisticsSummaryReportBlock21kMinJitterFieldNumberE, 
                       __ZN3awd7metrics56Remote_SoundUMB_Dchannel_XR_StatisticsSummaryReportBlock21kMintTtlH1FieldNumberE, 
                       __ZN3awd7metrics56Remote_SoundUMB_Dchannel_XR_StatisticsSummaryReportBlock21kTimestampFieldNumberE, 
                       __ZN3awd7metrics56Remote_SoundUMB_Dchannel_XR_StatisticsSummaryReportBlock22kDupPacketsFieldNumberE, 
                       __ZN3awd7metrics56Remote_SoundUMB_Dchannel_XR_StatisticsSummaryReportBlock22kMeanJitterFieldNumberE, 
                       __ZN3awd7metrics56Remote_SoundUMB_Dchannel_XR_StatisticsSummaryReportBlock23kLostPacketsFieldNumberE, 
                       __ZN3awd7metrics56Remote_SoundUMB_Dchannel_XR_StatisticsSummaryReportBlock27MergePartialFromCodedStreamEPN6google8protobuf2io16CodedInputStreamE, 
                       __ZN3awd7metrics56Remote_SoundUMB_Dchannel_XR_StatisticsSummaryReportBlock4SwapEPS1_, 
                       __ZN3awd7metrics56Remote_SoundUMB_Dchannel_XR_StatisticsSummaryReportBlock5ClearEv, 
                       __ZN3awd7metrics56Remote_SoundUMB_Dchannel_XR_StatisticsSummaryReportBlock8CopyFromERKS1_, 
                       __ZN3awd7metrics56Remote_SoundUMB_Dchannel_XR_StatisticsSummaryReportBlock9MergeFromERKS1_, 
                       __ZN3awd7metrics56Remote_SoundUMB_Dchannel_XR_StatisticsSummaryReportBlockC1ERKS1_, 
                       __ZN3awd7metrics56Remote_SoundUMB_Dchannel_XR_StatisticsSummaryReportBlockC1Ev, 
                       __ZN3awd7metrics56Remote_SoundUMB_Dchannel_XR_StatisticsSummaryReportBlockC2ERKS1_, 
                       __ZN3awd7metrics56Remote_SoundUMB_Dchannel_XR_StatisticsSummaryReportBlockC2Ev, 
                       __ZN3awd7metrics56Remote_SoundUMB_Dchannel_XR_StatisticsSummaryReportBlockD0Ev, 
                       __ZN3awd7metrics56Remote_SoundUMB_Dchannel_XR_StatisticsSummaryReportBlockD1Ev, 
                       __ZN3awd7metrics56Remote_SoundUMB_Dchannel_XR_StatisticsSummaryReportBlockD2Ev, 
                       __ZNK3awd7metrics16ATM_CallEndEvent11GetTypeNameEv, 
                       __ZNK3awd7metrics16ATM_CallEndEvent13IsInitializedEv, 
                       __ZNK3awd7metrics16ATM_CallEndEvent13SetCachedSizeEi, 
                       __ZNK3awd7metrics16ATM_CallEndEvent24SerializeWithCachedSizesEPN6google8protobuf2io17CodedOutputStreamE, 
                       __ZNK3awd7metrics16ATM_CallEndEvent3NewEv, __ZNK3awd7metrics16ATM_CallEndEvent8ByteSizeEv, 
                       __ZNK3awd7metrics20ATM_CallAttemptEvent11GetTypeNameEv, 
                       __ZNK3awd7metrics20ATM_CallAttemptEvent13IsInitializedEv, 
                       __ZNK3awd7metrics20ATM_CallAttemptEvent13SetCachedSizeEi, 
                       __ZNK3awd7metrics20ATM_CallAttemptEvent24SerializeWithCachedSizesEPN6google8protobuf2io17CodedOutputStreamE, 
                       __ZNK3awd7metrics20ATM_CallAttemptEvent3NewEv, __ZNK3awd7metrics20ATM_CallAttemptEvent8ByteSizeEv, 
                       __ZNK3awd7metrics20ATM_CallConnectEvent11GetTypeNameEv, 
                       __ZNK3awd7metrics20ATM_CallConnectEvent13IsInitializedEv, 
                       __ZNK3awd7metrics20ATM_CallConnectEvent13SetCachedSizeEi, 
                       __ZNK3awd7metrics20ATM_CallConnectEvent24SerializeWithCachedSizesEPN6google8protobuf2io17CodedOutputStreamE, 
                       __ZNK3awd7metrics20ATM_CallConnectEvent3NewEv, __ZNK3awd7metrics20ATM_CallConnectEvent8ByteSizeEv, 
                       __ZNK3awd7metrics21ATM_signaling_message11GetTypeNameEv, 
                       __ZNK3awd7metrics21ATM_signaling_message13IsInitializedEv, 
                       __ZNK3awd7metrics21ATM_signaling_message13SetCachedSizeEi, 
                       __ZNK3awd7metrics21ATM_signaling_message24SerializeWithCachedSizesEPN6google8protobuf2io17CodedOutputStreamE, 
                       __ZNK3awd7metrics21ATM_signaling_message3NewEv, 
                       __ZNK3awd7metrics21ATM_signaling_message8ByteSizeEv, 
                       __ZNK3awd7metrics21conference_call_event11GetTypeNameEv, 
                       __ZNK3awd7metrics21conference_call_event13IsInitializedEv, 
                       __ZNK3awd7metrics21conference_call_event13SetCachedSizeEi, 
                       __ZNK3awd7metrics21conference_call_event24SerializeWithCachedSizesEPN6google8protobuf2io17CodedOutputStreamE, 
                       __ZNK3awd7metrics21conference_call_event3NewEv, 
                       __ZNK3awd7metrics21conference_call_event8ByteSizeEv, 
                       __ZNK3awd7metrics23ATM_Registration_Result11GetTypeNameEv, 
                       __ZNK3awd7metrics23ATM_Registration_Result13IsInitializedEv, 
                       __ZNK3awd7metrics23ATM_Registration_Result13SetCachedSizeEi, 
                       __ZNK3awd7metrics23ATM_Registration_Result24SerializeWithCachedSizesEPN6google8protobuf2io17CodedOutputStreamE, 
                       __ZNK3awd7metrics23ATM_Registration_Result3NewEv, 
                       __ZNK3awd7metrics23ATM_Registration_Result8ByteSizeEv, 
                       __ZNK3awd7metrics24ATM_Registration_Attempt11GetTypeNameEv, 
                       __ZNK3awd7metrics24ATM_Registration_Attempt13IsInitializedEv, 
                       __ZNK3awd7metrics24ATM_Registration_Attempt13SetCachedSizeEi, 
                       __ZNK3awd7metrics24ATM_Registration_Attempt24SerializeWithCachedSizesEPN6google8protobuf2io17CodedOutputStreamE, 
                       __ZNK3awd7metrics24ATM_Registration_Attempt3NewEv, 
                       __ZNK3awd7metrics24ATM_Registration_Attempt8ByteSizeEv, 
                       __ZNK3awd7metrics24MetricATM_SoundUMB_State11GetTypeNameEv, 
                       __ZNK3awd7metrics24MetricATM_SoundUMB_State13IsInitializedEv, 
                       __ZNK3awd7metrics24MetricATM_SoundUMB_State13SetCachedSizeEi, 
                       __ZNK3awd7metrics24MetricATM_SoundUMB_State24SerializeWithCachedSizesEPN6google8protobuf2io17CodedOutputStreamE, 
                       __ZNK3awd7metrics24MetricATM_SoundUMB_State3NewEv, 
                       __ZNK3awd7metrics24MetricATM_SoundUMB_State8ByteSizeEv, 
                       __ZNK3awd7metrics25ATM_CallEndEvent_handover11GetTypeNameEv, 
                       __ZNK3awd7metrics25ATM_CallEndEvent_handover13IsInitializedEv, 
                       __ZNK3awd7metrics25ATM_CallEndEvent_handover13SetCachedSizeEi, 
                       __ZNK3awd7metrics25ATM_CallEndEvent_handover24SerializeWithCachedSizesEPN6google8protobuf2io17CodedOutputStreamE, 
                       __ZNK3awd7metrics25ATM_CallEndEvent_handover3NewEv, 
                       __ZNK3awd7metrics25ATM_CallEndEvent_handover8ByteSizeEv, 
                       __ZNK3awd7metrics25ATM_CallEndEvent_myreason11GetTypeNameEv, 
                       __ZNK3awd7metrics25ATM_CallEndEvent_myreason13IsInitializedEv, 
                       __ZNK3awd7metrics25ATM_CallEndEvent_myreason13SetCachedSizeEi, 
                       __ZNK3awd7metrics25ATM_CallEndEvent_myreason24SerializeWithCachedSizesEPN6google8protobuf2io17CodedOutputStreamE, 
                       __ZNK3awd7metrics25ATM_CallEndEvent_myreason3NewEv, 
                       __ZNK3awd7metrics25ATM_CallEndEvent_myreason8ByteSizeEv, 
                       __ZNK3awd7metrics25BchannelReceiveStatistics11GetTypeNameEv, 
                       __ZNK3awd7metrics25BchannelReceiveStatistics13IsInitializedEv, 
                       __ZNK3awd7metrics25BchannelReceiveStatistics13SetCachedSizeEi, 
                       __ZNK3awd7metrics25BchannelReceiveStatistics24SerializeWithCachedSizesEPN6google8protobuf2io17CodedOutputStreamE, 
                       __ZNK3awd7metrics25BchannelReceiveStatistics3NewEv, 
                       __ZNK3awd7metrics25BchannelReceiveStatistics8ByteSizeEv, 
                       __ZNK3awd7metrics26BchannelTransmitStatistics11GetTypeNameEv, 
                       __ZNK3awd7metrics26BchannelTransmitStatistics13IsInitializedEv, 
                       __ZNK3awd7metrics26BchannelTransmitStatistics13SetCachedSizeEi, 
                       __ZNK3awd7metrics26BchannelTransmitStatistics24SerializeWithCachedSizesEPN6google8protobuf2io17CodedOutputStreamE, 
                       __ZNK3awd7metrics26BchannelTransmitStatistics3NewEv, 
                       __ZNK3awd7metrics26BchannelTransmitStatistics8ByteSizeEv, 
                       __ZNK3awd7metrics49Local_SoundUMB_Dchannel_XR_VoIPMetricsReportBlock11GetTypeNameEv, 
                       __ZNK3awd7metrics49Local_SoundUMB_Dchannel_XR_VoIPMetricsReportBlock13IsInitializedEv, 
                       __ZNK3awd7metrics49Local_SoundUMB_Dchannel_XR_VoIPMetricsReportBlock13SetCachedSizeEi, 
                       __ZNK3awd7metrics49Local_SoundUMB_Dchannel_XR_VoIPMetricsReportBlock24SerializeWithCachedSizesEPN6google8protobuf2io17CodedOutputStreamE, 
                       __ZNK3awd7metrics49Local_SoundUMB_Dchannel_XR_VoIPMetricsReportBlock3NewEv, 
                       __ZNK3awd7metrics49Local_SoundUMB_Dchannel_XR_VoIPMetricsReportBlock8ByteSizeEv, 
                       __ZNK3awd7metrics50Remote_SoundUMB_Dchannel_XR_VoIPMetricsReportBlock11GetTypeNameEv, 
                       __ZNK3awd7metrics50Remote_SoundUMB_Dchannel_XR_VoIPMetricsReportBlock13IsInitializedEv, 
                       __ZNK3awd7metrics50Remote_SoundUMB_Dchannel_XR_VoIPMetricsReportBlock13SetCachedSizeEi, 
                       __ZNK3awd7metrics50Remote_SoundUMB_Dchannel_XR_VoIPMetricsReportBlock24SerializeWithCachedSizesEPN6google8protobuf2io17CodedOutputStreamE, 
                       __ZNK3awd7metrics50Remote_SoundUMB_Dchannel_XR_VoIPMetricsReportBlock3NewEv, 
                       __ZNK3awd7metrics50Remote_SoundUMB_Dchannel_XR_VoIPMetricsReportBlock8ByteSizeEv, 
                       __ZNK3awd7metrics55Local_SoundUMB_Dchannel_XR_StatisticsSummaryReportBlock11GetTypeNameEv, 
                       __ZNK3awd7metrics55Local_SoundUMB_Dchannel_XR_StatisticsSummaryReportBlock13IsInitializedEv, 
                       __ZNK3awd7metrics55Local_SoundUMB_Dchannel_XR_StatisticsSummaryReportBlock13SetCachedSizeEi, 
                       __ZNK3awd7metrics55Local_SoundUMB_Dchannel_XR_StatisticsSummaryReportBlock24SerializeWithCachedSizesEPN6google8protobuf2io17CodedOutputStreamE, 
                       __ZNK3awd7metrics55Local_SoundUMB_Dchannel_XR_StatisticsSummaryReportBlock3NewEv, 
                       __ZNK3awd7metrics55Local_SoundUMB_Dchannel_XR_StatisticsSummaryReportBlock8ByteSizeEv, 
                       __ZNK3awd7metrics56Remote_SoundUMB_Dchannel_XR_StatisticsSummaryReportBlock11GetTypeNameEv, 
                       __ZNK3awd7metrics56Remote_SoundUMB_Dchannel_XR_StatisticsSummaryReportBlock13IsInitializedEv, 
                       __ZNK3awd7metrics56Remote_SoundUMB_Dchannel_XR_StatisticsSummaryReportBlock13SetCachedSizeEi, 
                       __ZNK3awd7metrics56Remote_SoundUMB_Dchannel_XR_StatisticsSummaryReportBlock24SerializeWithCachedSizesEPN6google8protobuf2io17CodedOutputStreamE, 
                       __ZNK3awd7metrics56Remote_SoundUMB_Dchannel_XR_StatisticsSummaryReportBlock3NewEv, 
                       __ZNK3awd7metrics56Remote_SoundUMB_Dchannel_XR_StatisticsSummaryReportBlock8ByteSizeEv, 
                       __ZTIN3awd7metrics16ATM_CallEndEventE, __ZTIN3awd7metrics20ATM_CallAttemptEventE, 
                       __ZTIN3awd7metrics20ATM_CallConnectEventE, __ZTIN3awd7metrics21ATM_signaling_messageE, 
                       __ZTIN3awd7metrics21conference_call_eventE, __ZTIN3awd7metrics23ATM_Registration_ResultE, 
                       __ZTIN3awd7metrics24ATM_Registration_AttemptE, __ZTIN3awd7metrics24MetricATM_SoundUMB_StateE, 
                       __ZTIN3awd7metrics25ATM_CallEndEvent_handoverE, 
                       __ZTIN3awd7metrics25ATM_CallEndEvent_myreasonE, 
                       __ZTIN3awd7metrics25BchannelReceiveStatisticsE, 
                       __ZTIN3awd7metrics26BchannelTransmitStatisticsE, 
                       __ZTIN3awd7metrics49Local_SoundUMB_Dchannel_XR_VoIPMetricsReportBlockE, 
                       __ZTIN3awd7metrics50Remote_SoundUMB_Dchannel_XR_VoIPMetricsReportBlockE, 
                       __ZTIN3awd7metrics55Local_SoundUMB_Dchannel_XR_StatisticsSummaryReportBlockE, 
                       __ZTIN3awd7metrics56Remote_SoundUMB_Dchannel_XR_StatisticsSummaryReportBlockE, 
                       __ZTSN3awd7metrics16ATM_CallEndEventE, __ZTSN3awd7metrics20ATM_CallAttemptEventE, 
                       __ZTSN3awd7metrics20ATM_CallConnectEventE, __ZTSN3awd7metrics21ATM_signaling_messageE, 
                       __ZTSN3awd7metrics21conference_call_eventE, __ZTSN3awd7metrics23ATM_Registration_ResultE, 
                       __ZTSN3awd7metrics24ATM_Registration_AttemptE, __ZTSN3awd7metrics24MetricATM_SoundUMB_StateE, 
                       __ZTSN3awd7metrics25ATM_CallEndEvent_handoverE, 
                       __ZTSN3awd7metrics25ATM_CallEndEvent_myreasonE, 
                       __ZTSN3awd7metrics25BchannelReceiveStatisticsE, 
                       __ZTSN3awd7metrics26BchannelTransmitStatisticsE, 
                       __ZTSN3awd7metrics49Local_SoundUMB_Dchannel_XR_VoIPMetricsReportBlockE, 
                       __ZTSN3awd7metrics50Remote_SoundUMB_Dchannel_XR_VoIPMetricsReportBlockE, 
                       __ZTSN3awd7metrics55Local_SoundUMB_Dchannel_XR_StatisticsSummaryReportBlockE, 
                       __ZTSN3awd7metrics56Remote_SoundUMB_Dchannel_XR_StatisticsSummaryReportBlockE, 
                       __ZTVN3awd7metrics16ATM_CallEndEventE, __ZTVN3awd7metrics20ATM_CallAttemptEventE, 
                       __ZTVN3awd7metrics20ATM_CallConnectEventE, __ZTVN3awd7metrics21ATM_signaling_messageE, 
                       __ZTVN3awd7metrics21conference_call_eventE, __ZTVN3awd7metrics23ATM_Registration_ResultE, 
                       __ZTVN3awd7metrics24ATM_Registration_AttemptE, __ZTVN3awd7metrics24MetricATM_SoundUMB_StateE, 
                       __ZTVN3awd7metrics25ATM_CallEndEvent_handoverE, 
                       __ZTVN3awd7metrics25ATM_CallEndEvent_myreasonE, 
                       __ZTVN3awd7metrics25BchannelReceiveStatisticsE, 
                       __ZTVN3awd7metrics26BchannelTransmitStatisticsE, 
                       __ZTVN3awd7metrics49Local_SoundUMB_Dchannel_XR_VoIPMetricsReportBlockE, 
                       __ZTVN3awd7metrics50Remote_SoundUMB_Dchannel_XR_VoIPMetricsReportBlockE, 
                       __ZTVN3awd7metrics55Local_SoundUMB_Dchannel_XR_StatisticsSummaryReportBlockE, 
                       __ZTVN3awd7metrics56Remote_SoundUMB_Dchannel_XR_StatisticsSummaryReportBlockE ]
...
