---
archs:           [ x86_64 ]
platform:        macosx
install-name:    /System/Library/PrivateFrameworks/WirelessDiagnostics.framework/Versions/A/Libraries/libprotobuf.dylib
exports:         
  - archs:           [ x86_64 ]
    symbols:         [ __ZN6google8protobuf10ReflectionD0Ev, __ZN6google8protobuf10ReflectionD1Ev, 
                       __ZN6google8protobuf10ReflectionD2Ev, __ZN6google8protobuf10SimpleDtoaEd, 
                       __ZN6google8protobuf10SimpleFtoaEf, __ZN6google8protobuf10SimpleItoaEi, 
                       __ZN6google8protobuf10SimpleItoaEj, __ZN6google8protobuf10SimpleItoaEl, 
                       __ZN6google8protobuf10SimpleItoaEm, __ZN6google8protobuf10SimpleItoaEx, 
                       __ZN6google8protobuf10SimpleItoaEy, __ZN6google8protobuf10TextFormat13ParseInfoTree12CreateNestedEPKNS0_15FieldDescriptorE, 
                       __ZN6google8protobuf10TextFormat13ParseInfoTree14RecordLocationEPKNS0_15FieldDescriptorENS1_13ParseLocationE, 
                       __ZN6google8protobuf10TextFormat13ParseInfoTreeC1Ev, 
                       __ZN6google8protobuf10TextFormat13ParseInfoTreeC2Ev, 
                       __ZN6google8protobuf10TextFormat13ParseInfoTreeD1Ev, 
                       __ZN6google8protobuf10TextFormat13ParseInfoTreeD2Ev, 
                       __ZN6google8protobuf10TextFormat13PrintToStringERKNS0_7MessageEPNSt3__112basic_stringIcNS5_11char_traitsIcEENS5_9allocatorIcEEEE, 
                       __ZN6google8protobuf10TextFormat15MergeFromStringERKNSt3__112basic_stringIcNS2_11char_traitsIcEENS2_9allocatorIcEEEEPNS0_7MessageE, 
                       __ZN6google8protobuf10TextFormat15ParseFromStringERKNSt3__112basic_stringIcNS2_11char_traitsIcEENS2_9allocatorIcEEEEPNS0_7MessageE, 
                       __ZN6google8protobuf10TextFormat18PrintUnknownFieldsERKNS0_15UnknownFieldSetEPNS0_2io20ZeroCopyOutputStreamE, 
                       __ZN6google8protobuf10TextFormat23PrintFieldValueToStringERKNS0_7MessageEPKNS0_15FieldDescriptorEiPNSt3__112basic_stringIcNS8_11char_traitsIcEENS8_9allocatorIcEEEE, 
                       __ZN6google8protobuf10TextFormat25ParseFieldValueFromStringERKNSt3__112basic_stringIcNS2_11char_traitsIcEENS2_9allocatorIcEEEEPKNS0_15FieldDescriptorEPNS0_7MessageE, 
                       __ZN6google8protobuf10TextFormat26PrintUnknownFieldsToStringERKNS0_15UnknownFieldSetEPNSt3__112basic_stringIcNS5_11char_traitsIcEENS5_9allocatorIcEEEE, 
                       __ZN6google8protobuf10TextFormat5MergeEPNS0_2io19ZeroCopyInputStreamEPNS0_7MessageE, 
                       __ZN6google8protobuf10TextFormat5ParseEPNS0_2io19ZeroCopyInputStreamEPNS0_7MessageE, 
                       __ZN6google8protobuf10TextFormat5PrintERKNS0_7MessageEPNS0_2io20ZeroCopyOutputStreamE, 
                       __ZN6google8protobuf10TextFormat6FinderD0Ev, __ZN6google8protobuf10TextFormat6FinderD1Ev, 
                       __ZN6google8protobuf10TextFormat6FinderD2Ev, __ZN6google8protobuf10TextFormat6Parser14MergeUsingImplEPNS0_2io19ZeroCopyInputStreamEPNS0_7MessageEPNS2_10ParserImplE, 
                       __ZN6google8protobuf10TextFormat6Parser15MergeFromStringERKNSt3__112basic_stringIcNS3_11char_traitsIcEENS3_9allocatorIcEEEEPNS0_7MessageE, 
                       __ZN6google8protobuf10TextFormat6Parser15ParseFromStringERKNSt3__112basic_stringIcNS3_11char_traitsIcEENS3_9allocatorIcEEEEPNS0_7MessageE, 
                       __ZN6google8protobuf10TextFormat6Parser25ParseFieldValueFromStringERKNSt3__112basic_stringIcNS3_11char_traitsIcEENS3_9allocatorIcEEEEPKNS0_15FieldDescriptorEPNS0_7MessageE, 
                       __ZN6google8protobuf10TextFormat6Parser5MergeEPNS0_2io19ZeroCopyInputStreamEPNS0_7MessageE, 
                       __ZN6google8protobuf10TextFormat6Parser5ParseEPNS0_2io19ZeroCopyInputStreamEPNS0_7MessageE, 
                       __ZN6google8protobuf10TextFormat6ParserC1Ev, __ZN6google8protobuf10TextFormat6ParserC2Ev, 
                       __ZN6google8protobuf10TextFormat6ParserD1Ev, __ZN6google8protobuf10TextFormat6ParserD2Ev, 
                       __ZN6google8protobuf10TextFormat7PrinterC1Ev, __ZN6google8protobuf10TextFormat7PrinterC2Ev, 
                       __ZN6google8protobuf10TextFormat7PrinterD1Ev, __ZN6google8protobuf10TextFormat7PrinterD2Ev, 
                       __ZN6google8protobuf11EnumOptions10SharedCtorEv, 
                       __ZN6google8protobuf11EnumOptions10SharedDtorEv, 
                       __ZN6google8protobuf11EnumOptions10descriptorEv, 
                       __ZN6google8protobuf11EnumOptions16default_instanceEv, 
                       __ZN6google8protobuf11EnumOptions17default_instance_E, 
                       __ZN6google8protobuf11EnumOptions21InitAsDefaultInstanceEv, 
                       __ZN6google8protobuf11EnumOptions22kAllowAliasFieldNumberE, 
                       __ZN6google8protobuf11EnumOptions27MergePartialFromCodedStreamEPNS0_2io16CodedInputStreamE, 
                       __ZN6google8protobuf11EnumOptions31kUninterpretedOptionFieldNumberE, 
                       __ZN6google8protobuf11EnumOptions4SwapEPS1_, __ZN6google8protobuf11EnumOptions5ClearEv, 
                       __ZN6google8protobuf11EnumOptions8CopyFromERKNS0_7MessageE, 
                       __ZN6google8protobuf11EnumOptions8CopyFromERKS1_, 
                       __ZN6google8protobuf11EnumOptions9MergeFromERKNS0_7MessageE, 
                       __ZN6google8protobuf11EnumOptions9MergeFromERKS1_, 
                       __ZN6google8protobuf11EnumOptionsC1ERKS1_, __ZN6google8protobuf11EnumOptionsC1Ev, 
                       __ZN6google8protobuf11EnumOptionsC2ERKS1_, __ZN6google8protobuf11EnumOptionsC2Ev, 
                       __ZN6google8protobuf11EnumOptionsD0Ev, __ZN6google8protobuf11EnumOptionsD1Ev, 
                       __ZN6google8protobuf11EnumOptionsD2Ev, __ZN6google8protobuf11FileOptions10SharedCtorEv, 
                       __ZN6google8protobuf11FileOptions10SharedDtorEv, 
                       __ZN6google8protobuf11FileOptions10descriptorEv, 
                       __ZN6google8protobuf11FileOptions12LITE_RUNTIMEE, 
                       __ZN6google8protobuf11FileOptions16OptimizeMode_MAXE, 
                       __ZN6google8protobuf11FileOptions16OptimizeMode_MINE, 
                       __ZN6google8protobuf11FileOptions16default_instanceEv, 
                       __ZN6google8protobuf11FileOptions17default_instance_E, 
                       __ZN6google8protobuf11FileOptions21InitAsDefaultInstanceEv, 
                       __ZN6google8protobuf11FileOptions21kGoPackageFieldNumberE, 
                       __ZN6google8protobuf11FileOptions22OptimizeMode_ARRAYSIZEE, 
                       __ZN6google8protobuf11FileOptions23kJavaPackageFieldNumberE, 
                       __ZN6google8protobuf11FileOptions23kOptimizeForFieldNumberE, 
                       __ZN6google8protobuf11FileOptions27MergePartialFromCodedStreamEPNS0_2io16CodedInputStreamE, 
                       __ZN6google8protobuf11FileOptions29kCcGenericServicesFieldNumberE, 
                       __ZN6google8protobuf11FileOptions29kJavaMultipleFilesFieldNumberE, 
                       __ZN6google8protobuf11FileOptions29kPyGenericServicesFieldNumberE, 
                       __ZN6google8protobuf11FileOptions30kJavaOuterClassnameFieldNumberE, 
                       __ZN6google8protobuf11FileOptions31kJavaGenericServicesFieldNumberE, 
                       __ZN6google8protobuf11FileOptions31kUninterpretedOptionFieldNumberE, 
                       __ZN6google8protobuf11FileOptions37kJavaGenerateEqualsAndHashFieldNumberE, 
                       __ZN6google8protobuf11FileOptions4SwapEPS1_, __ZN6google8protobuf11FileOptions5ClearEv, 
                       __ZN6google8protobuf11FileOptions5SPEEDE, __ZN6google8protobuf11FileOptions8CopyFromERKNS0_7MessageE, 
                       __ZN6google8protobuf11FileOptions8CopyFromERKS1_, 
                       __ZN6google8protobuf11FileOptions9CODE_SIZEE, __ZN6google8protobuf11FileOptions9MergeFromERKNS0_7MessageE, 
                       __ZN6google8protobuf11FileOptions9MergeFromERKS1_, 
                       __ZN6google8protobuf11FileOptionsC1ERKS1_, __ZN6google8protobuf11FileOptionsC1Ev, 
                       __ZN6google8protobuf11FileOptionsC2ERKS1_, __ZN6google8protobuf11FileOptionsC2Ev, 
                       __ZN6google8protobuf11FileOptionsD0Ev, __ZN6google8protobuf11FileOptionsD1Ev, 
                       __ZN6google8protobuf11FileOptionsD2Ev, __ZN6google8protobuf11JoinStringsERKNSt3__16vectorINS1_12basic_stringIcNS1_11char_traitsIcEENS1_9allocatorIcEEEENS6_IS8_EEEEPKcPS8_, 
                       __ZN6google8protobuf11LogSilencerC1Ev, __ZN6google8protobuf11LogSilencerC2Ev, 
                       __ZN6google8protobuf11LogSilencerD1Ev, __ZN6google8protobuf11LogSilencerD2Ev, 
                       __ZN6google8protobuf11MessageLite14ParseFromArrayEPKvi, 
                       __ZN6google8protobuf11MessageLite15ParseFromStringERKNSt3__112basic_stringIcNS2_11char_traitsIcEENS2_9allocatorIcEEEE, 
                       __ZN6google8protobuf11MessageLite20MergeFromCodedStreamEPNS0_2io16CodedInputStreamE, 
                       __ZN6google8protobuf11MessageLite20ParseFromCodedStreamEPNS0_2io16CodedInputStreamE, 
                       __ZN6google8protobuf11MessageLite21ParsePartialFromArrayEPKvi, 
                       __ZN6google8protobuf11MessageLite22ParsePartialFromStringERKNSt3__112basic_stringIcNS2_11char_traitsIcEENS2_9allocatorIcEEEE, 
                       __ZN6google8protobuf11MessageLite23ParseFromZeroCopyStreamEPNS0_2io19ZeroCopyInputStreamE, 
                       __ZN6google8protobuf11MessageLite27ParsePartialFromCodedStreamEPNS0_2io16CodedInputStreamE, 
                       __ZN6google8protobuf11MessageLite30ParseFromBoundedZeroCopyStreamEPNS0_2io19ZeroCopyInputStreamEi, 
                       __ZN6google8protobuf11MessageLite30ParsePartialFromZeroCopyStreamEPNS0_2io19ZeroCopyInputStreamE, 
                       __ZN6google8protobuf11MessageLite37ParsePartialFromBoundedZeroCopyStreamEPNS0_2io19ZeroCopyInputStreamEi, 
                       __ZN6google8protobuf11MessageLiteD0Ev, __ZN6google8protobuf11MessageLiteD1Ev, 
                       __ZN6google8protobuf11MessageLiteD2Ev, __ZN6google8protobuf11StripStringEPNSt3__112basic_stringIcNS1_11char_traitsIcEENS1_9allocatorIcEEEEPKcc, 
                       __ZN6google8protobuf11safe_strtofEPKcPf, __ZN6google8protobuf12FieldOptions10SharedCtorEv, 
                       __ZN6google8protobuf12FieldOptions10SharedDtorEv, 
                       __ZN6google8protobuf12FieldOptions10descriptorEv, 
                       __ZN6google8protobuf12FieldOptions12STRING_PIECEE, 
                       __ZN6google8protobuf12FieldOptions15CType_ARRAYSIZEE, 
                       __ZN6google8protobuf12FieldOptions16default_instanceEv, 
                       __ZN6google8protobuf12FieldOptions16kLazyFieldNumberE, 
                       __ZN6google8protobuf12FieldOptions16kWeakFieldNumberE, 
                       __ZN6google8protobuf12FieldOptions17default_instance_E, 
                       __ZN6google8protobuf12FieldOptions17kCtypeFieldNumberE, 
                       __ZN6google8protobuf12FieldOptions18kPackedFieldNumberE, 
                       __ZN6google8protobuf12FieldOptions21InitAsDefaultInstanceEv, 
                       __ZN6google8protobuf12FieldOptions22kDeprecatedFieldNumberE, 
                       __ZN6google8protobuf12FieldOptions27MergePartialFromCodedStreamEPNS0_2io16CodedInputStreamE, 
                       __ZN6google8protobuf12FieldOptions30kExperimentalMapKeyFieldNumberE, 
                       __ZN6google8protobuf12FieldOptions31kUninterpretedOptionFieldNumberE, 
                       __ZN6google8protobuf12FieldOptions4CORDE, __ZN6google8protobuf12FieldOptions4SwapEPS1_, 
                       __ZN6google8protobuf12FieldOptions5ClearEv, __ZN6google8protobuf12FieldOptions6STRINGE, 
                       __ZN6google8protobuf12FieldOptions8CopyFromERKNS0_7MessageE, 
                       __ZN6google8protobuf12FieldOptions8CopyFromERKS1_, 
                       __ZN6google8protobuf12FieldOptions9CType_MAXE, __ZN6google8protobuf12FieldOptions9CType_MINE, 
                       __ZN6google8protobuf12FieldOptions9MergeFromERKNS0_7MessageE, 
                       __ZN6google8protobuf12FieldOptions9MergeFromERKS1_, 
                       __ZN6google8protobuf12FieldOptionsC1ERKS1_, __ZN6google8protobuf12FieldOptionsC1Ev, 
                       __ZN6google8protobuf12FieldOptionsC2ERKS1_, __ZN6google8protobuf12FieldOptionsC2Ev, 
                       __ZN6google8protobuf12FieldOptionsD0Ev, __ZN6google8protobuf12FieldOptionsD1Ev, 
                       __ZN6google8protobuf12FieldOptionsD2Ev, __ZN6google8protobuf12StringPrintfEPKcz, 
                       __ZN6google8protobuf12UnknownField6DeleteEv, __ZN6google8protobuf12UnknownField8DeepCopyEv, 
                       __ZN6google8protobuf13CEscapeStringEPKciPci, __ZN6google8protobuf13FloatToBufferEfPc, 
                       __ZN6google8protobuf13LocalizeRadixEPKcS2_, __ZN6google8protobuf13MethodOptions10SharedCtorEv, 
                       __ZN6google8protobuf13MethodOptions10SharedDtorEv, 
                       __ZN6google8protobuf13MethodOptions10descriptorEv, 
                       __ZN6google8protobuf13MethodOptions16default_instanceEv, 
                       __ZN6google8protobuf13MethodOptions17default_instance_E, 
                       __ZN6google8protobuf13MethodOptions21InitAsDefaultInstanceEv, 
                       __ZN6google8protobuf13MethodOptions27MergePartialFromCodedStreamEPNS0_2io16CodedInputStreamE, 
                       __ZN6google8protobuf13MethodOptions31kUninterpretedOptionFieldNumberE, 
                       __ZN6google8protobuf13MethodOptions4SwapEPS1_, __ZN6google8protobuf13MethodOptions5ClearEv, 
                       __ZN6google8protobuf13MethodOptions8CopyFromERKNS0_7MessageE, 
                       __ZN6google8protobuf13MethodOptions8CopyFromERKS1_, 
                       __ZN6google8protobuf13MethodOptions9MergeFromERKNS0_7MessageE, 
                       __ZN6google8protobuf13MethodOptions9MergeFromERKS1_, 
                       __ZN6google8protobuf13MethodOptionsC1ERKS1_, __ZN6google8protobuf13MethodOptionsC1Ev, 
                       __ZN6google8protobuf13MethodOptionsC2ERKS1_, __ZN6google8protobuf13MethodOptionsC2Ev, 
                       __ZN6google8protobuf13MethodOptionsD0Ev, __ZN6google8protobuf13MethodOptionsD1Ev, 
                       __ZN6google8protobuf13MethodOptionsD2Ev, __ZN6google8protobuf13SStringPrintfEPNSt3__112basic_stringIcNS1_11char_traitsIcEENS1_9allocatorIcEEEEPKcz, 
                       __ZN6google8protobuf13SetLogHandlerEPFvNS0_8LogLevelEPKciRKNSt3__112basic_stringIcNS4_11char_traitsIcEENS4_9allocatorIcEEEEE, 
                       __ZN6google8protobuf13StringAppendFEPNSt3__112basic_stringIcNS1_11char_traitsIcEENS1_9allocatorIcEEEEPKcz, 
                       __ZN6google8protobuf13StringAppendVEPNSt3__112basic_stringIcNS1_11char_traitsIcEENS1_9allocatorIcEEEEPKcP13__va_list_tag, 
                       __ZN6google8protobuf13StringReplaceERKNSt3__112basic_stringIcNS1_11char_traitsIcEENS1_9allocatorIcEEEES9_S9_b, 
                       __ZN6google8protobuf13StringReplaceERKNSt3__112basic_stringIcNS1_11char_traitsIcEENS1_9allocatorIcEEEES9_S9_bPS7_, 
                       __ZN6google8protobuf14DescriptorPool14ErrorCollectorD0Ev, 
                       __ZN6google8protobuf14DescriptorPool14ErrorCollectorD1Ev, 
                       __ZN6google8protobuf14DescriptorPool14ErrorCollectorD2Ev, 
                       __ZN6google8protobuf14DescriptorPool14generated_poolEv, 
                       __ZN6google8protobuf14DescriptorPool23internal_generated_poolEv, 
                       __ZN6google8protobuf14DescriptorPool24InternalAddGeneratedFileEPKvi, 
                       __ZN6google8protobuf14DescriptorPool25BuildFileCollectingErrorsERKNS0_19FileDescriptorProtoEPNS1_14ErrorCollectorE, 
                       __ZN6google8protobuf14DescriptorPool31InternalDontEnforceDependenciesEv, 
                       __ZN6google8protobuf14DescriptorPool6Tables12AddExtensionEPKNS0_15FieldDescriptorE, 
                       __ZN6google8protobuf14DescriptorPool6Tables13AddCheckpointEv, 
                       __ZN6google8protobuf14DescriptorPool6Tables13AllocateBytesEi, 
                       __ZN6google8protobuf14DescriptorPool6Tables14AllocateStringERKNSt3__112basic_stringIcNS3_11char_traitsIcEENS3_9allocatorIcEEEE, 
                       __ZN6google8protobuf14DescriptorPool6Tables18AllocateFileTablesEv, 
                       __ZN6google8protobuf14DescriptorPool6Tables19ClearLastCheckpointEv, 
                       __ZN6google8protobuf14DescriptorPool6Tables24RollbackToLastCheckpointEv, 
                       __ZN6google8protobuf14DescriptorPool6Tables7AddFileEPKNS0_14FileDescriptorE, 
                       __ZN6google8protobuf14DescriptorPool6TablesC1Ev, 
                       __ZN6google8protobuf14DescriptorPool6TablesC2Ev, 
                       __ZN6google8protobuf14DescriptorPool6TablesD1Ev, 
                       __ZN6google8protobuf14DescriptorPool6TablesD2Ev, 
                       __ZN6google8protobuf14DescriptorPool9BuildFileERKNS0_19FileDescriptorProtoE, 
                       __ZN6google8protobuf14DescriptorPoolC1EPKS1_, __ZN6google8protobuf14DescriptorPoolC1EPNS0_18DescriptorDatabaseEPNS1_14ErrorCollectorE, 
                       __ZN6google8protobuf14DescriptorPoolC1Ev, __ZN6google8protobuf14DescriptorPoolC2EPKS1_, 
                       __ZN6google8protobuf14DescriptorPoolC2EPNS0_18DescriptorDatabaseEPNS1_14ErrorCollectorE, 
                       __ZN6google8protobuf14DescriptorPoolC2Ev, __ZN6google8protobuf14DescriptorPoolD1Ev, 
                       __ZN6google8protobuf14DescriptorPoolD2Ev, __ZN6google8protobuf14DoubleToBufferEdPc, 
                       __ZN6google8protobuf14DynamicMessage19CrossLinkPrototypesEv, 
                       __ZN6google8protobuf14DynamicMessageC1EPKNS1_8TypeInfoE, 
                       __ZN6google8protobuf14DynamicMessageC2EPKNS1_8TypeInfoE, 
                       __ZN6google8protobuf14DynamicMessageD0Ev, __ZN6google8protobuf14DynamicMessageD1Ev, 
                       __ZN6google8protobuf14DynamicMessageD2Ev, __ZN6google8protobuf14FatalExceptionD0Ev, 
                       __ZN6google8protobuf14FatalExceptionD1Ev, __ZN6google8protobuf14FatalExceptionD2Ev, 
                       __ZN6google8protobuf14MessageFactory17generated_factoryEv, 
                       __ZN6google8protobuf14MessageFactory29InternalRegisterGeneratedFileEPKcPFvRKNSt3__112basic_stringIcNS4_11char_traitsIcEENS4_9allocatorIcEEEEE, 
                       __ZN6google8protobuf14MessageFactory32InternalRegisterGeneratedMessageEPKNS0_10DescriptorEPKNS0_7MessageE, 
                       __ZN6google8protobuf14MessageFactoryD0Ev, __ZN6google8protobuf14MessageFactoryD1Ev, 
                       __ZN6google8protobuf14MessageFactoryD2Ev, __ZN6google8protobuf14MessageOptions10SharedCtorEv, 
                       __ZN6google8protobuf14MessageOptions10SharedDtorEv, 
                       __ZN6google8protobuf14MessageOptions10descriptorEv, 
                       __ZN6google8protobuf14MessageOptions16default_instanceEv, 
                       __ZN6google8protobuf14MessageOptions17default_instance_E, 
                       __ZN6google8protobuf14MessageOptions21InitAsDefaultInstanceEv, 
                       __ZN6google8protobuf14MessageOptions27MergePartialFromCodedStreamEPNS0_2io16CodedInputStreamE, 
                       __ZN6google8protobuf14MessageOptions31kUninterpretedOptionFieldNumberE, 
                       __ZN6google8protobuf14MessageOptions32kMessageSetWireFormatFieldNumberE, 
                       __ZN6google8protobuf14MessageOptions40kNoStandardDescriptorAccessorFieldNumberE, 
                       __ZN6google8protobuf14MessageOptions4SwapEPS1_, 
                       __ZN6google8protobuf14MessageOptions5ClearEv, __ZN6google8protobuf14MessageOptions8CopyFromERKNS0_7MessageE, 
                       __ZN6google8protobuf14MessageOptions8CopyFromERKS1_, 
                       __ZN6google8protobuf14MessageOptions9MergeFromERKNS0_7MessageE, 
                       __ZN6google8protobuf14MessageOptions9MergeFromERKS1_, 
                       __ZN6google8protobuf14MessageOptionsC1ERKS1_, __ZN6google8protobuf14MessageOptionsC1Ev, 
                       __ZN6google8protobuf14MessageOptionsC2ERKS1_, __ZN6google8protobuf14MessageOptionsC2Ev, 
                       __ZN6google8protobuf14MessageOptionsD0Ev, __ZN6google8protobuf14MessageOptionsD1Ev, 
                       __ZN6google8protobuf14MessageOptionsD2Ev, __ZN6google8protobuf14NoLocaleStrtodEPKcPPc, 
                       __ZN6google8protobuf14ServiceOptions10SharedCtorEv, 
                       __ZN6google8protobuf14ServiceOptions10SharedDtorEv, 
                       __ZN6google8protobuf14ServiceOptions10descriptorEv, 
                       __ZN6google8protobuf14ServiceOptions16default_instanceEv, 
                       __ZN6google8protobuf14ServiceOptions17default_instance_E, 
                       __ZN6google8protobuf14ServiceOptions21InitAsDefaultInstanceEv, 
                       __ZN6google8protobuf14ServiceOptions27MergePartialFromCodedStreamEPNS0_2io16CodedInputStreamE, 
                       __ZN6google8protobuf14ServiceOptions31kUninterpretedOptionFieldNumberE, 
                       __ZN6google8protobuf14ServiceOptions4SwapEPS1_, 
                       __ZN6google8protobuf14ServiceOptions5ClearEv, __ZN6google8protobuf14ServiceOptions8CopyFromERKNS0_7MessageE, 
                       __ZN6google8protobuf14ServiceOptions8CopyFromERKS1_, 
                       __ZN6google8protobuf14ServiceOptions9MergeFromERKNS0_7MessageE, 
                       __ZN6google8protobuf14ServiceOptions9MergeFromERKS1_, 
                       __ZN6google8protobuf14ServiceOptionsC1ERKS1_, __ZN6google8protobuf14ServiceOptionsC1Ev, 
                       __ZN6google8protobuf14ServiceOptionsC2ERKS1_, __ZN6google8protobuf14ServiceOptionsC2Ev, 
                       __ZN6google8protobuf14ServiceOptionsD0Ev, __ZN6google8protobuf14ServiceOptionsD1Ev, 
                       __ZN6google8protobuf14ServiceOptionsD2Ev, __ZN6google8protobuf14SourceCodeInfo10SharedCtorEv, 
                       __ZN6google8protobuf14SourceCodeInfo10SharedDtorEv, 
                       __ZN6google8protobuf14SourceCodeInfo10descriptorEv, 
                       __ZN6google8protobuf14SourceCodeInfo16default_instanceEv, 
                       __ZN6google8protobuf14SourceCodeInfo17default_instance_E, 
                       __ZN6google8protobuf14SourceCodeInfo20kLocationFieldNumberE, 
                       __ZN6google8protobuf14SourceCodeInfo21InitAsDefaultInstanceEv, 
                       __ZN6google8protobuf14SourceCodeInfo27MergePartialFromCodedStreamEPNS0_2io16CodedInputStreamE, 
                       __ZN6google8protobuf14SourceCodeInfo4SwapEPS1_, 
                       __ZN6google8protobuf14SourceCodeInfo5ClearEv, __ZN6google8protobuf14SourceCodeInfo8CopyFromERKNS0_7MessageE, 
                       __ZN6google8protobuf14SourceCodeInfo8CopyFromERKS1_, 
                       __ZN6google8protobuf14SourceCodeInfo9MergeFromERKNS0_7MessageE, 
                       __ZN6google8protobuf14SourceCodeInfo9MergeFromERKS1_, 
                       __ZN6google8protobuf14SourceCodeInfoC1ERKS1_, __ZN6google8protobuf14SourceCodeInfoC1Ev, 
                       __ZN6google8protobuf14SourceCodeInfoC2ERKS1_, __ZN6google8protobuf14SourceCodeInfoC2Ev, 
                       __ZN6google8protobuf14SourceCodeInfoD0Ev, __ZN6google8protobuf14SourceCodeInfoD1Ev, 
                       __ZN6google8protobuf14SourceCodeInfoD2Ev, __ZN6google8protobuf15CEscapeInternalEPKciPcibb, 
                       __ZN6google8protobuf15CheckFieldIndexEPKNS0_15FieldDescriptorEi, 
                       __ZN6google8protobuf15DelocalizeRadixEPc, __ZN6google8protobuf15DescriptorProto10SharedCtorEv, 
                       __ZN6google8protobuf15DescriptorProto10SharedDtorEv, 
                       __ZN6google8protobuf15DescriptorProto10descriptorEv, 
                       __ZN6google8protobuf15DescriptorProto16default_instanceEv, 
                       __ZN6google8protobuf15DescriptorProto16kNameFieldNumberE, 
                       __ZN6google8protobuf15DescriptorProto17default_instance_E, 
                       __ZN6google8protobuf15DescriptorProto17kFieldFieldNumberE, 
                       __ZN6google8protobuf15DescriptorProto19kOptionsFieldNumberE, 
                       __ZN6google8protobuf15DescriptorProto20kEnumTypeFieldNumberE, 
                       __ZN6google8protobuf15DescriptorProto21InitAsDefaultInstanceEv, 
                       __ZN6google8protobuf15DescriptorProto21kExtensionFieldNumberE, 
                       __ZN6google8protobuf15DescriptorProto22kNestedTypeFieldNumberE, 
                       __ZN6google8protobuf15DescriptorProto26kExtensionRangeFieldNumberE, 
                       __ZN6google8protobuf15DescriptorProto27MergePartialFromCodedStreamEPNS0_2io16CodedInputStreamE, 
                       __ZN6google8protobuf15DescriptorProto4SwapEPS1_, 
                       __ZN6google8protobuf15DescriptorProto5ClearEv, __ZN6google8protobuf15DescriptorProto8CopyFromERKNS0_7MessageE, 
                       __ZN6google8protobuf15DescriptorProto8CopyFromERKS1_, 
                       __ZN6google8protobuf15DescriptorProto9MergeFromERKNS0_7MessageE, 
                       __ZN6google8protobuf15DescriptorProto9MergeFromERKS1_, 
                       __ZN6google8protobuf15DescriptorProtoC1ERKS1_, __ZN6google8protobuf15DescriptorProtoC1Ev, 
                       __ZN6google8protobuf15DescriptorProtoC2ERKS1_, __ZN6google8protobuf15DescriptorProtoC2Ev, 
                       __ZN6google8protobuf15DescriptorProtoD0Ev, __ZN6google8protobuf15DescriptorProtoD1Ev, 
                       __ZN6google8protobuf15DescriptorProtoD2Ev, __ZN6google8protobuf15FastHexToBufferEiPc, 
                       __ZN6google8protobuf15FieldDescriptor10kMaxNumberE, 
                       __ZN6google8protobuf15FieldDescriptor11kTypeToNameE, 
                       __ZN6google8protobuf15FieldDescriptor12kLabelToNameE, 
                       __ZN6google8protobuf15FieldDescriptor14kCppTypeToNameE, 
                       __ZN6google8protobuf15FieldDescriptor17kTypeToCppTypeMapE, 
                       __ZN6google8protobuf15FieldDescriptor19kLastReservedNumberE, 
                       __ZN6google8protobuf15FieldDescriptor20kFirstReservedNumberE, 
                       __ZN6google8protobuf15UnknownFieldSet10AddFixed32Eij, 
                       __ZN6google8protobuf15UnknownFieldSet10AddFixed64Eiy, 
                       __ZN6google8protobuf15UnknownFieldSet13ClearFallbackEv, 
                       __ZN6google8protobuf15UnknownFieldSet14DeleteByNumberEi, 
                       __ZN6google8protobuf15UnknownFieldSet14DeleteSubrangeEii, 
                       __ZN6google8protobuf15UnknownFieldSet14ParseFromArrayEPKvi, 
                       __ZN6google8protobuf15UnknownFieldSet18AddLengthDelimitedEi, 
                       __ZN6google8protobuf15UnknownFieldSet18ClearAndFreeMemoryEv, 
                       __ZN6google8protobuf15UnknownFieldSet20MergeFromCodedStreamEPNS0_2io16CodedInputStreamE, 
                       __ZN6google8protobuf15UnknownFieldSet20ParseFromCodedStreamEPNS0_2io16CodedInputStreamE, 
                       __ZN6google8protobuf15UnknownFieldSet23ParseFromZeroCopyStreamEPNS0_2io19ZeroCopyInputStreamE, 
                       __ZN6google8protobuf15UnknownFieldSet8AddFieldERKNS0_12UnknownFieldE, 
                       __ZN6google8protobuf15UnknownFieldSet8AddGroupEi, 
                       __ZN6google8protobuf15UnknownFieldSet9AddVarintEiy, 
                       __ZN6google8protobuf15UnknownFieldSet9MergeFromERKS1_, 
                       __ZN6google8protobuf15UnknownFieldSetC1Ev, __ZN6google8protobuf15UnknownFieldSetC2Ev, 
                       __ZN6google8protobuf15UnknownFieldSetD1Ev, __ZN6google8protobuf15UnknownFieldSetD2Ev, 
                       __ZN6google8protobuf15strto32_adaptorEPKcPPci, __ZN6google8protobuf16EnumValueOptions10SharedCtorEv, 
                       __ZN6google8protobuf16EnumValueOptions10SharedDtorEv, 
                       __ZN6google8protobuf16EnumValueOptions10descriptorEv, 
                       __ZN6google8protobuf16EnumValueOptions16default_instanceEv, 
                       __ZN6google8protobuf16EnumValueOptions17default_instance_E, 
                       __ZN6google8protobuf16EnumValueOptions21InitAsDefaultInstanceEv, 
                       __ZN6google8protobuf16EnumValueOptions27MergePartialFromCodedStreamEPNS0_2io16CodedInputStreamE, 
                       __ZN6google8protobuf16EnumValueOptions31kUninterpretedOptionFieldNumberE, 
                       __ZN6google8protobuf16EnumValueOptions4SwapEPS1_, 
                       __ZN6google8protobuf16EnumValueOptions5ClearEv, 
                       __ZN6google8protobuf16EnumValueOptions8CopyFromERKNS0_7MessageE, 
                       __ZN6google8protobuf16EnumValueOptions8CopyFromERKS1_, 
                       __ZN6google8protobuf16EnumValueOptions9MergeFromERKNS0_7MessageE, 
                       __ZN6google8protobuf16EnumValueOptions9MergeFromERKS1_, 
                       __ZN6google8protobuf16EnumValueOptionsC1ERKS1_, 
                       __ZN6google8protobuf16EnumValueOptionsC1Ev, __ZN6google8protobuf16EnumValueOptionsC2ERKS1_, 
                       __ZN6google8protobuf16EnumValueOptionsC2Ev, __ZN6google8protobuf16EnumValueOptionsD0Ev, 
                       __ZN6google8protobuf16EnumValueOptionsD1Ev, __ZN6google8protobuf16EnumValueOptionsD2Ev, 
                       __ZN6google8protobuf16SplitStringUsingERKNSt3__112basic_stringIcNS1_11char_traitsIcEENS1_9allocatorIcEEEEPKcPNS1_6vectorIS7_NS5_IS7_EEEE, 
                       __ZN6google8protobuf16strtou32_adaptorEPKcPPci, 
                       __ZN6google8protobuf17DescriptorBuilder10AddPackageERKNSt3__112basic_stringIcNS2_11char_traitsIcEENS2_9allocatorIcEEEERKNS0_7MessageEPKNS0_14FileDescriptorE, 
                       __ZN6google8protobuf17DescriptorBuilder11BuildMethodERKNS0_21MethodDescriptorProtoEPKNS0_17ServiceDescriptorEPNS0_16MethodDescriptorE, 
                       __ZN6google8protobuf17DescriptorBuilder11IsInPackageEPKNS0_14FileDescriptorERKNSt3__112basic_stringIcNS5_11char_traitsIcEENS5_9allocatorIcEEEE, 
                       __ZN6google8protobuf17DescriptorBuilder12BuildMessageERKNS0_15DescriptorProtoEPKNS0_10DescriptorEPS5_, 
                       __ZN6google8protobuf17DescriptorBuilder12BuildServiceERKNS0_22ServiceDescriptorProtoEPKvPNS0_17ServiceDescriptorE, 
                       __ZN6google8protobuf17DescriptorBuilder13CrossLinkEnumEPNS0_14EnumDescriptorERKNS0_19EnumDescriptorProtoE, 
                       __ZN6google8protobuf17DescriptorBuilder13CrossLinkFileEPNS0_14FileDescriptorERKNS0_19FileDescriptorProtoE, 
                       __ZN6google8protobuf17DescriptorBuilder14BuildEnumValueERKNS0_24EnumValueDescriptorProtoEPKNS0_14EnumDescriptorEPNS0_19EnumValueDescriptorE, 
                       __ZN6google8protobuf17DescriptorBuilder14CrossLinkFieldEPNS0_15FieldDescriptorERKNS0_20FieldDescriptorProtoE, 
                       __ZN6google8protobuf17DescriptorBuilder14ValidateMapKeyEPNS0_15FieldDescriptorERKNS0_20FieldDescriptorProtoE, 
                       __ZN6google8protobuf17DescriptorBuilder15AllocateOptionsERKNS0_11FileOptionsEPNS0_14FileDescriptorE, 
                       __ZN6google8protobuf17DescriptorBuilder15CrossLinkMethodEPNS0_16MethodDescriptorERKNS0_21MethodDescriptorProtoE, 
                       __ZN6google8protobuf17DescriptorBuilder16CrossLinkMessageEPNS0_10DescriptorERKNS0_15DescriptorProtoE, 
                       __ZN6google8protobuf17DescriptorBuilder16CrossLinkServiceEPNS0_17ServiceDescriptorERKNS0_22ServiceDescriptorProtoE, 
                       __ZN6google8protobuf17DescriptorBuilder17OptionInterpreter14SetOptionValueEPKNS0_15FieldDescriptorEPNS0_15UnknownFieldSetE, 
                       __ZN6google8protobuf17DescriptorBuilder17OptionInterpreter18SetAggregateOptionEPKNS0_15FieldDescriptorEPNS0_15UnknownFieldSetE, 
                       __ZN6google8protobuf17DescriptorBuilder17OptionInterpreter20ExamineIfOptionIsSetENSt3__111__wrap_iterIPKPKNS0_15FieldDescriptorEEESA_S7_RKNS3_12basic_stringIcNS3_11char_traitsIcEENS3_9allocatorIcEEEERKNS0_15UnknownFieldSetE, 
                       __ZN6google8protobuf17DescriptorBuilder17OptionInterpreter21InterpretSingleOptionEPNS0_7MessageE, 
                       __ZN6google8protobuf17DescriptorBuilder17OptionInterpreter22AddWithoutInterpretingERKNS0_19UninterpretedOptionEPNS0_7MessageE, 
                       __ZN6google8protobuf17DescriptorBuilder17OptionInterpreter8SetInt32EiiNS0_15FieldDescriptor4TypeEPNS0_15UnknownFieldSetE, 
                       __ZN6google8protobuf17DescriptorBuilder17OptionInterpreter8SetInt64EixNS0_15FieldDescriptor4TypeEPNS0_15UnknownFieldSetE, 
                       __ZN6google8protobuf17DescriptorBuilder17OptionInterpreter9SetUInt32EijNS0_15FieldDescriptor4TypeEPNS0_15UnknownFieldSetE, 
                       __ZN6google8protobuf17DescriptorBuilder17OptionInterpreter9SetUInt64EiyNS0_15FieldDescriptor4TypeEPNS0_15UnknownFieldSetE, 
                       __ZN6google8protobuf17DescriptorBuilder17OptionInterpreterC1EPS1_, 
                       __ZN6google8protobuf17DescriptorBuilder17OptionInterpreterC2EPS1_, 
                       __ZN6google8protobuf17DescriptorBuilder17OptionInterpreterD1Ev, 
                       __ZN6google8protobuf17DescriptorBuilder17OptionInterpreterD2Ev, 
                       __ZN6google8protobuf17DescriptorBuilder18AddNotDefinedErrorERKNSt3__112basic_stringIcNS2_11char_traitsIcEENS2_9allocatorIcEEEERKNS0_7MessageENS0_14DescriptorPool14ErrorCollector13ErrorLocationESA_, 
                       __ZN6google8protobuf17DescriptorBuilder18CrossLinkEnumValueEPNS0_19EnumValueDescriptorERKNS0_24EnumValueDescriptorProtoE, 
                       __ZN6google8protobuf17DescriptorBuilder18NewPlaceholderFileERKNSt3__112basic_stringIcNS2_11char_traitsIcEENS2_9allocatorIcEEEE, 
                       __ZN6google8protobuf17DescriptorBuilder18ValidateSymbolNameERKNSt3__112basic_stringIcNS2_11char_traitsIcEENS2_9allocatorIcEEEESA_RKNS0_7MessageE, 
                       __ZN6google8protobuf17DescriptorBuilder19BuildExtensionRangeERKNS0_30DescriptorProto_ExtensionRangeEPKNS0_10DescriptorEPNS5_14ExtensionRangeE, 
                       __ZN6google8protobuf17DescriptorBuilder19ValidateEnumOptionsEPNS0_14EnumDescriptorERKNS0_19EnumDescriptorProtoE, 
                       __ZN6google8protobuf17DescriptorBuilder19ValidateFileOptionsEPNS0_14FileDescriptorERKNS0_19FileDescriptorProtoE, 
                       __ZN6google8protobuf17DescriptorBuilder20ValidateFieldOptionsEPNS0_15FieldDescriptorERKNS0_20FieldDescriptorProtoE, 
                       __ZN6google8protobuf17DescriptorBuilder21BuildFieldOrExtensionERKNS0_20FieldDescriptorProtoEPKNS0_10DescriptorEPNS0_15FieldDescriptorEb, 
                       __ZN6google8protobuf17DescriptorBuilder21ValidateMethodOptionsEPNS0_16MethodDescriptorERKNS0_21MethodDescriptorProtoE, 
                       __ZN6google8protobuf17DescriptorBuilder21ValidateQualifiedNameERKNSt3__112basic_stringIcNS2_11char_traitsIcEENS2_9allocatorIcEEEE, 
                       __ZN6google8protobuf17DescriptorBuilder22ValidateMessageOptionsEPNS0_10DescriptorERKNS0_15DescriptorProtoE, 
                       __ZN6google8protobuf17DescriptorBuilder22ValidateServiceOptionsEPNS0_17ServiceDescriptorERKNS0_22ServiceDescriptorProtoE, 
                       __ZN6google8protobuf17DescriptorBuilder24RecordPublicDependenciesEPKNS0_14FileDescriptorE, 
                       __ZN6google8protobuf17DescriptorBuilder24ValidateEnumValueOptionsEPNS0_19EnumValueDescriptorERKNS0_24EnumValueDescriptorProtoE, 
                       __ZN6google8protobuf17DescriptorBuilder8AddErrorERKNSt3__112basic_stringIcNS2_11char_traitsIcEENS2_9allocatorIcEEEERKNS0_7MessageENS0_14DescriptorPool14ErrorCollector13ErrorLocationESA_, 
                       __ZN6google8protobuf17DescriptorBuilder9BuildEnumERKNS0_19EnumDescriptorProtoEPKNS0_10DescriptorEPNS0_14EnumDescriptorE, 
                       __ZN6google8protobuf17DescriptorBuilder9BuildFileERKNS0_19FileDescriptorProtoE, 
                       __ZN6google8protobuf17DescriptorBuilderC1EPKNS0_14DescriptorPoolEPNS2_6TablesEPNS2_14ErrorCollectorE, 
                       __ZN6google8protobuf17DescriptorBuilderC2EPKNS0_14DescriptorPoolEPNS2_6TablesEPNS2_14ErrorCollectorE, 
                       __ZN6google8protobuf17DescriptorBuilderD1Ev, __ZN6google8protobuf17DescriptorBuilderD2Ev, 
                       __ZN6google8protobuf17FastHex32ToBufferEjPc, __ZN6google8protobuf17FastHex64ToBufferEyPc, 
                       __ZN6google8protobuf17FastInt32ToBufferEiPc, __ZN6google8protobuf17FastInt64ToBufferExPc, 
                       __ZN6google8protobuf17FileDescriptorSet10SharedCtorEv, 
                       __ZN6google8protobuf17FileDescriptorSet10SharedDtorEv, 
                       __ZN6google8protobuf17FileDescriptorSet10descriptorEv, 
                       __ZN6google8protobuf17FileDescriptorSet16default_instanceEv, 
                       __ZN6google8protobuf17FileDescriptorSet16kFileFieldNumberE, 
                       __ZN6google8protobuf17FileDescriptorSet17default_instance_E, 
                       __ZN6google8protobuf17FileDescriptorSet21InitAsDefaultInstanceEv, 
                       __ZN6google8protobuf17FileDescriptorSet27MergePartialFromCodedStreamEPNS0_2io16CodedInputStreamE, 
                       __ZN6google8protobuf17FileDescriptorSet4SwapEPS1_, 
                       __ZN6google8protobuf17FileDescriptorSet5ClearEv, 
                       __ZN6google8protobuf17FileDescriptorSet8CopyFromERKNS0_7MessageE, 
                       __ZN6google8protobuf17FileDescriptorSet8CopyFromERKS1_, 
                       __ZN6google8protobuf17FileDescriptorSet9MergeFromERKNS0_7MessageE, 
                       __ZN6google8protobuf17FileDescriptorSet9MergeFromERKS1_, 
                       __ZN6google8protobuf17FileDescriptorSetC1ERKS1_, 
                       __ZN6google8protobuf17FileDescriptorSetC1Ev, __ZN6google8protobuf17FileDescriptorSetC2ERKS1_, 
                       __ZN6google8protobuf17FileDescriptorSetC2Ev, __ZN6google8protobuf17FileDescriptorSetD0Ev, 
                       __ZN6google8protobuf17FileDescriptorSetD1Ev, __ZN6google8protobuf17FileDescriptorSetD2Ev, 
                       __ZN6google8protobuf18DescriptorDatabaseD0Ev, __ZN6google8protobuf18DescriptorDatabaseD1Ev, 
                       __ZN6google8protobuf18DescriptorDatabaseD2Ev, __ZN6google8protobuf18GoogleOnceInitImplEPlPNS0_7ClosureE, 
                       __ZN6google8protobuf18StringPrintfVectorEPKcRKNSt3__16vectorINS3_12basic_stringIcNS3_11char_traitsIcEENS3_9allocatorIcEEEENS8_ISA_EEEE, 
                       __ZN6google8protobuf19EnumDescriptorProto10SharedCtorEv, 
                       __ZN6google8protobuf19EnumDescriptorProto10SharedDtorEv, 
                       __ZN6google8protobuf19EnumDescriptorProto10descriptorEv, 
                       __ZN6google8protobuf19EnumDescriptorProto16default_instanceEv, 
                       __ZN6google8protobuf19EnumDescriptorProto16kNameFieldNumberE, 
                       __ZN6google8protobuf19EnumDescriptorProto17default_instance_E, 
                       __ZN6google8protobuf19EnumDescriptorProto17kValueFieldNumberE, 
                       __ZN6google8protobuf19EnumDescriptorProto19kOptionsFieldNumberE, 
                       __ZN6google8protobuf19EnumDescriptorProto21InitAsDefaultInstanceEv, 
                       __ZN6google8protobuf19EnumDescriptorProto27MergePartialFromCodedStreamEPNS0_2io16CodedInputStreamE, 
                       __ZN6google8protobuf19EnumDescriptorProto4SwapEPS1_, 
                       __ZN6google8protobuf19EnumDescriptorProto5ClearEv, 
                       __ZN6google8protobuf19EnumDescriptorProto8CopyFromERKNS0_7MessageE, 
                       __ZN6google8protobuf19EnumDescriptorProto8CopyFromERKS1_, 
                       __ZN6google8protobuf19EnumDescriptorProto9MergeFromERKNS0_7MessageE, 
                       __ZN6google8protobuf19EnumDescriptorProto9MergeFromERKS1_, 
                       __ZN6google8protobuf19EnumDescriptorProtoC1ERKS1_, 
                       __ZN6google8protobuf19EnumDescriptorProtoC1Ev, __ZN6google8protobuf19EnumDescriptorProtoC2ERKS1_, 
                       __ZN6google8protobuf19EnumDescriptorProtoC2Ev, __ZN6google8protobuf19EnumDescriptorProtoD0Ev, 
                       __ZN6google8protobuf19EnumDescriptorProtoD1Ev, __ZN6google8protobuf19EnumDescriptorProtoD2Ev, 
                       __ZN6google8protobuf19FileDescriptorProto10SharedCtorEv, 
                       __ZN6google8protobuf19FileDescriptorProto10SharedDtorEv, 
                       __ZN6google8protobuf19FileDescriptorProto10descriptorEv, 
                       __ZN6google8protobuf19FileDescriptorProto16default_instanceEv, 
                       __ZN6google8protobuf19FileDescriptorProto16kNameFieldNumberE, 
                       __ZN6google8protobuf19FileDescriptorProto17default_instance_E, 
                       __ZN6google8protobuf19FileDescriptorProto19kOptionsFieldNumberE, 
                       __ZN6google8protobuf19FileDescriptorProto19kPackageFieldNumberE, 
                       __ZN6google8protobuf19FileDescriptorProto19kServiceFieldNumberE, 
                       __ZN6google8protobuf19FileDescriptorProto20kEnumTypeFieldNumberE, 
                       __ZN6google8protobuf19FileDescriptorProto21InitAsDefaultInstanceEv, 
                       __ZN6google8protobuf19FileDescriptorProto21kExtensionFieldNumberE, 
                       __ZN6google8protobuf19FileDescriptorProto22kDependencyFieldNumberE, 
                       __ZN6google8protobuf19FileDescriptorProto23kMessageTypeFieldNumberE, 
                       __ZN6google8protobuf19FileDescriptorProto26kSourceCodeInfoFieldNumberE, 
                       __ZN6google8protobuf19FileDescriptorProto26kWeakDependencyFieldNumberE, 
                       __ZN6google8protobuf19FileDescriptorProto27MergePartialFromCodedStreamEPNS0_2io16CodedInputStreamE, 
                       __ZN6google8protobuf19FileDescriptorProto28kPublicDependencyFieldNumberE, 
                       __ZN6google8protobuf19FileDescriptorProto4SwapEPS1_, 
                       __ZN6google8protobuf19FileDescriptorProto5ClearEv, 
                       __ZN6google8protobuf19FileDescriptorProto8CopyFromERKNS0_7MessageE, 
                       __ZN6google8protobuf19FileDescriptorProto8CopyFromERKS1_, 
                       __ZN6google8protobuf19FileDescriptorProto9MergeFromERKNS0_7MessageE, 
                       __ZN6google8protobuf19FileDescriptorProto9MergeFromERKS1_, 
                       __ZN6google8protobuf19FileDescriptorProtoC1ERKS1_, 
                       __ZN6google8protobuf19FileDescriptorProtoC1Ev, __ZN6google8protobuf19FileDescriptorProtoC2ERKS1_, 
                       __ZN6google8protobuf19FileDescriptorProtoC2Ev, __ZN6google8protobuf19FileDescriptorProtoD0Ev, 
                       __ZN6google8protobuf19FileDescriptorProtoD1Ev, __ZN6google8protobuf19FileDescriptorProtoD2Ev, 
                       __ZN6google8protobuf19UninterpretedOption10SharedCtorEv, 
                       __ZN6google8protobuf19UninterpretedOption10SharedDtorEv, 
                       __ZN6google8protobuf19UninterpretedOption10descriptorEv, 
                       __ZN6google8protobuf19UninterpretedOption16default_instanceEv, 
                       __ZN6google8protobuf19UninterpretedOption16kNameFieldNumberE, 
                       __ZN6google8protobuf19UninterpretedOption17default_instance_E, 
                       __ZN6google8protobuf19UninterpretedOption21InitAsDefaultInstanceEv, 
                       __ZN6google8protobuf19UninterpretedOption23kDoubleValueFieldNumberE, 
                       __ZN6google8protobuf19UninterpretedOption23kStringValueFieldNumberE, 
                       __ZN6google8protobuf19UninterpretedOption26kAggregateValueFieldNumberE, 
                       __ZN6google8protobuf19UninterpretedOption27MergePartialFromCodedStreamEPNS0_2io16CodedInputStreamE, 
                       __ZN6google8protobuf19UninterpretedOption27kIdentifierValueFieldNumberE, 
                       __ZN6google8protobuf19UninterpretedOption28kNegativeIntValueFieldNumberE, 
                       __ZN6google8protobuf19UninterpretedOption28kPositiveIntValueFieldNumberE, 
                       __ZN6google8protobuf19UninterpretedOption4SwapEPS1_, 
                       __ZN6google8protobuf19UninterpretedOption5ClearEv, 
                       __ZN6google8protobuf19UninterpretedOption8CopyFromERKNS0_7MessageE, 
                       __ZN6google8protobuf19UninterpretedOption8CopyFromERKS1_, 
                       __ZN6google8protobuf19UninterpretedOption9MergeFromERKNS0_7MessageE, 
                       __ZN6google8protobuf19UninterpretedOption9MergeFromERKS1_, 
                       __ZN6google8protobuf19UninterpretedOptionC1ERKS1_, 
                       __ZN6google8protobuf19UninterpretedOptionC1Ev, __ZN6google8protobuf19UninterpretedOptionC2ERKS1_, 
                       __ZN6google8protobuf19UninterpretedOptionC2Ev, __ZN6google8protobuf19UninterpretedOptionD0Ev, 
                       __ZN6google8protobuf19UninterpretedOptionD1Ev, __ZN6google8protobuf19UninterpretedOptionD2Ev, 
                       __ZN6google8protobuf20FieldDescriptorProto10SharedCtorEv, 
                       __ZN6google8protobuf20FieldDescriptorProto10SharedDtorEv, 
                       __ZN6google8protobuf20FieldDescriptorProto10TYPE_BYTESE, 
                       __ZN6google8protobuf20FieldDescriptorProto10TYPE_FLOATE, 
                       __ZN6google8protobuf20FieldDescriptorProto10TYPE_GROUPE, 
                       __ZN6google8protobuf20FieldDescriptorProto10TYPE_INT32E, 
                       __ZN6google8protobuf20FieldDescriptorProto10TYPE_INT64E, 
                       __ZN6google8protobuf20FieldDescriptorProto10descriptorEv, 
                       __ZN6google8protobuf20FieldDescriptorProto11TYPE_DOUBLEE, 
                       __ZN6google8protobuf20FieldDescriptorProto11TYPE_SINT32E, 
                       __ZN6google8protobuf20FieldDescriptorProto11TYPE_SINT64E, 
                       __ZN6google8protobuf20FieldDescriptorProto11TYPE_STRINGE, 
                       __ZN6google8protobuf20FieldDescriptorProto11TYPE_UINT32E, 
                       __ZN6google8protobuf20FieldDescriptorProto11TYPE_UINT64E, 
                       __ZN6google8protobuf20FieldDescriptorProto12TYPE_FIXED32E, 
                       __ZN6google8protobuf20FieldDescriptorProto12TYPE_FIXED64E, 
                       __ZN6google8protobuf20FieldDescriptorProto12TYPE_MESSAGEE, 
                       __ZN6google8protobuf20FieldDescriptorProto13TYPE_SFIXED32E, 
                       __ZN6google8protobuf20FieldDescriptorProto13TYPE_SFIXED64E, 
                       __ZN6google8protobuf20FieldDescriptorProto14LABEL_OPTIONALE, 
                       __ZN6google8protobuf20FieldDescriptorProto14LABEL_REPEATEDE, 
                       __ZN6google8protobuf20FieldDescriptorProto14LABEL_REQUIREDE, 
                       __ZN6google8protobuf20FieldDescriptorProto14Type_ARRAYSIZEE, 
                       __ZN6google8protobuf20FieldDescriptorProto15Label_ARRAYSIZEE, 
                       __ZN6google8protobuf20FieldDescriptorProto16default_instanceEv, 
                       __ZN6google8protobuf20FieldDescriptorProto16kNameFieldNumberE, 
                       __ZN6google8protobuf20FieldDescriptorProto16kTypeFieldNumberE, 
                       __ZN6google8protobuf20FieldDescriptorProto17default_instance_E, 
                       __ZN6google8protobuf20FieldDescriptorProto17kLabelFieldNumberE, 
                       __ZN6google8protobuf20FieldDescriptorProto18kNumberFieldNumberE, 
                       __ZN6google8protobuf20FieldDescriptorProto19kOptionsFieldNumberE, 
                       __ZN6google8protobuf20FieldDescriptorProto20kExtendeeFieldNumberE, 
                       __ZN6google8protobuf20FieldDescriptorProto20kTypeNameFieldNumberE, 
                       __ZN6google8protobuf20FieldDescriptorProto21InitAsDefaultInstanceEv, 
                       __ZN6google8protobuf20FieldDescriptorProto24kDefaultValueFieldNumberE, 
                       __ZN6google8protobuf20FieldDescriptorProto27MergePartialFromCodedStreamEPNS0_2io16CodedInputStreamE, 
                       __ZN6google8protobuf20FieldDescriptorProto4SwapEPS1_, 
                       __ZN6google8protobuf20FieldDescriptorProto5ClearEv, 
                       __ZN6google8protobuf20FieldDescriptorProto8CopyFromERKNS0_7MessageE, 
                       __ZN6google8protobuf20FieldDescriptorProto8CopyFromERKS1_, 
                       __ZN6google8protobuf20FieldDescriptorProto8Type_MAXE, 
                       __ZN6google8protobuf20FieldDescriptorProto8Type_MINE, 
                       __ZN6google8protobuf20FieldDescriptorProto9Label_MAXE, 
                       __ZN6google8protobuf20FieldDescriptorProto9Label_MINE, 
                       __ZN6google8protobuf20FieldDescriptorProto9MergeFromERKNS0_7MessageE, 
                       __ZN6google8protobuf20FieldDescriptorProto9MergeFromERKS1_, 
                       __ZN6google8protobuf20FieldDescriptorProto9TYPE_BOOLE, 
                       __ZN6google8protobuf20FieldDescriptorProto9TYPE_ENUME, 
                       __ZN6google8protobuf20FieldDescriptorProtoC1ERKS1_, 
                       __ZN6google8protobuf20FieldDescriptorProtoC1Ev, 
                       __ZN6google8protobuf20FieldDescriptorProtoC2ERKS1_, 
                       __ZN6google8protobuf20FieldDescriptorProtoC2Ev, 
                       __ZN6google8protobuf20FieldDescriptorProtoD0Ev, 
                       __ZN6google8protobuf20FieldDescriptorProtoD1Ev, 
                       __ZN6google8protobuf20FieldDescriptorProtoD2Ev, 
                       __ZN6google8protobuf20FileDescriptorTables16AddFieldByNumberEPKNS0_15FieldDescriptorE, 
                       __ZN6google8protobuf20FileDescriptorTables20AddEnumValueByNumberEPKNS0_19EnumValueDescriptorE, 
                       __ZN6google8protobuf20FileDescriptorTables23AddFieldByStylizedNamesEPKNS0_15FieldDescriptorE, 
                       __ZN6google8protobuf20FileDescriptorTables6kEmptyE, 
                       __ZN6google8protobuf20FileDescriptorTablesC1Ev, 
                       __ZN6google8protobuf20FileDescriptorTablesC2Ev, 
                       __ZN6google8protobuf20FileDescriptorTablesD1Ev, 
                       __ZN6google8protobuf20FileDescriptorTablesD2Ev, 
                       __ZN6google8protobuf21DynamicMessageFactory12GetPrototypeEPKNS0_10DescriptorE, 
                       __ZN6google8protobuf21DynamicMessageFactory18GetPrototypeNoLockEPKNS0_10DescriptorE, 
                       __ZN6google8protobuf21DynamicMessageFactoryC1EPKNS0_14DescriptorPoolE, 
                       __ZN6google8protobuf21DynamicMessageFactoryC1Ev, 
                       __ZN6google8protobuf21DynamicMessageFactoryC2EPKNS0_14DescriptorPoolE, 
                       __ZN6google8protobuf21DynamicMessageFactoryC2Ev, 
                       __ZN6google8protobuf21DynamicMessageFactoryD0Ev, 
                       __ZN6google8protobuf21DynamicMessageFactoryD1Ev, 
                       __ZN6google8protobuf21DynamicMessageFactoryD2Ev, 
                       __ZN6google8protobuf21FastInt32ToBufferLeftEiPc, 
                       __ZN6google8protobuf21FastInt64ToBufferLeftExPc, 
                       __ZN6google8protobuf21MethodDescriptorProto10SharedCtorEv, 
                       __ZN6google8protobuf21MethodDescriptorProto10SharedDtorEv, 
                       __ZN6google8protobuf21MethodDescriptorProto10descriptorEv, 
                       __ZN6google8protobuf21MethodDescriptorProto16default_instanceEv, 
                       __ZN6google8protobuf21MethodDescriptorProto16kNameFieldNumberE, 
                       __ZN6google8protobuf21MethodDescriptorProto17default_instance_E, 
                       __ZN6google8protobuf21MethodDescriptorProto19kOptionsFieldNumberE, 
                       __ZN6google8protobuf21MethodDescriptorProto21InitAsDefaultInstanceEv, 
                       __ZN6google8protobuf21MethodDescriptorProto21kInputTypeFieldNumberE, 
                       __ZN6google8protobuf21MethodDescriptorProto22kOutputTypeFieldNumberE, 
                       __ZN6google8protobuf21MethodDescriptorProto27MergePartialFromCodedStreamEPNS0_2io16CodedInputStreamE, 
                       __ZN6google8protobuf21MethodDescriptorProto4SwapEPS1_, 
                       __ZN6google8protobuf21MethodDescriptorProto5ClearEv, 
                       __ZN6google8protobuf21MethodDescriptorProto8CopyFromERKNS0_7MessageE, 
                       __ZN6google8protobuf21MethodDescriptorProto8CopyFromERKS1_, 
                       __ZN6google8protobuf21MethodDescriptorProto9MergeFromERKNS0_7MessageE, 
                       __ZN6google8protobuf21MethodDescriptorProto9MergeFromERKS1_, 
                       __ZN6google8protobuf21MethodDescriptorProtoC1ERKS1_, 
                       __ZN6google8protobuf21MethodDescriptorProtoC1Ev, 
                       __ZN6google8protobuf21MethodDescriptorProtoC2ERKS1_, 
                       __ZN6google8protobuf21MethodDescriptorProtoC2Ev, 
                       __ZN6google8protobuf21MethodDescriptorProtoD0Ev, 
                       __ZN6google8protobuf21MethodDescriptorProtoD1Ev, 
                       __ZN6google8protobuf21MethodDescriptorProtoD2Ev, 
                       __ZN6google8protobuf21SplitStringAllowEmptyERKNSt3__112basic_stringIcNS1_11char_traitsIcEENS1_9allocatorIcEEEEPKcPNS1_6vectorIS7_NS5_IS7_EEEE, 
                       __ZN6google8protobuf21UnescapeCEscapeStringERKNSt3__112basic_stringIcNS1_11char_traitsIcEENS1_9allocatorIcEEEE, 
                       __ZN6google8protobuf21UnescapeCEscapeStringERKNSt3__112basic_stringIcNS1_11char_traitsIcEENS1_9allocatorIcEEEEPS7_, 
                       __ZN6google8protobuf21UnescapeCEscapeStringERKNSt3__112basic_stringIcNS1_11char_traitsIcEENS1_9allocatorIcEEEEPS7_PNS1_6vectorIS7_NS5_IS7_EEEE, 
                       __ZN6google8protobuf22DescriptorPoolDatabase14FindFileByNameERKNSt3__112basic_stringIcNS2_11char_traitsIcEENS2_9allocatorIcEEEEPNS0_19FileDescriptorProtoE, 
                       __ZN6google8protobuf22DescriptorPoolDatabase23FindAllExtensionNumbersERKNSt3__112basic_stringIcNS2_11char_traitsIcEENS2_9allocatorIcEEEEPNS2_6vectorIiNS6_IiEEEE, 
                       __ZN6google8protobuf22DescriptorPoolDatabase24FindFileContainingSymbolERKNSt3__112basic_stringIcNS2_11char_traitsIcEENS2_9allocatorIcEEEEPNS0_19FileDescriptorProtoE, 
                       __ZN6google8protobuf22DescriptorPoolDatabase27FindFileContainingExtensionERKNSt3__112basic_stringIcNS2_11char_traitsIcEENS2_9allocatorIcEEEEiPNS0_19FileDescriptorProtoE, 
                       __ZN6google8protobuf22DescriptorPoolDatabaseC1ERKNS0_14DescriptorPoolE, 
                       __ZN6google8protobuf22DescriptorPoolDatabaseC2ERKNS0_14DescriptorPoolE, 
                       __ZN6google8protobuf22DescriptorPoolDatabaseD0Ev, 
                       __ZN6google8protobuf22DescriptorPoolDatabaseD1Ev, 
                       __ZN6google8protobuf22DescriptorPoolDatabaseD2Ev, 
                       __ZN6google8protobuf22FastUInt32ToBufferLeftEjPc, 
                       __ZN6google8protobuf22FastUInt64ToBufferLeftEyPc, 
                       __ZN6google8protobuf22ServiceDescriptorProto10SharedCtorEv, 
                       __ZN6google8protobuf22ServiceDescriptorProto10SharedDtorEv, 
                       __ZN6google8protobuf22ServiceDescriptorProto10descriptorEv, 
                       __ZN6google8protobuf22ServiceDescriptorProto16default_instanceEv, 
                       __ZN6google8protobuf22ServiceDescriptorProto16kNameFieldNumberE, 
                       __ZN6google8protobuf22ServiceDescriptorProto17default_instance_E, 
                       __ZN6google8protobuf22ServiceDescriptorProto18kMethodFieldNumberE, 
                       __ZN6google8protobuf22ServiceDescriptorProto19kOptionsFieldNumberE, 
                       __ZN6google8protobuf22ServiceDescriptorProto21InitAsDefaultInstanceEv, 
                       __ZN6google8protobuf22ServiceDescriptorProto27MergePartialFromCodedStreamEPNS0_2io16CodedInputStreamE, 
                       __ZN6google8protobuf22ServiceDescriptorProto4SwapEPS1_, 
                       __ZN6google8protobuf22ServiceDescriptorProto5ClearEv, 
                       __ZN6google8protobuf22ServiceDescriptorProto8CopyFromERKNS0_7MessageE, 
                       __ZN6google8protobuf22ServiceDescriptorProto8CopyFromERKS1_, 
                       __ZN6google8protobuf22ServiceDescriptorProto9MergeFromERKNS0_7MessageE, 
                       __ZN6google8protobuf22ServiceDescriptorProto9MergeFromERKS1_, 
                       __ZN6google8protobuf22ServiceDescriptorProtoC1ERKS1_, 
                       __ZN6google8protobuf22ServiceDescriptorProtoC1Ev, 
                       __ZN6google8protobuf22ServiceDescriptorProtoC2ERKS1_, 
                       __ZN6google8protobuf22ServiceDescriptorProtoC2Ev, 
                       __ZN6google8protobuf22ServiceDescriptorProtoD0Ev, 
                       __ZN6google8protobuf22ServiceDescriptorProtoD1Ev, 
                       __ZN6google8protobuf22ServiceDescriptorProtoD2Ev, 
                       __ZN6google8protobuf23InternalFastHexToBufferEyPci, 
                       __ZN6google8protobuf23ShutdownProtobufLibraryEv, 
                       __ZN6google8protobuf23SourceCodeInfo_Location10SharedCtorEv, 
                       __ZN6google8protobuf23SourceCodeInfo_Location10SharedDtorEv, 
                       __ZN6google8protobuf23SourceCodeInfo_Location10descriptorEv, 
                       __ZN6google8protobuf23SourceCodeInfo_Location16default_instanceEv, 
                       __ZN6google8protobuf23SourceCodeInfo_Location16kPathFieldNumberE, 
                       __ZN6google8protobuf23SourceCodeInfo_Location16kSpanFieldNumberE, 
                       __ZN6google8protobuf23SourceCodeInfo_Location17default_instance_E, 
                       __ZN6google8protobuf23SourceCodeInfo_Location21InitAsDefaultInstanceEv, 
                       __ZN6google8protobuf23SourceCodeInfo_Location27MergePartialFromCodedStreamEPNS0_2io16CodedInputStreamE, 
                       __ZN6google8protobuf23SourceCodeInfo_Location27kLeadingCommentsFieldNumberE, 
                       __ZN6google8protobuf23SourceCodeInfo_Location28kTrailingCommentsFieldNumberE, 
                       __ZN6google8protobuf23SourceCodeInfo_Location4SwapEPS1_, 
                       __ZN6google8protobuf23SourceCodeInfo_Location5ClearEv, 
                       __ZN6google8protobuf23SourceCodeInfo_Location8CopyFromERKNS0_7MessageE, 
                       __ZN6google8protobuf23SourceCodeInfo_Location8CopyFromERKS1_, 
                       __ZN6google8protobuf23SourceCodeInfo_Location9MergeFromERKNS0_7MessageE, 
                       __ZN6google8protobuf23SourceCodeInfo_Location9MergeFromERKS1_, 
                       __ZN6google8protobuf23SourceCodeInfo_LocationC1ERKS1_, 
                       __ZN6google8protobuf23SourceCodeInfo_LocationC1Ev, 
                       __ZN6google8protobuf23SourceCodeInfo_LocationC2ERKS1_, 
                       __ZN6google8protobuf23SourceCodeInfo_LocationC2Ev, 
                       __ZN6google8protobuf23SourceCodeInfo_LocationD0Ev, 
                       __ZN6google8protobuf23SourceCodeInfo_LocationD1Ev, 
                       __ZN6google8protobuf23SourceCodeInfo_LocationD2Ev, 
                       __ZN6google8protobuf24EnumValueDescriptorProto10SharedCtorEv, 
                       __ZN6google8protobuf24EnumValueDescriptorProto10SharedDtorEv, 
                       __ZN6google8protobuf24EnumValueDescriptorProto10descriptorEv, 
                       __ZN6google8protobuf24EnumValueDescriptorProto16default_instanceEv, 
                       __ZN6google8protobuf24EnumValueDescriptorProto16kNameFieldNumberE, 
                       __ZN6google8protobuf24EnumValueDescriptorProto17default_instance_E, 
                       __ZN6google8protobuf24EnumValueDescriptorProto18kNumberFieldNumberE, 
                       __ZN6google8protobuf24EnumValueDescriptorProto19kOptionsFieldNumberE, 
                       __ZN6google8protobuf24EnumValueDescriptorProto21InitAsDefaultInstanceEv, 
                       __ZN6google8protobuf24EnumValueDescriptorProto27MergePartialFromCodedStreamEPNS0_2io16CodedInputStreamE, 
                       __ZN6google8protobuf24EnumValueDescriptorProto4SwapEPS1_, 
                       __ZN6google8protobuf24EnumValueDescriptorProto5ClearEv, 
                       __ZN6google8protobuf24EnumValueDescriptorProto8CopyFromERKNS0_7MessageE, 
                       __ZN6google8protobuf24EnumValueDescriptorProto8CopyFromERKS1_, 
                       __ZN6google8protobuf24EnumValueDescriptorProto9MergeFromERKNS0_7MessageE, 
                       __ZN6google8protobuf24EnumValueDescriptorProto9MergeFromERKS1_, 
                       __ZN6google8protobuf24EnumValueDescriptorProtoC1ERKS1_, 
                       __ZN6google8protobuf24EnumValueDescriptorProtoC1Ev, 
                       __ZN6google8protobuf24EnumValueDescriptorProtoC2ERKS1_, 
                       __ZN6google8protobuf24EnumValueDescriptorProtoC2Ev, 
                       __ZN6google8protobuf24EnumValueDescriptorProtoD0Ev, 
                       __ZN6google8protobuf24EnumValueDescriptorProtoD1Ev, 
                       __ZN6google8protobuf24EnumValueDescriptorProtoD2Ev, 
                       __ZN6google8protobuf24MergedDescriptorDatabase14FindFileByNameERKNSt3__112basic_stringIcNS2_11char_traitsIcEENS2_9allocatorIcEEEEPNS0_19FileDescriptorProtoE, 
                       __ZN6google8protobuf24MergedDescriptorDatabase23FindAllExtensionNumbersERKNSt3__112basic_stringIcNS2_11char_traitsIcEENS2_9allocatorIcEEEEPNS2_6vectorIiNS6_IiEEEE, 
                       __ZN6google8protobuf24MergedDescriptorDatabase24FindFileContainingSymbolERKNSt3__112basic_stringIcNS2_11char_traitsIcEENS2_9allocatorIcEEEEPNS0_19FileDescriptorProtoE, 
                       __ZN6google8protobuf24MergedDescriptorDatabase27FindFileContainingExtensionERKNSt3__112basic_stringIcNS2_11char_traitsIcEENS2_9allocatorIcEEEEiPNS0_19FileDescriptorProtoE, 
                       __ZN6google8protobuf24MergedDescriptorDatabaseC1EPNS0_18DescriptorDatabaseES3_, 
                       __ZN6google8protobuf24MergedDescriptorDatabaseC1ERKNSt3__16vectorIPNS0_18DescriptorDatabaseENS2_9allocatorIS5_EEEE, 
                       __ZN6google8protobuf24MergedDescriptorDatabaseC2EPNS0_18DescriptorDatabaseES3_, 
                       __ZN6google8protobuf24MergedDescriptorDatabaseC2ERKNSt3__16vectorIPNS0_18DescriptorDatabaseENS2_9allocatorIS5_EEEE, 
                       __ZN6google8protobuf24MergedDescriptorDatabaseD0Ev, 
                       __ZN6google8protobuf24MergedDescriptorDatabaseD1Ev, 
                       __ZN6google8protobuf24MergedDescriptorDatabaseD2Ev, 
                       __ZN6google8protobuf24SimpleDescriptorDatabase14FindFileByNameERKNSt3__112basic_stringIcNS2_11char_traitsIcEENS2_9allocatorIcEEEEPNS0_19FileDescriptorProtoE, 
                       __ZN6google8protobuf24SimpleDescriptorDatabase23FindAllExtensionNumbersERKNSt3__112basic_stringIcNS2_11char_traitsIcEENS2_9allocatorIcEEEEPNS2_6vectorIiNS6_IiEEEE, 
                       __ZN6google8protobuf24SimpleDescriptorDatabase24FindFileContainingSymbolERKNSt3__112basic_stringIcNS2_11char_traitsIcEENS2_9allocatorIcEEEEPNS0_19FileDescriptorProtoE, 
                       __ZN6google8protobuf24SimpleDescriptorDatabase27FindFileContainingExtensionERKNSt3__112basic_stringIcNS2_11char_traitsIcEENS2_9allocatorIcEEEEiPNS0_19FileDescriptorProtoE, 
                       __ZN6google8protobuf24SimpleDescriptorDatabase3AddERKNS0_19FileDescriptorProtoE, 
                       __ZN6google8protobuf24SimpleDescriptorDatabase9AddAndOwnEPKNS0_19FileDescriptorProtoE, 
                       __ZN6google8protobuf24SimpleDescriptorDatabase9MaybeCopyEPKNS0_19FileDescriptorProtoEPS2_, 
                       __ZN6google8protobuf24SimpleDescriptorDatabaseC1Ev, 
                       __ZN6google8protobuf24SimpleDescriptorDatabaseC2Ev, 
                       __ZN6google8protobuf24SimpleDescriptorDatabaseD0Ev, 
                       __ZN6google8protobuf24SimpleDescriptorDatabaseD1Ev, 
                       __ZN6google8protobuf24SimpleDescriptorDatabaseD2Ev, 
                       __ZN6google8protobuf24UnescapeCEscapeSequencesEPKcPc, 
                       __ZN6google8protobuf24UnescapeCEscapeSequencesEPKcPcPNSt3__16vectorINS4_12basic_stringIcNS4_11char_traitsIcEENS4_9allocatorIcEEEENS9_ISB_EEEE, 
                       __ZN6google8protobuf25EncodedDescriptorDatabase10MaybeParseENSt3__14pairIPKviEEPNS0_19FileDescriptorProtoE, 
                       __ZN6google8protobuf25EncodedDescriptorDatabase14FindFileByNameERKNSt3__112basic_stringIcNS2_11char_traitsIcEENS2_9allocatorIcEEEEPNS0_19FileDescriptorProtoE, 
                       __ZN6google8protobuf25EncodedDescriptorDatabase23FindAllExtensionNumbersERKNSt3__112basic_stringIcNS2_11char_traitsIcEENS2_9allocatorIcEEEEPNS2_6vectorIiNS6_IiEEEE, 
                       __ZN6google8protobuf25EncodedDescriptorDatabase24FindFileContainingSymbolERKNSt3__112basic_stringIcNS2_11char_traitsIcEENS2_9allocatorIcEEEEPNS0_19FileDescriptorProtoE, 
                       __ZN6google8protobuf25EncodedDescriptorDatabase27FindFileContainingExtensionERKNSt3__112basic_stringIcNS2_11char_traitsIcEENS2_9allocatorIcEEEEiPNS0_19FileDescriptorProtoE, 
                       __ZN6google8protobuf25EncodedDescriptorDatabase30FindNameOfFileContainingSymbolERKNSt3__112basic_stringIcNS2_11char_traitsIcEENS2_9allocatorIcEEEEPS8_, 
                       __ZN6google8protobuf25EncodedDescriptorDatabase3AddEPKvi, 
                       __ZN6google8protobuf25EncodedDescriptorDatabase7AddCopyEPKvi, 
                       __ZN6google8protobuf25EncodedDescriptorDatabaseC1Ev, 
                       __ZN6google8protobuf25EncodedDescriptorDatabaseC2Ev, 
                       __ZN6google8protobuf25EncodedDescriptorDatabaseD0Ev, 
                       __ZN6google8protobuf25EncodedDescriptorDatabaseD1Ev, 
                       __ZN6google8protobuf25EncodedDescriptorDatabaseD2Ev, 
                       __ZN6google8protobuf26FieldOptions_CType_IsValidEi, 
                       __ZN6google8protobuf26kStringPrintfVectorMaxArgsE, 
                       __ZN6google8protobuf28UninterpretedOption_NamePart10SharedCtorEv, 
                       __ZN6google8protobuf28UninterpretedOption_NamePart10SharedDtorEv, 
                       __ZN6google8protobuf28UninterpretedOption_NamePart10descriptorEv, 
                       __ZN6google8protobuf28UninterpretedOption_NamePart16default_instanceEv, 
                       __ZN6google8protobuf28UninterpretedOption_NamePart17default_instance_E, 
                       __ZN6google8protobuf28UninterpretedOption_NamePart20kNamePartFieldNumberE, 
                       __ZN6google8protobuf28UninterpretedOption_NamePart21InitAsDefaultInstanceEv, 
                       __ZN6google8protobuf28UninterpretedOption_NamePart23kIsExtensionFieldNumberE, 
                       __ZN6google8protobuf28UninterpretedOption_NamePart27MergePartialFromCodedStreamEPNS0_2io16CodedInputStreamE, 
                       __ZN6google8protobuf28UninterpretedOption_NamePart4SwapEPS1_, 
                       __ZN6google8protobuf28UninterpretedOption_NamePart5ClearEv, 
                       __ZN6google8protobuf28UninterpretedOption_NamePart8CopyFromERKNS0_7MessageE, 
                       __ZN6google8protobuf28UninterpretedOption_NamePart8CopyFromERKS1_, 
                       __ZN6google8protobuf28UninterpretedOption_NamePart9MergeFromERKNS0_7MessageE, 
                       __ZN6google8protobuf28UninterpretedOption_NamePart9MergeFromERKS1_, 
                       __ZN6google8protobuf28UninterpretedOption_NamePartC1ERKS1_, 
                       __ZN6google8protobuf28UninterpretedOption_NamePartC1Ev, 
                       __ZN6google8protobuf28UninterpretedOption_NamePartC2ERKS1_, 
                       __ZN6google8protobuf28UninterpretedOption_NamePartC2Ev, 
                       __ZN6google8protobuf28UninterpretedOption_NamePartD0Ev, 
                       __ZN6google8protobuf28UninterpretedOption_NamePartD1Ev, 
                       __ZN6google8protobuf28UninterpretedOption_NamePartD2Ev, 
                       __ZN6google8protobuf29FieldOptions_CType_descriptorEv, 
                       __ZN6google8protobuf2io14ErrorCollectorD0Ev, __ZN6google8protobuf2io14ErrorCollectorD1Ev, 
                       __ZN6google8protobuf2io14ErrorCollectorD2Ev, __ZN6google8protobuf2io15FileInputStream22CopyingFileInputStream4ReadEPvi, 
                       __ZN6google8protobuf2io15FileInputStream22CopyingFileInputStream4SkipEi, 
                       __ZN6google8protobuf2io15FileInputStream22CopyingFileInputStream5CloseEv, 
                       __ZN6google8protobuf2io15FileInputStream22CopyingFileInputStreamC1Ei, 
                       __ZN6google8protobuf2io15FileInputStream22CopyingFileInputStreamC2Ei, 
                       __ZN6google8protobuf2io15FileInputStream22CopyingFileInputStreamD0Ev, 
                       __ZN6google8protobuf2io15FileInputStream22CopyingFileInputStreamD1Ev, 
                       __ZN6google8protobuf2io15FileInputStream22CopyingFileInputStreamD2Ev, 
                       __ZN6google8protobuf2io15FileInputStream4NextEPPKvPi, 
                       __ZN6google8protobuf2io15FileInputStream4SkipEi, 
                       __ZN6google8protobuf2io15FileInputStream5CloseEv, 
                       __ZN6google8protobuf2io15FileInputStream6BackUpEi, 
                       __ZN6google8protobuf2io15FileInputStreamC1Eii, __ZN6google8protobuf2io15FileInputStreamC2Eii, 
                       __ZN6google8protobuf2io15FileInputStreamD0Ev, __ZN6google8protobuf2io15FileInputStreamD1Ev, 
                       __ZN6google8protobuf2io15FileInputStreamD2Ev, __ZN6google8protobuf2io16ArrayInputStream4NextEPPKvPi, 
                       __ZN6google8protobuf2io16ArrayInputStream4SkipEi, 
                       __ZN6google8protobuf2io16ArrayInputStream6BackUpEi, 
                       __ZN6google8protobuf2io16ArrayInputStreamC1EPKvii, 
                       __ZN6google8protobuf2io16ArrayInputStreamC2EPKvii, 
                       __ZN6google8protobuf2io16ArrayInputStreamD0Ev, __ZN6google8protobuf2io16ArrayInputStreamD1Ev, 
                       __ZN6google8protobuf2io16ArrayInputStreamD2Ev, __ZN6google8protobuf2io16CodedInputStream10ReadStringEPNSt3__112basic_stringIcNS3_11char_traitsIcEENS3_9allocatorIcEEEEi, 
                       __ZN6google8protobuf2io16CodedInputStream11ReadTagSlowEv, 
                       __ZN6google8protobuf2io16CodedInputStream15ReadTagFallbackEv, 
                       __ZN6google8protobuf2io16CodedInputStream16ReadVarint32SlowEPj, 
                       __ZN6google8protobuf2io16CodedInputStream16ReadVarint64SlowEPy, 
                       __ZN6google8protobuf2io16CodedInputStream18ReadStringFallbackEPNSt3__112basic_stringIcNS3_11char_traitsIcEENS3_9allocatorIcEEEEi, 
                       __ZN6google8protobuf2io16CodedInputStream18SetTotalBytesLimitEii, 
                       __ZN6google8protobuf2io16CodedInputStream20ReadVarint32FallbackEPj, 
                       __ZN6google8protobuf2io16CodedInputStream20ReadVarint64FallbackEPy, 
                       __ZN6google8protobuf2io16CodedInputStream22GetDirectBufferPointerEPPKvPi, 
                       __ZN6google8protobuf2io16CodedInputStream24default_recursion_limit_E, 
                       __ZN6google8protobuf2io16CodedInputStream25PrintTotalBytesLimitErrorEv, 
                       __ZN6google8protobuf2io16CodedInputStream26ReadLittleEndian32FallbackEPj, 
                       __ZN6google8protobuf2io16CodedInputStream26ReadLittleEndian64FallbackEPy, 
                       __ZN6google8protobuf2io16CodedInputStream28BackUpInputToCurrentPositionEv, 
                       __ZN6google8protobuf2io16CodedInputStream4SkipEi, 
                       __ZN6google8protobuf2io16CodedInputStream7ReadRawEPvi, 
                       __ZN6google8protobuf2io16CodedInputStream7RefreshEv, 
                       __ZN6google8protobuf2io16CodedInputStream8PopLimitEi, 
                       __ZN6google8protobuf2io16CodedInputStream9PushLimitEi, 
                       __ZN6google8protobuf2io16CodedInputStreamD1Ev, __ZN6google8protobuf2io16CodedInputStreamD2Ev, 
                       __ZN6google8protobuf2io16FileOutputStream23CopyingFileOutputStream5CloseEv, 
                       __ZN6google8protobuf2io16FileOutputStream23CopyingFileOutputStream5WriteEPKvi, 
                       __ZN6google8protobuf2io16FileOutputStream23CopyingFileOutputStreamC1Ei, 
                       __ZN6google8protobuf2io16FileOutputStream23CopyingFileOutputStreamC2Ei, 
                       __ZN6google8protobuf2io16FileOutputStream23CopyingFileOutputStreamD0Ev, 
                       __ZN6google8protobuf2io16FileOutputStream23CopyingFileOutputStreamD1Ev, 
                       __ZN6google8protobuf2io16FileOutputStream23CopyingFileOutputStreamD2Ev, 
                       __ZN6google8protobuf2io16FileOutputStream4NextEPPvPi, 
                       __ZN6google8protobuf2io16FileOutputStream5CloseEv, 
                       __ZN6google8protobuf2io16FileOutputStream5FlushEv, 
                       __ZN6google8protobuf2io16FileOutputStream6BackUpEi, 
                       __ZN6google8protobuf2io16FileOutputStreamC1Eii, 
                       __ZN6google8protobuf2io16FileOutputStreamC2Eii, 
                       __ZN6google8protobuf2io16FileOutputStreamD0Ev, __ZN6google8protobuf2io16FileOutputStreamD1Ev, 
                       __ZN6google8protobuf2io16FileOutputStreamD2Ev, __ZN6google8protobuf2io17ArrayOutputStream4NextEPPvPi, 
                       __ZN6google8protobuf2io17ArrayOutputStream6BackUpEi, 
                       __ZN6google8protobuf2io17ArrayOutputStreamC1EPvii, 
                       __ZN6google8protobuf2io17ArrayOutputStreamC2EPvii, 
                       __ZN6google8protobuf2io17ArrayOutputStreamD0Ev, 
                       __ZN6google8protobuf2io17ArrayOutputStreamD1Ev, 
                       __ZN6google8protobuf2io17ArrayOutputStreamD2Ev, 
                       __ZN6google8protobuf2io17CodedOutputStream12VarintSize64Ey, 
                       __ZN6google8protobuf2io17CodedOutputStream13WriteVarint32Ej, 
                       __ZN6google8protobuf2io17CodedOutputStream13WriteVarint64Ey, 
                       __ZN6google8protobuf2io17CodedOutputStream15WriteRawToArrayEPKviPh, 
                       __ZN6google8protobuf2io17CodedOutputStream19WriteLittleEndian32Ej, 
                       __ZN6google8protobuf2io17CodedOutputStream19WriteLittleEndian64Ey, 
                       __ZN6google8protobuf2io17CodedOutputStream20VarintSize32FallbackEj, 
                       __ZN6google8protobuf2io17CodedOutputStream20WriteVarint64ToArrayEyPh, 
                       __ZN6google8protobuf2io17CodedOutputStream22GetDirectBufferPointerEPPvPi, 
                       __ZN6google8protobuf2io17CodedOutputStream28WriteVarint32FallbackToArrayEjPh, 
                       __ZN6google8protobuf2io17CodedOutputStream4SkipEi, 
                       __ZN6google8protobuf2io17CodedOutputStream7RefreshEv, 
                       __ZN6google8protobuf2io17CodedOutputStream8WriteRawEPKvi, 
                       __ZN6google8protobuf2io17CodedOutputStreamC1EPNS1_20ZeroCopyOutputStreamE, 
                       __ZN6google8protobuf2io17CodedOutputStreamC2EPNS1_20ZeroCopyOutputStreamE, 
                       __ZN6google8protobuf2io17CodedOutputStreamD1Ev, 
                       __ZN6google8protobuf2io17CodedOutputStreamD2Ev, 
                       __ZN6google8protobuf2io18CopyingInputStream4SkipEi, 
                       __ZN6google8protobuf2io18CopyingInputStreamD0Ev, 
                       __ZN6google8protobuf2io18CopyingInputStreamD1Ev, 
                       __ZN6google8protobuf2io18CopyingInputStreamD2Ev, 
                       __ZN6google8protobuf2io18IstreamInputStream25CopyingIstreamInputStream4ReadEPvi, 
                       __ZN6google8protobuf2io18IstreamInputStream25CopyingIstreamInputStreamC1EPNSt3__113basic_istreamIcNS4_11char_traitsIcEEEE, 
                       __ZN6google8protobuf2io18IstreamInputStream25CopyingIstreamInputStreamC2EPNSt3__113basic_istreamIcNS4_11char_traitsIcEEEE, 
                       __ZN6google8protobuf2io18IstreamInputStream25CopyingIstreamInputStreamD0Ev, 
                       __ZN6google8protobuf2io18IstreamInputStream25CopyingIstreamInputStreamD1Ev, 
                       __ZN6google8protobuf2io18IstreamInputStream25CopyingIstreamInputStreamD2Ev, 
                       __ZN6google8protobuf2io18IstreamInputStream4NextEPPKvPi, 
                       __ZN6google8protobuf2io18IstreamInputStream4SkipEi, 
                       __ZN6google8protobuf2io18IstreamInputStream6BackUpEi, 
                       __ZN6google8protobuf2io18IstreamInputStreamC1EPNSt3__113basic_istreamIcNS3_11char_traitsIcEEEEi, 
                       __ZN6google8protobuf2io18IstreamInputStreamC2EPNSt3__113basic_istreamIcNS3_11char_traitsIcEEEEi, 
                       __ZN6google8protobuf2io18IstreamInputStreamD0Ev, 
                       __ZN6google8protobuf2io18IstreamInputStreamD1Ev, 
                       __ZN6google8protobuf2io18IstreamInputStreamD2Ev, 
                       __ZN6google8protobuf2io18StringOutputStream4NextEPPvPi, 
                       __ZN6google8protobuf2io18StringOutputStream6BackUpEi, 
                       __ZN6google8protobuf2io18StringOutputStreamC1EPNSt3__112basic_stringIcNS3_11char_traitsIcEENS3_9allocatorIcEEEE, 
                       __ZN6google8protobuf2io18StringOutputStreamC2EPNSt3__112basic_stringIcNS3_11char_traitsIcEENS3_9allocatorIcEEEE, 
                       __ZN6google8protobuf2io18StringOutputStreamD0Ev, 
                       __ZN6google8protobuf2io18StringOutputStreamD1Ev, 
                       __ZN6google8protobuf2io18StringOutputStreamD2Ev, 
                       __ZN6google8protobuf2io19CopyingOutputStreamD0Ev, 
                       __ZN6google8protobuf2io19CopyingOutputStreamD1Ev, 
                       __ZN6google8protobuf2io19CopyingOutputStreamD2Ev, 
                       __ZN6google8protobuf2io19LimitingInputStream4NextEPPKvPi, 
                       __ZN6google8protobuf2io19LimitingInputStream4SkipEi, 
                       __ZN6google8protobuf2io19LimitingInputStream6BackUpEi, 
                       __ZN6google8protobuf2io19LimitingInputStreamC1EPNS1_19ZeroCopyInputStreamEx, 
                       __ZN6google8protobuf2io19LimitingInputStreamC2EPNS1_19ZeroCopyInputStreamEx, 
                       __ZN6google8protobuf2io19LimitingInputStreamD0Ev, 
                       __ZN6google8protobuf2io19LimitingInputStreamD1Ev, 
                       __ZN6google8protobuf2io19LimitingInputStreamD2Ev, 
                       __ZN6google8protobuf2io19OstreamOutputStream26CopyingOstreamOutputStream5WriteEPKvi, 
                       __ZN6google8protobuf2io19OstreamOutputStream26CopyingOstreamOutputStreamC1EPNSt3__113basic_ostreamIcNS4_11char_traitsIcEEEE, 
                       __ZN6google8protobuf2io19OstreamOutputStream26CopyingOstreamOutputStreamC2EPNSt3__113basic_ostreamIcNS4_11char_traitsIcEEEE, 
                       __ZN6google8protobuf2io19OstreamOutputStream26CopyingOstreamOutputStreamD0Ev, 
                       __ZN6google8protobuf2io19OstreamOutputStream26CopyingOstreamOutputStreamD1Ev, 
                       __ZN6google8protobuf2io19OstreamOutputStream26CopyingOstreamOutputStreamD2Ev, 
                       __ZN6google8protobuf2io19OstreamOutputStream4NextEPPvPi, 
                       __ZN6google8protobuf2io19OstreamOutputStream6BackUpEi, 
                       __ZN6google8protobuf2io19OstreamOutputStreamC1EPNSt3__113basic_ostreamIcNS3_11char_traitsIcEEEEi, 
                       __ZN6google8protobuf2io19OstreamOutputStreamC2EPNSt3__113basic_ostreamIcNS3_11char_traitsIcEEEEi, 
                       __ZN6google8protobuf2io19OstreamOutputStreamD0Ev, 
                       __ZN6google8protobuf2io19OstreamOutputStreamD1Ev, 
                       __ZN6google8protobuf2io19OstreamOutputStreamD2Ev, 
                       __ZN6google8protobuf2io19ZeroCopyInputStreamD0Ev, 
                       __ZN6google8protobuf2io19ZeroCopyInputStreamD1Ev, 
                       __ZN6google8protobuf2io19ZeroCopyInputStreamD2Ev, 
                       __ZN6google8protobuf2io20ZeroCopyOutputStreamD0Ev, 
                       __ZN6google8protobuf2io20ZeroCopyOutputStreamD1Ev, 
                       __ZN6google8protobuf2io20ZeroCopyOutputStreamD2Ev, 
                       __ZN6google8protobuf2io24ConcatenatingInputStream4NextEPPKvPi, 
                       __ZN6google8protobuf2io24ConcatenatingInputStream4SkipEi, 
                       __ZN6google8protobuf2io24ConcatenatingInputStream6BackUpEi, 
                       __ZN6google8protobuf2io24ConcatenatingInputStreamC1EPKPNS1_19ZeroCopyInputStreamEi, 
                       __ZN6google8protobuf2io24ConcatenatingInputStreamC2EPKPNS1_19ZeroCopyInputStreamEi, 
                       __ZN6google8protobuf2io24ConcatenatingInputStreamD0Ev, 
                       __ZN6google8protobuf2io24ConcatenatingInputStreamD1Ev, 
                       __ZN6google8protobuf2io24ConcatenatingInputStreamD2Ev, 
                       __ZN6google8protobuf2io25CopyingInputStreamAdaptor10FreeBufferEv, 
                       __ZN6google8protobuf2io25CopyingInputStreamAdaptor22AllocateBufferIfNeededEv, 
                       __ZN6google8protobuf2io25CopyingInputStreamAdaptor4NextEPPKvPi, 
                       __ZN6google8protobuf2io25CopyingInputStreamAdaptor4SkipEi, 
                       __ZN6google8protobuf2io25CopyingInputStreamAdaptor6BackUpEi, 
                       __ZN6google8protobuf2io25CopyingInputStreamAdaptorC1EPNS1_18CopyingInputStreamEi, 
                       __ZN6google8protobuf2io25CopyingInputStreamAdaptorC2EPNS1_18CopyingInputStreamEi, 
                       __ZN6google8protobuf2io25CopyingInputStreamAdaptorD0Ev, 
                       __ZN6google8protobuf2io25CopyingInputStreamAdaptorD1Ev, 
                       __ZN6google8protobuf2io25CopyingInputStreamAdaptorD2Ev, 
                       __ZN6google8protobuf2io26CopyingOutputStreamAdaptor10FreeBufferEv, 
                       __ZN6google8protobuf2io26CopyingOutputStreamAdaptor11WriteBufferEv, 
                       __ZN6google8protobuf2io26CopyingOutputStreamAdaptor22AllocateBufferIfNeededEv, 
                       __ZN6google8protobuf2io26CopyingOutputStreamAdaptor4NextEPPvPi, 
                       __ZN6google8protobuf2io26CopyingOutputStreamAdaptor5FlushEv, 
                       __ZN6google8protobuf2io26CopyingOutputStreamAdaptor6BackUpEi, 
                       __ZN6google8protobuf2io26CopyingOutputStreamAdaptorC1EPNS1_19CopyingOutputStreamEi, 
                       __ZN6google8protobuf2io26CopyingOutputStreamAdaptorC2EPNS1_19CopyingOutputStreamEi, 
                       __ZN6google8protobuf2io26CopyingOutputStreamAdaptorD0Ev, 
                       __ZN6google8protobuf2io26CopyingOutputStreamAdaptorD1Ev, 
                       __ZN6google8protobuf2io26CopyingOutputStreamAdaptorD2Ev, 
                       __ZN6google8protobuf2io7Printer5PrintEPKc, __ZN6google8protobuf2io7Printer5PrintEPKcS4_RKNSt3__112basic_stringIcNS5_11char_traitsIcEENS5_9allocatorIcEEEE, 
                       __ZN6google8protobuf2io7Printer5PrintEPKcS4_RKNSt3__112basic_stringIcNS5_11char_traitsIcEENS5_9allocatorIcEEEES4_SD_, 
                       __ZN6google8protobuf2io7Printer5PrintEPKcS4_RKNSt3__112basic_stringIcNS5_11char_traitsIcEENS5_9allocatorIcEEEES4_SD_S4_SD_, 
                       __ZN6google8protobuf2io7Printer5PrintERKNSt3__13mapINS3_12basic_stringIcNS3_11char_traitsIcEENS3_9allocatorIcEEEESA_NS3_4lessISA_EENS8_INS3_4pairIKSA_SA_EEEEEEPKc, 
                       __ZN6google8protobuf2io7Printer6IndentEv, __ZN6google8protobuf2io7Printer7OutdentEv, 
                       __ZN6google8protobuf2io7Printer8PrintRawEPKc, __ZN6google8protobuf2io7Printer8PrintRawERKNSt3__112basic_stringIcNS3_11char_traitsIcEENS3_9allocatorIcEEEE, 
                       __ZN6google8protobuf2io7Printer8WriteRawEPKci, __ZN6google8protobuf2io7PrinterC1EPNS1_20ZeroCopyOutputStreamEc, 
                       __ZN6google8protobuf2io7PrinterC2EPNS1_20ZeroCopyOutputStreamEc, 
                       __ZN6google8protobuf2io7PrinterD1Ev, __ZN6google8protobuf2io7PrinterD2Ev, 
                       __ZN6google8protobuf2io9Tokenizer10ParseFloatERKNSt3__112basic_stringIcNS3_11char_traitsIcEENS3_9allocatorIcEEEE, 
                       __ZN6google8protobuf2io9Tokenizer12ParseIntegerERKNSt3__112basic_stringIcNS3_11char_traitsIcEENS3_9allocatorIcEEEEyPy, 
                       __ZN6google8protobuf2io9Tokenizer13ConsumeNumberEbb, 
                       __ZN6google8protobuf2io9Tokenizer13ConsumeStringEc, 
                       __ZN6google8protobuf2io9Tokenizer16NextWithCommentsEPNSt3__112basic_stringIcNS3_11char_traitsIcEENS3_9allocatorIcEEEEPNS3_6vectorIS9_NS7_IS9_EEEESA_, 
                       __ZN6google8protobuf2io9Tokenizer17ParseStringAppendERKNSt3__112basic_stringIcNS3_11char_traitsIcEENS3_9allocatorIcEEEEPS9_, 
                       __ZN6google8protobuf2io9Tokenizer18ConsumeLineCommentEPNSt3__112basic_stringIcNS3_11char_traitsIcEENS3_9allocatorIcEEEE, 
                       __ZN6google8protobuf2io9Tokenizer19ConsumeBlockCommentEPNSt3__112basic_stringIcNS3_11char_traitsIcEENS3_9allocatorIcEEEE, 
                       __ZN6google8protobuf2io9Tokenizer22TryConsumeCommentStartEv, 
                       __ZN6google8protobuf2io9Tokenizer4NextEv, __ZN6google8protobuf2io9Tokenizer7RefreshEv, 
                       __ZN6google8protobuf2io9Tokenizer8NextCharEv, __ZN6google8protobuf2io9TokenizerC1EPNS1_19ZeroCopyInputStreamEPNS1_14ErrorCollectorE, 
                       __ZN6google8protobuf2io9TokenizerC2EPNS1_19ZeroCopyInputStreamEPNS1_14ErrorCollectorE, 
                       __ZN6google8protobuf2io9TokenizerD1Ev, __ZN6google8protobuf2io9TokenizerD2Ev, 
                       __ZN6google8protobuf30DescriptorProto_ExtensionRange10SharedCtorEv, 
                       __ZN6google8protobuf30DescriptorProto_ExtensionRange10SharedDtorEv, 
                       __ZN6google8protobuf30DescriptorProto_ExtensionRange10descriptorEv, 
                       __ZN6google8protobuf30DescriptorProto_ExtensionRange15kEndFieldNumberE, 
                       __ZN6google8protobuf30DescriptorProto_ExtensionRange16default_instanceEv, 
                       __ZN6google8protobuf30DescriptorProto_ExtensionRange17default_instance_E, 
                       __ZN6google8protobuf30DescriptorProto_ExtensionRange17kStartFieldNumberE, 
                       __ZN6google8protobuf30DescriptorProto_ExtensionRange21InitAsDefaultInstanceEv, 
                       __ZN6google8protobuf30DescriptorProto_ExtensionRange27MergePartialFromCodedStreamEPNS0_2io16CodedInputStreamE, 
                       __ZN6google8protobuf30DescriptorProto_ExtensionRange4SwapEPS1_, 
                       __ZN6google8protobuf30DescriptorProto_ExtensionRange5ClearEv, 
                       __ZN6google8protobuf30DescriptorProto_ExtensionRange8CopyFromERKNS0_7MessageE, 
                       __ZN6google8protobuf30DescriptorProto_ExtensionRange8CopyFromERKS1_, 
                       __ZN6google8protobuf30DescriptorProto_ExtensionRange9MergeFromERKNS0_7MessageE, 
                       __ZN6google8protobuf30DescriptorProto_ExtensionRange9MergeFromERKS1_, 
                       __ZN6google8protobuf30DescriptorProto_ExtensionRangeC1ERKS1_, 
                       __ZN6google8protobuf30DescriptorProto_ExtensionRangeC1Ev, 
                       __ZN6google8protobuf30DescriptorProto_ExtensionRangeC2ERKS1_, 
                       __ZN6google8protobuf30DescriptorProto_ExtensionRangeC2Ev, 
                       __ZN6google8protobuf30DescriptorProto_ExtensionRangeD0Ev, 
                       __ZN6google8protobuf30DescriptorProto_ExtensionRangeD1Ev, 
                       __ZN6google8protobuf30DescriptorProto_ExtensionRangeD2Ev, 
                       __ZN6google8protobuf32FileOptions_OptimizeMode_IsValidEi, 
                       __ZN6google8protobuf33FieldDescriptorProto_Type_IsValidEi, 
                       __ZN6google8protobuf34FieldDescriptorProto_Label_IsValidEi, 
                       __ZN6google8protobuf35FileOptions_OptimizeMode_descriptorEv, 
                       __ZN6google8protobuf36FieldDescriptorProto_Type_descriptorEv, 
                       __ZN6google8protobuf37FieldDescriptorProto_Label_descriptorEv, 
                       __ZN6google8protobuf55protobuf_AddDesc_google_2fprotobuf_2fdescriptor_2eprotoEv, 
                       __ZN6google8protobuf58protobuf_AssignDesc_google_2fprotobuf_2fdescriptor_2eprotoEv, 
                       __ZN6google8protobuf60protobuf_ShutdownFile_google_2fprotobuf_2fdescriptor_2eprotoEv, 
                       __ZN6google8protobuf69static_descriptor_initializer_google_2fprotobuf_2fdescriptor_2eproto_E, 
                       __ZN6google8protobuf6ghtonlEj, __ZN6google8protobuf7CEscapeERKNSt3__112basic_stringIcNS1_11char_traitsIcEENS1_9allocatorIcEEEE, 
                       __ZN6google8protobuf7ClosureD0Ev, __ZN6google8protobuf7ClosureD1Ev, 
                       __ZN6google8protobuf7ClosureD2Ev, __ZN6google8protobuf7Message16ParseFromIstreamEPNSt3__113basic_istreamIcNS2_11char_traitsIcEEEE, 
                       __ZN6google8protobuf7Message20DiscardUnknownFieldsEv, 
                       __ZN6google8protobuf7Message21CheckTypeAndMergeFromERKNS0_11MessageLiteE, 
                       __ZN6google8protobuf7Message23ParseFromFileDescriptorEi, 
                       __ZN6google8protobuf7Message23ParsePartialFromIstreamEPNSt3__113basic_istreamIcNS2_11char_traitsIcEEEE, 
                       __ZN6google8protobuf7Message27MergePartialFromCodedStreamEPNS0_2io16CodedInputStreamE, 
                       __ZN6google8protobuf7Message30ParsePartialFromFileDescriptorEi, 
                       __ZN6google8protobuf7Message5ClearEv, __ZN6google8protobuf7Message8CopyFromERKS1_, 
                       __ZN6google8protobuf7Message9MergeFromERKS1_, __ZN6google8protobuf7MessageD0Ev, 
                       __ZN6google8protobuf7MessageD1Ev, __ZN6google8protobuf7MessageD2Ev, 
                       __ZN6google8protobuf7strings10CHexEscapeERKNSt3__112basic_stringIcNS2_11char_traitsIcEENS2_9allocatorIcEEEE, 
                       __ZN6google8protobuf7strings10SubstituteEPKcRKNS1_8internal13SubstituteArgES7_S7_S7_S7_S7_S7_S7_S7_S7_, 
                       __ZN6google8protobuf7strings15Utf8SafeCEscapeERKNSt3__112basic_stringIcNS2_11char_traitsIcEENS2_9allocatorIcEEEE, 
                       __ZN6google8protobuf7strings19SubstituteAndAppendEPNSt3__112basic_stringIcNS2_11char_traitsIcEENS2_9allocatorIcEEEEPKcRKNS1_8internal13SubstituteArgESF_SF_SF_SF_SF_SF_SF_SF_SF_, 
                       __ZN6google8protobuf8internal10LogMessage6FinishEv, 
                       __ZN6google8protobuf8internal10LogMessageC1ENS0_8LogLevelEPKci, 
                       __ZN6google8protobuf8internal10LogMessageC2ENS0_8LogLevelEPKci, 
                       __ZN6google8protobuf8internal10LogMessageD1Ev, __ZN6google8protobuf8internal10LogMessageD2Ev, 
                       __ZN6google8protobuf8internal10LogMessagelsEPKc, 
                       __ZN6google8protobuf8internal10LogMessagelsERKNSt3__112basic_stringIcNS3_11char_traitsIcEENS3_9allocatorIcEEEE, 
                       __ZN6google8protobuf8internal10LogMessagelsEc, __ZN6google8protobuf8internal10LogMessagelsEd, 
                       __ZN6google8protobuf8internal10LogMessagelsEi, __ZN6google8protobuf8internal10LogMessagelsEj, 
                       __ZN6google8protobuf8internal10LogMessagelsEl, __ZN6google8protobuf8internal10LogMessagelsEm, 
                       __ZN6google8protobuf8internal10NameOfEnumEPKNS0_14EnumDescriptorEi, 
                       __ZN6google8protobuf8internal10OnShutdownEPFvvE, 
                       __ZN6google8protobuf8internal10WireFormat11SkipMessageEPNS0_2io16CodedInputStreamEPNS0_15UnknownFieldSetE, 
                       __ZN6google8protobuf8internal10WireFormat13FieldByteSizeEPKNS0_15FieldDescriptorERKNS0_7MessageE, 
                       __ZN6google8protobuf8internal10WireFormat18ParseAndMergeFieldEjPKNS0_15FieldDescriptorEPNS0_7MessageEPNS0_2io16CodedInputStreamE, 
                       __ZN6google8protobuf8internal10WireFormat20ParseAndMergePartialEPNS0_2io16CodedInputStreamEPNS0_7MessageE, 
                       __ZN6google8protobuf8internal10WireFormat21FieldDataOnlyByteSizeEPKNS0_15FieldDescriptorERKNS0_7MessageE, 
                       __ZN6google8protobuf8internal10WireFormat22MessageSetItemByteSizeEPKNS0_15FieldDescriptorERKNS0_7MessageE, 
                       __ZN6google8protobuf8internal10WireFormat22SerializeUnknownFieldsERKNS0_15UnknownFieldSetEPNS0_2io17CodedOutputStreamE, 
                       __ZN6google8protobuf8internal10WireFormat24ComputeUnknownFieldsSizeERKNS0_15UnknownFieldSetE, 
                       __ZN6google8protobuf8internal10WireFormat24SerializeWithCachedSizesERKNS0_7MessageEiPNS0_2io17CodedOutputStreamE, 
                       __ZN6google8protobuf8internal10WireFormat24VerifyUTF8StringFallbackEPKciNS2_9OperationE, 
                       __ZN6google8protobuf8internal10WireFormat27ParseAndMergeMessageSetItemEPNS0_2io16CodedInputStreamEPNS0_7MessageE, 
                       __ZN6google8protobuf8internal10WireFormat29SerializeFieldWithCachedSizesEPKNS0_15FieldDescriptorERKNS0_7MessageEPNS0_2io17CodedOutputStreamE, 
                       __ZN6google8protobuf8internal10WireFormat29SerializeUnknownFieldsToArrayERKNS0_15UnknownFieldSetEPh, 
                       __ZN6google8protobuf8internal10WireFormat31SerializeUnknownMessageSetItemsERKNS0_15UnknownFieldSetEPNS0_2io17CodedOutputStreamE, 
                       __ZN6google8protobuf8internal10WireFormat33ComputeUnknownMessageSetItemsSizeERKNS0_15UnknownFieldSetE, 
                       __ZN6google8protobuf8internal10WireFormat38SerializeMessageSetItemWithCachedSizesEPKNS0_15FieldDescriptorERKNS0_7MessageEPNS0_2io17CodedOutputStreamE, 
                       __ZN6google8protobuf8internal10WireFormat38SerializeUnknownMessageSetItemsToArrayERKNS0_15UnknownFieldSetEPh, 
                       __ZN6google8protobuf8internal10WireFormat8ByteSizeERKNS0_7MessageE, 
                       __ZN6google8protobuf8internal10WireFormat9SkipFieldEPNS0_2io16CodedInputStreamEjPNS0_15UnknownFieldSetE, 
                       __ZN6google8protobuf8internal11LogFinisheraSERNS1_10LogMessageE, 
                       __ZN6google8protobuf8internal12ExtensionSet10AddMessageEPKNS0_15FieldDescriptorEPNS0_14MessageFactoryE, 
                       __ZN6google8protobuf8internal12ExtensionSet10AddMessageEihRKNS0_11MessageLiteEPKNS0_15FieldDescriptorE, 
                       __ZN6google8protobuf8internal12ExtensionSet10ParseFieldEjPNS0_2io16CodedInputStreamEPKNS0_11MessageLiteE, 
                       __ZN6google8protobuf8internal12ExtensionSet10ParseFieldEjPNS0_2io16CodedInputStreamEPKNS0_7MessageEPNS0_15UnknownFieldSetE, 
                       __ZN6google8protobuf8internal12ExtensionSet10ParseFieldEjPNS0_2io16CodedInputStreamEPNS1_15ExtensionFinderEPNS1_12FieldSkipperE, 
                       __ZN6google8protobuf8internal12ExtensionSet10RemoveLastEi, 
                       __ZN6google8protobuf8internal12ExtensionSet11ReleaseLastEi, 
                       __ZN6google8protobuf8internal12ExtensionSet12SwapElementsEiii, 
                       __ZN6google8protobuf8internal12ExtensionSet13MutableStringEihPKNS0_15FieldDescriptorE, 
                       __ZN6google8protobuf8internal12ExtensionSet14ClearExtensionEi, 
                       __ZN6google8protobuf8internal12ExtensionSet14MutableMessageEPKNS0_15FieldDescriptorEPNS0_14MessageFactoryE, 
                       __ZN6google8protobuf8internal12ExtensionSet14MutableMessageEihRKNS0_11MessageLiteEPKNS0_15FieldDescriptorE, 
                       __ZN6google8protobuf8internal12ExtensionSet14ReleaseMessageEPKNS0_15FieldDescriptorEPNS0_14MessageFactoryE, 
                       __ZN6google8protobuf8internal12ExtensionSet14ReleaseMessageEiRKNS0_11MessageLiteE, 
                       __ZN6google8protobuf8internal12ExtensionSet15ParseMessageSetEPNS0_2io16CodedInputStreamEPKNS0_11MessageLiteE, 
                       __ZN6google8protobuf8internal12ExtensionSet15ParseMessageSetEPNS0_2io16CodedInputStreamEPKNS0_7MessageEPNS0_15UnknownFieldSetE, 
                       __ZN6google8protobuf8internal12ExtensionSet15ParseMessageSetEPNS0_2io16CodedInputStreamEPNS1_15ExtensionFinderEPNS1_12FieldSkipperE, 
                       __ZN6google8protobuf8internal12ExtensionSet15SetRepeatedBoolEiib, 
                       __ZN6google8protobuf8internal12ExtensionSet15SetRepeatedEnumEiii, 
                       __ZN6google8protobuf8internal12ExtensionSet16SetRepeatedFloatEiif, 
                       __ZN6google8protobuf8internal12ExtensionSet16SetRepeatedInt32Eiii, 
                       __ZN6google8protobuf8internal12ExtensionSet16SetRepeatedInt64Eiix, 
                       __ZN6google8protobuf8internal12ExtensionSet17MaybeNewExtensionEiPKNS0_15FieldDescriptorEPPNS2_9ExtensionE, 
                       __ZN6google8protobuf8internal12ExtensionSet17RegisterExtensionEPKNS0_11MessageLiteEihbb, 
                       __ZN6google8protobuf8internal12ExtensionSet17SetRepeatedDoubleEiid, 
                       __ZN6google8protobuf8internal12ExtensionSet17SetRepeatedUInt32Eiij, 
                       __ZN6google8protobuf8internal12ExtensionSet17SetRepeatedUInt64Eiiy, 
                       __ZN6google8protobuf8internal12ExtensionSet19ParseMessageSetItemEPNS0_2io16CodedInputStreamEPNS1_15ExtensionFinderEPNS1_12FieldSkipperE, 
                       __ZN6google8protobuf8internal12ExtensionSet19SetAllocatedMessageEihPKNS0_15FieldDescriptorEPNS0_11MessageLiteE, 
                       __ZN6google8protobuf8internal12ExtensionSet21MutableRepeatedStringEii, 
                       __ZN6google8protobuf8internal12ExtensionSet21ParseFieldMaybeLazilyEjPNS0_2io16CodedInputStreamEPNS1_15ExtensionFinderEPNS1_12FieldSkipperE, 
                       __ZN6google8protobuf8internal12ExtensionSet21RegisterEnumExtensionEPKNS0_11MessageLiteEihbbPFbiE, 
                       __ZN6google8protobuf8internal12ExtensionSet22MutableRepeatedMessageEii, 
                       __ZN6google8protobuf8internal12ExtensionSet23MutableRawRepeatedFieldEi, 
                       __ZN6google8protobuf8internal12ExtensionSet24FindExtensionInfoFromTagEjPNS1_15ExtensionFinderEPiPNS1_13ExtensionInfoE, 
                       __ZN6google8protobuf8internal12ExtensionSet24RegisterMessageExtensionEPKNS0_11MessageLiteEihbbS5_, 
                       __ZN6google8protobuf8internal12ExtensionSet27ParseFieldWithExtensionInfoEiRKNS1_13ExtensionInfoEPNS0_2io16CodedInputStreamEPNS1_12FieldSkipperE, 
                       __ZN6google8protobuf8internal12ExtensionSet4SwapEPS2_, 
                       __ZN6google8protobuf8internal12ExtensionSet5ClearEv, 
                       __ZN6google8protobuf8internal12ExtensionSet7AddBoolEihbbPKNS0_15FieldDescriptorE, 
                       __ZN6google8protobuf8internal12ExtensionSet7AddEnumEihbiPKNS0_15FieldDescriptorE, 
                       __ZN6google8protobuf8internal12ExtensionSet7SetBoolEihbPKNS0_15FieldDescriptorE, 
                       __ZN6google8protobuf8internal12ExtensionSet7SetEnumEihiPKNS0_15FieldDescriptorE, 
                       __ZN6google8protobuf8internal12ExtensionSet8AddFloatEihbfPKNS0_15FieldDescriptorE, 
                       __ZN6google8protobuf8internal12ExtensionSet8AddInt32EihbiPKNS0_15FieldDescriptorE, 
                       __ZN6google8protobuf8internal12ExtensionSet8AddInt64EihbxPKNS0_15FieldDescriptorE, 
                       __ZN6google8protobuf8internal12ExtensionSet8SetFloatEihfPKNS0_15FieldDescriptorE, 
                       __ZN6google8protobuf8internal12ExtensionSet8SetInt32EihiPKNS0_15FieldDescriptorE, 
                       __ZN6google8protobuf8internal12ExtensionSet8SetInt64EihxPKNS0_15FieldDescriptorE, 
                       __ZN6google8protobuf8internal12ExtensionSet9AddDoubleEihbdPKNS0_15FieldDescriptorE, 
                       __ZN6google8protobuf8internal12ExtensionSet9AddStringEihPKNS0_15FieldDescriptorE, 
                       __ZN6google8protobuf8internal12ExtensionSet9AddUInt32EihbjPKNS0_15FieldDescriptorE, 
                       __ZN6google8protobuf8internal12ExtensionSet9AddUInt64EihbyPKNS0_15FieldDescriptorE, 
                       __ZN6google8protobuf8internal12ExtensionSet9Extension4FreeEv, 
                       __ZN6google8protobuf8internal12ExtensionSet9Extension5ClearEv, 
                       __ZN6google8protobuf8internal12ExtensionSet9MergeFromERKS2_, 
                       __ZN6google8protobuf8internal12ExtensionSet9SetDoubleEihdPKNS0_15FieldDescriptorE, 
                       __ZN6google8protobuf8internal12ExtensionSet9SetUInt32EihjPKNS0_15FieldDescriptorE, 
                       __ZN6google8protobuf8internal12ExtensionSet9SetUInt64EihyPKNS0_15FieldDescriptorE, 
                       __ZN6google8protobuf8internal12ExtensionSetC1Ev, 
                       __ZN6google8protobuf8internal12ExtensionSetC2Ev, 
                       __ZN6google8protobuf8internal12ExtensionSetD1Ev, 
                       __ZN6google8protobuf8internal12ExtensionSetD2Ev, 
                       __ZN6google8protobuf8internal12FieldSkipper11SkipMessageEPNS0_2io16CodedInputStreamE, 
                       __ZN6google8protobuf8internal12FieldSkipper15SkipUnknownEnumEii, 
                       __ZN6google8protobuf8internal12FieldSkipper9SkipFieldEPNS0_2io16CodedInputStreamEj, 
                       __ZN6google8protobuf8internal12kEmptyStringE, __ZN6google8protobuf8internal13ReflectionOps13IsInitializedERKNS0_7MessageE, 
                       __ZN6google8protobuf8internal13ReflectionOps20DiscardUnknownFieldsEPNS0_7MessageE, 
                       __ZN6google8protobuf8internal13ReflectionOps24FindInitializationErrorsERKNS0_7MessageERKNSt3__112basic_stringIcNS6_11char_traitsIcEENS6_9allocatorIcEEEEPNS6_6vectorISC_NSA_ISC_EEEE, 
                       __ZN6google8protobuf8internal13ReflectionOps4CopyERKNS0_7MessageEPS3_, 
                       __ZN6google8protobuf8internal13ReflectionOps5ClearEPNS0_7MessageE, 
                       __ZN6google8protobuf8internal13ReflectionOps5MergeERKNS0_7MessageEPS3_, 
                       __ZN6google8protobuf8internal13VerifyVersionEiiPKc, 
                       __ZN6google8protobuf8internal13VersionStringEi, 
                       __ZN6google8protobuf8internal14NullLogHandlerENS0_8LogLevelEPKciRKNSt3__112basic_stringIcNS5_11char_traitsIcEENS5_9allocatorIcEEEE, 
                       __ZN6google8protobuf8internal14ParseNamedEnumEPKNS0_14EnumDescriptorERKNSt3__112basic_stringIcNS5_11char_traitsIcEENS5_9allocatorIcEEEEPi, 
                       __ZN6google8protobuf8internal14WireFormatLite10ReadStringEPNS0_2io16CodedInputStreamEPNSt3__112basic_stringIcNS6_11char_traitsIcEENS6_9allocatorIcEEEE, 
                       __ZN6google8protobuf8internal14WireFormatLite10WriteBytesEiRKNSt3__112basic_stringIcNS3_11char_traitsIcEENS3_9allocatorIcEEEEPNS0_2io17CodedOutputStreamE, 
                       __ZN6google8protobuf8internal14WireFormatLite10WriteFloatEifPNS0_2io17CodedOutputStreamE, 
                       __ZN6google8protobuf8internal14WireFormatLite10WriteGroupEiRKNS0_11MessageLiteEPNS0_2io17CodedOutputStreamE, 
                       __ZN6google8protobuf8internal14WireFormatLite10WriteInt32EiiPNS0_2io17CodedOutputStreamE, 
                       __ZN6google8protobuf8internal14WireFormatLite10WriteInt64EixPNS0_2io17CodedOutputStreamE, 
                       __ZN6google8protobuf8internal14WireFormatLite11SkipMessageEPNS0_2io16CodedInputStreamE, 
                       __ZN6google8protobuf8internal14WireFormatLite11WriteDoubleEidPNS0_2io17CodedOutputStreamE, 
                       __ZN6google8protobuf8internal14WireFormatLite11WriteSInt32EiiPNS0_2io17CodedOutputStreamE, 
                       __ZN6google8protobuf8internal14WireFormatLite11WriteSInt64EixPNS0_2io17CodedOutputStreamE, 
                       __ZN6google8protobuf8internal14WireFormatLite11WriteStringEiRKNSt3__112basic_stringIcNS3_11char_traitsIcEENS3_9allocatorIcEEEEPNS0_2io17CodedOutputStreamE, 
                       __ZN6google8protobuf8internal14WireFormatLite11WriteUInt32EijPNS0_2io17CodedOutputStreamE, 
                       __ZN6google8protobuf8internal14WireFormatLite11WriteUInt64EiyPNS0_2io17CodedOutputStreamE, 
                       __ZN6google8protobuf8internal14WireFormatLite12WriteFixed32EijPNS0_2io17CodedOutputStreamE, 
                       __ZN6google8protobuf8internal14WireFormatLite12WriteFixed64EiyPNS0_2io17CodedOutputStreamE, 
                       __ZN6google8protobuf8internal14WireFormatLite12WriteMessageEiRKNS0_11MessageLiteEPNS0_2io17CodedOutputStreamE, 
                       __ZN6google8protobuf8internal14WireFormatLite13WriteSFixed32EiiPNS0_2io17CodedOutputStreamE, 
                       __ZN6google8protobuf8internal14WireFormatLite13WriteSFixed64EixPNS0_2io17CodedOutputStreamE, 
                       __ZN6google8protobuf8internal14WireFormatLite20kMessageSetTypeIdTagE, 
                       __ZN6google8protobuf8internal14WireFormatLite21kMessageSetItemEndTagE, 
                       __ZN6google8protobuf8internal14WireFormatLite21kMessageSetMessageTagE, 
                       __ZN6google8protobuf8internal14WireFormatLite21kWireTypeForFieldTypeE, 
                       __ZN6google8protobuf8internal14WireFormatLite22ReadPackedEnumNoInlineEPNS0_2io16CodedInputStreamEPFbiEPNS0_13RepeatedFieldIiEE, 
                       __ZN6google8protobuf8internal14WireFormatLite22WriteGroupMaybeToArrayEiRKNS0_11MessageLiteEPNS0_2io17CodedOutputStreamE, 
                       __ZN6google8protobuf8internal14WireFormatLite22kFieldTypeToCppTypeMapE, 
                       __ZN6google8protobuf8internal14WireFormatLite23kMessageSetItemStartTagE, 
                       __ZN6google8protobuf8internal14WireFormatLite23kMessageSetItemTagsSizeE, 
                       __ZN6google8protobuf8internal14WireFormatLite24WriteMessageMaybeToArrayEiRKNS0_11MessageLiteEPNS0_2io17CodedOutputStreamE, 
                       __ZN6google8protobuf8internal14WireFormatLite9ReadBytesEPNS0_2io16CodedInputStreamEPNSt3__112basic_stringIcNS6_11char_traitsIcEENS6_9allocatorIcEEEE, 
                       __ZN6google8protobuf8internal14WireFormatLite9SkipFieldEPNS0_2io16CodedInputStreamEj, 
                       __ZN6google8protobuf8internal14WireFormatLite9WriteBoolEibPNS0_2io17CodedOutputStreamE, 
                       __ZN6google8protobuf8internal14WireFormatLite9WriteEnumEiiPNS0_2io17CodedOutputStreamE, 
                       __ZN6google8protobuf8internal15ExtensionFinderD0Ev, 
                       __ZN6google8protobuf8internal15ExtensionFinderD1Ev, 
                       __ZN6google8protobuf8internal15ExtensionFinderD2Ev, 
                       __ZN6google8protobuf8internal15UTF8GenericScanEPKNS1_19UTF8StateMachineObjEPKciPi, 
                       __ZN6google8protobuf8internal16FunctionClosure0D0Ev, 
                       __ZN6google8protobuf8internal16FunctionClosure0D1Ev, 
                       __ZN6google8protobuf8internal16FunctionClosure0D2Ev, 
                       __ZN6google8protobuf8internal17DefaultLogHandlerENS0_8LogLevelEPKciRKNSt3__112basic_stringIcNS5_11char_traitsIcEENS5_9allocatorIcEEEE, 
                       __ZN6google8protobuf8internal18shutdown_functionsE, 
                       __ZN6google8protobuf8internal20InitLogSilencerCountEv, 
                       __ZN6google8protobuf8internal20RepeatedPtrFieldBase4SwapEPS2_, 
                       __ZN6google8protobuf8internal20RepeatedPtrFieldBase7ReserveEi, 
                       __ZN6google8protobuf8internal21InitShutdownFunctionsEv, 
                       __ZN6google8protobuf8internal21StringTypeHandlerBase3NewEv, 
                       __ZN6google8protobuf8internal21StringTypeHandlerBase6DeleteEPNSt3__112basic_stringIcNS3_11char_traitsIcEENS3_9allocatorIcEEEE, 
                       __ZN6google8protobuf8internal22DeleteLogSilencerCountEv, 
                       __ZN6google8protobuf8internal23IsStructurallyValidUTF8EPKci, 
                       __ZN6google8protobuf8internal23shutdown_functions_initE, 
                       __ZN6google8protobuf8internal24GeneratedExtensionFinder4FindEiPNS1_13ExtensionInfoE, 
                       __ZN6google8protobuf8internal24InitLogSilencerCountOnceEv, 
                       __ZN6google8protobuf8internal24UTF8GenericScanFastAsciiEPKNS1_19UTF8StateMachineObjEPKciPi, 
                       __ZN6google8protobuf8internal24log_silencer_count_init_E, 
                       __ZN6google8protobuf8internal24shutdown_functions_mutexE, 
                       __ZN6google8protobuf8internal26GeneratedMessageReflectionC1EPKNS0_10DescriptorEPKNS0_7MessageEPKiiiiPKNS0_14DescriptorPoolEPNS0_14MessageFactoryEi, 
                       __ZN6google8protobuf8internal26GeneratedMessageReflectionC2EPKNS0_10DescriptorEPKNS0_7MessageEPKiiiiPKNS0_14DescriptorPoolEPNS0_14MessageFactoryEi, 
                       __ZN6google8protobuf8internal26GeneratedMessageReflectionD0Ev, 
                       __ZN6google8protobuf8internal26GeneratedMessageReflectionD1Ev, 
                       __ZN6google8protobuf8internal26GeneratedMessageReflectionD2Ev, 
                       __ZN6google8protobuf8internal27UnknownFieldSetFieldSkipper11SkipMessageEPNS0_2io16CodedInputStreamE, 
                       __ZN6google8protobuf8internal27UnknownFieldSetFieldSkipper15SkipUnknownEnumEii, 
                       __ZN6google8protobuf8internal27UnknownFieldSetFieldSkipper9SkipFieldEPNS0_2io16CodedInputStreamEj, 
                       __ZN6google8protobuf8internal28StringSpaceUsedExcludingSelfERKNSt3__112basic_stringIcNS2_11char_traitsIcEENS2_9allocatorIcEEEE, 
                       __ZN6google8protobuf8internal29DescriptorPoolExtensionFinder4FindEiPNS1_13ExtensionInfoE, 
                       __ZN6google8protobuf8internal3NaNEv, __ZN6google8protobuf8internal5Mutex10AssertHeldEv, 
                       __ZN6google8protobuf8internal5Mutex4LockEv, __ZN6google8protobuf8internal5Mutex6UnlockEv, 
                       __ZN6google8protobuf8internal5MutexC1Ev, __ZN6google8protobuf8internal5MutexC2Ev, 
                       __ZN6google8protobuf8internal5MutexD1Ev, __ZN6google8protobuf8internal5MutexD2Ev, 
                       __ZN6google8protobuf8internal8InfinityEv, __ZN6google8protobuf9DoNothingEv, 
                       __ZNK6google8protobuf10Descriptor11DebugStringEiPNSt3__112basic_stringIcNS2_11char_traitsIcEENS2_9allocatorIcEEEE, 
                       __ZNK6google8protobuf10Descriptor11DebugStringEv, 
                       __ZNK6google8protobuf10Descriptor15FindFieldByNameERKNSt3__112basic_stringIcNS2_11char_traitsIcEENS2_9allocatorIcEEEE, 
                       __ZNK6google8protobuf10Descriptor15GetLocationPathEPNSt3__16vectorIiNS2_9allocatorIiEEEE, 
                       __ZNK6google8protobuf10Descriptor17FindFieldByNumberEi, 
                       __ZNK6google8protobuf10Descriptor17GetSourceLocationEPNS0_14SourceLocationE, 
                       __ZNK6google8protobuf10Descriptor17IsExtensionNumberEi, 
                       __ZNK6google8protobuf10Descriptor18FindEnumTypeByNameERKNSt3__112basic_stringIcNS2_11char_traitsIcEENS2_9allocatorIcEEEE, 
                       __ZNK6google8protobuf10Descriptor19FindEnumValueByNameERKNSt3__112basic_stringIcNS2_11char_traitsIcEENS2_9allocatorIcEEEE, 
                       __ZNK6google8protobuf10Descriptor19FindExtensionByNameERKNSt3__112basic_stringIcNS2_11char_traitsIcEENS2_9allocatorIcEEEE, 
                       __ZNK6google8protobuf10Descriptor20FindNestedTypeByNameERKNSt3__112basic_stringIcNS2_11char_traitsIcEENS2_9allocatorIcEEEE, 
                       __ZNK6google8protobuf10Descriptor24FindFieldByCamelcaseNameERKNSt3__112basic_stringIcNS2_11char_traitsIcEENS2_9allocatorIcEEEE, 
                       __ZNK6google8protobuf10Descriptor24FindFieldByLowercaseNameERKNSt3__112basic_stringIcNS2_11char_traitsIcEENS2_9allocatorIcEEEE, 
                       __ZNK6google8protobuf10Descriptor28FindExtensionByCamelcaseNameERKNSt3__112basic_stringIcNS2_11char_traitsIcEENS2_9allocatorIcEEEE, 
                       __ZNK6google8protobuf10Descriptor28FindExtensionByLowercaseNameERKNSt3__112basic_stringIcNS2_11char_traitsIcEENS2_9allocatorIcEEEE, 
                       __ZNK6google8protobuf10Descriptor6CopyToEPNS0_15DescriptorProtoE, 
                       __ZNK6google8protobuf10Reflection16GetRepeatedFieldIbEERKNS0_13RepeatedFieldIT_EERKNS0_7MessageEPKNS0_15FieldDescriptorE, 
                       __ZNK6google8protobuf10Reflection16GetRepeatedFieldIdEERKNS0_13RepeatedFieldIT_EERKNS0_7MessageEPKNS0_15FieldDescriptorE, 
                       __ZNK6google8protobuf10Reflection16GetRepeatedFieldIfEERKNS0_13RepeatedFieldIT_EERKNS0_7MessageEPKNS0_15FieldDescriptorE, 
                       __ZNK6google8protobuf10Reflection16GetRepeatedFieldIiEERKNS0_13RepeatedFieldIT_EERKNS0_7MessageEPKNS0_15FieldDescriptorE, 
                       __ZNK6google8protobuf10Reflection16GetRepeatedFieldIjEERKNS0_13RepeatedFieldIT_EERKNS0_7MessageEPKNS0_15FieldDescriptorE, 
                       __ZNK6google8protobuf10Reflection16GetRepeatedFieldIxEERKNS0_13RepeatedFieldIT_EERKNS0_7MessageEPKNS0_15FieldDescriptorE, 
                       __ZNK6google8protobuf10Reflection16GetRepeatedFieldIyEERKNS0_13RepeatedFieldIT_EERKNS0_7MessageEPKNS0_15FieldDescriptorE, 
                       __ZNK6google8protobuf10Reflection20MutableRepeatedFieldIbEEPNS0_13RepeatedFieldIT_EEPNS0_7MessageEPKNS0_15FieldDescriptorE, 
                       __ZNK6google8protobuf10Reflection20MutableRepeatedFieldIdEEPNS0_13RepeatedFieldIT_EEPNS0_7MessageEPKNS0_15FieldDescriptorE, 
                       __ZNK6google8protobuf10Reflection20MutableRepeatedFieldIfEEPNS0_13RepeatedFieldIT_EEPNS0_7MessageEPKNS0_15FieldDescriptorE, 
                       __ZNK6google8protobuf10Reflection20MutableRepeatedFieldIiEEPNS0_13RepeatedFieldIT_EEPNS0_7MessageEPKNS0_15FieldDescriptorE, 
                       __ZNK6google8protobuf10Reflection20MutableRepeatedFieldIjEEPNS0_13RepeatedFieldIT_EEPNS0_7MessageEPKNS0_15FieldDescriptorE, 
                       __ZNK6google8protobuf10Reflection20MutableRepeatedFieldIxEEPNS0_13RepeatedFieldIT_EEPNS0_7MessageEPKNS0_15FieldDescriptorE, 
                       __ZNK6google8protobuf10Reflection20MutableRepeatedFieldIyEEPNS0_13RepeatedFieldIT_EEPNS0_7MessageEPKNS0_15FieldDescriptorE, 
                       __ZNK6google8protobuf10Reflection24MutableRawRepeatedStringEPNS0_7MessageEPKNS0_15FieldDescriptorEb, 
                       __ZNK6google8protobuf10TextFormat13ParseInfoTree11GetLocationEPKNS0_15FieldDescriptorEi, 
                       __ZNK6google8protobuf10TextFormat13ParseInfoTree16GetTreeForNestedEPKNS0_15FieldDescriptorEi, 
                       __ZNK6google8protobuf10TextFormat7Printer10PrintFieldERKNS0_7MessageEPKNS0_10ReflectionEPKNS0_15FieldDescriptorERNS2_13TextGeneratorE, 
                       __ZNK6google8protobuf10TextFormat7Printer13PrintToStringERKNS0_7MessageEPNSt3__112basic_stringIcNS6_11char_traitsIcEENS6_9allocatorIcEEEE, 
                       __ZNK6google8protobuf10TextFormat7Printer14PrintFieldNameERKNS0_7MessageEPKNS0_10ReflectionEPKNS0_15FieldDescriptorERNS2_13TextGeneratorE, 
                       __ZNK6google8protobuf10TextFormat7Printer15PrintFieldValueERKNS0_7MessageEPKNS0_10ReflectionEPKNS0_15FieldDescriptorEiRNS2_13TextGeneratorE, 
                       __ZNK6google8protobuf10TextFormat7Printer18PrintUnknownFieldsERKNS0_15UnknownFieldSetEPNS0_2io20ZeroCopyOutputStreamE, 
                       __ZNK6google8protobuf10TextFormat7Printer18PrintUnknownFieldsERKNS0_15UnknownFieldSetERNS2_13TextGeneratorE, 
                       __ZNK6google8protobuf10TextFormat7Printer23PrintFieldValueToStringERKNS0_7MessageEPKNS0_15FieldDescriptorEiPNSt3__112basic_stringIcNS9_11char_traitsIcEENS9_9allocatorIcEEEE, 
                       __ZNK6google8protobuf10TextFormat7Printer23PrintShortRepeatedFieldERKNS0_7MessageEPKNS0_10ReflectionEPKNS0_15FieldDescriptorERNS2_13TextGeneratorE, 
                       __ZNK6google8protobuf10TextFormat7Printer26PrintUnknownFieldsToStringERKNS0_15UnknownFieldSetEPNSt3__112basic_stringIcNS6_11char_traitsIcEENS6_9allocatorIcEEEE, 
                       __ZNK6google8protobuf10TextFormat7Printer5PrintERKNS0_7MessageEPNS0_2io20ZeroCopyOutputStreamE, 
                       __ZNK6google8protobuf10TextFormat7Printer5PrintERKNS0_7MessageERNS2_13TextGeneratorE, 
                       __ZNK6google8protobuf11EnumOptions11GetMetadataEv, 
                       __ZNK6google8protobuf11EnumOptions13IsInitializedEv, 
                       __ZNK6google8protobuf11EnumOptions13SetCachedSizeEi, 
                       __ZNK6google8protobuf11EnumOptions24SerializeWithCachedSizesEPNS0_2io17CodedOutputStreamE, 
                       __ZNK6google8protobuf11EnumOptions31SerializeWithCachedSizesToArrayEPh, 
                       __ZNK6google8protobuf11EnumOptions3NewEv, __ZNK6google8protobuf11EnumOptions8ByteSizeEv, 
                       __ZNK6google8protobuf11FileOptions11GetMetadataEv, 
                       __ZNK6google8protobuf11FileOptions13IsInitializedEv, 
                       __ZNK6google8protobuf11FileOptions13SetCachedSizeEi, 
                       __ZNK6google8protobuf11FileOptions24SerializeWithCachedSizesEPNS0_2io17CodedOutputStreamE, 
                       __ZNK6google8protobuf11FileOptions31SerializeWithCachedSizesToArrayEPh, 
                       __ZNK6google8protobuf11FileOptions3NewEv, __ZNK6google8protobuf11FileOptions8ByteSizeEv, 
                       __ZNK6google8protobuf11MessageLite14AppendToStringEPNSt3__112basic_stringIcNS2_11char_traitsIcEENS2_9allocatorIcEEEE, 
                       __ZNK6google8protobuf11MessageLite16SerializeToArrayEPvi, 
                       __ZNK6google8protobuf11MessageLite17SerializeAsStringEv, 
                       __ZNK6google8protobuf11MessageLite17SerializeToStringEPNSt3__112basic_stringIcNS2_11char_traitsIcEENS2_9allocatorIcEEEE, 
                       __ZNK6google8protobuf11MessageLite21AppendPartialToStringEPNSt3__112basic_stringIcNS2_11char_traitsIcEENS2_9allocatorIcEEEE, 
                       __ZNK6google8protobuf11MessageLite22SerializeToCodedStreamEPNS0_2io17CodedOutputStreamE, 
                       __ZNK6google8protobuf11MessageLite23SerializePartialToArrayEPvi, 
                       __ZNK6google8protobuf11MessageLite24SerializePartialAsStringEv, 
                       __ZNK6google8protobuf11MessageLite24SerializePartialToStringEPNSt3__112basic_stringIcNS2_11char_traitsIcEENS2_9allocatorIcEEEE, 
                       __ZNK6google8protobuf11MessageLite25InitializationErrorStringEv, 
                       __ZNK6google8protobuf11MessageLite25SerializeToZeroCopyStreamEPNS0_2io20ZeroCopyOutputStreamE, 
                       __ZNK6google8protobuf11MessageLite29SerializePartialToCodedStreamEPNS0_2io17CodedOutputStreamE, 
                       __ZNK6google8protobuf11MessageLite31SerializeWithCachedSizesToArrayEPh, 
                       __ZNK6google8protobuf11MessageLite32SerializePartialToZeroCopyStreamEPNS0_2io20ZeroCopyOutputStreamE, 
                       __ZNK6google8protobuf12FieldOptions11GetMetadataEv, 
                       __ZNK6google8protobuf12FieldOptions13IsInitializedEv, 
                       __ZNK6google8protobuf12FieldOptions13SetCachedSizeEi, 
                       __ZNK6google8protobuf12FieldOptions24SerializeWithCachedSizesEPNS0_2io17CodedOutputStreamE, 
                       __ZNK6google8protobuf12FieldOptions31SerializeWithCachedSizesToArrayEPh, 
                       __ZNK6google8protobuf12FieldOptions3NewEv, __ZNK6google8protobuf12FieldOptions8ByteSizeEv, 
                       __ZNK6google8protobuf12UnknownField29SerializeLengthDelimitedNoTagEPNS0_2io17CodedOutputStreamE, 
                       __ZNK6google8protobuf12UnknownField36SerializeLengthDelimitedNoTagToArrayEPh, 
                       __ZNK6google8protobuf13MethodOptions11GetMetadataEv, 
                       __ZNK6google8protobuf13MethodOptions13IsInitializedEv, 
                       __ZNK6google8protobuf13MethodOptions13SetCachedSizeEi, 
                       __ZNK6google8protobuf13MethodOptions24SerializeWithCachedSizesEPNS0_2io17CodedOutputStreamE, 
                       __ZNK6google8protobuf13MethodOptions31SerializeWithCachedSizesToArrayEPh, 
                       __ZNK6google8protobuf13MethodOptions3NewEv, __ZNK6google8protobuf13MethodOptions8ByteSizeEv, 
                       __ZNK6google8protobuf14DescriptorPool14FindFileByNameERKNSt3__112basic_stringIcNS2_11char_traitsIcEENS2_9allocatorIcEEEE, 
                       __ZNK6google8protobuf14DescriptorPool15FindFieldByNameERKNSt3__112basic_stringIcNS2_11char_traitsIcEENS2_9allocatorIcEEEE, 
                       __ZNK6google8protobuf14DescriptorPool16FindMethodByNameERKNSt3__112basic_stringIcNS2_11char_traitsIcEENS2_9allocatorIcEEEE, 
                       __ZNK6google8protobuf14DescriptorPool17FindAllExtensionsEPKNS0_10DescriptorEPNSt3__16vectorIPKNS0_15FieldDescriptorENS5_9allocatorIS9_EEEE, 
                       __ZNK6google8protobuf14DescriptorPool17FindServiceByNameERKNSt3__112basic_stringIcNS2_11char_traitsIcEENS2_9allocatorIcEEEE, 
                       __ZNK6google8protobuf14DescriptorPool18FindEnumTypeByNameERKNSt3__112basic_stringIcNS2_11char_traitsIcEENS2_9allocatorIcEEEE, 
                       __ZNK6google8protobuf14DescriptorPool19FindEnumValueByNameERKNSt3__112basic_stringIcNS2_11char_traitsIcEENS2_9allocatorIcEEEE, 
                       __ZNK6google8protobuf14DescriptorPool19FindExtensionByNameERKNSt3__112basic_stringIcNS2_11char_traitsIcEENS2_9allocatorIcEEEE, 
                       __ZNK6google8protobuf14DescriptorPool20InternalIsFileLoadedERKNSt3__112basic_stringIcNS2_11char_traitsIcEENS2_9allocatorIcEEEE, 
                       __ZNK6google8protobuf14DescriptorPool21BuildFileFromDatabaseERKNS0_19FileDescriptorProtoE, 
                       __ZNK6google8protobuf14DescriptorPool21FindExtensionByNumberEPKNS0_10DescriptorEi, 
                       __ZNK6google8protobuf14DescriptorPool21FindMessageTypeByNameERKNSt3__112basic_stringIcNS2_11char_traitsIcEENS2_9allocatorIcEEEE, 
                       __ZNK6google8protobuf14DescriptorPool22IsSubSymbolOfBuiltTypeERKNSt3__112basic_stringIcNS2_11char_traitsIcEENS2_9allocatorIcEEEE, 
                       __ZNK6google8protobuf14DescriptorPool24FindFileContainingSymbolERKNSt3__112basic_stringIcNS2_11char_traitsIcEENS2_9allocatorIcEEEE, 
                       __ZNK6google8protobuf14DescriptorPool29TryFindFileInFallbackDatabaseERKNSt3__112basic_stringIcNS2_11char_traitsIcEENS2_9allocatorIcEEEE, 
                       __ZNK6google8protobuf14DescriptorPool31TryFindSymbolInFallbackDatabaseERKNSt3__112basic_stringIcNS2_11char_traitsIcEENS2_9allocatorIcEEEE, 
                       __ZNK6google8protobuf14DescriptorPool34TryFindExtensionInFallbackDatabaseEPKNS0_10DescriptorEi, 
                       __ZNK6google8protobuf14DynamicMessage11GetMetadataEv, 
                       __ZNK6google8protobuf14DynamicMessage13GetCachedSizeEv, 
                       __ZNK6google8protobuf14DynamicMessage13SetCachedSizeEi, 
                       __ZNK6google8protobuf14DynamicMessage3NewEv, __ZNK6google8protobuf14EnumDescriptor11DebugStringEiPNSt3__112basic_stringIcNS2_11char_traitsIcEENS2_9allocatorIcEEEE, 
                       __ZNK6google8protobuf14EnumDescriptor11DebugStringEv, 
                       __ZNK6google8protobuf14EnumDescriptor15FindValueByNameERKNSt3__112basic_stringIcNS2_11char_traitsIcEENS2_9allocatorIcEEEE, 
                       __ZNK6google8protobuf14EnumDescriptor15GetLocationPathEPNSt3__16vectorIiNS2_9allocatorIiEEEE, 
                       __ZNK6google8protobuf14EnumDescriptor17FindValueByNumberEi, 
                       __ZNK6google8protobuf14EnumDescriptor17GetSourceLocationEPNS0_14SourceLocationE, 
                       __ZNK6google8protobuf14EnumDescriptor6CopyToEPNS0_19EnumDescriptorProtoE, 
                       __ZNK6google8protobuf14FatalException4whatEv, __ZNK6google8protobuf14FileDescriptor11DebugStringEv, 
                       __ZNK6google8protobuf14FileDescriptor17FindServiceByNameERKNSt3__112basic_stringIcNS2_11char_traitsIcEENS2_9allocatorIcEEEE, 
                       __ZNK6google8protobuf14FileDescriptor17GetSourceLocationERKNSt3__16vectorIiNS2_9allocatorIiEEEEPNS0_14SourceLocationE, 
                       __ZNK6google8protobuf14FileDescriptor18FindEnumTypeByNameERKNSt3__112basic_stringIcNS2_11char_traitsIcEENS2_9allocatorIcEEEE, 
                       __ZNK6google8protobuf14FileDescriptor19FindEnumValueByNameERKNSt3__112basic_stringIcNS2_11char_traitsIcEENS2_9allocatorIcEEEE, 
                       __ZNK6google8protobuf14FileDescriptor19FindExtensionByNameERKNSt3__112basic_stringIcNS2_11char_traitsIcEENS2_9allocatorIcEEEE, 
                       __ZNK6google8protobuf14FileDescriptor20CopySourceCodeInfoToEPNS0_19FileDescriptorProtoE, 
                       __ZNK6google8protobuf14FileDescriptor21FindMessageTypeByNameERKNSt3__112basic_stringIcNS2_11char_traitsIcEENS2_9allocatorIcEEEE, 
                       __ZNK6google8protobuf14FileDescriptor28FindExtensionByCamelcaseNameERKNSt3__112basic_stringIcNS2_11char_traitsIcEENS2_9allocatorIcEEEE, 
                       __ZNK6google8protobuf14FileDescriptor28FindExtensionByLowercaseNameERKNSt3__112basic_stringIcNS2_11char_traitsIcEENS2_9allocatorIcEEEE, 
                       __ZNK6google8protobuf14FileDescriptor6CopyToEPNS0_19FileDescriptorProtoE, 
                       __ZNK6google8protobuf14MessageOptions11GetMetadataEv, 
                       __ZNK6google8protobuf14MessageOptions13IsInitializedEv, 
                       __ZNK6google8protobuf14MessageOptions13SetCachedSizeEi, 
                       __ZNK6google8protobuf14MessageOptions24SerializeWithCachedSizesEPNS0_2io17CodedOutputStreamE, 
                       __ZNK6google8protobuf14MessageOptions31SerializeWithCachedSizesToArrayEPh, 
                       __ZNK6google8protobuf14MessageOptions3NewEv, __ZNK6google8protobuf14MessageOptions8ByteSizeEv, 
                       __ZNK6google8protobuf14ServiceOptions11GetMetadataEv, 
                       __ZNK6google8protobuf14ServiceOptions13IsInitializedEv, 
                       __ZNK6google8protobuf14ServiceOptions13SetCachedSizeEi, 
                       __ZNK6google8protobuf14ServiceOptions24SerializeWithCachedSizesEPNS0_2io17CodedOutputStreamE, 
                       __ZNK6google8protobuf14ServiceOptions31SerializeWithCachedSizesToArrayEPh, 
                       __ZNK6google8protobuf14ServiceOptions3NewEv, __ZNK6google8protobuf14ServiceOptions8ByteSizeEv, 
                       __ZNK6google8protobuf14SourceCodeInfo11GetMetadataEv, 
                       __ZNK6google8protobuf14SourceCodeInfo13IsInitializedEv, 
                       __ZNK6google8protobuf14SourceCodeInfo13SetCachedSizeEi, 
                       __ZNK6google8protobuf14SourceCodeInfo24SerializeWithCachedSizesEPNS0_2io17CodedOutputStreamE, 
                       __ZNK6google8protobuf14SourceCodeInfo31SerializeWithCachedSizesToArrayEPh, 
                       __ZNK6google8protobuf14SourceCodeInfo3NewEv, __ZNK6google8protobuf14SourceCodeInfo8ByteSizeEv, 
                       __ZNK6google8protobuf15DescriptorProto11GetMetadataEv, 
                       __ZNK6google8protobuf15DescriptorProto13IsInitializedEv, 
                       __ZNK6google8protobuf15DescriptorProto13SetCachedSizeEi, 
                       __ZNK6google8protobuf15DescriptorProto24SerializeWithCachedSizesEPNS0_2io17CodedOutputStreamE, 
                       __ZNK6google8protobuf15DescriptorProto31SerializeWithCachedSizesToArrayEPh, 
                       __ZNK6google8protobuf15DescriptorProto3NewEv, __ZNK6google8protobuf15DescriptorProto8ByteSizeEv, 
                       __ZNK6google8protobuf15FieldDescriptor11DebugStringEiPNSt3__112basic_stringIcNS2_11char_traitsIcEENS2_9allocatorIcEEEE, 
                       __ZNK6google8protobuf15FieldDescriptor11DebugStringEv, 
                       __ZNK6google8protobuf15FieldDescriptor15GetLocationPathEPNSt3__16vectorIiNS2_9allocatorIiEEEE, 
                       __ZNK6google8protobuf15FieldDescriptor17GetSourceLocationEPNS0_14SourceLocationE, 
                       __ZNK6google8protobuf15FieldDescriptor20DefaultValueAsStringEb, 
                       __ZNK6google8protobuf15FieldDescriptor6CopyToEPNS0_20FieldDescriptorProtoE, 
                       __ZNK6google8protobuf15FieldDescriptor9is_packedEv, 
                       __ZNK6google8protobuf15UnknownFieldSet22SpaceUsedExcludingSelfEv, 
                       __ZNK6google8protobuf15UnknownFieldSet9SpaceUsedEv, 
                       __ZNK6google8protobuf16EnumValueOptions11GetMetadataEv, 
                       __ZNK6google8protobuf16EnumValueOptions13IsInitializedEv, 
                       __ZNK6google8protobuf16EnumValueOptions13SetCachedSizeEi, 
                       __ZNK6google8protobuf16EnumValueOptions24SerializeWithCachedSizesEPNS0_2io17CodedOutputStreamE, 
                       __ZNK6google8protobuf16EnumValueOptions31SerializeWithCachedSizesToArrayEPh, 
                       __ZNK6google8protobuf16EnumValueOptions3NewEv, __ZNK6google8protobuf16EnumValueOptions8ByteSizeEv, 
                       __ZNK6google8protobuf16MethodDescriptor11DebugStringEiPNSt3__112basic_stringIcNS2_11char_traitsIcEENS2_9allocatorIcEEEE, 
                       __ZNK6google8protobuf16MethodDescriptor11DebugStringEv, 
                       __ZNK6google8protobuf16MethodDescriptor15GetLocationPathEPNSt3__16vectorIiNS2_9allocatorIiEEEE, 
                       __ZNK6google8protobuf16MethodDescriptor17GetSourceLocationEPNS0_14SourceLocationE, 
                       __ZNK6google8protobuf16MethodDescriptor6CopyToEPNS0_21MethodDescriptorProtoE, 
                       __ZNK6google8protobuf17FileDescriptorSet11GetMetadataEv, 
                       __ZNK6google8protobuf17FileDescriptorSet13IsInitializedEv, 
                       __ZNK6google8protobuf17FileDescriptorSet13SetCachedSizeEi, 
                       __ZNK6google8protobuf17FileDescriptorSet24SerializeWithCachedSizesEPNS0_2io17CodedOutputStreamE, 
                       __ZNK6google8protobuf17FileDescriptorSet31SerializeWithCachedSizesToArrayEPh, 
                       __ZNK6google8protobuf17FileDescriptorSet3NewEv, 
                       __ZNK6google8protobuf17FileDescriptorSet8ByteSizeEv, 
                       __ZNK6google8protobuf17ServiceDescriptor11DebugStringEPNSt3__112basic_stringIcNS2_11char_traitsIcEENS2_9allocatorIcEEEE, 
                       __ZNK6google8protobuf17ServiceDescriptor11DebugStringEv, 
                       __ZNK6google8protobuf17ServiceDescriptor15GetLocationPathEPNSt3__16vectorIiNS2_9allocatorIiEEEE, 
                       __ZNK6google8protobuf17ServiceDescriptor16FindMethodByNameERKNSt3__112basic_stringIcNS2_11char_traitsIcEENS2_9allocatorIcEEEE, 
                       __ZNK6google8protobuf17ServiceDescriptor17GetSourceLocationEPNS0_14SourceLocationE, 
                       __ZNK6google8protobuf17ServiceDescriptor6CopyToEPNS0_22ServiceDescriptorProtoE, 
                       __ZNK6google8protobuf19EnumDescriptorProto11GetMetadataEv, 
                       __ZNK6google8protobuf19EnumDescriptorProto13IsInitializedEv, 
                       __ZNK6google8protobuf19EnumDescriptorProto13SetCachedSizeEi, 
                       __ZNK6google8protobuf19EnumDescriptorProto24SerializeWithCachedSizesEPNS0_2io17CodedOutputStreamE, 
                       __ZNK6google8protobuf19EnumDescriptorProto31SerializeWithCachedSizesToArrayEPh, 
                       __ZNK6google8protobuf19EnumDescriptorProto3NewEv, 
                       __ZNK6google8protobuf19EnumDescriptorProto8ByteSizeEv, 
                       __ZNK6google8protobuf19EnumValueDescriptor11DebugStringEiPNSt3__112basic_stringIcNS2_11char_traitsIcEENS2_9allocatorIcEEEE, 
                       __ZNK6google8protobuf19EnumValueDescriptor11DebugStringEv, 
                       __ZNK6google8protobuf19EnumValueDescriptor15GetLocationPathEPNSt3__16vectorIiNS2_9allocatorIiEEEE, 
                       __ZNK6google8protobuf19EnumValueDescriptor17GetSourceLocationEPNS0_14SourceLocationE, 
                       __ZNK6google8protobuf19EnumValueDescriptor6CopyToEPNS0_24EnumValueDescriptorProtoE, 
                       __ZNK6google8protobuf19FileDescriptorProto11GetMetadataEv, 
                       __ZNK6google8protobuf19FileDescriptorProto13IsInitializedEv, 
                       __ZNK6google8protobuf19FileDescriptorProto13SetCachedSizeEi, 
                       __ZNK6google8protobuf19FileDescriptorProto24SerializeWithCachedSizesEPNS0_2io17CodedOutputStreamE, 
                       __ZNK6google8protobuf19FileDescriptorProto31SerializeWithCachedSizesToArrayEPh, 
                       __ZNK6google8protobuf19FileDescriptorProto3NewEv, 
                       __ZNK6google8protobuf19FileDescriptorProto8ByteSizeEv, 
                       __ZNK6google8protobuf19UninterpretedOption11GetMetadataEv, 
                       __ZNK6google8protobuf19UninterpretedOption13IsInitializedEv, 
                       __ZNK6google8protobuf19UninterpretedOption13SetCachedSizeEi, 
                       __ZNK6google8protobuf19UninterpretedOption24SerializeWithCachedSizesEPNS0_2io17CodedOutputStreamE, 
                       __ZNK6google8protobuf19UninterpretedOption31SerializeWithCachedSizesToArrayEPh, 
                       __ZNK6google8protobuf19UninterpretedOption3NewEv, 
                       __ZNK6google8protobuf19UninterpretedOption8ByteSizeEv, 
                       __ZNK6google8protobuf20FieldDescriptorProto11GetMetadataEv, 
                       __ZNK6google8protobuf20FieldDescriptorProto13IsInitializedEv, 
                       __ZNK6google8protobuf20FieldDescriptorProto13SetCachedSizeEi, 
                       __ZNK6google8protobuf20FieldDescriptorProto24SerializeWithCachedSizesEPNS0_2io17CodedOutputStreamE, 
                       __ZNK6google8protobuf20FieldDescriptorProto31SerializeWithCachedSizesToArrayEPh, 
                       __ZNK6google8protobuf20FieldDescriptorProto3NewEv, 
                       __ZNK6google8protobuf20FieldDescriptorProto8ByteSizeEv, 
                       __ZNK6google8protobuf21MethodDescriptorProto11GetMetadataEv, 
                       __ZNK6google8protobuf21MethodDescriptorProto13IsInitializedEv, 
                       __ZNK6google8protobuf21MethodDescriptorProto13SetCachedSizeEi, 
                       __ZNK6google8protobuf21MethodDescriptorProto24SerializeWithCachedSizesEPNS0_2io17CodedOutputStreamE, 
                       __ZNK6google8protobuf21MethodDescriptorProto31SerializeWithCachedSizesToArrayEPh, 
                       __ZNK6google8protobuf21MethodDescriptorProto3NewEv, 
                       __ZNK6google8protobuf21MethodDescriptorProto8ByteSizeEv, 
                       __ZNK6google8protobuf22ServiceDescriptorProto11GetMetadataEv, 
                       __ZNK6google8protobuf22ServiceDescriptorProto13IsInitializedEv, 
                       __ZNK6google8protobuf22ServiceDescriptorProto13SetCachedSizeEi, 
                       __ZNK6google8protobuf22ServiceDescriptorProto24SerializeWithCachedSizesEPNS0_2io17CodedOutputStreamE, 
                       __ZNK6google8protobuf22ServiceDescriptorProto31SerializeWithCachedSizesToArrayEPh, 
                       __ZNK6google8protobuf22ServiceDescriptorProto3NewEv, 
                       __ZNK6google8protobuf22ServiceDescriptorProto8ByteSizeEv, 
                       __ZNK6google8protobuf23SourceCodeInfo_Location11GetMetadataEv, 
                       __ZNK6google8protobuf23SourceCodeInfo_Location13IsInitializedEv, 
                       __ZNK6google8protobuf23SourceCodeInfo_Location13SetCachedSizeEi, 
                       __ZNK6google8protobuf23SourceCodeInfo_Location24SerializeWithCachedSizesEPNS0_2io17CodedOutputStreamE, 
                       __ZNK6google8protobuf23SourceCodeInfo_Location31SerializeWithCachedSizesToArrayEPh, 
                       __ZNK6google8protobuf23SourceCodeInfo_Location3NewEv, 
                       __ZNK6google8protobuf23SourceCodeInfo_Location8ByteSizeEv, 
                       __ZNK6google8protobuf24EnumValueDescriptorProto11GetMetadataEv, 
                       __ZNK6google8protobuf24EnumValueDescriptorProto13IsInitializedEv, 
                       __ZNK6google8protobuf24EnumValueDescriptorProto13SetCachedSizeEi, 
                       __ZNK6google8protobuf24EnumValueDescriptorProto24SerializeWithCachedSizesEPNS0_2io17CodedOutputStreamE, 
                       __ZNK6google8protobuf24EnumValueDescriptorProto31SerializeWithCachedSizesToArrayEPh, 
                       __ZNK6google8protobuf24EnumValueDescriptorProto3NewEv, 
                       __ZNK6google8protobuf24EnumValueDescriptorProto8ByteSizeEv, 
                       __ZNK6google8protobuf28UninterpretedOption_NamePart11GetMetadataEv, 
                       __ZNK6google8protobuf28UninterpretedOption_NamePart13IsInitializedEv, 
                       __ZNK6google8protobuf28UninterpretedOption_NamePart13SetCachedSizeEi, 
                       __ZNK6google8protobuf28UninterpretedOption_NamePart24SerializeWithCachedSizesEPNS0_2io17CodedOutputStreamE, 
                       __ZNK6google8protobuf28UninterpretedOption_NamePart31SerializeWithCachedSizesToArrayEPh, 
                       __ZNK6google8protobuf28UninterpretedOption_NamePart3NewEv, 
                       __ZNK6google8protobuf28UninterpretedOption_NamePart8ByteSizeEv, 
                       __ZNK6google8protobuf2io15FileInputStream9ByteCountEv, 
                       __ZNK6google8protobuf2io16ArrayInputStream9ByteCountEv, 
                       __ZNK6google8protobuf2io16CodedInputStream15BytesUntilLimitEv, 
                       __ZNK6google8protobuf2io16FileOutputStream9ByteCountEv, 
                       __ZNK6google8protobuf2io17ArrayOutputStream9ByteCountEv, 
                       __ZNK6google8protobuf2io18IstreamInputStream9ByteCountEv, 
                       __ZNK6google8protobuf2io18StringOutputStream9ByteCountEv, 
                       __ZNK6google8protobuf2io19LimitingInputStream9ByteCountEv, 
                       __ZNK6google8protobuf2io19OstreamOutputStream9ByteCountEv, 
                       __ZNK6google8protobuf2io24ConcatenatingInputStream9ByteCountEv, 
                       __ZNK6google8protobuf2io25CopyingInputStreamAdaptor9ByteCountEv, 
                       __ZNK6google8protobuf2io26CopyingOutputStreamAdaptor9ByteCountEv, 
                       __ZNK6google8protobuf30DescriptorProto_ExtensionRange11GetMetadataEv, 
                       __ZNK6google8protobuf30DescriptorProto_ExtensionRange13IsInitializedEv, 
                       __ZNK6google8protobuf30DescriptorProto_ExtensionRange13SetCachedSizeEi, 
                       __ZNK6google8protobuf30DescriptorProto_ExtensionRange24SerializeWithCachedSizesEPNS0_2io17CodedOutputStreamE, 
                       __ZNK6google8protobuf30DescriptorProto_ExtensionRange31SerializeWithCachedSizesToArrayEPh, 
                       __ZNK6google8protobuf30DescriptorProto_ExtensionRange3NewEv, 
                       __ZNK6google8protobuf30DescriptorProto_ExtensionRange8ByteSizeEv, 
                       __ZNK6google8protobuf7Message11DebugStringEv, __ZNK6google8protobuf7Message11GetTypeNameEv, 
                       __ZNK6google8protobuf7Message13IsInitializedEv, 
                       __ZNK6google8protobuf7Message13SetCachedSizeEi, 
                       __ZNK6google8protobuf7Message15Utf8DebugStringEv, 
                       __ZNK6google8protobuf7Message16CheckInitializedEv, 
                       __ZNK6google8protobuf7Message16PrintDebugStringEv, 
                       __ZNK6google8protobuf7Message16ShortDebugStringEv, 
                       __ZNK6google8protobuf7Message18SerializeToOstreamEPNSt3__113basic_ostreamIcNS2_11char_traitsIcEEEE, 
                       __ZNK6google8protobuf7Message24FindInitializationErrorsEPNSt3__16vectorINS2_12basic_stringIcNS2_11char_traitsIcEENS2_9allocatorIcEEEENS7_IS9_EEEE, 
                       __ZNK6google8protobuf7Message24SerializeWithCachedSizesEPNS0_2io17CodedOutputStreamE, 
                       __ZNK6google8protobuf7Message25InitializationErrorStringEv, 
                       __ZNK6google8protobuf7Message25SerializePartialToOstreamEPNSt3__113basic_ostreamIcNS2_11char_traitsIcEEEE, 
                       __ZNK6google8protobuf7Message25SerializeToFileDescriptorEi, 
                       __ZNK6google8protobuf7Message32SerializePartialToFileDescriptorEi, 
                       __ZNK6google8protobuf7Message8ByteSizeEv, __ZNK6google8protobuf7Message9SpaceUsedEv, 
                       __ZNK6google8protobuf8internal12ExtensionSet10GetMessageEiPKNS0_10DescriptorEPNS0_14MessageFactoryE, 
                       __ZNK6google8protobuf8internal12ExtensionSet10GetMessageEiRKNS0_11MessageLiteE, 
                       __ZNK6google8protobuf8internal12ExtensionSet12AppendToListEPKNS0_10DescriptorEPKNS0_14DescriptorPoolEPNSt3__16vectorIPKNS0_15FieldDescriptorENS9_9allocatorISD_EEEE, 
                       __ZNK6google8protobuf8internal12ExtensionSet13ExtensionSizeEi, 
                       __ZNK6google8protobuf8internal12ExtensionSet13ExtensionTypeEi, 
                       __ZNK6google8protobuf8internal12ExtensionSet13IsInitializedEv, 
                       __ZNK6google8protobuf8internal12ExtensionSet13NumExtensionsEv, 
                       __ZNK6google8protobuf8internal12ExtensionSet15GetRepeatedBoolEii, 
                       __ZNK6google8protobuf8internal12ExtensionSet15GetRepeatedEnumEii, 
                       __ZNK6google8protobuf8internal12ExtensionSet16GetRepeatedFloatEii, 
                       __ZNK6google8protobuf8internal12ExtensionSet16GetRepeatedInt32Eii, 
                       __ZNK6google8protobuf8internal12ExtensionSet16GetRepeatedInt64Eii, 
                       __ZNK6google8protobuf8internal12ExtensionSet17GetRepeatedDoubleEii, 
                       __ZNK6google8protobuf8internal12ExtensionSet17GetRepeatedStringEii, 
                       __ZNK6google8protobuf8internal12ExtensionSet17GetRepeatedUInt32Eii, 
                       __ZNK6google8protobuf8internal12ExtensionSet17GetRepeatedUInt64Eii, 
                       __ZNK6google8protobuf8internal12ExtensionSet18GetRepeatedMessageEii, 
                       __ZNK6google8protobuf8internal12ExtensionSet18MessageSetByteSizeEv, 
                       __ZNK6google8protobuf8internal12ExtensionSet22SpaceUsedExcludingSelfEv, 
                       __ZNK6google8protobuf8internal12ExtensionSet24SerializeWithCachedSizesEiiPNS0_2io17CodedOutputStreamE, 
                       __ZNK6google8protobuf8internal12ExtensionSet31SerializeWithCachedSizesToArrayEiiPh, 
                       __ZNK6google8protobuf8internal12ExtensionSet34SerializeMessageSetWithCachedSizesEPNS0_2io17CodedOutputStreamE, 
                       __ZNK6google8protobuf8internal12ExtensionSet3HasEi, 
                       __ZNK6google8protobuf8internal12ExtensionSet41SerializeMessageSetWithCachedSizesToArrayEPh, 
                       __ZNK6google8protobuf8internal12ExtensionSet7GetBoolEib, 
                       __ZNK6google8protobuf8internal12ExtensionSet7GetEnumEii, 
                       __ZNK6google8protobuf8internal12ExtensionSet8ByteSizeEv, 
                       __ZNK6google8protobuf8internal12ExtensionSet8GetFloatEif, 
                       __ZNK6google8protobuf8internal12ExtensionSet8GetInt32Eii, 
                       __ZNK6google8protobuf8internal12ExtensionSet8GetInt64Eix, 
                       __ZNK6google8protobuf8internal12ExtensionSet9Extension22MessageSetItemByteSizeEi, 
                       __ZNK6google8protobuf8internal12ExtensionSet9Extension22SpaceUsedExcludingSelfEv, 
                       __ZNK6google8protobuf8internal12ExtensionSet9Extension29SerializeFieldWithCachedSizesEiPNS0_2io17CodedOutputStreamE, 
                       __ZNK6google8protobuf8internal12ExtensionSet9Extension36SerializeFieldWithCachedSizesToArrayEiPh, 
                       __ZNK6google8protobuf8internal12ExtensionSet9Extension38SerializeMessageSetItemWithCachedSizesEiPNS0_2io17CodedOutputStreamE, 
                       __ZNK6google8protobuf8internal12ExtensionSet9Extension45SerializeMessageSetItemWithCachedSizesToArrayEiPh, 
                       __ZNK6google8protobuf8internal12ExtensionSet9Extension7GetSizeEv, 
                       __ZNK6google8protobuf8internal12ExtensionSet9Extension8ByteSizeEi, 
                       __ZNK6google8protobuf8internal12ExtensionSet9GetDoubleEid, 
                       __ZNK6google8protobuf8internal12ExtensionSet9GetStringEiRKNSt3__112basic_stringIcNS3_11char_traitsIcEENS3_9allocatorIcEEEE, 
                       __ZNK6google8protobuf8internal12ExtensionSet9GetUInt32Eij, 
                       __ZNK6google8protobuf8internal12ExtensionSet9GetUInt64Eiy, 
                       __ZNK6google8protobuf8internal26GeneratedMessageReflection10AddMessageEPNS0_7MessageEPKNS0_15FieldDescriptorEPNS0_14MessageFactoryE, 
                       __ZNK6google8protobuf8internal26GeneratedMessageReflection10ClearFieldEPNS0_7MessageEPKNS0_15FieldDescriptorE, 
                       __ZNK6google8protobuf8internal26GeneratedMessageReflection10GetMessageERKNS0_7MessageEPKNS0_15FieldDescriptorEPNS0_14MessageFactoryE, 
                       __ZNK6google8protobuf8internal26GeneratedMessageReflection10ListFieldsERKNS0_7MessageEPNSt3__16vectorIPKNS0_15FieldDescriptorENS6_9allocatorISA_EEEE, 
                       __ZNK6google8protobuf8internal26GeneratedMessageReflection10RemoveLastEPNS0_7MessageEPKNS0_15FieldDescriptorE, 
                       __ZNK6google8protobuf8internal26GeneratedMessageReflection11ReleaseLastEPNS0_7MessageEPKNS0_15FieldDescriptorE, 
                       __ZNK6google8protobuf8internal26GeneratedMessageReflection12SwapElementsEPNS0_7MessageEPKNS0_15FieldDescriptorEii, 
                       __ZNK6google8protobuf8internal26GeneratedMessageReflection14MutableMessageEPNS0_7MessageEPKNS0_15FieldDescriptorEPNS0_14MessageFactoryE, 
                       __ZNK6google8protobuf8internal26GeneratedMessageReflection14ReleaseMessageEPNS0_7MessageEPKNS0_15FieldDescriptorEPNS0_14MessageFactoryE, 
                       __ZNK6google8protobuf8internal26GeneratedMessageReflection15GetRepeatedBoolERKNS0_7MessageEPKNS0_15FieldDescriptorEi, 
                       __ZNK6google8protobuf8internal26GeneratedMessageReflection15GetRepeatedEnumERKNS0_7MessageEPKNS0_15FieldDescriptorEi, 
                       __ZNK6google8protobuf8internal26GeneratedMessageReflection15SetRepeatedBoolEPNS0_7MessageEPKNS0_15FieldDescriptorEib, 
                       __ZNK6google8protobuf8internal26GeneratedMessageReflection15SetRepeatedEnumEPNS0_7MessageEPKNS0_15FieldDescriptorEiPKNS0_19EnumValueDescriptorE, 
                       __ZNK6google8protobuf8internal26GeneratedMessageReflection16GetRepeatedFloatERKNS0_7MessageEPKNS0_15FieldDescriptorEi, 
                       __ZNK6google8protobuf8internal26GeneratedMessageReflection16GetRepeatedInt32ERKNS0_7MessageEPKNS0_15FieldDescriptorEi, 
                       __ZNK6google8protobuf8internal26GeneratedMessageReflection16GetRepeatedInt64ERKNS0_7MessageEPKNS0_15FieldDescriptorEi, 
                       __ZNK6google8protobuf8internal26GeneratedMessageReflection16GetUnknownFieldsERKNS0_7MessageE, 
                       __ZNK6google8protobuf8internal26GeneratedMessageReflection16SetRepeatedFloatEPNS0_7MessageEPKNS0_15FieldDescriptorEif, 
                       __ZNK6google8protobuf8internal26GeneratedMessageReflection16SetRepeatedInt32EPNS0_7MessageEPKNS0_15FieldDescriptorEii, 
                       __ZNK6google8protobuf8internal26GeneratedMessageReflection16SetRepeatedInt64EPNS0_7MessageEPKNS0_15FieldDescriptorEix, 
                       __ZNK6google8protobuf8internal26GeneratedMessageReflection17GetRepeatedDoubleERKNS0_7MessageEPKNS0_15FieldDescriptorEi, 
                       __ZNK6google8protobuf8internal26GeneratedMessageReflection17GetRepeatedStringERKNS0_7MessageEPKNS0_15FieldDescriptorEi, 
                       __ZNK6google8protobuf8internal26GeneratedMessageReflection17GetRepeatedUInt32ERKNS0_7MessageEPKNS0_15FieldDescriptorEi, 
                       __ZNK6google8protobuf8internal26GeneratedMessageReflection17GetRepeatedUInt64ERKNS0_7MessageEPKNS0_15FieldDescriptorEi, 
                       __ZNK6google8protobuf8internal26GeneratedMessageReflection17SetRepeatedDoubleEPNS0_7MessageEPKNS0_15FieldDescriptorEid, 
                       __ZNK6google8protobuf8internal26GeneratedMessageReflection17SetRepeatedStringEPNS0_7MessageEPKNS0_15FieldDescriptorEiRKNSt3__112basic_stringIcNS8_11char_traitsIcEENS8_9allocatorIcEEEE, 
                       __ZNK6google8protobuf8internal26GeneratedMessageReflection17SetRepeatedUInt32EPNS0_7MessageEPKNS0_15FieldDescriptorEij, 
                       __ZNK6google8protobuf8internal26GeneratedMessageReflection17SetRepeatedUInt64EPNS0_7MessageEPKNS0_15FieldDescriptorEiy, 
                       __ZNK6google8protobuf8internal26GeneratedMessageReflection18GetRepeatedMessageERKNS0_7MessageEPKNS0_15FieldDescriptorEi, 
                       __ZNK6google8protobuf8internal26GeneratedMessageReflection18GetStringReferenceERKNS0_7MessageEPKNS0_15FieldDescriptorEPNSt3__112basic_stringIcNS9_11char_traitsIcEENS9_9allocatorIcEEEE, 
                       __ZNK6google8protobuf8internal26GeneratedMessageReflection20MutableUnknownFieldsEPNS0_7MessageE, 
                       __ZNK6google8protobuf8internal26GeneratedMessageReflection22MutableRepeatedMessageEPNS0_7MessageEPKNS0_15FieldDescriptorEi, 
                       __ZNK6google8protobuf8internal26GeneratedMessageReflection23MutableRawRepeatedFieldEPNS0_7MessageEPKNS0_15FieldDescriptorENS5_7CppTypeEiPKNS0_10DescriptorE, 
                       __ZNK6google8protobuf8internal26GeneratedMessageReflection24FindKnownExtensionByNameERKNSt3__112basic_stringIcNS3_11char_traitsIcEENS3_9allocatorIcEEEE, 
                       __ZNK6google8protobuf8internal26GeneratedMessageReflection26FindKnownExtensionByNumberEi, 
                       __ZNK6google8protobuf8internal26GeneratedMessageReflection26GetRepeatedStringReferenceERKNS0_7MessageEPKNS0_15FieldDescriptorEiPNSt3__112basic_stringIcNS9_11char_traitsIcEENS9_9allocatorIcEEEE, 
                       __ZNK6google8protobuf8internal26GeneratedMessageReflection4SwapEPNS0_7MessageES4_, 
                       __ZNK6google8protobuf8internal26GeneratedMessageReflection7AddBoolEPNS0_7MessageEPKNS0_15FieldDescriptorEb, 
                       __ZNK6google8protobuf8internal26GeneratedMessageReflection7AddEnumEPNS0_7MessageEPKNS0_15FieldDescriptorEPKNS0_19EnumValueDescriptorE, 
                       __ZNK6google8protobuf8internal26GeneratedMessageReflection7GetBoolERKNS0_7MessageEPKNS0_15FieldDescriptorE, 
                       __ZNK6google8protobuf8internal26GeneratedMessageReflection7GetEnumERKNS0_7MessageEPKNS0_15FieldDescriptorE, 
                       __ZNK6google8protobuf8internal26GeneratedMessageReflection7SetBoolEPNS0_7MessageEPKNS0_15FieldDescriptorEb, 
                       __ZNK6google8protobuf8internal26GeneratedMessageReflection7SetEnumEPNS0_7MessageEPKNS0_15FieldDescriptorEPKNS0_19EnumValueDescriptorE, 
                       __ZNK6google8protobuf8internal26GeneratedMessageReflection8AddFloatEPNS0_7MessageEPKNS0_15FieldDescriptorEf, 
                       __ZNK6google8protobuf8internal26GeneratedMessageReflection8AddInt32EPNS0_7MessageEPKNS0_15FieldDescriptorEi, 
                       __ZNK6google8protobuf8internal26GeneratedMessageReflection8AddInt64EPNS0_7MessageEPKNS0_15FieldDescriptorEx, 
                       __ZNK6google8protobuf8internal26GeneratedMessageReflection8GetFloatERKNS0_7MessageEPKNS0_15FieldDescriptorE, 
                       __ZNK6google8protobuf8internal26GeneratedMessageReflection8GetInt32ERKNS0_7MessageEPKNS0_15FieldDescriptorE, 
                       __ZNK6google8protobuf8internal26GeneratedMessageReflection8GetInt64ERKNS0_7MessageEPKNS0_15FieldDescriptorE, 
                       __ZNK6google8protobuf8internal26GeneratedMessageReflection8HasFieldERKNS0_7MessageEPKNS0_15FieldDescriptorE, 
                       __ZNK6google8protobuf8internal26GeneratedMessageReflection8SetFloatEPNS0_7MessageEPKNS0_15FieldDescriptorEf, 
                       __ZNK6google8protobuf8internal26GeneratedMessageReflection8SetInt32EPNS0_7MessageEPKNS0_15FieldDescriptorEi, 
                       __ZNK6google8protobuf8internal26GeneratedMessageReflection8SetInt64EPNS0_7MessageEPKNS0_15FieldDescriptorEx, 
                       __ZNK6google8protobuf8internal26GeneratedMessageReflection9AddDoubleEPNS0_7MessageEPKNS0_15FieldDescriptorEd, 
                       __ZNK6google8protobuf8internal26GeneratedMessageReflection9AddStringEPNS0_7MessageEPKNS0_15FieldDescriptorERKNSt3__112basic_stringIcNS8_11char_traitsIcEENS8_9allocatorIcEEEE, 
                       __ZNK6google8protobuf8internal26GeneratedMessageReflection9AddUInt32EPNS0_7MessageEPKNS0_15FieldDescriptorEj, 
                       __ZNK6google8protobuf8internal26GeneratedMessageReflection9AddUInt64EPNS0_7MessageEPKNS0_15FieldDescriptorEy, 
                       __ZNK6google8protobuf8internal26GeneratedMessageReflection9FieldSizeERKNS0_7MessageEPKNS0_15FieldDescriptorE, 
                       __ZNK6google8protobuf8internal26GeneratedMessageReflection9GetDoubleERKNS0_7MessageEPKNS0_15FieldDescriptorE, 
                       __ZNK6google8protobuf8internal26GeneratedMessageReflection9GetStringERKNS0_7MessageEPKNS0_15FieldDescriptorE, 
                       __ZNK6google8protobuf8internal26GeneratedMessageReflection9GetUInt32ERKNS0_7MessageEPKNS0_15FieldDescriptorE, 
                       __ZNK6google8protobuf8internal26GeneratedMessageReflection9GetUInt64ERKNS0_7MessageEPKNS0_15FieldDescriptorE, 
                       __ZNK6google8protobuf8internal26GeneratedMessageReflection9SetDoubleEPNS0_7MessageEPKNS0_15FieldDescriptorEd, 
                       __ZNK6google8protobuf8internal26GeneratedMessageReflection9SetStringEPNS0_7MessageEPKNS0_15FieldDescriptorERKNSt3__112basic_stringIcNS8_11char_traitsIcEENS8_9allocatorIcEEEE, 
                       __ZNK6google8protobuf8internal26GeneratedMessageReflection9SetUInt32EPNS0_7MessageEPKNS0_15FieldDescriptorEj, 
                       __ZNK6google8protobuf8internal26GeneratedMessageReflection9SetUInt64EPNS0_7MessageEPKNS0_15FieldDescriptorEy, 
                       __ZNK6google8protobuf8internal26GeneratedMessageReflection9SpaceUsedERKNS0_7MessageE, 
                       __ZTIN6google8protobuf10ReflectionE, __ZTIN6google8protobuf10TextFormat6FinderE, 
                       __ZTIN6google8protobuf11EnumOptionsE, __ZTIN6google8protobuf11FileOptionsE, 
                       __ZTIN6google8protobuf11MessageLiteE, __ZTIN6google8protobuf12FieldOptionsE, 
                       __ZTIN6google8protobuf13MethodOptionsE, __ZTIN6google8protobuf14DescriptorPool14ErrorCollectorE, 
                       __ZTIN6google8protobuf14DynamicMessageE, __ZTIN6google8protobuf14FatalExceptionE, 
                       __ZTIN6google8protobuf14MessageFactoryE, __ZTIN6google8protobuf14MessageOptionsE, 
                       __ZTIN6google8protobuf14ServiceOptionsE, __ZTIN6google8protobuf14SourceCodeInfoE, 
                       __ZTIN6google8protobuf15DescriptorProtoE, __ZTIN6google8protobuf16EnumValueOptionsE, 
                       __ZTIN6google8protobuf17FileDescriptorSetE, __ZTIN6google8protobuf18DescriptorDatabaseE, 
                       __ZTIN6google8protobuf19EnumDescriptorProtoE, __ZTIN6google8protobuf19FileDescriptorProtoE, 
                       __ZTIN6google8protobuf19UninterpretedOptionE, __ZTIN6google8protobuf20FieldDescriptorProtoE, 
                       __ZTIN6google8protobuf21DynamicMessageFactoryE, 
                       __ZTIN6google8protobuf21MethodDescriptorProtoE, 
                       __ZTIN6google8protobuf22DescriptorPoolDatabaseE, 
                       __ZTIN6google8protobuf22ServiceDescriptorProtoE, 
                       __ZTIN6google8protobuf23SourceCodeInfo_LocationE, 
                       __ZTIN6google8protobuf24EnumValueDescriptorProtoE, 
                       __ZTIN6google8protobuf24MergedDescriptorDatabaseE, 
                       __ZTIN6google8protobuf24SimpleDescriptorDatabaseE, 
                       __ZTIN6google8protobuf25EncodedDescriptorDatabaseE, 
                       __ZTIN6google8protobuf28UninterpretedOption_NamePartE, 
                       __ZTIN6google8protobuf2io14ErrorCollectorE, __ZTIN6google8protobuf2io15FileInputStream22CopyingFileInputStreamE, 
                       __ZTIN6google8protobuf2io15FileInputStreamE, __ZTIN6google8protobuf2io16ArrayInputStreamE, 
                       __ZTIN6google8protobuf2io16FileOutputStream23CopyingFileOutputStreamE, 
                       __ZTIN6google8protobuf2io16FileOutputStreamE, __ZTIN6google8protobuf2io17ArrayOutputStreamE, 
                       __ZTIN6google8protobuf2io18CopyingInputStreamE, 
                       __ZTIN6google8protobuf2io18IstreamInputStream25CopyingIstreamInputStreamE, 
                       __ZTIN6google8protobuf2io18IstreamInputStreamE, 
                       __ZTIN6google8protobuf2io18StringOutputStreamE, 
                       __ZTIN6google8protobuf2io19CopyingOutputStreamE, 
                       __ZTIN6google8protobuf2io19LimitingInputStreamE, 
                       __ZTIN6google8protobuf2io19OstreamOutputStream26CopyingOstreamOutputStreamE, 
                       __ZTIN6google8protobuf2io19OstreamOutputStreamE, 
                       __ZTIN6google8protobuf2io19ZeroCopyInputStreamE, 
                       __ZTIN6google8protobuf2io20ZeroCopyOutputStreamE, 
                       __ZTIN6google8protobuf2io24ConcatenatingInputStreamE, 
                       __ZTIN6google8protobuf2io25CopyingInputStreamAdaptorE, 
                       __ZTIN6google8protobuf2io26CopyingOutputStreamAdaptorE, 
                       __ZTIN6google8protobuf30DescriptorProto_ExtensionRangeE, 
                       __ZTIN6google8protobuf7ClosureE, __ZTIN6google8protobuf7MessageE, 
                       __ZTIN6google8protobuf8internal12FieldSkipperE, 
                       __ZTIN6google8protobuf8internal15ExtensionFinderE, 
                       __ZTIN6google8protobuf8internal16FunctionClosure0E, 
                       __ZTIN6google8protobuf8internal24GeneratedExtensionFinderE, 
                       __ZTIN6google8protobuf8internal26GeneratedMessageReflectionE, 
                       __ZTIN6google8protobuf8internal27UnknownFieldSetFieldSkipperE, 
                       __ZTIN6google8protobuf8internal29DescriptorPoolExtensionFinderE, 
                       __ZTSN6google8protobuf10ReflectionE, __ZTSN6google8protobuf10TextFormat6FinderE, 
                       __ZTSN6google8protobuf11EnumOptionsE, __ZTSN6google8protobuf11FileOptionsE, 
                       __ZTSN6google8protobuf11MessageLiteE, __ZTSN6google8protobuf12FieldOptionsE, 
                       __ZTSN6google8protobuf13MethodOptionsE, __ZTSN6google8protobuf14DescriptorPool14ErrorCollectorE, 
                       __ZTSN6google8protobuf14DynamicMessageE, __ZTSN6google8protobuf14FatalExceptionE, 
                       __ZTSN6google8protobuf14MessageFactoryE, __ZTSN6google8protobuf14MessageOptionsE, 
                       __ZTSN6google8protobuf14ServiceOptionsE, __ZTSN6google8protobuf14SourceCodeInfoE, 
                       __ZTSN6google8protobuf15DescriptorProtoE, __ZTSN6google8protobuf16EnumValueOptionsE, 
                       __ZTSN6google8protobuf17FileDescriptorSetE, __ZTSN6google8protobuf18DescriptorDatabaseE, 
                       __ZTSN6google8protobuf19EnumDescriptorProtoE, __ZTSN6google8protobuf19FileDescriptorProtoE, 
                       __ZTSN6google8protobuf19UninterpretedOptionE, __ZTSN6google8protobuf20FieldDescriptorProtoE, 
                       __ZTSN6google8protobuf21DynamicMessageFactoryE, 
                       __ZTSN6google8protobuf21MethodDescriptorProtoE, 
                       __ZTSN6google8protobuf22DescriptorPoolDatabaseE, 
                       __ZTSN6google8protobuf22ServiceDescriptorProtoE, 
                       __ZTSN6google8protobuf23SourceCodeInfo_LocationE, 
                       __ZTSN6google8protobuf24EnumValueDescriptorProtoE, 
                       __ZTSN6google8protobuf24MergedDescriptorDatabaseE, 
                       __ZTSN6google8protobuf24SimpleDescriptorDatabaseE, 
                       __ZTSN6google8protobuf25EncodedDescriptorDatabaseE, 
                       __ZTSN6google8protobuf28UninterpretedOption_NamePartE, 
                       __ZTSN6google8protobuf2io14ErrorCollectorE, __ZTSN6google8protobuf2io15FileInputStream22CopyingFileInputStreamE, 
                       __ZTSN6google8protobuf2io15FileInputStreamE, __ZTSN6google8protobuf2io16ArrayInputStreamE, 
                       __ZTSN6google8protobuf2io16FileOutputStream23CopyingFileOutputStreamE, 
                       __ZTSN6google8protobuf2io16FileOutputStreamE, __ZTSN6google8protobuf2io17ArrayOutputStreamE, 
                       __ZTSN6google8protobuf2io18CopyingInputStreamE, 
                       __ZTSN6google8protobuf2io18IstreamInputStream25CopyingIstreamInputStreamE, 
                       __ZTSN6google8protobuf2io18IstreamInputStreamE, 
                       __ZTSN6google8protobuf2io18StringOutputStreamE, 
                       __ZTSN6google8protobuf2io19CopyingOutputStreamE, 
                       __ZTSN6google8protobuf2io19LimitingInputStreamE, 
                       __ZTSN6google8protobuf2io19OstreamOutputStream26CopyingOstreamOutputStreamE, 
                       __ZTSN6google8protobuf2io19OstreamOutputStreamE, 
                       __ZTSN6google8protobuf2io19ZeroCopyInputStreamE, 
                       __ZTSN6google8protobuf2io20ZeroCopyOutputStreamE, 
                       __ZTSN6google8protobuf2io24ConcatenatingInputStreamE, 
                       __ZTSN6google8protobuf2io25CopyingInputStreamAdaptorE, 
                       __ZTSN6google8protobuf2io26CopyingOutputStreamAdaptorE, 
                       __ZTSN6google8protobuf30DescriptorProto_ExtensionRangeE, 
                       __ZTSN6google8protobuf7ClosureE, __ZTSN6google8protobuf7MessageE, 
                       __ZTSN6google8protobuf8internal12FieldSkipperE, 
                       __ZTSN6google8protobuf8internal15ExtensionFinderE, 
                       __ZTSN6google8protobuf8internal16FunctionClosure0E, 
                       __ZTSN6google8protobuf8internal24GeneratedExtensionFinderE, 
                       __ZTSN6google8protobuf8internal26GeneratedMessageReflectionE, 
                       __ZTSN6google8protobuf8internal27UnknownFieldSetFieldSkipperE, 
                       __ZTSN6google8protobuf8internal29DescriptorPoolExtensionFinderE, 
                       __ZTVN6google8protobuf10ReflectionE, __ZTVN6google8protobuf10TextFormat6FinderE, 
                       __ZTVN6google8protobuf11EnumOptionsE, __ZTVN6google8protobuf11FileOptionsE, 
                       __ZTVN6google8protobuf11MessageLiteE, __ZTVN6google8protobuf12FieldOptionsE, 
                       __ZTVN6google8protobuf13MethodOptionsE, __ZTVN6google8protobuf14DescriptorPool14ErrorCollectorE, 
                       __ZTVN6google8protobuf14DynamicMessageE, __ZTVN6google8protobuf14FatalExceptionE, 
                       __ZTVN6google8protobuf14MessageFactoryE, __ZTVN6google8protobuf14MessageOptionsE, 
                       __ZTVN6google8protobuf14ServiceOptionsE, __ZTVN6google8protobuf14SourceCodeInfoE, 
                       __ZTVN6google8protobuf15DescriptorProtoE, __ZTVN6google8protobuf16EnumValueOptionsE, 
                       __ZTVN6google8protobuf17FileDescriptorSetE, __ZTVN6google8protobuf18DescriptorDatabaseE, 
                       __ZTVN6google8protobuf19EnumDescriptorProtoE, __ZTVN6google8protobuf19FileDescriptorProtoE, 
                       __ZTVN6google8protobuf19UninterpretedOptionE, __ZTVN6google8protobuf20FieldDescriptorProtoE, 
                       __ZTVN6google8protobuf21DynamicMessageFactoryE, 
                       __ZTVN6google8protobuf21MethodDescriptorProtoE, 
                       __ZTVN6google8protobuf22DescriptorPoolDatabaseE, 
                       __ZTVN6google8protobuf22ServiceDescriptorProtoE, 
                       __ZTVN6google8protobuf23SourceCodeInfo_LocationE, 
                       __ZTVN6google8protobuf24EnumValueDescriptorProtoE, 
                       __ZTVN6google8protobuf24MergedDescriptorDatabaseE, 
                       __ZTVN6google8protobuf24SimpleDescriptorDatabaseE, 
                       __ZTVN6google8protobuf25EncodedDescriptorDatabaseE, 
                       __ZTVN6google8protobuf28UninterpretedOption_NamePartE, 
                       __ZTVN6google8protobuf2io14ErrorCollectorE, __ZTVN6google8protobuf2io15FileInputStream22CopyingFileInputStreamE, 
                       __ZTVN6google8protobuf2io15FileInputStreamE, __ZTVN6google8protobuf2io16ArrayInputStreamE, 
                       __ZTVN6google8protobuf2io16FileOutputStream23CopyingFileOutputStreamE, 
                       __ZTVN6google8protobuf2io16FileOutputStreamE, __ZTVN6google8protobuf2io17ArrayOutputStreamE, 
                       __ZTVN6google8protobuf2io18CopyingInputStreamE, 
                       __ZTVN6google8protobuf2io18IstreamInputStream25CopyingIstreamInputStreamE, 
                       __ZTVN6google8protobuf2io18IstreamInputStreamE, 
                       __ZTVN6google8protobuf2io18StringOutputStreamE, 
                       __ZTVN6google8protobuf2io19CopyingOutputStreamE, 
                       __ZTVN6google8protobuf2io19LimitingInputStreamE, 
                       __ZTVN6google8protobuf2io19OstreamOutputStream26CopyingOstreamOutputStreamE, 
                       __ZTVN6google8protobuf2io19OstreamOutputStreamE, 
                       __ZTVN6google8protobuf2io19ZeroCopyInputStreamE, 
                       __ZTVN6google8protobuf2io20ZeroCopyOutputStreamE, 
                       __ZTVN6google8protobuf2io24ConcatenatingInputStreamE, 
                       __ZTVN6google8protobuf2io25CopyingInputStreamAdaptorE, 
                       __ZTVN6google8protobuf2io26CopyingOutputStreamAdaptorE, 
                       __ZTVN6google8protobuf30DescriptorProto_ExtensionRangeE, 
                       __ZTVN6google8protobuf7ClosureE, __ZTVN6google8protobuf7MessageE, 
                       __ZTVN6google8protobuf8internal12FieldSkipperE, 
                       __ZTVN6google8protobuf8internal15ExtensionFinderE, 
                       __ZTVN6google8protobuf8internal16FunctionClosure0E, 
                       __ZTVN6google8protobuf8internal24GeneratedExtensionFinderE, 
                       __ZTVN6google8protobuf8internal26GeneratedMessageReflectionE, 
                       __ZTVN6google8protobuf8internal27UnknownFieldSetFieldSkipperE, 
                       __ZTVN6google8protobuf8internal29DescriptorPoolExtensionFinderE ]
    weak-def-symbols: [ __ZTIN6google8protobuf10TextFormat6Parser10ParserImpl20ParserErrorCollectorE, 
                        __ZTIN6google8protobuf17DescriptorBuilder17OptionInterpreter21AggregateOptionFinderE, 
                        __ZTSN6google8protobuf10TextFormat6Parser10ParserImpl20ParserErrorCollectorE, 
                        __ZTSN6google8protobuf17DescriptorBuilder17OptionInterpreter21AggregateOptionFinderE ]
...
