--- !tapi-tbd
tbd-version:     4
targets:         [ x86_64-macos, x86_64-maccatalyst, arm64-macos, arm64-maccatalyst, 
                   arm64e-macos, arm64e-maccatalyst ]
uuids:
  - target:          x86_64-macos
    value:           EB4DE2B5-7947-3422-8151-9E1BDA2B3183
  - target:          x86_64-maccatalyst
    value:           EB4DE2B5-7947-3422-8151-9E1BDA2B3183
  - target:          arm64-macos
    value:           00000000-0000-0000-0000-000000000000
  - target:          arm64-maccatalyst
    value:           00000000-0000-0000-0000-000000000000
  - target:          arm64e-macos
    value:           45FB2DDB-679F-3A57-BF43-E819F263C194
  - target:          arm64e-maccatalyst
    value:           45FB2DDB-679F-3A57-BF43-E819F263C194
install-name:    '/System/Library/PrivateFrameworks/AudioToolboxCore.framework/Versions/A/AudioToolboxCore'
exports:
  - targets:         [ x86_64-maccatalyst, x86_64-macos ]
    symbols:         [ _Float32ToNativeInt16Scaled_X86, _Float32ToNativeInt16_X86, 
                       _Float32ToNativeInt24_X86, _Float32ToNativeInt32_X86, _Float32ToSwapInt16Scaled_X86, 
                       _Float32ToSwapInt16_X86, _Float32ToSwapInt24_X86, _Float32ToSwapInt32_X86, 
                       _NativeInt16ToFloat32Scaled_X86, _NativeInt16ToFloat32_X86, 
                       _NativeInt16ToNativeInt32_X86, _NativeInt24ToFloat32_X86, 
                       _NativeInt32ToFloat32_X86, _NativeInt32ToNativeInt16_X86, 
                       _StereoDeinterleave32_X86, _StereoInterleave32_X86, _SwapInt16ToFloat32Scaled_X86, 
                       _SwapInt16ToFloat32_X86, _SwapInt24ToFloat32_X86, _SwapInt32ToFloat32_X86, 
                       _SwapPCM16_X86, _SwapPCM32_X86, _UpmixMonoToStereoInterleaved16_X86, 
                       _UpmixMonoToStereoInterleaved32_X86 ]
    objc-classes:    [ _ACCarbonComponentCache ]
    weak-symbols:    [ __ZTI11CAException, __ZTIN8DSPGraph9ExceptionE, __ZTS11CAException, 
                       __ZTSN8DSPGraph9ExceptionE ]
  - targets:         [ x86_64-maccatalyst, x86_64-macos, arm64e-maccatalyst, arm64e-macos, 
                       arm64-macos, arm64-maccatalyst ]
    symbols:         [ _AUEventListenerAddEventType, _AUEventListenerCreate, _AUEventListenerCreateWithDispatchQueue, 
                       _AUEventListenerNotify, _AUEventListenerRemoveEventType, _AUListenerAddParameter, 
                       _AUListenerCreate, _AUListenerCreateWithDispatchQueue, _AUListenerDispose, 
                       _AUListenerRemoveParameter, _AUPBAddPropertyListener, _AUPBAddServerListener, 
                       _AUPBCopyProperty, _AUPBPropertiesChanged, _AUPBPropertyChanged, 
                       _AUPBRegister, _AUPBRegisterAU, _AUPBRemovePropertyListener, 
                       _AUPBRemoveServerListener, _AUPBSetProperty, _AUPBUnregister, 
                       _AUPBUnregisterAU, _AUParameterFormatValue, _AUParameterListenerNotify, 
                       _AUParameterSet, _AUParameterValueFromLinear, _AUParameterValueToLinear, 
                       _AudioAnalyzerCompleteAnalysis, _AudioAnalyzerCompleteAnalysisWithBlock, 
                       _AudioAnalyzerDispose, _AudioAnalyzerNew, _AudioAnalyzerNewWithBlock, 
                       _AudioAnalyzerPrepare, _AudioAnalyzerPrepareWithFile, _AudioAnalyzerPrepareWithFileStream, 
                       _AudioAnalyzerPushAudio, _AudioCodecAppendInputBufferList, 
                       _AudioCodecAppendInputData, _AudioCodecGetProperty, _AudioCodecGetPropertyInfo, 
                       _AudioCodecInitialize, _AudioCodecProduceOutputBufferList, 
                       _AudioCodecProduceOutputPackets, _AudioCodecReset, _AudioCodecSetProperty, 
                       _AudioCodecUninitialize, _AudioComponentCopyComponentURL, 
                       _AudioComponentCopyConfigurationInfo, _AudioComponentCopyIcon, 
                       _AudioComponentCopyName, _AudioComponentCopyTagsInfo, _AudioComponentCopyUserTags, 
                       _AudioComponentCount, _AudioComponentEnableNonSystemPlugIns, 
                       _AudioComponentFindNext, _AudioComponentGetDescription, _AudioComponentGetIcon, 
                       _AudioComponentGetLastActiveTime, _AudioComponentGetVersion, 
                       _AudioComponentInstanceCanDo, _AudioComponentInstanceDispose, 
                       _AudioComponentInstanceGetComponent, _AudioComponentInstanceNew, 
                       _AudioComponentInstantiate, _AudioComponentNoComponentManager, 
                       _AudioComponentRegister, _AudioComponentRelease, _AudioComponentSetUserTags, 
                       _AudioComponentValidate, _AudioConverterConvertBuffer, _AudioConverterConvertComplexBuffer, 
                       _AudioConverterDispose, _AudioConverterFillBuffer, _AudioConverterFillComplexBuffer, 
                       _AudioConverterGetProperty, _AudioConverterGetPropertyInfo, 
                       _AudioConverterNew, _AudioConverterNewSpecific, _AudioConverterReset, 
                       _AudioConverterSetProperty, _AudioFileClose, _AudioFileComponentCloseFile, 
                       _AudioFileComponentCountUserData, _AudioFileComponentCreate, 
                       _AudioFileComponentCreateURL, _AudioFileComponentDataIsThisFormat, 
                       _AudioFileComponentExtensionIsThisFormat, _AudioFileComponentFileDataIsThisFormat, 
                       _AudioFileComponentFileIsThisFormat, _AudioFileComponentGetGlobalInfo, 
                       _AudioFileComponentGetGlobalInfoSize, _AudioFileComponentGetProperty, 
                       _AudioFileComponentGetPropertyInfo, _AudioFileComponentGetUserData, 
                       _AudioFileComponentGetUserDataSize, _AudioFileComponentInitialize, 
                       _AudioFileComponentInitializeWithCallbacks, _AudioFileComponentOpenFile, 
                       _AudioFileComponentOpenURL, _AudioFileComponentOpenWithCallbacks, 
                       _AudioFileComponentOptimize, _AudioFileComponentReadBytes, 
                       _AudioFileComponentReadPacketData, _AudioFileComponentReadPackets, 
                       _AudioFileComponentRemoveUserData, _AudioFileComponentSetProperty, 
                       _AudioFileComponentSetUserData, _AudioFileComponentWriteBytes, 
                       _AudioFileComponentWritePackets, _AudioFileCountUserData, 
                       _AudioFileCreate, _AudioFileCreateWithURL, _AudioFileGetGlobalInfo, 
                       _AudioFileGetGlobalInfoSize, _AudioFileGetProperty, _AudioFileGetPropertyInfo, 
                       _AudioFileGetUserData, _AudioFileGetUserDataSize, _AudioFileInitialize, 
                       _AudioFileInitializeWithCallbacks, _AudioFileOpen, _AudioFileOpenURL, 
                       _AudioFileOpenWithCallbacks, _AudioFileOptimize, _AudioFileReadBytes, 
                       _AudioFileReadPacketData, _AudioFileReadPackets, _AudioFileRemoveUserData, 
                       _AudioFileSetProperty, _AudioFileSetUserData, _AudioFileStreamClose, 
                       _AudioFileStreamGetProperty, _AudioFileStreamGetPropertyInfo, 
                       _AudioFileStreamOpen, _AudioFileStreamParseBytes, _AudioFileStreamSeek, 
                       _AudioFileStreamSetProperty, _AudioFileWriteBytes, _AudioFileWritePackets, 
                       _AudioFormatGetProperty, _AudioFormatGetPropertyInfo, _AudioFormat_ComputeLoudnessScalar, 
                       _AudioOutputUnitGetHostIcon, _AudioOutputUnitPublish, _AudioOutputUnitStart, 
                       _AudioOutputUnitStop, _AudioUnitAddPropertyListener, _AudioUnitAddRenderNotify, 
                       _AudioUnitComplexRender, _AudioUnitExtensionCopyComponentList, 
                       _AudioUnitExtensionSetComponentList, _AudioUnitGetParameter, 
                       _AudioUnitGetProperty, _AudioUnitGetPropertyInfo, _AudioUnitInitialize, 
                       _AudioUnitProcess, _AudioUnitProcessMultiple, _AudioUnitRemovePropertyListenerWithUserData, 
                       _AudioUnitRemoveRenderNotify, _AudioUnitRender, _AudioUnitReset, 
                       _AudioUnitScheduleParameters, _AudioUnitSetParameter, _AudioUnitSetProperty, 
                       _AudioUnitURLOpen, _AudioUnitUninitialize, _AudioWorkIntervalCreate, 
                       _CACentralStateDumpRegisterSubsystem, _CACentralStateDumpUnregisterSubsystem, 
                       _CACopyObjectDescription, _CAShow, _CAShowFile, _ConfigureAUAudioUnitXPCInterface, 
                       _DownmixStereoInterleavedFloat32ToMono_Portable, _DownmixStereoInterleavedInt16ToMono_Portable, 
                       _DownmixStereoInterleavedInt32ToMono_Portable, _ExtAudioFileCreateNew, 
                       _ExtAudioFileCreateWithURL, _ExtAudioFileDispose, _ExtAudioFileGetProperty, 
                       _ExtAudioFileGetPropertyInfo, _ExtAudioFileOpen, _ExtAudioFileOpenURL, 
                       _ExtAudioFileRead, _ExtAudioFileSeek, _ExtAudioFileSetProperty, 
                       _ExtAudioFileTell, _ExtAudioFileWrapAudioFileID, _ExtAudioFileWrapAudioFileIDWithPreferredFormatID, 
                       _ExtAudioFileWrite, _ExtAudioFileWriteAsync, _Float32ToNativeFloat64, 
                       _Float32ToNativeInt16Scaled_Portable, _Float32ToNativeInt16_Portable, 
                       _Float32ToNativeInt24_Portable, _Float32ToNativeInt32Scaled_Portable, 
                       _Float32ToNativeInt32_Portable, _Float32ToNativeLowAlignedInt32_Portable, 
                       _Float32ToNativeLowAlignedInt64_Portable, _Float32ToSInt8, 
                       _Float32ToSwapFloat64, _Float32ToSwapInt16Scaled_Portable, 
                       _Float32ToSwapInt16_Portable, _Float32ToSwapInt24_Portable, 
                       _Float32ToSwapInt32Scaled_Portable, _Float32ToSwapInt32_Portable, 
                       _Float32ToUInt8, _ID3ParserClose, _ID3ParserGetProperty, _ID3ParserOpen, 
                       _MusicDeviceMIDIEvent, _MusicDevicePrepareInstrument, _MusicDeviceReleaseInstrument, 
                       _MusicDeviceStartNote, _MusicDeviceStopNote, _MusicDeviceSysEx, 
                       _Native824FixedToLowAlignedInt32_Portable, _NativeFloat64ToFloat32, 
                       _NativeInt16ToFloat32Scaled_Portable, _NativeInt16ToFloat32_Portable, 
                       _NativeInt16ToLowAlignedInt32_Portable, _NativeInt16ToNativeInt24_Portable, 
                       _NativeInt16ToNativeInt32_Portable, _NativeInt16ToSInt8_Portable, 
                       _NativeInt16ToSwapInt24_Portable, _NativeInt16ToUInt8_Portable, 
                       _NativeInt24ToFloat32_Portable, _NativeInt24ToNativeInt16_Portable, 
                       _NativeInt24ToNativeInt32_Portable, _NativeInt32ToFloat32Scaled_Portable, 
                       _NativeInt32ToFloat32_Portable, _NativeInt32ToNativeInt16_Portable, 
                       _NativeInt32ToNativeInt24_Portable, _NativeInt32ToNativeInt32_Portable, 
                       _NativeInt32ToSwapInt16_Portable, _NativeInt32ToSwapInt24_Portable, 
                       _NativeInt32ToSwapInt32_Portable, _NativeLowAlignedInt32To824Fixed_Portable, 
                       _NativeLowAlignedInt32ToFloat32_Portable, _NativeLowAlignedInt32ToInt16_Portable, 
                       _NativeLowAlignedInt64ToFloat32_Portable, _RemoteAudioUnitGetParameter, 
                       _RemoteAudioUnitGetProperty, _RemoteAudioUnitGetPropertyInfo, 
                       _RemoteAudioUnitGetPropertySerial, _RemoteAudioUnitSetParameter, 
                       _RemoteAudioUnitSetProperty, _RemoteAudioUnitSetPropertySerial, 
                       _SInt8ToFloat32, _SInt8ToNativeInt16_Portable, _StereoDeinterleave32_Portable, 
                       _StereoDeinterleaveInt16ToFloat32Scaled_Portable, _StereoDeinterleaveInt16ToInt824_Portable, 
                       _StereoDeinterleaveInt824ToFloat32_Portable, _StereoInterleave32_Portable, 
                       _StereoInterleaveFloat32ToInt16Scaled_Portable, _StereoInterleaveFloat32ToInt824_Portable, 
                       _StereoInterleaveInt824ToInt16_Portable, _SwapFloat64ToFloat32, 
                       _SwapInt16ToFloat32Scaled_Portable, _SwapInt16ToFloat32_Portable, 
                       _SwapInt16ToNativeInt32_Portable, _SwapInt24ToFloat32_Portable, 
                       _SwapInt24ToNativeInt16_Portable, _SwapInt24ToNativeInt32_Portable, 
                       _SwapInt32ToFloat32Scaled_Portable, _SwapInt32ToFloat32_Portable, 
                       _SwapInt32ToNativeInt16_Portable, _SwapInt32ToNativeInt24_Portable, 
                       _SwapInt32ToNativeInt32_Portable, _SwapInt32ToSwapInt32_Portable, 
                       _SwapPCM16_Portable, _SwapPCM24_Portable, _SwapPCM32_Portable, 
                       _SwapPCM64_Portable, _UInt8ToFloat32, _UInt8ToNativeInt16_Portable, 
                       _UpmixMonoToStereoInterleaved16_Portable, _UpmixMonoToStereoInterleaved32_Portable, 
                       __AudioConverterNewInternal, __Z16PacketTableEntryP21CompressedPacketTablem, 
                       __Z17_ReportRPCTimeoutPKci, __Z21GetAudioToolboxBundlev, __Z24GetMediaServerRPCTimeoutv, 
                       __ZN11CAFormatter14InitCAShowableEPvPKc, __ZN11CAFormatter15DumpAudioBufferEP7__sFILEPKcRK11AudioBufferiiib, 
                       __ZN11CAFormatter20InitWithMemoryStreamER14CAMemoryStream, 
                       __ZN11CAFormatter4InitERK14AudioTimeStampjb, __ZN11CAFormatter9DumpAudioEP7__sFILERK15AudioBufferListiiiPKcbS6_, 
                       __ZN11CAFormatterC1EP20OpaqueAudioConverter, __ZN11CAFormatterC1EPK14AudioTimeStampjb, 
                       __ZN11CAFormatterC1EPK18AudioChannelLayout, __ZN11CAFormatterC1EPK28AudioStreamPacketDescriptionii, 
                       __ZN11CAFormatterC1EPKfi, __ZN11CAFormatterC1EPKfii, __ZN11CAFormatterC1EPKii, 
                       __ZN11CAFormatterC1EPKvi, __ZN11CAFormatterC1ERK15AudioBufferList, 
                       __ZN11CAFormatterC1ERK15AudioBufferListiRK27AudioStreamBasicDescriptionPKcb, 
                       __ZN11CAFormatterC1ERK15AudioBufferListjPK27AudioStreamBasicDescriptionPKcb, 
                       __ZN11CAFormatterC1ERK21AudioClassDescription, __ZN11CAFormatterC1ERK24CAStreamBasicDescriptionb, 
                       __ZN11CAFormatterC1ERK25AudioComponentDescription, __ZN11CAFormatterC1ERK26AudioObjectPropertyAddress, 
                       __ZN11CAFormatterC1ERK26AudioObjectPropertyAddressPKvi, __ZN11CAFormatterC1ERK27AudioStreamBasicDescriptionb, 
                       __ZN11CAFormatterC2EP20OpaqueAudioConverter, __ZN11CAFormatterC2EPK14AudioTimeStampjb, 
                       __ZN11CAFormatterC2EPK18AudioChannelLayout, __ZN11CAFormatterC2EPK28AudioStreamPacketDescriptionii, 
                       __ZN11CAFormatterC2EPKfi, __ZN11CAFormatterC2EPKfii, __ZN11CAFormatterC2EPKii, 
                       __ZN11CAFormatterC2EPKvi, __ZN11CAFormatterC2ERK15AudioBufferList, 
                       __ZN11CAFormatterC2ERK15AudioBufferListiRK27AudioStreamBasicDescriptionPKcb, 
                       __ZN11CAFormatterC2ERK15AudioBufferListjPK27AudioStreamBasicDescriptionPKcb, 
                       __ZN11CAFormatterC2ERK21AudioClassDescription, __ZN11CAFormatterC2ERK24CAStreamBasicDescriptionb, 
                       __ZN11CAFormatterC2ERK25AudioComponentDescription, __ZN11CAFormatterC2ERK26AudioObjectPropertyAddress, 
                       __ZN11CAFormatterC2ERK26AudioObjectPropertyAddressPKvi, __ZN11CAFormatterC2ERK27AudioStreamBasicDescriptionb, 
                       __ZN13CACFFormatterC1EPKv, __ZN13CACFFormatterC2EPKv, __ZN15AudioFileFormatC2Ej, 
                       __ZN15AudioFileFormatD0Ev, __ZN15AudioFileFormatD1Ev, __ZN15AudioFileFormatD2Ev, 
                       __ZN15AudioFileObject10DoOptimizeEv, __ZN15AudioFileObject10GetBitRateEPj, 
                       __ZN15AudioFileObject10InitializeEPK7__CFURLPK27AudioStreamBasicDescriptionj, 
                       __ZN15AudioFileObject10WriteBytesEhxPjPKv, __ZN15AudioFileObject11GetPropertyEjPjPv, 
                       __ZN15AudioFileObject11GetUserDataEjjPjPv, __ZN15AudioFileObject11ReadPacketsEhPjP28AudioStreamPacketDescriptionxS0_Pv, 
                       __ZN15AudioFileObject11SetPropertyEjjPKv, __ZN15AudioFileObject11SetUserDataEjjjPKv, 
                       __ZN15AudioFileObject11SizeChangedEv, __ZN15AudioFileObject12AppendPacketERK28AudioStreamPacketDescription, 
                       __ZN15AudioFileObject12ByteToPacketEP26AudioBytePacketTranslation, 
                       __ZN15AudioFileObject12DoInitializeEPK7__CFURLPK27AudioStreamBasicDescriptionj, 
                       __ZN15AudioFileObject12PacketToByteEP26AudioBytePacketTranslation, 
                       __ZN15AudioFileObject12WritePacketsEhjPK28AudioStreamPacketDescriptionxPjPKv, 
                       __ZN15AudioFileObject13CountUserDataEjPj, __ZN15AudioFileObject13FrameToPacketExRxRj, 
                       __ZN15AudioFileObject13GetFormatListERjP19AudioFormatListItem, 
                       __ZN15AudioFileObject13GetMarkerListEPjP19AudioFileMarkerList, 
                       __ZN15AudioFileObject13GetRegionListEPjP19AudioFileRegionList, 
                       __ZN15AudioFileObject13PacketToFrameExRx, __ZN15AudioFileObject13SetDataFormatEPK27AudioStreamBasicDescription, 
                       __ZN15AudioFileObject13SetDataSourceEP10DataSource, __ZN15AudioFileObject13SetFormatListEjPK19AudioFormatListItem, 
                       __ZN15AudioFileObject13SetMarkerListEjPK19AudioFileMarkerList, 
                       __ZN15AudioFileObject13SetRegionListEjPK19AudioFileRegionList, 
                       __ZN15AudioFileObject14CreateDataFileEPK7__CFURLRi, __ZN15AudioFileObject14GetPacketTableEh, 
                       __ZN15AudioFileObject14ReadPacketDataEhPjP28AudioStreamPacketDescriptionxS0_Pv, 
                       __ZN15AudioFileObject14RemoveUserDataEjj, __ZN15AudioFileObject14UpdateNumBytesEx, 
                       __ZN15AudioFileObject15GetPropertyInfoEjPjS0_, __ZN15AudioFileObject15GetUserDataSizeEjjPj, 
                       __ZN15AudioFileObject16GetChannelLayoutEPjP18AudioChannelLayout, 
                       __ZN15AudioFileObject16SetChannelLayoutEjPK18AudioChannelLayout, 
                       __ZN15AudioFileObject16UpdateDataFormatEPK27AudioStreamBasicDescription, 
                       __ZN15AudioFileObject16UpdateNumPacketsEx, __ZN15AudioFileObject17DeletePacketTableEv, 
                       __ZN15AudioFileObject17GetFormatListInfoERjS0_, __ZN15AudioFileObject17GetInfoDictionaryEP14CACFDictionary, 
                       __ZN15AudioFileObject17GetMarkerListSizeEPjS0_, __ZN15AudioFileObject17GetRegionListSizeEPjS0_, 
                       __ZN15AudioFileObject17IsDataFormatValidEPK27AudioStreamBasicDescription, 
                       __ZN15AudioFileObject17ReadPacketDataCBREhPjxS0_Pv, __ZN15AudioFileObject17ReadPacketDataVBREhPjP28AudioStreamPacketDescriptionxS0_Pv, 
                       __ZN15AudioFileObject17SetInfoDictionaryEP14CACFDictionary, 
                       __ZN15AudioFileObject18GetMagicCookieDataEPjPv, __ZN15AudioFileObject18OpenFromDataSourceEv, 
                       __ZN15AudioFileObject18SetMagicCookieDataEjPKv, __ZN15AudioFileObject18UpdateSizeIfNeededEv, 
                       __ZN15AudioFileObject19DoOpenWithCallbacksEPvPFiS0_xjS0_PjEPFiS0_xjPKvS1_EPFxS0_EPFiS0_xE, 
                       __ZN15AudioFileObject20GetChannelLayoutSizeEPjS0_, __ZN15AudioFileObject20GetEstimatedDurationEPd, 
                       __ZN15AudioFileObject20InitializeDataSourceEPK27AudioStreamBasicDescriptionj, 
                       __ZN15AudioFileObject20PacketToRollDistanceEP34AudioPacketRollDistanceTranslation, 
                       __ZN15AudioFileObject21GetInfoDictionarySizeEPjS0_, __ZN15AudioFileObject21GetPacketDescriptionsEjPjP28AudioStreamPacketDescription, 
                       __ZN15AudioFileObject21PacketRangeUpperBoundExRxS0_, __ZN15AudioFileObject21ValidateFormatAndDataEv, 
                       __ZN15AudioFileObject22GetMagicCookieDataSizeEPjS0_, __ZN15AudioFileObject22PacketToDependencyInfoEP36AudioPacketDependencyInfoTranslation, 
                       __ZN15AudioFileObject24ScanForIndependentPacketEN9AudioFile24AudioPacketScanDirectionEP33AudioIndependentPacketTranslation, 
                       __ZN15AudioFileObject25DoInitializeWithCallbacksEPvPFiS0_xjS0_PjEPFiS0_xjPKvS1_EPFxS0_EPFiS0_xEjPK27AudioStreamBasicDescriptionj, 
                       __ZN15AudioFileObject25ReadPacketDataVBR_InTableEhPjP28AudioStreamPacketDescriptionxS0_Pv, 
                       __ZN15AudioFileObject27AddDurationToInfoDictionaryEP14CACFDictionaryRd, 
                       __ZN15AudioFileObject33HowManyPacketsCanBeReadIntoBufferEPjxS0_, 
                       __ZN15AudioFileObject4OpenEPK7__CFURLai, __ZN15AudioFileObject5CloseEv, 
                       __ZN15AudioFileObject6CreateEPK7__CFURLPK27AudioStreamBasicDescription, 
                       __ZN15AudioFileObject6DoOpenEPK7__CFURLai, __ZN15AudioFileObject6SetURLEPK7__CFURL, 
                       __ZN15AudioFileObject7DoCloseEv, __ZN15AudioFileObject8DoCreateEPK7__CFURLPK27AudioStreamBasicDescriptionj, 
                       __ZN15AudioFileObject8MoveDataExxx, __ZN15AudioFileObject8OpenFileEai, 
                       __ZN15AudioFileObject8OptimizeEv, __ZN15AudioFileObject9ReadBytesEhxPjPv, 
                       __ZN15AudioFileObjectD0Ev, __ZN15AudioFileObjectD1Ev, __ZN15AudioFileObjectD2Ev, 
                       __ZN15AudioRingBuffer10DeallocateEv, __ZN15AudioRingBuffer13GetTimeBoundsERxS0_, 
                       __ZN15AudioRingBuffer13SetTimeBoundsExx, __ZN15AudioRingBuffer14SetInputFormatERK24CAStreamBasicDescription, 
                       __ZN15AudioRingBuffer15CheckTimeBoundsExx, __ZN15AudioRingBuffer15ConvertAndStoreEiPK15AudioBufferListii, 
                       __ZN15AudioRingBuffer16CheckTimeBounds2ExxRxS0_, __ZN15AudioRingBuffer18FetchAllWithZeroesEP15AudioBufferListjxRjS2_S2_, 
                       __ZN15AudioRingBuffer21touchRingBufferMemoryEv, __ZN15AudioRingBuffer5ClearEv, 
                       __ZN15AudioRingBuffer5FetchEP15AudioBufferListjx, __ZN15AudioRingBuffer5StoreEPK15AudioBufferListjx, 
                       __ZN15AudioRingBuffer8AllocateERK24CAStreamBasicDescriptionj, 
                       __ZN15AudioRingBuffer8AllocateEijj, __ZN15AudioRingBufferC1Ev, 
                       __ZN15AudioRingBufferC2Ev, __ZN15AudioRingBufferD0Ev, __ZN15AudioRingBufferD1Ev, 
                       __ZN15AudioRingBufferD2Ev, __ZN18CAHexDumpFormatterC1EPKvi, 
                       __ZN18CAHexDumpFormatterC2EPKvi, __ZN19AudioFileFormatBase11GetHFSCodesEPjPv, 
                       __ZN19AudioFileFormatBaseC2Ej, __ZN19AudioFileFormatBaseD0Ev, 
                       __ZN19AudioFileFormatBaseD1Ev, __ZN19AudioFileFormatBaseD2Ev, 
                       __ZN20AUProcessingBlock_AU15GetAvailableAUsERNSt3__16vectorI21AudioClassDescriptionNS0_9allocatorIS2_EEEE, 
                       __ZN21AUProcessingBlockBase11SetPropertyEjPKv, __ZN21AUProcessingBlockBase12CopyPropertyEjPPKv, 
                       __ZN21AUProcessingBlockBase12UnitsChangedEjPP21OpaqueRemoteAudioUnit, 
                       __ZN21AUProcessingBlockBase15InsertAUAtIndexEjRK8AUPBUnit, 
                       __ZN21AUProcessingBlockBase15RemoveAUAtIndexEj, __ZN21AUProcessingBlockBase7SetNameEPK10__CFString, 
                       __ZN21AUProcessingBlockBaseC2EPK10__CFString, __ZN21AUProcessingBlockBaseC2Ev, 
                       __ZN21AUProcessingBlockBaseD0Ev, __ZN21AUProcessingBlockBaseD1Ev, 
                       __ZN21AUProcessingBlockBaseD2Ev, __ZN25CAAUScopeElementFormatterC1Ejj, 
                       __ZN25CAAUScopeElementFormatterC2Ejj, __ZN26AUProcessingBlock_DSPGraph12CopyPropertyEjPPKv, 
                       __ZN26AUProcessingBlock_DSPGraph13AUGetPropertyEP21OpaqueRemoteAudioUnitjjjPvPj, 
                       __ZN26AUProcessingBlock_DSPGraph13AUSetPropertyEP21OpaqueRemoteAudioUnitjjjPKvj, 
                       __ZN26AUProcessingBlock_DSPGraph14AUGetParameterEP21OpaqueRemoteAudioUnitjjjPf, 
                       __ZN26AUProcessingBlock_DSPGraph14AUSetParameterEP21OpaqueRemoteAudioUnitjjjf, 
                       __ZN26AUProcessingBlock_DSPGraph15GetAvailableAUsERNSt3__16vectorI21AudioClassDescriptionNS0_9allocatorIS2_EEEE, 
                       __ZN26AUProcessingBlock_DSPGraph17AUGetPropertyInfoEP21OpaqueRemoteAudioUnitjjjPjPh, 
                       __ZN26AUProcessingBlock_DSPGraphC1ERNSt3__110shared_ptrIN8DSPGraph5GraphEEE, 
                       __ZN26AUProcessingBlock_DSPGraphC2ERNSt3__110shared_ptrIN8DSPGraph5GraphEEE, 
                       __ZN26AUProcessingBlock_DSPGraphD0Ev, __ZN26AUProcessingBlock_DSPGraphD1Ev, 
                       __ZN26AUProcessingBlock_DSPGraphD2Ev, __ZN27AUProcessingBlockBase_NonAU14AddItemToBlockERK21AudioClassDescriptionNSt3__110shared_ptrI31AUProcessingBlockBase_NonAUItemEE, 
                       __ZN27AUProcessingBlockBase_NonAU15GetAvailableAUsERNSt3__16vectorI21AudioClassDescriptionNS0_9allocatorIS2_EEEE, 
                       __ZN27AUProcessingBlockBase_NonAU19RemoveItemFromBlockENSt3__110shared_ptrI31AUProcessingBlockBase_NonAUItemEE, 
                       __ZN27AUProcessingBlockBase_NonAUD0Ev, __ZN27AUProcessingBlockBase_NonAUD1Ev, 
                       __ZN27AUProcessingBlockBase_NonAUD2Ev, __ZN27AudioUnitPropertyMarshaller16CreateMarshallerEj, 
                       __ZN2AT9Resampler13MockResampler13SetIsBypassedEb, __ZN2AT9Resampler13MockResampler16SetVarispeedRateEd, 
                       __ZN2AT9Resampler13MockResampler23GetNumberOfSourceFramesEj, 
                       __ZN2AT9Resampler13MockResampler7ProcessEj, __ZN2AT9Resampler13MockResampler7SetRampEPK8RateRamp, 
                       __ZN2AT9Resampler13MockResamplerC1ERS0_, __ZN2AT9Resampler13MockResamplerC2ERS0_, 
                       __ZN2AT9Resampler13MockResamplerD1Ev, __ZN2AT9Resampler13MockResamplerD2Ev, 
                       __ZN2AT9Resampler21ShutdownVarispeedModeEj, __ZN2AT9Resampler23InitializeVarispeedModeEj, 
                       __ZN2AT9Resampler6createEddiiidb, __ZN31AUProcessingBlockBase_NonAUItem11GetPropertyEjjjPvPj, 
                       __ZN31AUProcessingBlockBase_NonAUItem11SetPropertyEjjjPKvj, 
                       __ZN31AUProcessingBlockBase_NonAUItem15GetPropertyInfoEjjjPjPh, 
                       __ZN31AUProcessingBlockBase_NonAUItemD0Ev, __ZN31AUProcessingBlockBase_NonAUItemD1Ev, 
                       __ZN31AUProcessingBlockBase_NonAUItemD2Ev, __ZN34AUProcessingBlock_AU_Instantiating15InsertAUAtIndexEjRK8AUPBUnit, 
                       __ZN34AUProcessingBlock_AU_Instantiating15RemoveAUAtIndexEj, 
                       __ZN34AUProcessingBlock_AU_InstantiatingD0Ev, __ZN34AUProcessingBlock_AU_InstantiatingD1Ev, 
                       __ZN34AUProcessingBlock_AU_InstantiatingD2Ev, __ZN8DSPGraph10AUAnalyzer11getPropertyEjjjRjPv, 
                       __ZN8DSPGraph10AUAnalyzer11setPropertyEjjjjPKv, __ZN8DSPGraph10AUAnalyzer12getParameterEjjj, 
                       __ZN8DSPGraph10AUAnalyzer12setParameterEjjjfj, __ZN8DSPGraph10AUAnalyzer13processBufferEPNS_6BufferEj, 
                       __ZN8DSPGraph10AUAnalyzer13resetAnalysisEv, __ZN8DSPGraph10AUAnalyzer15getPropertyInfoEjjjRjRb, 
                       __ZN8DSPGraph10AUAnalyzer15setFormatOnUnitERK27AudioStreamBasicDescriptionjj, 
                       __ZN8DSPGraph10AUAnalyzer16getParameterInfoEjjR22AudioUnitParameterInfo, 
                       __ZN8DSPGraph10AUAnalyzer16getParameterListEjPjRi, __ZN8DSPGraph10AUAnalyzer17getFormatFromUnitER27AudioStreamBasicDescriptionjj, 
                       __ZN8DSPGraph10AUAnalyzer4openEv, __ZN8DSPGraph10AUAnalyzerC1EjRK25AudioComponentDescriptionRKNSt3__112basic_stringIcNS4_11char_traitsIcEENS4_9allocatorIcEEEE, 
                       __ZN8DSPGraph10AUAnalyzerC2EjRK25AudioComponentDescriptionRKNSt3__112basic_stringIcNS4_11char_traitsIcEENS4_9allocatorIcEEEE, 
                       __ZN8DSPGraph10AUAnalyzerD0Ev, __ZN8DSPGraph10AUAnalyzerD1Ev, 
                       __ZN8DSPGraph10AUAnalyzerD2Ev, __ZN8DSPGraph10DeadEndBox10initializeEv, 
                       __ZN8DSPGraph10DeadEndBox12uninitializeEv, __ZN8DSPGraph10FreqSRCBox10initializeEv, 
                       __ZN8DSPGraph10FreqSRCBox12uninitializeEv, __ZN8DSPGraph10FreqSRCBox7processEi, 
                       __ZN8DSPGraph10GraphInput7processEi, __ZN8DSPGraph10GraphInput9copyInputEv, 
                       __ZN8DSPGraph10GraphInput9preflightEv, __ZN8DSPGraph10RingBuffer10initializeEi, 
                       __ZN8DSPGraph10RingBuffer4freeEv, __ZN8DSPGraph10RingBuffer4readEiRNS_9SimpleABLE, 
                       __ZN8DSPGraph10RingBuffer4readEiiRNS_9SimpleABLE, __ZN8DSPGraph10RingBuffer5allocEiiiib, 
                       __ZN8DSPGraph10RingBuffer5writeEiRNS_9SimpleABLE, __ZN8DSPGraph10RingBuffer5writeEiiRNS_9SimpleABLE, 
                       __ZN8DSPGraph10RingBufferC1Ev, __ZN8DSPGraph10RingBufferC2Ev, 
                       __ZN8DSPGraph10RingBufferD1Ev, __ZN8DSPGraph10RingBufferD2Ev, 
                       __ZN8DSPGraph10kBypassStrE, __ZN8DSPGraph10kSourceStrE, __ZN8DSPGraph10kStripsStrE, 
                       __ZN8DSPGraph11GraphOutput10copyOutputEv, __ZN8DSPGraph11GraphOutput7processEi, 
                       __ZN8DSPGraph11GraphOutput9preflightEv, __ZN8DSPGraph11Interpreter11compileFileEPKcRKNSt3__113unordered_mapINS3_12basic_stringIcNS3_11char_traitsIcEENS3_9allocatorIcEEEESA_NS3_4hashISA_EENS3_8equal_toISA_EENS8_INS3_4pairIKSA_SA_EEEEEERKNS3_6vectorISA_NS8_ISA_EEEE, 
                       __ZN8DSPGraph11Interpreter11compileTextEPKcRKNSt3__113unordered_mapINS3_12basic_stringIcNS3_11char_traitsIcEENS3_9allocatorIcEEEESA_NS3_4hashISA_EENS3_8equal_toISA_EENS8_INS3_4pairIKSA_SA_EEEEEERKNS3_6vectorISA_NS8_ISA_EEEE, 
                       __ZN8DSPGraph11Interpreter11parseStringERPKcRNSt3__112basic_stringIcNS4_11char_traitsIcEENS4_9allocatorIcEEEE, 
                       __ZN8DSPGraph11Interpreter13interpretLineERPKc, __ZN8DSPGraph11Interpreter13parseCompDescERPKcR25AudioComponentDescription, 
                       __ZN8DSPGraph11Interpreter8parseIntERPKcRx, __ZN8DSPGraph11InterpreterC1ERKNS_14NewBoxRegistryE, 
                       __ZN8DSPGraph11InterpreterC1Ev, __ZN8DSPGraph11InterpreterC2ERKNS_14NewBoxRegistryE, 
                       __ZN8DSPGraph11InterpreterC2Ev, __ZN8DSPGraph11OSTypeToStrEPcmj, 
                       __ZN8DSPGraph11PropertyTap10initializeEv, __ZN8DSPGraph11PropertyTap12uninitializeEv, 
                       __ZN8DSPGraph11SanityCheckERK27AudioStreamBasicDescription, 
                       __ZN8DSPGraph11StrToOSTypeEPKcRj, __ZN8DSPGraph11TimeFreqBox10initializeEv, 
                       __ZN8DSPGraph11TimeFreqBox12uninitializeEv, __ZN8DSPGraph11TimeFreqBox18selfLatencyInTicksEv, 
                       __ZN8DSPGraph11TimeFreqBox7processEi, __ZN8DSPGraph11TimeFreqBoxD0Ev, 
                       __ZN8DSPGraph11TimeFreqBoxD1Ev, __ZN8DSPGraph11TimeFreqBoxD2Ev, 
                       __ZN8DSPGraph11kEffectsStrE, __ZN8DSPGraph11kVersionStrE, 
                       __ZN8DSPGraph12ASBDtoStringERK27AudioStreamBasicDescriptionb, 
                       __ZN8DSPGraph12FileInjector10initializeEv, __ZN8DSPGraph12FileInjector12uninitializeEv, 
                       __ZN8DSPGraph12FileInjector6injectEi, __ZN8DSPGraph12FileInjectorC1EPNS_4WireEPKcb, 
                       __ZN8DSPGraph12FileInjectorC2EPNS_4WireEPKcb, __ZN8DSPGraph12FileInjectorD0Ev, 
                       __ZN8DSPGraph12FileInjectorD1Ev, __ZN8DSPGraph12FileInjectorD2Ev, 
                       __ZN8DSPGraph12FileRecorder10initializeEv, __ZN8DSPGraph12FileRecorder12uninitializeEv, 
                       __ZN8DSPGraph12FileRecorder6recordEi, __ZN8DSPGraph12FileRecorderC1EPNS_4WireEPKcbb, 
                       __ZN8DSPGraph12FileRecorderC2EPNS_4WireEPKcbb, __ZN8DSPGraph12FileRecorderD0Ev, 
                       __ZN8DSPGraph12FileRecorderD1Ev, __ZN8DSPGraph12FileRecorderD2Ev, 
                       __ZN8DSPGraph12ReblockerBox10initializeEv, __ZN8DSPGraph12ReblockerBox7processEi, 
                       __ZN8DSPGraph12TestAnalyzer11getPropertyEjjjRjPv, __ZN8DSPGraph12TestAnalyzer11setPropertyEjjjjPKv, 
                       __ZN8DSPGraph12TestAnalyzer12getParameterEjjj, __ZN8DSPGraph12TestAnalyzer12setParameterEjjjfj, 
                       __ZN8DSPGraph12TestAnalyzer13processBufferEPNS_6BufferEj, 
                       __ZN8DSPGraph12TestAnalyzer13resetAnalysisEv, __ZN8DSPGraph12TestAnalyzer15getPropertyInfoEjjjRjRb, 
                       __ZN8DSPGraph12TestAnalyzer15setFormatOnUnitERK27AudioStreamBasicDescriptionjj, 
                       __ZN8DSPGraph12TestAnalyzer16getParameterInfoEjjR22AudioUnitParameterInfo, 
                       __ZN8DSPGraph12TestAnalyzer16getParameterListEjPjRi, __ZN8DSPGraph12TestAnalyzer17getFormatFromUnitER27AudioStreamBasicDescriptionjj, 
                       __ZN8DSPGraph12TestAnalyzer4openEv, __ZN8DSPGraph12TestAnalyzerC1EjRKNSt3__112basic_stringIcNS1_11char_traitsIcEENS1_9allocatorIcEEEE, 
                       __ZN8DSPGraph12TestAnalyzerC2EjRKNSt3__112basic_stringIcNS1_11char_traitsIcEENS1_9allocatorIcEEEE, 
                       __ZN8DSPGraph12TestAnalyzerD0Ev, __ZN8DSPGraph12TestAnalyzerD1Ev, 
                       __ZN8DSPGraph12TestAnalyzerD2Ev, __ZN8DSPGraph12kAUPresetStrE, 
                       __ZN8DSPGraph13MakeCBRFormatEjdiiij, __ZN8DSPGraph13RingBufferBox10dryRunInitEv, 
                       __ZN8DSPGraph13RingBufferBox10dryRunReadEx, __ZN8DSPGraph13RingBufferBox10initializeEv, 
                       __ZN8DSPGraph13RingBufferBox11dryRunWriteEx, __ZN8DSPGraph13RingBufferBox12uninitializeEv, 
                       __ZN8DSPGraph13RingBufferBox18selfLatencyInTicksEv, __ZN8DSPGraph13RingBufferBox19configureFromDryRunEv, 
                       __ZN8DSPGraph13RingBufferBox19configureRingBufferEii, __ZN8DSPGraph13RingBufferBox21unconfigureRingBufferEv, 
                       __ZN8DSPGraph13RingBufferBox5resetEv, __ZN8DSPGraph13VectorGainBox10initializeEv, 
                       __ZN8DSPGraph13VectorGainBox11getPropertyEjjjRjPv, __ZN8DSPGraph13VectorGainBox11setPropertyEjjjjPKv, 
                       __ZN8DSPGraph13VectorGainBox15getPropertyInfoEjjjRjRb, __ZN8DSPGraph13VectorGainBox7processEi, 
                       __ZN8DSPGraph13kAudioUnitStrE, __ZN8DSPGraph13kClassNameStrE, 
                       __ZN8DSPGraph14NewBoxRegistry3addERKNSt3__112basic_stringIcNS1_11char_traitsIcEENS1_9allocatorIcEEEERK25AudioComponentDescriptionRKNS1_8functionIFPNS_3BoxEjjEEE, 
                       __ZN8DSPGraph14NewBoxRegistry3hasERK25AudioComponentDescription, 
                       __ZN8DSPGraph14NewBoxRegistry3hasERKNSt3__112basic_stringIcNS1_11char_traitsIcEENS1_9allocatorIcEEEE, 
                       __ZN8DSPGraph14NewBoxRegistry6newBoxERK25AudioComponentDescriptionjj, 
                       __ZN8DSPGraph14NewBoxRegistry6newBoxERKNSt3__112basic_stringIcNS1_11char_traitsIcEENS1_9allocatorIcEEEEjj, 
                       __ZN8DSPGraph14NewBoxRegistryC1Ev, __ZN8DSPGraph14NewBoxRegistryC2Ev, 
                       __ZN8DSPGraph14ThrowExceptionEiRKNSt3__112basic_stringIcNS0_11char_traitsIcEENS0_9allocatorIcEEEEiS8_S8_, 
                       __ZN8DSPGraph14streamToStringENSt3__18functionIFvRNS0_13basic_ostreamIcNS0_11char_traitsIcEEEEEEE, 
                       __ZN8DSPGraph15decompileFormatERK27AudioStreamBasicDescriptioni, 
                       __ZN8DSPGraph15kDisplayNameStrE, __ZN8DSPGraph16ArithmeticMinBox1fEPfRKNS_16arithmetic_boxes5dspscES5_m, 
                       __ZN8DSPGraph16ArithmeticMinBox1fEPfS1_S1_m, __ZN8DSPGraph16ArithmeticMinBox1fERKNS_16arithmetic_boxes5dspscEPfS4_m, 
                       __ZN8DSPGraph16ArithmeticMinBox1fERKNS_16arithmetic_boxes5dspscES4_S4_m, 
                       __ZN8DSPGraph16ArithmeticSumBox1fEPfRKNS_16arithmetic_boxes5dspscES5_m, 
                       __ZN8DSPGraph16ArithmeticSumBox1fEPfS1_S1_m, __ZN8DSPGraph16ArithmeticSumBox1fERKNS_16arithmetic_boxes5dspscEPfS4_m, 
                       __ZN8DSPGraph16ArithmeticSumBox1fERKNS_16arithmetic_boxes5dspscES4_S4_m, 
                       __ZN8DSPGraph16ChannelCopierBox10initializeEv, __ZN8DSPGraph16ChannelCopierBox12uninitializeEv, 
                       __ZN8DSPGraph16ChannelCopierBox7processEi, __ZN8DSPGraph16ChannelJoinerBox10initializeEv, 
                       __ZN8DSPGraph16ChannelJoinerBox12uninitializeEv, __ZN8DSPGraph16ChannelJoinerBox7processEi, 
                       __ZN8DSPGraph16LinearGainPolicy20getGainParameterInfoER22AudioUnitParameterInfo, 
                       __ZN8DSPGraph16LinearGainPolicy22linearGainToPolicyGainEf, 
                       __ZN8DSPGraph16LinearGainPolicy22policyGainToLinearGainEf, 
                       __ZN8DSPGraph17ArithmeticDiffBox1fEPfRKNS_16arithmetic_boxes5dspscES5_m, 
                       __ZN8DSPGraph17ArithmeticDiffBox1fEPfS1_S1_m, __ZN8DSPGraph17ArithmeticDiffBox1fERKNS_16arithmetic_boxes5dspscEPfS4_m, 
                       __ZN8DSPGraph17ArithmeticDiffBox1fERKNS_16arithmetic_boxes5dspscES4_S4_m, 
                       __ZN8DSPGraph17ArithmeticMultBox1fEPfRKNS_16arithmetic_boxes5dspscES5_m, 
                       __ZN8DSPGraph17ArithmeticMultBox1fEPfS1_S1_m, __ZN8DSPGraph17ArithmeticMultBox1fERKNS_16arithmetic_boxes5dspscEPfS4_m, 
                       __ZN8DSPGraph17ArithmeticMultBox1fERKNS_16arithmetic_boxes5dspscES4_S4_m, 
                       __ZN8DSPGraph17ConstantSourceBox10initializeEv, __ZN8DSPGraph17ConstantSourceBox12getParameterEjjj, 
                       __ZN8DSPGraph17ConstantSourceBox12setParameterEjjjfj, __ZN8DSPGraph17ConstantSourceBox12uninitializeEv, 
                       __ZN8DSPGraph17ConstantSourceBox16getParameterInfoEjjR22AudioUnitParameterInfo, 
                       __ZN8DSPGraph17ConstantSourceBox16getParameterListEjPjRi, 
                       __ZN8DSPGraph17ConstantSourceBox7processEi, __ZN8DSPGraph17DecibelControlBox12getParameterEjjj, 
                       __ZN8DSPGraph17DecibelControlBox12setParameterEjjjfj, __ZN8DSPGraph17DecibelControlBox16getParameterInfoEjjR22AudioUnitParameterInfo, 
                       __ZN8DSPGraph17DecibelControlBox16getParameterListEjPjRi, 
                       __ZN8DSPGraph17DecibelGainPolicy20getGainParameterInfoER22AudioUnitParameterInfo, 
                       __ZN8DSPGraph17DecibelGainPolicy22linearGainToPolicyGainEf, 
                       __ZN8DSPGraph17DecibelGainPolicy22policyGainToLinearGainEf, 
                       __ZN8DSPGraph17asDecompileStringERKNSt3__112basic_stringIcNS0_11char_traitsIcEENS0_9allocatorIcEEEE, 
                       __ZN8DSPGraph18ChannelSplitterBox10initializeEv, __ZN8DSPGraph18ChannelSplitterBox12uninitializeEv, 
                       __ZN8DSPGraph18ChannelSplitterBox7processEi, __ZN8DSPGraph19CFStringToCppStringEPK10__CFString, 
                       __ZN8DSPGraph26MakeFloatInterleavedFormatEdii, __ZN8DSPGraph26SingleRateLPCMConverterBox10initializeEv, 
                       __ZN8DSPGraph26SingleRateLPCMConverterBox12uninitializeEv, 
                       __ZN8DSPGraph26SingleRateLPCMConverterBox7processEi, __ZN8DSPGraph29MakeFloatNoninterleavedFormatEdii, 
                       __ZN8DSPGraph3Box10initializeEv, __ZN8DSPGraph3Box11addAnalysisEjix, 
                       __ZN8DSPGraph3Box11getAnalyzerEij, __ZN8DSPGraph3Box11getPropertyEjjjRjPv, 
                       __ZN8DSPGraph3Box11hasAnalysisEji, __ZN8DSPGraph3Box11setPropertyEjjjjPKv, 
                       __ZN8DSPGraph3Box11unconfigureEv, __ZN8DSPGraph3Box12getParameterEjjj, 
                       __ZN8DSPGraph3Box12recordEnableEib, __ZN8DSPGraph3Box12setParameterEjjjfj, 
                       __ZN8DSPGraph3Box12sortUpstreamERNSt3__16vectorIPS0_NS1_9allocatorIS3_EEEERNS2_IPNS_8IsoGroupENS4_IS9_EEEE, 
                       __ZN8DSPGraph3Box12uninitializeEv, __ZN8DSPGraph3Box13analyzeEnableEib, 
                       __ZN8DSPGraph3Box13stopAnalyzingEi, __ZN8DSPGraph3Box13stopInjectingEi, 
                       __ZN8DSPGraph3Box13stopRecordingEi, __ZN8DSPGraph3Box13writeDotEdgesERNSt3__113basic_ostreamIcNS1_11char_traitsIcEEEE, 
                       __ZN8DSPGraph3Box14removeAnalysisEji, __ZN8DSPGraph3Box15getAnalysisListEiPjRi, 
                       __ZN8DSPGraph3Box15getElementCountEj, __ZN8DSPGraph3Box15getPropertyInfoEjjjRjRb, 
                       __ZN8DSPGraph3Box15setFormatOnUnitERK27AudioStreamBasicDescriptionjj, 
                       __ZN8DSPGraph3Box15topologicalSortEPNS_8IsoGroupERNSt3__16vectorIPS0_NS3_9allocatorIS5_EEEERNS4_IS2_NS6_IS2_EEEE, 
                       __ZN8DSPGraph3Box16getAnalysisCountEi, __ZN8DSPGraph3Box16getParameterInfoEjjR22AudioUnitParameterInfo, 
                       __ZN8DSPGraph3Box16getParameterListEjPjRi, __ZN8DSPGraph3Box17getFormatFromUnitER27AudioStreamBasicDescriptionjj, 
                       __ZN8DSPGraph3Box18initializeAnalysisEv, __ZN8DSPGraph3Box18writeDotAttributesERNSt3__113basic_ostreamIcNS1_11char_traitsIcEEEE, 
                       __ZN8DSPGraph3Box19isogroupTraceInputsERNSt3__113unordered_setIPS0_NS1_4hashIS3_EENS1_8equal_toIS3_EENS1_9allocatorIS3_EEEEPNS_8IsoGroupE, 
                       __ZN8DSPGraph3Box19processPropertyTapsEv, __ZN8DSPGraph3Box20isogroupTraceOutputsERNSt3__113unordered_setIPS0_NS1_4hashIS3_EENS1_8equal_toIS3_EENS1_9allocatorIS3_EEEEPNS_8IsoGroupE, 
                       __ZN8DSPGraph3Box20processParameterTapsEv, __ZN8DSPGraph3Box20selfLatencyInSecondsEv, 
                       __ZN8DSPGraph3Box20uninitializeAnalysisEv, __ZN8DSPGraph3Box21totalLatencyInSamplesEv, 
                       __ZN8DSPGraph3Box21totalLatencyInSecondsEv, __ZN8DSPGraph3Box22calculateLatencyDelaysEv, 
                       __ZN8DSPGraph3Box22initializePropertyTapsEv, __ZN8DSPGraph3Box22upstreamLatencyInTicksEv, 
                       __ZN8DSPGraph3Box23insertLatencyDelayBoxesEv, __ZN8DSPGraph3Box24uninitializePropertyTapsEv, 
                       __ZN8DSPGraph3Box24upstreamLatencyInSecondsEv, __ZN8DSPGraph3Box26propagateFlagsAndTimeStampEjRK14AudioTimeStamp, 
                       __ZN8DSPGraph3Box5resetEv, __ZN8DSPGraph3Box6injectEPKcib, 
                       __ZN8DSPGraph3Box6recordEPKcibb, __ZN8DSPGraph3Box8isogroupERNSt3__113unordered_setIPS0_NS1_4hashIS3_EENS1_8equal_toIS3_EENS1_9allocatorIS3_EEEEPNS_8IsoGroupE, 
                       __ZN8DSPGraph3Box9doProcessEi, __ZN8DSPGraph3Box9getPresetERNSt3__113basic_ostreamIcNS1_11char_traitsIcEEEEb, 
                       __ZN8DSPGraph3Box9getPresetERP14__CFDictionary, __ZN8DSPGraph3Box9setPresetEPK14__CFDictionary, 
                       __ZN8DSPGraph3Box9setPresetERNSt3__113basic_istreamIcNS1_11char_traitsIcEEEE, 
                       __ZN8DSPGraph3Box9setSubsetEPNS_6SubsetE, __ZN8DSPGraph3BoxC2Eii, 
                       __ZN8DSPGraph3BoxD0Ev, __ZN8DSPGraph3BoxD1Ev, __ZN8DSPGraph3BoxD2Ev, 
                       __ZN8DSPGraph4Base5printEii, __ZN8DSPGraph4Wire13setSameFormatEPS0_, 
                       __ZN8DSPGraph4Wire14setLocalFormatERK27AudioStreamBasicDescriptioni, 
                       __ZN8DSPGraph4Wire15setGlobalFormatEPNS_18FormatAndBlockSizeE, 
                       __ZN8DSPGraph4Wire16initializeFormatEv, __ZN8DSPGraph4Wire3addEPNS_9InputPortE, 
                       __ZN8DSPGraph4Wire6addAllEPS0_, __ZN8DSPGraph4Wire6removeEPNS_9InputPortE, 
                       __ZN8DSPGraph4Wire9removeAllEv, __ZN8DSPGraph4Wire9setSourceEPNS_10OutputPortE, 
                       __ZN8DSPGraph4WireC1EPNS_10OutputPortE, __ZN8DSPGraph4WireC2EPNS_10OutputPortE, 
                       __ZN8DSPGraph5AUBox10initializeEv, __ZN8DSPGraph5AUBox10isBypassedEv, 
                       __ZN8DSPGraph5AUBox11getPropertyEjjjRjPv, __ZN8DSPGraph5AUBox11setPropertyEjjjjPKv, 
                       __ZN8DSPGraph5AUBox12getParameterEjjj, __ZN8DSPGraph5AUBox12setMaxFramesEi, 
                       __ZN8DSPGraph5AUBox12setParameterEjjjfj, __ZN8DSPGraph5AUBox12uninitializeEv, 
                       __ZN8DSPGraph5AUBox15getPropertyInfoEjjjRjRb, __ZN8DSPGraph5AUBox15setFormatOnUnitERK27AudioStreamBasicDescriptionjj, 
                       __ZN8DSPGraph5AUBox16getParameterInfoEjjR22AudioUnitParameterInfo, 
                       __ZN8DSPGraph5AUBox16getParameterListEjPjRi, __ZN8DSPGraph5AUBox17getFormatFromUnitER27AudioStreamBasicDescriptionjj, 
                       __ZN8DSPGraph5AUBox18selfLatencyInTicksEv, __ZN8DSPGraph5AUBox18usesFixedBlockSizeEv, 
                       __ZN8DSPGraph5AUBox21setUsesFixedBlockSizeEb, __ZN8DSPGraph5AUBox4openEv, 
                       __ZN8DSPGraph5AUBox5closeEv, __ZN8DSPGraph5AUBox5resetEjj, 
                       __ZN8DSPGraph5AUBox6bypassEb, __ZN8DSPGraph5AUBox7processEi, 
                       __ZN8DSPGraph5AUBox9canBypassEv, __ZN8DSPGraph5AUBox9getPresetERP14__CFDictionary, 
                       __ZN8DSPGraph5AUBox9setPresetEPK14__CFDictionary, __ZN8DSPGraph5AUBoxC1EP28OpaqueAudioComponentInstanceii, 
                       __ZN8DSPGraph5AUBoxC2EP28OpaqueAudioComponentInstanceii, __ZN8DSPGraph5FCBox10copyOutputEi, 
                       __ZN8DSPGraph5FCBox8isogroupERNSt3__113unordered_setIPNS_3BoxENS1_4hashIS4_EENS1_8equal_toIS4_EENS1_9allocatorIS4_EEEEPNS_8IsoGroupE, 
                       __ZN8DSPGraph5FCBox9doProcessEi, __ZN8DSPGraph5Graph10initializeEb, 
                       __ZN8DSPGraph5Graph10setAUStripEPK14__CFDictionary, __ZN8DSPGraph5Graph10setAUStripERK14CACFDictionary, 
                       __ZN8DSPGraph5Graph10setAUStripERNSt3__113basic_istreamIcNS1_11char_traitsIcEEEE, 
                       __ZN8DSPGraph5Graph11addAnalyzerEPNS_8AnalyzerE, __ZN8DSPGraph5Graph11addPropertyEjNSt3__18optionalINS1_6vectorIhNS1_9allocatorIhEEEEEEb, 
                       __ZN8DSPGraph5Graph11getPropertyEjRjPv, __ZN8DSPGraph5Graph11makeAUStripER14CACFDictionary, 
                       __ZN8DSPGraph5Graph11makeAUStripERKNSt3__112basic_stringIcNS1_11char_traitsIcEENS1_9allocatorIcEEEE, 
                       __ZN8DSPGraph5Graph11makeAUStripERKNSt3__112basic_stringIcNS1_11char_traitsIcEENS1_9allocatorIcEEEER14CACFDictionary, 
                       __ZN8DSPGraph5Graph11makeAUStripERNSt3__113basic_ostreamIcNS1_11char_traitsIcEEEERKNS1_12basic_stringIcS4_NS1_9allocatorIcEEEEb, 
                       __ZN8DSPGraph5Graph11makeAUStripERNSt3__113basic_ostreamIcNS1_11char_traitsIcEEEEb, 
                       __ZN8DSPGraph5Graph11makeAUStripEv, __ZN8DSPGraph5Graph11setPropertyEjjPKv, 
                       __ZN8DSPGraph5Graph11unconfigureEv, __ZN8DSPGraph5Graph12addParameterEjfb, 
                       __ZN8DSPGraph5Graph12getParameterEj, __ZN8DSPGraph5Graph12pruneSubsetsEv, 
                       __ZN8DSPGraph5Graph12setParameterEjf, __ZN8DSPGraph5Graph12uninitializeEv, 
                       __ZN8DSPGraph5Graph12writeDotFileEPKc, __ZN8DSPGraph5Graph12writeDotFileEPKcS2_, 
                       __ZN8DSPGraph5Graph13connectParamsERKNS_17ParameterEndpointES3_b, 
                       __ZN8DSPGraph5Graph13setSRCQualityEi, __ZN8DSPGraph5Graph14processInPlaceERNS_11GraphIODataE, 
                       __ZN8DSPGraph5Graph14removeAnalyzerEPNS_8AnalyzerE, __ZN8DSPGraph5Graph15connectPropertyEjRKNS_16PropertyEndpointE, 
                       __ZN8DSPGraph5Graph15getPropertyInfoEjRjRb, __ZN8DSPGraph5Graph15processMultipleEPNS_11GraphIODataES2_, 
                       __ZN8DSPGraph5Graph15setSRCAlgorithmEi, __ZN8DSPGraph5Graph16connectParameterEjRKNS_17ParameterEndpointE, 
                       __ZN8DSPGraph5Graph16setPropertyStripEPK14__CFDictionary, 
                       __ZN8DSPGraph5Graph16setPropertyStripEPK14__CFDictionaryPK10__CFString, 
                       __ZN8DSPGraph5Graph16setPropertyStripERK14CACFDictionary, 
                       __ZN8DSPGraph5Graph16setSliceDurationEiiNS0_11SlicePolicyE, 
                       __ZN8DSPGraph5Graph17connectPropertiesERKNS_16PropertyEndpointES3_b, 
                       __ZN8DSPGraph5Graph18setSRCMinimumPhaseEb, __ZN8DSPGraph5Graph19initializeWithFlagsEj, 
                       __ZN8DSPGraph5Graph21addOrderingConstraintEPNS_3BoxES2_, __ZN8DSPGraph5Graph3addEPNS_3BoxERKNSt3__112basic_stringIcNS3_11char_traitsIcEENS3_9allocatorIcEEEE, 
                       __ZN8DSPGraph5Graph3addERK25AudioComponentDescriptioniiRKNSt3__112basic_stringIcNS4_11char_traitsIcEENS4_9allocatorIcEEEE, 
                       __ZN8DSPGraph5Graph3boxERKNSt3__112basic_stringIcNS1_11char_traitsIcEENS1_9allocatorIcEEEE, 
                       __ZN8DSPGraph5Graph3boxEx, __ZN8DSPGraph5Graph3hasEPNS_3BoxE, 
                       __ZN8DSPGraph5Graph5resetEv, __ZN8DSPGraph5Graph6addBoxEPNS_3BoxERKNSt3__112basic_stringIcNS3_11char_traitsIcEENS3_9allocatorIcEEEEx, 
                       __ZN8DSPGraph5Graph6bridgeEPS0_S1_, __ZN8DSPGraph5Graph6detachEPNS_3BoxE, 
                       __ZN8DSPGraph5Graph7addJackERKNSt3__112basic_stringIcNS1_11char_traitsIcEENS1_9allocatorIcEEEE, 
                       __ZN8DSPGraph5Graph7connectEPNS_3BoxES2_iiRKNS_18FormatAndBlockSizeEPNS_4JackES7_, 
                       __ZN8DSPGraph5Graph7connectERKNSt3__112basic_stringIcNS1_11char_traitsIcEENS1_9allocatorIcEEEES9_iiRKNS_18FormatAndBlockSizeE, 
                       __ZN8DSPGraph5Graph7getJackERKNSt3__112basic_stringIcNS1_11char_traitsIcEENS1_9allocatorIcEEEE, 
                       __ZN8DSPGraph5Graph8addInputERKNSt3__112basic_stringIcNS1_11char_traitsIcEENS1_9allocatorIcEEEE, 
                       __ZN8DSPGraph5Graph8analyzerEx, __ZN8DSPGraph5Graph8unbridgeEPS0_S1_, 
                       __ZN8DSPGraph5Graph9addOutputERKNSt3__112basic_stringIcNS1_11char_traitsIcEENS1_9allocatorIcEEEE, 
                       __ZN8DSPGraph5Graph9addSubsetERKNSt3__112basic_stringIcNS1_11char_traitsIcEENS1_9allocatorIcEEEE, 
                       __ZN8DSPGraph5Graph9configureEv, __ZN8DSPGraph5Graph9getFormatERKNSt3__112basic_stringIcNS1_11char_traitsIcEENS1_9allocatorIcEEEERPNS_18FormatAndBlockSizeE, 
                       __ZN8DSPGraph5Graph9getSubsetERKNSt3__112basic_stringIcNS1_11char_traitsIcEENS1_9allocatorIcEEEE, 
                       __ZN8DSPGraph5Graph9preflightEPNS_11GraphIODataES2_iib, __ZN8DSPGraph5Graph9setFormatERKNSt3__112basic_stringIcNS1_11char_traitsIcEENS1_9allocatorIcEEEERKNS_18FormatAndBlockSizeE, 
                       __ZN8DSPGraph5GraphC1Ev, __ZN8DSPGraph5GraphC2Ev, __ZN8DSPGraph5GraphD0Ev, 
                       __ZN8DSPGraph5GraphD1Ev, __ZN8DSPGraph5GraphD2Ev, __ZN8DSPGraph5kManuE, 
                       __ZN8DSPGraph5kTypeE, __ZN8DSPGraph6Buffer11setByteSizeEi, 
                       __ZN8DSPGraph6Buffer12copyTimeFromEPS0_, __ZN8DSPGraph6Buffer21restoreSizeToCapacityEv, 
                       __ZN8DSPGraph6Buffer8copyFromEPS0_, __ZN8DSPGraph6MixBox10initializeEv, 
                       __ZN8DSPGraph6MixBox12getParameterEjjj, __ZN8DSPGraph6MixBox12setParameterEjjjfj, 
                       __ZN8DSPGraph6MixBox16getParameterInfoEjjR22AudioUnitParameterInfo, 
                       __ZN8DSPGraph6MixBox16getParameterListEjPjRi, __ZN8DSPGraph6MixBox7processEi, 
                       __ZN8DSPGraph6SRCBox10initializeEv, __ZN8DSPGraph6SRCBox11getPropertyEjjjRjPv, 
                       __ZN8DSPGraph6SRCBox11setPropertyEjjjjPKv, __ZN8DSPGraph6SRCBox12uninitializeEv, 
                       __ZN8DSPGraph6SRCBox15getPropertyInfoEjjjRjRb, __ZN8DSPGraph6SRCBox18selfLatencyInTicksEv, 
                       __ZN8DSPGraph6SRCBox4openEv, __ZN8DSPGraph6SRCBox5resetEv, 
                       __ZN8DSPGraph6SRCBox7processEi, __ZN8DSPGraph6SumBox10initializeEv, 
                       __ZN8DSPGraph6SumBox7processEi, __ZN8DSPGraph6ToTextERK27AudioStreamBasicDescription, 
                       __ZN8DSPGraph6printiERNSt3__113basic_ostreamIcNS0_11char_traitsIcEEEEiPKcz, 
                       __ZN8DSPGraph7CopyBox10initializeEv, __ZN8DSPGraph7CopyBox7processEi, 
                       __ZN8DSPGraph7GainBoxC1Ev, __ZN8DSPGraph7GainBoxC2Ev, __ZN8DSPGraph7GainBoxD0Ev, 
                       __ZN8DSPGraph7GainBoxD1Ev, __ZN8DSPGraph7GainBoxD2Ev, __ZN8DSPGraph7TestBox10initializeEv, 
                       __ZN8DSPGraph7TestBox7processEi, __ZN8DSPGraph8Analyzer10initializeEv, 
                       __ZN8DSPGraph8Analyzer11setSerialNoEx, __ZN8DSPGraph8Analyzer12uninitializeEv, 
                       __ZN8DSPGraph8Analyzer15setFormatOnUnitERK27AudioStreamBasicDescriptionjj, 
                       __ZN8DSPGraph8Analyzer16setBoxOutputPortEi, __ZN8DSPGraph8Analyzer17getFormatFromUnitER27AudioStreamBasicDescriptionjj, 
                       __ZN8DSPGraph8Analyzer6setBoxEPNS_3BoxE, __ZN8DSPGraph8Analyzer7analyzeEi, 
                       __ZN8DSPGraph8Analyzer7setWireEPNS_4WireE, __ZN8DSPGraph8AnalyzerC2EjRK25AudioComponentDescriptionRKNSt3__112basic_stringIcNS4_11char_traitsIcEENS4_9allocatorIcEEEE, 
                       __ZN8DSPGraph8AnalyzerD0Ev, __ZN8DSPGraph8AnalyzerD1Ev, __ZN8DSPGraph8AnalyzerD2Ev, 
                       __ZN8DSPGraph8DelayBox10initializeEv, __ZN8DSPGraph8DelayBox11getPropertyEjjjRjPv, 
                       __ZN8DSPGraph8DelayBox11setPropertyEjjjjPKv, __ZN8DSPGraph8DelayBox12getParameterEjjj, 
                       __ZN8DSPGraph8DelayBox12setParameterEjjjfj, __ZN8DSPGraph8DelayBox12uninitializeEv, 
                       __ZN8DSPGraph8DelayBox14setDelayFramesEi, __ZN8DSPGraph8DelayBox15getPropertyInfoEjjjRjRb, 
                       __ZN8DSPGraph8DelayBox16getParameterInfoEjjR22AudioUnitParameterInfo, 
                       __ZN8DSPGraph8DelayBox16getParameterListEjPjRi, __ZN8DSPGraph8DelayBox18selfLatencyInTicksEv, 
                       __ZN8DSPGraph8DelayBox5resetEv, __ZN8DSPGraph8DelayBox7processEi, 
                       __ZN8DSPGraph8DelayBoxC1Ei, __ZN8DSPGraph8DelayBoxC2Ei, __ZN8DSPGraph8IsoGroup10processAllEv, 
                       __ZN8DSPGraph8IsoGroup12sortUpstreamERNSt3__16vectorIPS0_NS1_9allocatorIS3_EEEE, 
                       __ZN8DSPGraph8IsoGroup15initializeBoxesEv, __ZN8DSPGraph8IsoGroup15topologicalSortERNSt3__16vectorIPS0_NS1_9allocatorIS3_EEEE, 
                       __ZN8DSPGraph8IsoGroup17uninitializeBoxesEv, __ZN8DSPGraph8IsoGroup18checkIsochronicityEv, 
                       __ZN8DSPGraph8IsoGroup22initializePropertyTapsEv, __ZN8DSPGraph8IsoGroup24uninitializePropertyTapsEv, 
                       __ZN8DSPGraph8IsoGroup5resetEv, __ZN8DSPGraph8IsoGroup7processEi, 
                       __ZN8DSPGraph8IsoGroup8addInputEPNS_5FCBoxE, __ZN8DSPGraph8IsoGroup9addOutputEPNS_5FCBoxE, 
                       __ZN8DSPGraph8kDataStrE, __ZN8DSPGraph8kSubTypeE, __ZN8DSPGraph8print4ccERNSt3__113basic_ostreamIcNS0_11char_traitsIcEEEEj, 
                       __ZN8DSPGraph8printACDERNSt3__113basic_ostreamIcNS0_11char_traitsIcEEEERK25AudioComponentDescriptionb, 
                       __ZN8DSPGraph9DBGainBoxC1Ev, __ZN8DSPGraph9DBGainBoxC2Ev, 
                       __ZN8DSPGraph9DBGainBoxD0Ev, __ZN8DSPGraph9DBGainBoxD1Ev, 
                       __ZN8DSPGraph9DBGainBoxD2Ev, __ZN8DSPGraph9InputPort22upstreamLatencyInTicksEv, 
                       __ZN8DSPGraph9POSIXFile16readFileAsStringEv, __ZN8DSPGraph9POSIXFile4openEPKcS2_, 
                       __ZN8DSPGraph9POSIXFile5closeEv, __ZN8DSPGraph9SimpleABL11dstWrapCopyERS0_iii, 
                       __ZN8DSPGraph9SimpleABL11setByteSizeEi, __ZN8DSPGraph9SimpleABL11srcWrapCopyERS0_iiib, 
                       __ZN8DSPGraph9SimpleABL3setEP15AudioBufferList, __ZN8DSPGraph9SimpleABL4copyERS0_b, 
                       __ZN8DSPGraph9SimpleABL4copyERS0_iiib, __ZN8DSPGraph9SimpleABL4freeEv, 
                       __ZN8DSPGraph9SimpleABL4zeroEii, __ZN8DSPGraph9SimpleABL4zeroEv, 
                       __ZN8DSPGraph9SimpleABL5allocEiib, __ZN8DSPGraph9SimpleABLC1EP15AudioBufferList, 
                       __ZN8DSPGraph9SimpleABLC1Ev, __ZN8DSPGraph9SimpleABLC2EP15AudioBufferList, 
                       __ZN8DSPGraph9SimpleABLC2Ev, __ZN8DSPGraph9SimpleABLD1Ev, 
                       __ZN8DSPGraph9SimpleABLD2Ev, __ZN8DSPGraph9errstringEi, __ZN8DSPGraph9printASBDERNSt3__113basic_ostreamIcNS0_11char_traitsIcEEEERK27AudioStreamBasicDescriptionb, 
                       __ZN8DSPGraph9strprintfEPKcz, __ZNK15AudioFileObject18GetPacketTableSizeEv, 
                       __ZNK2AT9Resampler13MockResampler13GetIsBypassedEv, __ZNK8DSPGraph10GraphInput12decompileBoxERNSt3__113basic_ostreamIcNS1_11char_traitsIcEEEEj, 
                       __ZNK8DSPGraph11GraphOutput12decompileBoxERNSt3__113basic_ostreamIcNS1_11char_traitsIcEEEEj, 
                       __ZNK8DSPGraph11PropertyTap5printERNSt3__113basic_ostreamIcNS1_11char_traitsIcEEEEi, 
                       __ZNK8DSPGraph11PropertyTap7processEPNS_3BoxE, __ZNK8DSPGraph12FileInjector5printERNSt3__113basic_ostreamIcNS1_11char_traitsIcEEEEii, 
                       __ZNK8DSPGraph12FileRecorder5printERNSt3__113basic_ostreamIcNS1_11char_traitsIcEEEEii, 
                       __ZNK8DSPGraph12ParameterTap5printERNSt3__113basic_ostreamIcNS1_11char_traitsIcEEEEi, 
                       __ZNK8DSPGraph12ParameterTap7processEPNS_3BoxE, __ZNK8DSPGraph14NewBoxRegistry5printERNSt3__113basic_ostreamIcNS1_11char_traitsIcEEEEii, 
                       __ZNK8DSPGraph15AnalyzerBuilder17decompileAnalysisERNSt3__113basic_ostreamIcNS1_11char_traitsIcEEEEj, 
                       __ZNK8DSPGraph15AnalyzerBuilder5printERNSt3__113basic_ostreamIcNS1_11char_traitsIcEEEEii, 
                       __ZNK8DSPGraph16PropertyEndpoint5printERNSt3__113basic_ostreamIcNS1_11char_traitsIcEEEEi, 
                       __ZNK8DSPGraph17ParameterEndpoint5printERNSt3__113basic_ostreamIcNS1_11char_traitsIcEEEEi, 
                       __ZNK8DSPGraph3Box10printShortERNSt3__113basic_ostreamIcNS1_11char_traitsIcEEEEib, 
                       __ZNK8DSPGraph3Box11initializedEv, __ZNK8DSPGraph3Box12decompileBoxERNSt3__113basic_ostreamIcNS1_11char_traitsIcEEEEj, 
                       __ZNK8DSPGraph3Box14decompileWiresERNSt3__113basic_ostreamIcNS1_11char_traitsIcEEEEj, 
                       __ZNK8DSPGraph3Box18decompileAnalyzersERNSt3__113basic_ostreamIcNS1_11char_traitsIcEEEEj, 
                       __ZNK8DSPGraph3Box20decompileAntecedentsERNSt3__113basic_ostreamIcNS1_11char_traitsIcEEEEj, 
                       __ZNK8DSPGraph3Box21decompilePropertyTapsERNSt3__113basic_ostreamIcNS1_11char_traitsIcEEEEj, 
                       __ZNK8DSPGraph3Box22decompileParameterTapsERNSt3__113basic_ostreamIcNS1_11char_traitsIcEEEEj, 
                       __ZNK8DSPGraph3Box5printERNSt3__113basic_ostreamIcNS1_11char_traitsIcEEEEii, 
                       __ZNK8DSPGraph4Base10printShortERNSt3__113basic_ostreamIcNS1_11char_traitsIcEEEEib, 
                       __ZNK8DSPGraph4Port5printERNSt3__113basic_ostreamIcNS1_11char_traitsIcEEEEii, 
                       __ZNK8DSPGraph4Wire5printERNSt3__113basic_ostreamIcNS1_11char_traitsIcEEEEii, 
                       __ZNK8DSPGraph5AUBox10printShortERNSt3__113basic_ostreamIcNS1_11char_traitsIcEEEEib, 
                       __ZNK8DSPGraph5AUBox12decompileBoxERNSt3__113basic_ostreamIcNS1_11char_traitsIcEEEEj, 
                       __ZNK8DSPGraph5AUBox16getComponentNameERNSt3__112basic_stringIcNS1_11char_traitsIcEENS1_9allocatorIcEEEE, 
                       __ZNK8DSPGraph5AUBox5printERNSt3__113basic_ostreamIcNS1_11char_traitsIcEEEEii, 
                       __ZNK8DSPGraph5FCBox13upstreamIsCBREv, __ZNK8DSPGraph5FCBox15downstreamIsCBREv, 
                       __ZNK8DSPGraph5FCBox17upstreamBlockSizeEv, __ZNK8DSPGraph5FCBox18upstreamSampleRateEv, 
                       __ZNK8DSPGraph5FCBox18upstreamSampleTimeEv, __ZNK8DSPGraph5FCBox19downstreamBlockSizeEv, 
                       __ZNK8DSPGraph5FCBox20downstreamSampleRateEv, __ZNK8DSPGraph5FCBox20downstreamSampleTimeEv, 
                       __ZNK8DSPGraph5FCBox22upstreamBytesPerPacketEv, __ZNK8DSPGraph5FCBox23upstreamFramesPerPacketEv, 
                       __ZNK8DSPGraph5FCBox24downstreamBytesPerPacketEv, __ZNK8DSPGraph5FCBox25downstreamFramesPerPacketEv, 
                       __ZNK8DSPGraph5Graph10numOutputsEv, __ZNK8DSPGraph5Graph11hasPropertyEj, 
                       __ZNK8DSPGraph5Graph12hasParameterEj, __ZNK8DSPGraph5Graph14getFormatNamesEv, 
                       __ZNK8DSPGraph5Graph16GetProfilingInfoEv, __ZNK8DSPGraph5Graph16getParameterListEv, 
                       __ZNK8DSPGraph5Graph22computeMaxDeficitTicksEPNS_8IsoGroupE, 
                       __ZNK8DSPGraph5Graph22getOrderingConstraintsEv, __ZNK8DSPGraph5Graph2inEi, 
                       __ZNK8DSPGraph5Graph3outEi, __ZNK8DSPGraph5Graph5printERNSt3__113basic_ostreamIcNS1_11char_traitsIcEEEEii, 
                       __ZNK8DSPGraph5Graph9decompileEPKcj, __ZNK8DSPGraph5Graph9decompileERNSt3__113basic_ostreamIcNS1_11char_traitsIcEEEEj, 
                       __ZNK8DSPGraph5Graph9decompileEj, __ZNK8DSPGraph5Graph9numInputsEv, 
                       __ZNK8DSPGraph6Buffer5printERNSt3__113basic_ostreamIcNS1_11char_traitsIcEEEEii, 
                       __ZNK8DSPGraph6SRCBox24shouldAddRingBufferZerosEv, __ZNK8DSPGraph8Analyzer10printShortERNSt3__113basic_ostreamIcNS1_11char_traitsIcEEEEib, 
                       __ZNK8DSPGraph8Analyzer5printERNSt3__113basic_ostreamIcNS1_11char_traitsIcEEEEii, 
                       __ZNK8DSPGraph9Exception5printERNSt3__113basic_ostreamIcNS1_11char_traitsIcEEEEii, 
                       __ZTV15AudioFileFormat, __ZTV15AudioFileObject, __ZTV15AudioRingBuffer, 
                       __ZTV19AudioFileFormatBase, __ZTV20AUProcessingBlock_AU, __ZTV21AUProcessingBlockBase, 
                       __ZTV26AUProcessingBlock_DSPGraph, __ZTV27AUProcessingBlockBase_NonAU, 
                       __ZTV31AUProcessingBlockBase_NonAUItem, __ZTV34AUProcessingBlock_AU_Instantiating, 
                       __ZTVN8DSPGraph10AUAnalyzerE, __ZTVN8DSPGraph10DeadEndBoxE, 
                       __ZTVN8DSPGraph10FreqSRCBoxE, __ZTVN8DSPGraph10GraphInputE, 
                       __ZTVN8DSPGraph10OutputPortE, __ZTVN8DSPGraph11GraphOutputE, 
                       __ZTVN8DSPGraph11InterpreterE, __ZTVN8DSPGraph11TimeFreqBoxE, 
                       __ZTVN8DSPGraph12FileInjectorE, __ZTVN8DSPGraph12FileRecorderE, 
                       __ZTVN8DSPGraph12ReblockerBoxE, __ZTVN8DSPGraph12TestAnalyzerE, 
                       __ZTVN8DSPGraph13RingBufferBoxE, __ZTVN8DSPGraph13VectorGainBoxE, 
                       __ZTVN8DSPGraph14NewBoxRegistryE, __ZTVN8DSPGraph15AnalyzerBuilderE, 
                       __ZTVN8DSPGraph16ChannelCopierBoxE, __ZTVN8DSPGraph16ChannelJoinerBoxE, 
                       __ZTVN8DSPGraph17ConstantSourceBoxE, __ZTVN8DSPGraph17DecibelControlBoxE, 
                       __ZTVN8DSPGraph18ChannelSplitterBoxE, __ZTVN8DSPGraph26SingleRateLPCMConverterBoxE, 
                       __ZTVN8DSPGraph3BoxE, __ZTVN8DSPGraph4BaseE, __ZTVN8DSPGraph4PortE, 
                       __ZTVN8DSPGraph4WireE, __ZTVN8DSPGraph5AUBoxE, __ZTVN8DSPGraph5FCBoxE, 
                       __ZTVN8DSPGraph5GraphE, __ZTVN8DSPGraph6BufferE, __ZTVN8DSPGraph6MixBoxE, 
                       __ZTVN8DSPGraph6SRCBoxE, __ZTVN8DSPGraph6SumBoxE, __ZTVN8DSPGraph7CopyBoxE, 
                       __ZTVN8DSPGraph7GainBoxE, __ZTVN8DSPGraph7TestBoxE, __ZTVN8DSPGraph8AnalyzerE, 
                       __ZTVN8DSPGraph8DelayBoxE, __ZTVN8DSPGraph9DBGainBoxE, __ZTVN8DSPGraph9InputPortE, 
                       _gMediaServerTimeout, _iEjr08d2, _initInterAppAudioLogging, 
                       _kAudioAnalysisKey_AdditionalLoudnessParameters, _kAudioAnalysisKey_DialogueAnchorParameters, 
                       _kAudioAnalysisKey_MainLoudnessParameters, _kAudioAnalysisKey_SoundCheckInfo, 
                       _kAudioAnalysis_AnchorMeasurementSystemKey, _kAudioAnalysis_AnchorReliabilityKey, 
                       _kAudioAnalysis_BitDepthPCMMasterKey, _kAudioAnalysis_DRCSetKey, 
                       _kAudioAnalysis_DownmixIDKey, _kAudioAnalysis_EQSetIDKey, 
                       _kAudioAnalysis_EbuLoudnessRangeKey, _kAudioAnalysis_EbuLoudnessRangeTopKey, 
                       _kAudioAnalysis_EbuMaxMeasurementSystemKey, _kAudioAnalysis_EbuMaxMomentaryLoudnessKey, 
                       _kAudioAnalysis_EbuMaxReliabilityKey, _kAudioAnalysis_EbuMaxShortMeasurementSystemKey, 
                       _kAudioAnalysis_EbuMaxShortReliabilityKey, _kAudioAnalysis_EbuMaxShortTermLoudnessKey, 
                       _kAudioAnalysis_EbuMeasurementSystemKey, _kAudioAnalysis_EbuReliabilityKey, 
                       _kAudioAnalysis_EbuTopMeasurementSystemKey, _kAudioAnalysis_EbuTopReliabilityKey, 
                       _kAudioAnalysis_HeadRoomMasterKey, _kAudioAnalysis_ISOLoudnessBoxKey, 
                       _kAudioAnalysis_ItuLoudnessKey, _kAudioAnalysis_ItuMeasurementSystemKey, 
                       _kAudioAnalysis_ItuReliabilityKey, _kAudioAnalysis_ItuSamplePeakKey, 
                       _kAudioAnalysis_ItuTruePeakKey, _kAudioAnalysis_NoiseFloorMasterKey, 
                       _kAudioAnalysis_ProductionMeasurementSystemKey, _kAudioAnalysis_ProductionMixingLevelKey, 
                       _kAudioAnalysis_ProductionReliabilityKey, _kAudioAnalysis_ProductionRoomTypeKey, 
                       _kAudioAnalysis_RoomMeasurementSystemKey, _kAudioAnalysis_RoomReliabilityKey, 
                       _kAudioAnalysis_ShortTermLoudnessKey, _kAudioAnalysis_ShortTermMeasurementSystemKey, 
                       _kAudioAnalysis_ShortTermReliabilityKey, _kAudioAnalysis_SourceBandwidthMasterKey, 
                       _kAudioAnalysis_SpeechActivityPercentageKey, _kAudioAnalysis_TruePeakMeasurementSystemKey, 
                       _kAudioAnalysis_TruePeakReliabilityKey, _kAudioAnalysis_VersionKey, 
                       _kAudioComponentInstanceInvalidationNotification, _kAudioComponentLocalRegistrationsChangedNotification, 
                       _kAudioComponentRegistrationsChangedNotification, _kLoudnessInfoDictionary_AdditionalLoudnessInfoKey, 
                       _kLoudnessInfoDictionary_AdditionalLoudnessParametersKey, 
                       _kLoudnessInfoDictionary_AdjustToAlbumLoudnessKey, _kLoudnessInfoDictionary_AlbumLoudnessParametersKey, 
                       _kLoudnessInfoDictionary_AnchorLoudnessKey, _kLoudnessInfoDictionary_BitDepthPCMMasterKey, 
                       _kLoudnessInfoDictionary_DialnormKey, _kLoudnessInfoDictionary_DialogueAnchorParametersKey, 
                       _kLoudnessInfoDictionary_LoudnessInfoKey, _kLoudnessInfoDictionary_MainLoudnessParametersKey, 
                       _kLoudnessInfoDictionary_MediaKindKey, _kLoudnessInfoDictionary_PrecalculatedSCAdjustmentKey, 
                       _kLoudnessInfoDictionary_SoundCheckInfoKey, _kMediaKind_AudiobookValue, 
                       _kMediaKind_HomeVideoValue, _kMediaKind_MovieValue, _kMediaKind_MusicValue, 
                       _kMediaKind_MusicVideoValue, _kMediaKind_PodcastValue, _kMediaKind_TVShowValue, 
                       _kMediaKind_VoiceMemoValue, _kMediaKind_iTunesUValue, _kSoundCheck_AvePerceivedPowerCoeffKey, 
                       _kSoundCheck_MaxPerceivedPowerCoeffKey, _kSoundCheck_MaxPerceivedPowerMsecKey, 
                       _kSoundCheck_PeakAmplitudeKey, _kSoundCheck_PeakAmplitudeMsecKey, 
                       _tkqMjk4y ]
    objc-classes:    [ AUAudioUnit, AUAudioUnitBus, AUAudioUnitBusArray, AUAudioUnitPreset, 
                       AUAudioUnitV2Bridge, AUHostExtensionContext, AUHostingServiceDelegate, 
                       AUHostingServiceInstanceMap, AUParameter, AUParameterGroup, 
                       AUParameterNode, AUParameterTree, AURemoteExtensionContext, 
                       AURemoteHost, AudioComponentRegistrar, _AUAudioUnitV3ViewFactory, 
                       _RemoteAUv2ViewFactory ]
  - targets:         [ arm64e-maccatalyst, arm64e-macos, arm64-macos, arm64-maccatalyst ]
    symbols:         [ _DownmixStereoInterleavedInt16ToMono_ARM, _Float32ToNativeInt16Scaled_ARM, 
                       _Float32ToNativeInt32Scaled_ARM, _Float32ToNativeLowAlignedInt32_ARM, 
                       _Float32ToNativeLowAlignedInt64_ARM, _MultiChannelInterleaveFloat32ToNativeLowAlignedInt32_ARM, 
                       _Native824FixedToLowAlignedInt32_ARM, _NativeInt16ToFloat32Scaled_ARM, 
                       _NativeInt16ToLowAlignedInt32_ARM, _NativeInt16ToNativeInt32_ARM, 
                       _NativeInt24ToNativeInt32_ARM, _NativeInt32ToFloat32Scaled_ARM, 
                       _NativeInt32ToNativeInt16_ARM, _NativeInt32ToNativeInt24_ARM, 
                       _NativeInt32ToNativeInt32_ARM, _NativeLowAlignedInt32To824Fixed_ARM, 
                       _NativeLowAlignedInt32ToFloat32_ARM, _NativeLowAlignedInt32ToInt16_ARM, 
                       _NativeLowAlignedInt64ToFloat32_ARM, _StereoDeinterleaveInt16ToInt824_ARM, 
                       _StereoDeinterleaveInt824ToFloat32_ARM, _StereoDeinterleaveNativeInt16ToScaledFloat32_ARM, 
                       _StereoInterleaveFloat32ToInt824_ARM, _StereoInterleaveFloat32ToNativeInt16Scaled_ARM, 
                       _StereoInterleaveInt824ToInt16_ARM, _SwapPCM16_ARM, _UpmixMonoToStereoInterleaved16_ARM, 
                       _UpmixMonoToStereoInterleaved32_ARM ]
...
