--- !tapi-tbd
tbd-version:     4
targets:         [ arm64-macos, arm64e-macos ]
uuids:
  - target:          arm64-macos
    value:           00000000-0000-0000-0000-000000000000
  - target:          arm64e-macos
    value:           A9F8E8D3-A61D-3EDD-ACDC-271A4547F417
install-name:    '/System/Library/PrivateFrameworks/ApplePDPHelper.framework/Versions/A/ApplePDPHelper'
exports:
  - targets:         [ arm64e-macos, arm64-macos ]
    symbols:         [ __ZN23ApplePDPHelperInterface10callMethodEjPKcPyjPvmS2_PjS3_Pm, 
                       __ZN23ApplePDPHelperInterface10cleanup_nlEv, __ZN23ApplePDPHelperInterface10removeFlowE27AppleIPAppenderTrafficClass, 
                       __ZN23ApplePDPHelperInterface11getInstanceEv, __ZN23ApplePDPHelperInterface14copyWakeBufferEPhmPmPy, 
                       __ZN23ApplePDPHelperInterface15blockPDPTrafficEjb, __ZN23ApplePDPHelperInterface15fillupPortListsEPtjPKhmPjj, 
                       __ZN23ApplePDPHelperInterface15getDormancyTimeEPj, __ZN23ApplePDPHelperInterface15getOpenPortsExtEjjPtjPm, 
                       __ZN23ApplePDPHelperInterface16callScalarMethodEjPKcPyjS2_Pj, 
                       __ZN23ApplePDPHelperInterface16callStructMethodEjPKcPvjS2_Pj, 
                       __ZN23ApplePDPHelperInterface17getTimeAdjustmentEP13mach_timespec, 
                       __ZN23ApplePDPHelperInterface19setDormancyIntervalEjj, __ZN23ApplePDPHelperInterface20reportLinkThroughputEP27AppleIPAppenderThroughput_t, 
                       __ZN23ApplePDPHelperInterface20restartDormancyCheckEv, __ZN23ApplePDPHelperInterface20setLinkQualityMetricEi, 
                       __ZN23ApplePDPHelperInterface21enableMetadataTrailerEbPb, 
                       __ZN23ApplePDPHelperInterface23registerHandlerInternalEPNS_7HandlerE, 
                       __ZN23ApplePDPHelperInterface25enableLowPowerPDPThrottleEb, 
                       __ZN23ApplePDPHelperInterface25getKeepaliveOffloadFramesEjP38AppleIPAppenderKeepaliveOffloadFrame_tPj, 
                       __ZN23ApplePDPHelperInterface27activateLowPowerPDPThrottleEb, 
                       __ZN23ApplePDPHelperInterface30getNumLowPowerPDPThrottleStatsEP33AppleIPAppenderPDPThrottleStats_t, 
                       __ZN23ApplePDPHelperInterface4initEv, __ZN23ApplePDPHelperInterface6enableEbPb, 
                       __ZN23ApplePDPHelperInterface7HandlerD0Ev, __ZN23ApplePDPHelperInterface7HandlerD1Ev, 
                       __ZN23ApplePDPHelperInterface7HandlerD2Ev, __ZN23ApplePDPHelperInterface7addFlowE27AppleIPAppenderTrafficClassj, 
                       __ZN23ApplePDPHelperInterface7getFlowE27AppleIPAppenderTrafficClassPj, 
                       __ZN23ApplePDPHelperInterface8callbackEPvjjS0_, __ZN23ApplePDPHelperInterface9getStatusEP23AppleIPAppenderStatus_t, 
                       __ZN23ApplePDPHelperInterfaceC1Ev, __ZN23ApplePDPHelperInterfaceC2Ev, 
                       __ZN23ApplePDPHelperInterfaceD1Ev, __ZN23ApplePDPHelperInterfaceD2Ev, 
                       __ZTIN23ApplePDPHelperInterface7HandlerE, __ZTSN23ApplePDPHelperInterface7HandlerE, 
                       __ZTVN23ApplePDPHelperInterface7HandlerE ]
...
