--- !tapi-tbd-v3
archs:           [ x86_64 ]
uuids:           [ 'x86_64: 464A4968-3C49-3743-9C75-17712CD23C16' ]
platform:        macosx
install-name:    /System/Library/PrivateFrameworks/AudioPasscode.framework/Versions/A/AudioPasscode
exports:         
  - archs:           [ x86_64 ]
    symbols:         [ _AudioPasscodeVersionNumber, _AudioPasscodeVersionString, 
                       __ZN12EchoDetector10decodeEchoEPKfjRjj, __ZN12EchoDetector10initializeEjjPKf, 
                       __ZN12EchoDetector12autoCepstrumEPKfj, __ZN12EchoDetectorC1Eb, 
                       __ZN12EchoDetectorC2Eb, __ZN12EchoDetectorD1Ev, __ZN12EchoDetectorD2Ev, 
                       __ZN12SyncSequence10initializeEjfjf, __ZN13ShapingFilter10initializeENS_10filterTypeEjjfb, 
                       __ZN13ShapingFilter5closeEv, __ZN13ShapingFilter5resetEv, 
                       __ZN13ShapingFilter6filterEPKfPfj, __ZN13ShapingFilter6filterEPKfPfjj, 
                       __ZN13ShapingFilter8mHPFCoefE, __ZN13ShapingFilter8mLPFCoefE, 
                       __ZN14APCNullDecoder7ProcessEPKfiPvPi, __ZN14APCNullDecoderC1EP22NullCodecConfiguration, 
                       __ZN14APCNullDecoderC2EP22NullCodecConfiguration, __ZN14APCNullEncoder5ResetEv, 
                       __ZN14APCNullEncoder7ProcessEPKfPfi, __ZN14APCNullEncoderC1EP22NullCodecConfiguration, 
                       __ZN14APCNullEncoderC2EP22NullCodecConfiguration, __ZN15APCConfigReader10loadParamsERKNSt3__16vectorINS_9paramDataENS0_9allocatorIS2_EEEE, 
                       __ZN15APCConfigReader12getParameterEiRf, __ZN15EchoCodeDecoder10initializeERKNSt3__13mapIjfNS0_4lessIjEENS0_9allocatorINS0_4pairIKjfEEEEEE, 
                       __ZN15EchoCodeDecoder13loadAPCConfigERKNSt3__13mapIjfNS0_4lessIjEENS0_9allocatorINS0_4pairIKjfEEEEEE, 
                       __ZN15EchoCodeDecoder17detectEchoSectionEPKfjRi, __ZN15EchoCodeDecoder5resetEv, 
                       __ZN15EchoCodeDecoder6decodeEPKfjRh, __ZN15EchoCodeDecoder7ProcessEPKfiPvPi, 
                       __ZN15EchoCodeDecoder9setParamsEif, __ZN15EchoCodeDecoderC1Ev, 
                       __ZN15EchoCodeDecoderC2Ev, __ZN15EchoCodeDecoderD0Ev, __ZN15EchoCodeDecoderD1Ev, 
                       __ZN15EchoCodeDecoderD2Ev, __ZN15EchoCodeEncoder10initializeERKNSt3__13mapIjfNS0_4lessIjEENS0_9allocatorINS0_4pairIKjfEEEEEE, 
                       __ZN15EchoCodeEncoder11setPasscodeEPKhj, __ZN15EchoCodeEncoder13loadAPCConfigERKNSt3__13mapIjfNS0_4lessIjEENS0_9allocatorINS0_4pairIKjfEEEEEE, 
                       __ZN15EchoCodeEncoder14flushNoiseUsedEj, __ZN15EchoCodeEncoder16getNoiseWithEchoEjPPf, 
                       __ZN15EchoCodeEncoder21generateNoiseWithEchoEPf, __ZN15EchoCodeEncoder5ResetEv, 
                       __ZN15EchoCodeEncoder5resetEv, __ZN15EchoCodeEncoder6encodeEPKfPfj, 
                       __ZN15EchoCodeEncoder7ProcessEPKfPfi, __ZN15EchoCodeEncoder7payload3setEPKhj, 
                       __ZN15EchoCodeEncoder8addNoiseEPfj, __ZN15EchoCodeEncoder9setParamsEif, 
                       __ZN15EchoCodeEncoderC1Ev, __ZN15EchoCodeEncoderC2Ev, __ZN15EchoCodeEncoderD0Ev, 
                       __ZN15EchoCodeEncoderD1Ev, __ZN15EchoCodeEncoderD2Ev, __ZN17AdaptiveThreshold10initializeEjf, 
                       __ZN17AdaptiveThreshold14mkUpdateFactorE, __ZN17AdaptiveThreshold15updateThresholdEf, 
                       __ZN17AdaptiveThreshold20minInitDelayInFramesEv, __ZN17AdaptiveThreshold5resetEv, 
                       __ZN17SyncFrameDetector10initializeEjjfjjff, __ZN17SyncFrameDetector15detectSyncFrameEPKfjb, 
                       __ZN17SyncFrameDetector5resetEv, __ZN17SyncFrameDetector8mBPFCoefE, 
                       __ZN17SyncFrameDetectorD1Ev, __ZN17SyncFrameDetectorD2Ev, 
                       __ZN17SyncFrameEmbedder10initializeEjjjjff, __ZN17SyncFrameEmbedder14embedSyncFrameERNSt3__16vectorIfNS0_9allocatorIfEEEEj, 
                       __ZN17SyncFrameEmbedder18searchSyncPositionEj, __ZN17SyncFrameEmbedder5resetEv, 
                       __ZN8mlsCodec11getSequenceERNSt3__16vectorIfNS0_9allocatorIfEEEEfj, 
                       __ZN9echoCodec10getFsIndexEj, __ZN9echoCodec15isParamFlagTrueENS_9paramFlagE, 
                       __ZN9echoCodec19getSRCFreeFrameSizeEjj, __ZNK13ShapingFilter18getCutOffFreqIndexEf, 
                       __ZNK15EchoCodeDecoder13isInitializedEv, __ZNK15EchoCodeEncoder13isInitializedEv, 
                       __ZNK15EchoCodeEncoder15evaluateCarrierEPKfjRNSt3__13mapIjfNS2_4lessIjEENS2_9allocatorINS2_4pairIKjfEEEEEE, 
                       __ZTI14APCNullDecoder, __ZTI14APCNullEncoder, __ZTI15EchoCodeDecoder, 
                       __ZTI15EchoCodeEncoder, __ZTS14APCNullDecoder, __ZTS14APCNullEncoder, 
                       __ZTS15EchoCodeDecoder, __ZTS15EchoCodeEncoder, __ZTV14APCNullDecoder, 
                       __ZTV14APCNullEncoder, __ZTV15EchoCodeDecoder, __ZTV15EchoCodeEncoder, 
                       __ZThn8_N15EchoCodeDecoder10initializeERKNSt3__13mapIjfNS0_4lessIjEENS0_9allocatorINS0_4pairIKjfEEEEEE, 
                       __ZThn8_N15EchoCodeDecoder5resetEv, __ZThn8_N15EchoCodeDecoder6decodeEPKfjRh, 
                       __ZThn8_N15EchoCodeDecoder9setParamsEif, __ZThn8_N15EchoCodeDecoderD0Ev, 
                       __ZThn8_N15EchoCodeDecoderD1Ev, __ZThn8_N15EchoCodeEncoder10initializeERKNSt3__13mapIjfNS0_4lessIjEENS0_9allocatorINS0_4pairIKjfEEEEEE, 
                       __ZThn8_N15EchoCodeEncoder11setPasscodeEPKhj, __ZThn8_N15EchoCodeEncoder5resetEv, 
                       __ZThn8_N15EchoCodeEncoder6encodeEPKfPfj, __ZThn8_N15EchoCodeEncoder9setParamsEif, 
                       __ZThn8_N15EchoCodeEncoderD0Ev, __ZThn8_N15EchoCodeEncoderD1Ev, 
                       __ZThn8_NK15EchoCodeDecoder13isInitializedEv, __ZThn8_NK15EchoCodeEncoder13isInitializedEv, 
                       __ZThn8_NK15EchoCodeEncoder15evaluateCarrierEPKfjRNSt3__13mapIjfNS2_4lessIjEENS2_9allocatorINS2_4pairIKjfEEEEEE, 
                       __defaults ]
    objc-classes:    [ APCCodecFactory, APCCodecInfo, APCDecoderProcessor, APCDefaults, 
                       APCEncoderProcessor, APCListener, APCListenerEngine, APCPlayer, 
                       APCPlayerEngine, AUAudioUnitOfflineProcessor, AUPasscodeCodecCapability, 
                       AUPasscodeCodecCommandLineOption, AUPasscodeCodecConfiguration, 
                       AUPasscodeDecoder, AUPasscodeEncoder, EchoCodecCapability, 
                       EchoCodecConfiguration, MLSCodecCapability, MLSCodecConfiguration, 
                       NullCodecCapability, NullCodecConfiguration ]
    weak-def-symbols: [ __ZTI11CAException, __ZTI12CAXException, __ZTI14APCDecoderBase, 
                        __ZTI14APCEncoderBase, __ZTI14CAExtAudioFile, __ZTI17EOFReachedMessage, 
                        __ZTI18DecodedDataMessage, __ZTI21IAudioPasscodeDecoder, 
                        __ZTI21IAudioPasscodeEncoder, __ZTIN17RealtimeMessenger7MessageE, 
                        __ZTINSt3__117bad_function_callE, __ZTISt11logic_error, __ZTISt12length_error, 
                        __ZTISt9bad_alloc, __ZTISt9exception, __ZTS11CAException, 
                        __ZTS12CAXException, __ZTS14APCDecoderBase, __ZTS14APCEncoderBase, 
                        __ZTS14CAExtAudioFile, __ZTS17EOFReachedMessage, __ZTS18DecodedDataMessage, 
                        __ZTS21IAudioPasscodeDecoder, __ZTS21IAudioPasscodeEncoder, 
                        __ZTSN17RealtimeMessenger7MessageE, __ZTSNSt3__117bad_function_callE, 
                        __ZTSSt11logic_error, __ZTSSt12length_error, __ZTSSt9bad_alloc, 
                        __ZTSSt9exception ]
...
