--- !tapi-tbd
tbd-version:     4
targets:         [ x86_64-macos, x86_64-maccatalyst, arm64-macos, arm64-maccatalyst, 
                   arm64e-macos, arm64e-maccatalyst ]
uuids:
  - target:          x86_64-macos
    value:           6451578D-F1BF-3476-838D-D45ED05CF78F
  - target:          x86_64-maccatalyst
    value:           6451578D-F1BF-3476-838D-D45ED05CF78F
  - target:          arm64-macos
    value:           00000000-0000-0000-0000-000000000000
  - target:          arm64-maccatalyst
    value:           00000000-0000-0000-0000-000000000000
  - target:          arm64e-macos
    value:           173428D4-22B0-35CD-92E4-336514FEA021
  - target:          arm64e-maccatalyst
    value:           173428D4-22B0-35CD-92E4-336514FEA021
install-name:    '/System/Library/PrivateFrameworks/AppleSauce.framework/Versions/A/AppleSauce'
current-version: 0
compatibility-version: 0
exports:
  - targets:         [ x86_64-maccatalyst, x86_64-macos ]
    weak-symbols:    [ __ZTIN6docopt14DocoptExitHelpE, __ZTIN6docopt17DocoptExitVersionE, 
                       __ZTIN6docopt19DocoptArgumentErrorE, __ZTIN6docopt19DocoptLanguageErrorE, 
                       __ZTSN6docopt14DocoptExitHelpE, __ZTSN6docopt17DocoptExitVersionE, 
                       __ZTSN6docopt19DocoptArgumentErrorE, __ZTSN6docopt19DocoptLanguageErrorE ]
  - targets:         [ x86_64-maccatalyst, x86_64-macos, arm64e-maccatalyst, arm64e-macos, 
                       arm64-macos, arm64-maccatalyst ]
    symbols:         [ __ZN10applesauce3xpc10auto_reply16create_from_dictERKNS0_4dictERKNS0_10connectionE, 
                       __ZN10applesauce3xpc10auto_reply17create_from_replyERKNS0_4dictE, 
                       __ZN10applesauce3xpc10auto_reply19create_from_requestERKNS0_4dictE, 
                       __ZN10applesauce3xpc19dyn_cast_or_defaultERKNS0_6objectEPKc, 
                       __ZN10applesauce3xpc19dyn_cast_or_defaultERKNS0_6objectERKNSt3__112basic_stringIcNS4_11char_traitsIcEENS4_9allocatorIcEEEE, 
                       __ZN10applesauce3xpc19dyn_cast_or_defaultERKNS0_6objectERKNSt3__16vectorIhNS4_9allocatorIhEEEE, 
                       __ZN10applesauce3xpc19dyn_cast_or_defaultERKNS0_6objectEb, 
                       __ZN10applesauce3xpc19dyn_cast_or_defaultERKNS0_6objectEd, 
                       __ZN10applesauce3xpc19dyn_cast_or_defaultERKNS0_6objectEi, 
                       __ZN10applesauce3xpc19dyn_cast_or_defaultERKNS0_6objectEj, 
                       __ZN10applesauce3xpc19dyn_cast_or_defaultERKNS0_6objectEl, 
                       __ZN10applesauce3xpc19dyn_cast_or_defaultERKNS0_6objectEm, 
                       __ZN10applesauce3xpc19dyn_cast_or_defaultERKNS0_6objectEx, 
                       __ZN10applesauce3xpc19dyn_cast_or_defaultERKNS0_6objectEy, 
                       __ZN10applesauce8dispatch2v18walltimeENSt3__16chrono10time_pointINS3_12system_clockENS3_8durationIxNS2_5ratioILl1ELl1000000EEEEEEE, 
                       __ZN6docopt12docopt_parseERKNSt3__112basic_stringIcNS0_11char_traitsIcEENS0_9allocatorIcEEEERKNS0_6vectorIS6_NS4_IS6_EEEEbbb, 
                       __ZN6docopt6docoptERKNSt3__112basic_stringIcNS0_11char_traitsIcEENS0_9allocatorIcEEEERKNS0_6vectorIS6_NS4_IS6_EEEEbS8_b, 
                       __ZN6docoptlsERNSt3__113basic_ostreamIcNS0_11char_traitsIcEEEERKNS_5valueE, 
                       __ZNK10applesauce3xpc6object9to_stringEv ]
...
