---
archs:           [ x86_64 ]
platform:        macosx
install-name:    /System/Library/PrivateFrameworks/WirelessDiagnostics.framework/Versions/A/Libraries/libAWDProtobufWirelessProximity.dylib
exports:         
  - archs:           [ x86_64 ]
    symbols:         [ __ZN3awd7metrics18WiProxLeDeviceLost10SharedCtorEv, 
                       __ZN3awd7metrics18WiProxLeDeviceLost10SharedDtorEv, 
                       __ZN3awd7metrics18WiProxLeDeviceLost16_default_peerid_E, 
                       __ZN3awd7metrics18WiProxLeDeviceLost16default_instanceEv, 
                       __ZN3awd7metrics18WiProxLeDeviceLost16kTypeFieldNumberE, 
                       __ZN3awd7metrics18WiProxLeDeviceLost17default_instance_E, 
                       __ZN3awd7metrics18WiProxLeDeviceLost18kPeerIdFieldNumberE, 
                       __ZN3awd7metrics18WiProxLeDeviceLost19_default_sessionid_E, 
                       __ZN3awd7metrics18WiProxLeDeviceLost21CheckTypeAndMergeFromERKN6google8protobuf11MessageLiteE, 
                       __ZN3awd7metrics18WiProxLeDeviceLost21InitAsDefaultInstanceEv, 
                       __ZN3awd7metrics18WiProxLeDeviceLost21kSessionIdFieldNumberE, 
                       __ZN3awd7metrics18WiProxLeDeviceLost21kTimestampFieldNumberE, 
                       __ZN3awd7metrics18WiProxLeDeviceLost27MergePartialFromCodedStreamEPN6google8protobuf2io16CodedInputStreamE, 
                       __ZN3awd7metrics18WiProxLeDeviceLost4SwapEPS1_, 
                       __ZN3awd7metrics18WiProxLeDeviceLost5ClearEv, __ZN3awd7metrics18WiProxLeDeviceLost8CopyFromERKS1_, 
                       __ZN3awd7metrics18WiProxLeDeviceLost9MergeFromERKS1_, 
                       __ZN3awd7metrics18WiProxLeDeviceLostC1ERKS1_, __ZN3awd7metrics18WiProxLeDeviceLostC1Ev, 
                       __ZN3awd7metrics18WiProxLeDeviceLostC2ERKS1_, __ZN3awd7metrics18WiProxLeDeviceLostC2Ev, 
                       __ZN3awd7metrics18WiProxLeDeviceLostD0Ev, __ZN3awd7metrics18WiProxLeDeviceLostD1Ev, 
                       __ZN3awd7metrics18WiProxLeDeviceLostD2Ev, __ZN3awd7metrics20WiProxBluetoothState10SharedCtorEv, 
                       __ZN3awd7metrics20WiProxBluetoothState10SharedDtorEv, 
                       __ZN3awd7metrics20WiProxBluetoothState16default_instanceEv, 
                       __ZN3awd7metrics20WiProxBluetoothState17default_instance_E, 
                       __ZN3awd7metrics20WiProxBluetoothState19kBtStateFieldNumberE, 
                       __ZN3awd7metrics20WiProxBluetoothState21CheckTypeAndMergeFromERKN6google8protobuf11MessageLiteE, 
                       __ZN3awd7metrics20WiProxBluetoothState21InitAsDefaultInstanceEv, 
                       __ZN3awd7metrics20WiProxBluetoothState21kTimestampFieldNumberE, 
                       __ZN3awd7metrics20WiProxBluetoothState27MergePartialFromCodedStreamEPN6google8protobuf2io16CodedInputStreamE, 
                       __ZN3awd7metrics20WiProxBluetoothState4SwapEPS1_, 
                       __ZN3awd7metrics20WiProxBluetoothState5ClearEv, 
                       __ZN3awd7metrics20WiProxBluetoothState8CopyFromERKS1_, 
                       __ZN3awd7metrics20WiProxBluetoothState9MergeFromERKS1_, 
                       __ZN3awd7metrics20WiProxBluetoothStateC1ERKS1_, 
                       __ZN3awd7metrics20WiProxBluetoothStateC1Ev, __ZN3awd7metrics20WiProxBluetoothStateC2ERKS1_, 
                       __ZN3awd7metrics20WiProxBluetoothStateC2Ev, __ZN3awd7metrics20WiProxBluetoothStateD0Ev, 
                       __ZN3awd7metrics20WiProxBluetoothStateD1Ev, __ZN3awd7metrics20WiProxBluetoothStateD2Ev, 
                       __ZN3awd7metrics22WiProxLeScanStopResult10SharedCtorEv, 
                       __ZN3awd7metrics22WiProxLeScanStopResult10SharedDtorEv, 
                       __ZN3awd7metrics22WiProxLeScanStopResult16default_instanceEv, 
                       __ZN3awd7metrics22WiProxLeScanStopResult16kTypeFieldNumberE, 
                       __ZN3awd7metrics22WiProxLeScanStopResult17default_instance_E, 
                       __ZN3awd7metrics22WiProxLeScanStopResult19_default_sessionid_E, 
                       __ZN3awd7metrics22WiProxLeScanStopResult21CheckTypeAndMergeFromERKN6google8protobuf11MessageLiteE, 
                       __ZN3awd7metrics22WiProxLeScanStopResult21InitAsDefaultInstanceEv, 
                       __ZN3awd7metrics22WiProxLeScanStopResult21kSessionIdFieldNumberE, 
                       __ZN3awd7metrics22WiProxLeScanStopResult21kTimestampFieldNumberE, 
                       __ZN3awd7metrics22WiProxLeScanStopResult27MergePartialFromCodedStreamEPN6google8protobuf2io16CodedInputStreamE, 
                       __ZN3awd7metrics22WiProxLeScanStopResult4SwapEPS1_, 
                       __ZN3awd7metrics22WiProxLeScanStopResult5ClearEv, 
                       __ZN3awd7metrics22WiProxLeScanStopResult8CopyFromERKS1_, 
                       __ZN3awd7metrics22WiProxLeScanStopResult9MergeFromERKS1_, 
                       __ZN3awd7metrics22WiProxLeScanStopResultC1ERKS1_, 
                       __ZN3awd7metrics22WiProxLeScanStopResultC1Ev, __ZN3awd7metrics22WiProxLeScanStopResultC2ERKS1_, 
                       __ZN3awd7metrics22WiProxLeScanStopResultC2Ev, __ZN3awd7metrics22WiProxLeScanStopResultD0Ev, 
                       __ZN3awd7metrics22WiProxLeScanStopResultD1Ev, __ZN3awd7metrics22WiProxLeScanStopResultD2Ev, 
                       __ZN3awd7metrics22WiProxLeSendDataResult10SharedCtorEv, 
                       __ZN3awd7metrics22WiProxLeSendDataResult10SharedDtorEv, 
                       __ZN3awd7metrics22WiProxLeSendDataResult16_default_peerid_E, 
                       __ZN3awd7metrics22WiProxLeSendDataResult16default_instanceEv, 
                       __ZN3awd7metrics22WiProxLeSendDataResult17default_instance_E, 
                       __ZN3awd7metrics22WiProxLeSendDataResult18kPeerIdFieldNumberE, 
                       __ZN3awd7metrics22WiProxLeSendDataResult18kResultFieldNumberE, 
                       __ZN3awd7metrics22WiProxLeSendDataResult19_default_sessionid_E, 
                       __ZN3awd7metrics22WiProxLeSendDataResult21CheckTypeAndMergeFromERKN6google8protobuf11MessageLiteE, 
                       __ZN3awd7metrics22WiProxLeSendDataResult21InitAsDefaultInstanceEv, 
                       __ZN3awd7metrics22WiProxLeSendDataResult21kSessionIdFieldNumberE, 
                       __ZN3awd7metrics22WiProxLeSendDataResult21kTimestampFieldNumberE, 
                       __ZN3awd7metrics22WiProxLeSendDataResult22_default_resultstring_E, 
                       __ZN3awd7metrics22WiProxLeSendDataResult22kDataLengthFieldNumberE, 
                       __ZN3awd7metrics22WiProxLeSendDataResult24kResultStringFieldNumberE, 
                       __ZN3awd7metrics22WiProxLeSendDataResult27MergePartialFromCodedStreamEPN6google8protobuf2io16CodedInputStreamE, 
                       __ZN3awd7metrics22WiProxLeSendDataResult4SwapEPS1_, 
                       __ZN3awd7metrics22WiProxLeSendDataResult5ClearEv, 
                       __ZN3awd7metrics22WiProxLeSendDataResult8CopyFromERKS1_, 
                       __ZN3awd7metrics22WiProxLeSendDataResult9MergeFromERKS1_, 
                       __ZN3awd7metrics22WiProxLeSendDataResultC1ERKS1_, 
                       __ZN3awd7metrics22WiProxLeSendDataResultC1Ev, __ZN3awd7metrics22WiProxLeSendDataResultC2ERKS1_, 
                       __ZN3awd7metrics22WiProxLeSendDataResultC2Ev, __ZN3awd7metrics22WiProxLeSendDataResultD0Ev, 
                       __ZN3awd7metrics22WiProxLeSendDataResultD1Ev, __ZN3awd7metrics22WiProxLeSendDataResultD2Ev, 
                       __ZN3awd7metrics23WiProxLeScanStartResult10SharedCtorEv, 
                       __ZN3awd7metrics23WiProxLeScanStartResult10SharedDtorEv, 
                       __ZN3awd7metrics23WiProxLeScanStartResult16default_instanceEv, 
                       __ZN3awd7metrics23WiProxLeScanStartResult16kTypeFieldNumberE, 
                       __ZN3awd7metrics23WiProxLeScanStartResult17default_instance_E, 
                       __ZN3awd7metrics23WiProxLeScanStartResult18kResultFieldNumberE, 
                       __ZN3awd7metrics23WiProxLeScanStartResult19_default_sessionid_E, 
                       __ZN3awd7metrics23WiProxLeScanStartResult21CheckTypeAndMergeFromERKN6google8protobuf11MessageLiteE, 
                       __ZN3awd7metrics23WiProxLeScanStartResult21InitAsDefaultInstanceEv, 
                       __ZN3awd7metrics23WiProxLeScanStartResult21kSessionIdFieldNumberE, 
                       __ZN3awd7metrics23WiProxLeScanStartResult21kTimestampFieldNumberE, 
                       __ZN3awd7metrics23WiProxLeScanStartResult22_default_resultstring_E, 
                       __ZN3awd7metrics23WiProxLeScanStartResult24kResultStringFieldNumberE, 
                       __ZN3awd7metrics23WiProxLeScanStartResult27MergePartialFromCodedStreamEPN6google8protobuf2io16CodedInputStreamE, 
                       __ZN3awd7metrics23WiProxLeScanStartResult4SwapEPS1_, 
                       __ZN3awd7metrics23WiProxLeScanStartResult5ClearEv, 
                       __ZN3awd7metrics23WiProxLeScanStartResult8CopyFromERKS1_, 
                       __ZN3awd7metrics23WiProxLeScanStartResult9MergeFromERKS1_, 
                       __ZN3awd7metrics23WiProxLeScanStartResultC1ERKS1_, 
                       __ZN3awd7metrics23WiProxLeScanStartResultC1Ev, __ZN3awd7metrics23WiProxLeScanStartResultC2ERKS1_, 
                       __ZN3awd7metrics23WiProxLeScanStartResultC2Ev, __ZN3awd7metrics23WiProxLeScanStartResultD0Ev, 
                       __ZN3awd7metrics23WiProxLeScanStartResultD1Ev, __ZN3awd7metrics23WiProxLeScanStartResultD2Ev, 
                       __ZN3awd7metrics23WiProxLeScanStopRequest10SharedCtorEv, 
                       __ZN3awd7metrics23WiProxLeScanStopRequest10SharedDtorEv, 
                       __ZN3awd7metrics23WiProxLeScanStopRequest16default_instanceEv, 
                       __ZN3awd7metrics23WiProxLeScanStopRequest16kTypeFieldNumberE, 
                       __ZN3awd7metrics23WiProxLeScanStopRequest17default_instance_E, 
                       __ZN3awd7metrics23WiProxLeScanStopRequest19_default_sessionid_E, 
                       __ZN3awd7metrics23WiProxLeScanStopRequest21CheckTypeAndMergeFromERKN6google8protobuf11MessageLiteE, 
                       __ZN3awd7metrics23WiProxLeScanStopRequest21InitAsDefaultInstanceEv, 
                       __ZN3awd7metrics23WiProxLeScanStopRequest21kSessionIdFieldNumberE, 
                       __ZN3awd7metrics23WiProxLeScanStopRequest21kTimestampFieldNumberE, 
                       __ZN3awd7metrics23WiProxLeScanStopRequest27MergePartialFromCodedStreamEPN6google8protobuf2io16CodedInputStreamE, 
                       __ZN3awd7metrics23WiProxLeScanStopRequest4SwapEPS1_, 
                       __ZN3awd7metrics23WiProxLeScanStopRequest5ClearEv, 
                       __ZN3awd7metrics23WiProxLeScanStopRequest8CopyFromERKS1_, 
                       __ZN3awd7metrics23WiProxLeScanStopRequest9MergeFromERKS1_, 
                       __ZN3awd7metrics23WiProxLeScanStopRequestC1ERKS1_, 
                       __ZN3awd7metrics23WiProxLeScanStopRequestC1Ev, __ZN3awd7metrics23WiProxLeScanStopRequestC2ERKS1_, 
                       __ZN3awd7metrics23WiProxLeScanStopRequestC2Ev, __ZN3awd7metrics23WiProxLeScanStopRequestD0Ev, 
                       __ZN3awd7metrics23WiProxLeScanStopRequestD1Ev, __ZN3awd7metrics23WiProxLeScanStopRequestD2Ev, 
                       __ZN3awd7metrics23WiProxLeSendDataRequest10SharedCtorEv, 
                       __ZN3awd7metrics23WiProxLeSendDataRequest10SharedDtorEv, 
                       __ZN3awd7metrics23WiProxLeSendDataRequest16_default_peerid_E, 
                       __ZN3awd7metrics23WiProxLeSendDataRequest16default_instanceEv, 
                       __ZN3awd7metrics23WiProxLeSendDataRequest17default_instance_E, 
                       __ZN3awd7metrics23WiProxLeSendDataRequest18kPeerIdFieldNumberE, 
                       __ZN3awd7metrics23WiProxLeSendDataRequest19_default_sessionid_E, 
                       __ZN3awd7metrics23WiProxLeSendDataRequest21CheckTypeAndMergeFromERKN6google8protobuf11MessageLiteE, 
                       __ZN3awd7metrics23WiProxLeSendDataRequest21InitAsDefaultInstanceEv, 
                       __ZN3awd7metrics23WiProxLeSendDataRequest21kSessionIdFieldNumberE, 
                       __ZN3awd7metrics23WiProxLeSendDataRequest21kTimestampFieldNumberE, 
                       __ZN3awd7metrics23WiProxLeSendDataRequest22kDataLengthFieldNumberE, 
                       __ZN3awd7metrics23WiProxLeSendDataRequest27MergePartialFromCodedStreamEPN6google8protobuf2io16CodedInputStreamE, 
                       __ZN3awd7metrics23WiProxLeSendDataRequest4SwapEPS1_, 
                       __ZN3awd7metrics23WiProxLeSendDataRequest5ClearEv, 
                       __ZN3awd7metrics23WiProxLeSendDataRequest8CopyFromERKS1_, 
                       __ZN3awd7metrics23WiProxLeSendDataRequest9MergeFromERKS1_, 
                       __ZN3awd7metrics23WiProxLeSendDataRequestC1ERKS1_, 
                       __ZN3awd7metrics23WiProxLeSendDataRequestC1Ev, __ZN3awd7metrics23WiProxLeSendDataRequestC2ERKS1_, 
                       __ZN3awd7metrics23WiProxLeSendDataRequestC2Ev, __ZN3awd7metrics23WiProxLeSendDataRequestD0Ev, 
                       __ZN3awd7metrics23WiProxLeSendDataRequestD1Ev, __ZN3awd7metrics23WiProxLeSendDataRequestD2Ev, 
                       __ZN3awd7metrics24WiProxLeAddServiceResult10SharedCtorEv, 
                       __ZN3awd7metrics24WiProxLeAddServiceResult10SharedDtorEv, 
                       __ZN3awd7metrics24WiProxLeAddServiceResult16default_instanceEv, 
                       __ZN3awd7metrics24WiProxLeAddServiceResult17default_instance_E, 
                       __ZN3awd7metrics24WiProxLeAddServiceResult18kResultFieldNumberE, 
                       __ZN3awd7metrics24WiProxLeAddServiceResult19_default_sessionid_E, 
                       __ZN3awd7metrics24WiProxLeAddServiceResult21CheckTypeAndMergeFromERKN6google8protobuf11MessageLiteE, 
                       __ZN3awd7metrics24WiProxLeAddServiceResult21InitAsDefaultInstanceEv, 
                       __ZN3awd7metrics24WiProxLeAddServiceResult21_default_serviceuuid_E, 
                       __ZN3awd7metrics24WiProxLeAddServiceResult21kSessionIdFieldNumberE, 
                       __ZN3awd7metrics24WiProxLeAddServiceResult21kTimestampFieldNumberE, 
                       __ZN3awd7metrics24WiProxLeAddServiceResult22_default_resultstring_E, 
                       __ZN3awd7metrics24WiProxLeAddServiceResult23kServiceUUIDFieldNumberE, 
                       __ZN3awd7metrics24WiProxLeAddServiceResult24kResultStringFieldNumberE, 
                       __ZN3awd7metrics24WiProxLeAddServiceResult27MergePartialFromCodedStreamEPN6google8protobuf2io16CodedInputStreamE, 
                       __ZN3awd7metrics24WiProxLeAddServiceResult4SwapEPS1_, 
                       __ZN3awd7metrics24WiProxLeAddServiceResult5ClearEv, 
                       __ZN3awd7metrics24WiProxLeAddServiceResult8CopyFromERKS1_, 
                       __ZN3awd7metrics24WiProxLeAddServiceResult9MergeFromERKS1_, 
                       __ZN3awd7metrics24WiProxLeAddServiceResultC1ERKS1_, 
                       __ZN3awd7metrics24WiProxLeAddServiceResultC1Ev, 
                       __ZN3awd7metrics24WiProxLeAddServiceResultC2ERKS1_, 
                       __ZN3awd7metrics24WiProxLeAddServiceResultC2Ev, 
                       __ZN3awd7metrics24WiProxLeAddServiceResultD0Ev, 
                       __ZN3awd7metrics24WiProxLeAddServiceResultD1Ev, 
                       __ZN3awd7metrics24WiProxLeAddServiceResultD2Ev, 
                       __ZN3awd7metrics24WiProxLeConnectionResult10SharedCtorEv, 
                       __ZN3awd7metrics24WiProxLeConnectionResult10SharedDtorEv, 
                       __ZN3awd7metrics24WiProxLeConnectionResult16_default_peerid_E, 
                       __ZN3awd7metrics24WiProxLeConnectionResult16default_instanceEv, 
                       __ZN3awd7metrics24WiProxLeConnectionResult17default_instance_E, 
                       __ZN3awd7metrics24WiProxLeConnectionResult18kPeerIdFieldNumberE, 
                       __ZN3awd7metrics24WiProxLeConnectionResult18kResultFieldNumberE, 
                       __ZN3awd7metrics24WiProxLeConnectionResult19_default_sessionid_E, 
                       __ZN3awd7metrics24WiProxLeConnectionResult21CheckTypeAndMergeFromERKN6google8protobuf11MessageLiteE, 
                       __ZN3awd7metrics24WiProxLeConnectionResult21InitAsDefaultInstanceEv, 
                       __ZN3awd7metrics24WiProxLeConnectionResult21kSessionIdFieldNumberE, 
                       __ZN3awd7metrics24WiProxLeConnectionResult21kTimestampFieldNumberE, 
                       __ZN3awd7metrics24WiProxLeConnectionResult22_default_resultstring_E, 
                       __ZN3awd7metrics24WiProxLeConnectionResult24kResultStringFieldNumberE, 
                       __ZN3awd7metrics24WiProxLeConnectionResult27MergePartialFromCodedStreamEPN6google8protobuf2io16CodedInputStreamE, 
                       __ZN3awd7metrics24WiProxLeConnectionResult4SwapEPS1_, 
                       __ZN3awd7metrics24WiProxLeConnectionResult5ClearEv, 
                       __ZN3awd7metrics24WiProxLeConnectionResult8CopyFromERKS1_, 
                       __ZN3awd7metrics24WiProxLeConnectionResult9MergeFromERKS1_, 
                       __ZN3awd7metrics24WiProxLeConnectionResultC1ERKS1_, 
                       __ZN3awd7metrics24WiProxLeConnectionResultC1Ev, 
                       __ZN3awd7metrics24WiProxLeConnectionResultC2ERKS1_, 
                       __ZN3awd7metrics24WiProxLeConnectionResultC2Ev, 
                       __ZN3awd7metrics24WiProxLeConnectionResultD0Ev, 
                       __ZN3awd7metrics24WiProxLeConnectionResultD1Ev, 
                       __ZN3awd7metrics24WiProxLeConnectionResultD2Ev, 
                       __ZN3awd7metrics24WiProxLeDeviceDiscovered10SharedCtorEv, 
                       __ZN3awd7metrics24WiProxLeDeviceDiscovered10SharedDtorEv, 
                       __ZN3awd7metrics24WiProxLeDeviceDiscovered16_default_peerid_E, 
                       __ZN3awd7metrics24WiProxLeDeviceDiscovered16default_instanceEv, 
                       __ZN3awd7metrics24WiProxLeDeviceDiscovered16kRssiFieldNumberE, 
                       __ZN3awd7metrics24WiProxLeDeviceDiscovered16kTypeFieldNumberE, 
                       __ZN3awd7metrics24WiProxLeDeviceDiscovered17default_instance_E, 
                       __ZN3awd7metrics24WiProxLeDeviceDiscovered18kPeerIdFieldNumberE, 
                       __ZN3awd7metrics24WiProxLeDeviceDiscovered19_default_sessionid_E, 
                       __ZN3awd7metrics24WiProxLeDeviceDiscovered21CheckTypeAndMergeFromERKN6google8protobuf11MessageLiteE, 
                       __ZN3awd7metrics24WiProxLeDeviceDiscovered21InitAsDefaultInstanceEv, 
                       __ZN3awd7metrics24WiProxLeDeviceDiscovered21kSessionIdFieldNumberE, 
                       __ZN3awd7metrics24WiProxLeDeviceDiscovered21kTimestampFieldNumberE, 
                       __ZN3awd7metrics24WiProxLeDeviceDiscovered27MergePartialFromCodedStreamEPN6google8protobuf2io16CodedInputStreamE, 
                       __ZN3awd7metrics24WiProxLeDeviceDiscovered4SwapEPS1_, 
                       __ZN3awd7metrics24WiProxLeDeviceDiscovered5ClearEv, 
                       __ZN3awd7metrics24WiProxLeDeviceDiscovered8CopyFromERKS1_, 
                       __ZN3awd7metrics24WiProxLeDeviceDiscovered9MergeFromERKS1_, 
                       __ZN3awd7metrics24WiProxLeDeviceDiscoveredC1ERKS1_, 
                       __ZN3awd7metrics24WiProxLeDeviceDiscoveredC1Ev, 
                       __ZN3awd7metrics24WiProxLeDeviceDiscoveredC2ERKS1_, 
                       __ZN3awd7metrics24WiProxLeDeviceDiscoveredC2Ev, 
                       __ZN3awd7metrics24WiProxLeDeviceDiscoveredD0Ev, 
                       __ZN3awd7metrics24WiProxLeDeviceDiscoveredD1Ev, 
                       __ZN3awd7metrics24WiProxLeDeviceDiscoveredD2Ev, 
                       __ZN3awd7metrics24WiProxLeScanStartRequest10SharedCtorEv, 
                       __ZN3awd7metrics24WiProxLeScanStartRequest10SharedDtorEv, 
                       __ZN3awd7metrics24WiProxLeScanStartRequest15_default_peers_E, 
                       __ZN3awd7metrics24WiProxLeScanStartRequest16default_instanceEv, 
                       __ZN3awd7metrics24WiProxLeScanStartRequest16kTypeFieldNumberE, 
                       __ZN3awd7metrics24WiProxLeScanStartRequest17default_instance_E, 
                       __ZN3awd7metrics24WiProxLeScanStartRequest17kPeersFieldNumberE, 
                       __ZN3awd7metrics24WiProxLeScanStartRequest19_default_sessionid_E, 
                       __ZN3awd7metrics24WiProxLeScanStartRequest20kNumPeersFieldNumberE, 
                       __ZN3awd7metrics24WiProxLeScanStartRequest21CheckTypeAndMergeFromERKN6google8protobuf11MessageLiteE, 
                       __ZN3awd7metrics24WiProxLeScanStartRequest21InitAsDefaultInstanceEv, 
                       __ZN3awd7metrics24WiProxLeScanStartRequest21kSessionIdFieldNumberE, 
                       __ZN3awd7metrics24WiProxLeScanStartRequest21kTimestampFieldNumberE, 
                       __ZN3awd7metrics24WiProxLeScanStartRequest22kDataLengthFieldNumberE, 
                       __ZN3awd7metrics24WiProxLeScanStartRequest27MergePartialFromCodedStreamEPN6google8protobuf2io16CodedInputStreamE, 
                       __ZN3awd7metrics24WiProxLeScanStartRequest4SwapEPS1_, 
                       __ZN3awd7metrics24WiProxLeScanStartRequest5ClearEv, 
                       __ZN3awd7metrics24WiProxLeScanStartRequest8CopyFromERKS1_, 
                       __ZN3awd7metrics24WiProxLeScanStartRequest9MergeFromERKS1_, 
                       __ZN3awd7metrics24WiProxLeScanStartRequestC1ERKS1_, 
                       __ZN3awd7metrics24WiProxLeScanStartRequestC1Ev, 
                       __ZN3awd7metrics24WiProxLeScanStartRequestC2ERKS1_, 
                       __ZN3awd7metrics24WiProxLeScanStartRequestC2Ev, 
                       __ZN3awd7metrics24WiProxLeScanStartRequestD0Ev, 
                       __ZN3awd7metrics24WiProxLeScanStartRequestD1Ev, 
                       __ZN3awd7metrics24WiProxLeScanStartRequestD2Ev, 
                       __ZN3awd7metrics25WiProxLeAddServiceRequest10SharedCtorEv, 
                       __ZN3awd7metrics25WiProxLeAddServiceRequest10SharedDtorEv, 
                       __ZN3awd7metrics25WiProxLeAddServiceRequest16default_instanceEv, 
                       __ZN3awd7metrics25WiProxLeAddServiceRequest17default_instance_E, 
                       __ZN3awd7metrics25WiProxLeAddServiceRequest19_default_sessionid_E, 
                       __ZN3awd7metrics25WiProxLeAddServiceRequest21CheckTypeAndMergeFromERKN6google8protobuf11MessageLiteE, 
                       __ZN3awd7metrics25WiProxLeAddServiceRequest21InitAsDefaultInstanceEv, 
                       __ZN3awd7metrics25WiProxLeAddServiceRequest21_default_serviceuuid_E, 
                       __ZN3awd7metrics25WiProxLeAddServiceRequest21kSessionIdFieldNumberE, 
                       __ZN3awd7metrics25WiProxLeAddServiceRequest21kTimestampFieldNumberE, 
                       __ZN3awd7metrics25WiProxLeAddServiceRequest23kServiceUUIDFieldNumberE, 
                       __ZN3awd7metrics25WiProxLeAddServiceRequest27MergePartialFromCodedStreamEPN6google8protobuf2io16CodedInputStreamE, 
                       __ZN3awd7metrics25WiProxLeAddServiceRequest4SwapEPS1_, 
                       __ZN3awd7metrics25WiProxLeAddServiceRequest5ClearEv, 
                       __ZN3awd7metrics25WiProxLeAddServiceRequest8CopyFromERKS1_, 
                       __ZN3awd7metrics25WiProxLeAddServiceRequest9MergeFromERKS1_, 
                       __ZN3awd7metrics25WiProxLeAddServiceRequestC1ERKS1_, 
                       __ZN3awd7metrics25WiProxLeAddServiceRequestC1Ev, 
                       __ZN3awd7metrics25WiProxLeAddServiceRequestC2ERKS1_, 
                       __ZN3awd7metrics25WiProxLeAddServiceRequestC2Ev, 
                       __ZN3awd7metrics25WiProxLeAddServiceRequestD0Ev, 
                       __ZN3awd7metrics25WiProxLeAddServiceRequestD1Ev, 
                       __ZN3awd7metrics25WiProxLeAddServiceRequestD2Ev, 
                       __ZN3awd7metrics25WiProxLeConnectionRequest10SharedCtorEv, 
                       __ZN3awd7metrics25WiProxLeConnectionRequest10SharedDtorEv, 
                       __ZN3awd7metrics25WiProxLeConnectionRequest16_default_peerid_E, 
                       __ZN3awd7metrics25WiProxLeConnectionRequest16default_instanceEv, 
                       __ZN3awd7metrics25WiProxLeConnectionRequest17default_instance_E, 
                       __ZN3awd7metrics25WiProxLeConnectionRequest18kPeerIdFieldNumberE, 
                       __ZN3awd7metrics25WiProxLeConnectionRequest19_default_sessionid_E, 
                       __ZN3awd7metrics25WiProxLeConnectionRequest21CheckTypeAndMergeFromERKN6google8protobuf11MessageLiteE, 
                       __ZN3awd7metrics25WiProxLeConnectionRequest21InitAsDefaultInstanceEv, 
                       __ZN3awd7metrics25WiProxLeConnectionRequest21kSessionIdFieldNumberE, 
                       __ZN3awd7metrics25WiProxLeConnectionRequest21kTimestampFieldNumberE, 
                       __ZN3awd7metrics25WiProxLeConnectionRequest27MergePartialFromCodedStreamEPN6google8protobuf2io16CodedInputStreamE, 
                       __ZN3awd7metrics25WiProxLeConnectionRequest4SwapEPS1_, 
                       __ZN3awd7metrics25WiProxLeConnectionRequest5ClearEv, 
                       __ZN3awd7metrics25WiProxLeConnectionRequest8CopyFromERKS1_, 
                       __ZN3awd7metrics25WiProxLeConnectionRequest9MergeFromERKS1_, 
                       __ZN3awd7metrics25WiProxLeConnectionRequestC1ERKS1_, 
                       __ZN3awd7metrics25WiProxLeConnectionRequestC1Ev, 
                       __ZN3awd7metrics25WiProxLeConnectionRequestC2ERKS1_, 
                       __ZN3awd7metrics25WiProxLeConnectionRequestC2Ev, 
                       __ZN3awd7metrics25WiProxLeConnectionRequestD0Ev, 
                       __ZN3awd7metrics25WiProxLeConnectionRequestD1Ev, 
                       __ZN3awd7metrics25WiProxLeConnectionRequestD2Ev, 
                       __ZN3awd7metrics25WiProxLeReceiveDataResult10SharedCtorEv, 
                       __ZN3awd7metrics25WiProxLeReceiveDataResult10SharedDtorEv, 
                       __ZN3awd7metrics25WiProxLeReceiveDataResult16_default_peerid_E, 
                       __ZN3awd7metrics25WiProxLeReceiveDataResult16default_instanceEv, 
                       __ZN3awd7metrics25WiProxLeReceiveDataResult17default_instance_E, 
                       __ZN3awd7metrics25WiProxLeReceiveDataResult18kPeerIdFieldNumberE, 
                       __ZN3awd7metrics25WiProxLeReceiveDataResult19_default_sessionid_E, 
                       __ZN3awd7metrics25WiProxLeReceiveDataResult21CheckTypeAndMergeFromERKN6google8protobuf11MessageLiteE, 
                       __ZN3awd7metrics25WiProxLeReceiveDataResult21InitAsDefaultInstanceEv, 
                       __ZN3awd7metrics25WiProxLeReceiveDataResult21kSessionIdFieldNumberE, 
                       __ZN3awd7metrics25WiProxLeReceiveDataResult21kTimestampFieldNumberE, 
                       __ZN3awd7metrics25WiProxLeReceiveDataResult22kDataLengthFieldNumberE, 
                       __ZN3awd7metrics25WiProxLeReceiveDataResult27MergePartialFromCodedStreamEPN6google8protobuf2io16CodedInputStreamE, 
                       __ZN3awd7metrics25WiProxLeReceiveDataResult4SwapEPS1_, 
                       __ZN3awd7metrics25WiProxLeReceiveDataResult5ClearEv, 
                       __ZN3awd7metrics25WiProxLeReceiveDataResult8CopyFromERKS1_, 
                       __ZN3awd7metrics25WiProxLeReceiveDataResult9MergeFromERKS1_, 
                       __ZN3awd7metrics25WiProxLeReceiveDataResultC1ERKS1_, 
                       __ZN3awd7metrics25WiProxLeReceiveDataResultC1Ev, 
                       __ZN3awd7metrics25WiProxLeReceiveDataResultC2ERKS1_, 
                       __ZN3awd7metrics25WiProxLeReceiveDataResultC2Ev, 
                       __ZN3awd7metrics25WiProxLeReceiveDataResultD0Ev, 
                       __ZN3awd7metrics25WiProxLeReceiveDataResultD1Ev, 
                       __ZN3awd7metrics25WiProxLeReceiveDataResultD2Ev, 
                       __ZN3awd7metrics27WiProxLeAdvertiseStopResult10SharedCtorEv, 
                       __ZN3awd7metrics27WiProxLeAdvertiseStopResult10SharedDtorEv, 
                       __ZN3awd7metrics27WiProxLeAdvertiseStopResult16default_instanceEv, 
                       __ZN3awd7metrics27WiProxLeAdvertiseStopResult16kTypeFieldNumberE, 
                       __ZN3awd7metrics27WiProxLeAdvertiseStopResult17default_instance_E, 
                       __ZN3awd7metrics27WiProxLeAdvertiseStopResult19_default_sessionid_E, 
                       __ZN3awd7metrics27WiProxLeAdvertiseStopResult21CheckTypeAndMergeFromERKN6google8protobuf11MessageLiteE, 
                       __ZN3awd7metrics27WiProxLeAdvertiseStopResult21InitAsDefaultInstanceEv, 
                       __ZN3awd7metrics27WiProxLeAdvertiseStopResult21kSessionIdFieldNumberE, 
                       __ZN3awd7metrics27WiProxLeAdvertiseStopResult21kTimestampFieldNumberE, 
                       __ZN3awd7metrics27WiProxLeAdvertiseStopResult27MergePartialFromCodedStreamEPN6google8protobuf2io16CodedInputStreamE, 
                       __ZN3awd7metrics27WiProxLeAdvertiseStopResult4SwapEPS1_, 
                       __ZN3awd7metrics27WiProxLeAdvertiseStopResult5ClearEv, 
                       __ZN3awd7metrics27WiProxLeAdvertiseStopResult8CopyFromERKS1_, 
                       __ZN3awd7metrics27WiProxLeAdvertiseStopResult9MergeFromERKS1_, 
                       __ZN3awd7metrics27WiProxLeAdvertiseStopResultC1ERKS1_, 
                       __ZN3awd7metrics27WiProxLeAdvertiseStopResultC1Ev, 
                       __ZN3awd7metrics27WiProxLeAdvertiseStopResultC2ERKS1_, 
                       __ZN3awd7metrics27WiProxLeAdvertiseStopResultC2Ev, 
                       __ZN3awd7metrics27WiProxLeAdvertiseStopResultD0Ev, 
                       __ZN3awd7metrics27WiProxLeAdvertiseStopResultD1Ev, 
                       __ZN3awd7metrics27WiProxLeAdvertiseStopResultD2Ev, 
                       __ZN3awd7metrics27WiProxLeDisconnectionResult10SharedCtorEv, 
                       __ZN3awd7metrics27WiProxLeDisconnectionResult10SharedDtorEv, 
                       __ZN3awd7metrics27WiProxLeDisconnectionResult16_default_peerid_E, 
                       __ZN3awd7metrics27WiProxLeDisconnectionResult16default_instanceEv, 
                       __ZN3awd7metrics27WiProxLeDisconnectionResult17default_instance_E, 
                       __ZN3awd7metrics27WiProxLeDisconnectionResult18kPeerIdFieldNumberE, 
                       __ZN3awd7metrics27WiProxLeDisconnectionResult18kResultFieldNumberE, 
                       __ZN3awd7metrics27WiProxLeDisconnectionResult19_default_sessionid_E, 
                       __ZN3awd7metrics27WiProxLeDisconnectionResult21CheckTypeAndMergeFromERKN6google8protobuf11MessageLiteE, 
                       __ZN3awd7metrics27WiProxLeDisconnectionResult21InitAsDefaultInstanceEv, 
                       __ZN3awd7metrics27WiProxLeDisconnectionResult21kSessionIdFieldNumberE, 
                       __ZN3awd7metrics27WiProxLeDisconnectionResult21kTimestampFieldNumberE, 
                       __ZN3awd7metrics27WiProxLeDisconnectionResult22_default_resultstring_E, 
                       __ZN3awd7metrics27WiProxLeDisconnectionResult24kResultStringFieldNumberE, 
                       __ZN3awd7metrics27WiProxLeDisconnectionResult27MergePartialFromCodedStreamEPN6google8protobuf2io16CodedInputStreamE, 
                       __ZN3awd7metrics27WiProxLeDisconnectionResult4SwapEPS1_, 
                       __ZN3awd7metrics27WiProxLeDisconnectionResult5ClearEv, 
                       __ZN3awd7metrics27WiProxLeDisconnectionResult8CopyFromERKS1_, 
                       __ZN3awd7metrics27WiProxLeDisconnectionResult9MergeFromERKS1_, 
                       __ZN3awd7metrics27WiProxLeDisconnectionResultC1ERKS1_, 
                       __ZN3awd7metrics27WiProxLeDisconnectionResultC1Ev, 
                       __ZN3awd7metrics27WiProxLeDisconnectionResultC2ERKS1_, 
                       __ZN3awd7metrics27WiProxLeDisconnectionResultC2Ev, 
                       __ZN3awd7metrics27WiProxLeDisconnectionResultD0Ev, 
                       __ZN3awd7metrics27WiProxLeDisconnectionResultD1Ev, 
                       __ZN3awd7metrics27WiProxLeDisconnectionResultD2Ev, 
                       __ZN3awd7metrics28WiProxLeAdvertiseStartResult10SharedCtorEv, 
                       __ZN3awd7metrics28WiProxLeAdvertiseStartResult10SharedDtorEv, 
                       __ZN3awd7metrics28WiProxLeAdvertiseStartResult16default_instanceEv, 
                       __ZN3awd7metrics28WiProxLeAdvertiseStartResult16kTypeFieldNumberE, 
                       __ZN3awd7metrics28WiProxLeAdvertiseStartResult17default_instance_E, 
                       __ZN3awd7metrics28WiProxLeAdvertiseStartResult18kResultFieldNumberE, 
                       __ZN3awd7metrics28WiProxLeAdvertiseStartResult19_default_sessionid_E, 
                       __ZN3awd7metrics28WiProxLeAdvertiseStartResult21CheckTypeAndMergeFromERKN6google8protobuf11MessageLiteE, 
                       __ZN3awd7metrics28WiProxLeAdvertiseStartResult21InitAsDefaultInstanceEv, 
                       __ZN3awd7metrics28WiProxLeAdvertiseStartResult21kSessionIdFieldNumberE, 
                       __ZN3awd7metrics28WiProxLeAdvertiseStartResult21kTimestampFieldNumberE, 
                       __ZN3awd7metrics28WiProxLeAdvertiseStartResult22_default_resultstring_E, 
                       __ZN3awd7metrics28WiProxLeAdvertiseStartResult24kResultStringFieldNumberE, 
                       __ZN3awd7metrics28WiProxLeAdvertiseStartResult27MergePartialFromCodedStreamEPN6google8protobuf2io16CodedInputStreamE, 
                       __ZN3awd7metrics28WiProxLeAdvertiseStartResult4SwapEPS1_, 
                       __ZN3awd7metrics28WiProxLeAdvertiseStartResult5ClearEv, 
                       __ZN3awd7metrics28WiProxLeAdvertiseStartResult8CopyFromERKS1_, 
                       __ZN3awd7metrics28WiProxLeAdvertiseStartResult9MergeFromERKS1_, 
                       __ZN3awd7metrics28WiProxLeAdvertiseStartResultC1ERKS1_, 
                       __ZN3awd7metrics28WiProxLeAdvertiseStartResultC1Ev, 
                       __ZN3awd7metrics28WiProxLeAdvertiseStartResultC2ERKS1_, 
                       __ZN3awd7metrics28WiProxLeAdvertiseStartResultC2Ev, 
                       __ZN3awd7metrics28WiProxLeAdvertiseStartResultD0Ev, 
                       __ZN3awd7metrics28WiProxLeAdvertiseStartResultD1Ev, 
                       __ZN3awd7metrics28WiProxLeAdvertiseStartResultD2Ev, 
                       __ZN3awd7metrics28WiProxLeAdvertiseStopRequest10SharedCtorEv, 
                       __ZN3awd7metrics28WiProxLeAdvertiseStopRequest10SharedDtorEv, 
                       __ZN3awd7metrics28WiProxLeAdvertiseStopRequest16default_instanceEv, 
                       __ZN3awd7metrics28WiProxLeAdvertiseStopRequest16kTypeFieldNumberE, 
                       __ZN3awd7metrics28WiProxLeAdvertiseStopRequest17default_instance_E, 
                       __ZN3awd7metrics28WiProxLeAdvertiseStopRequest19_default_sessionid_E, 
                       __ZN3awd7metrics28WiProxLeAdvertiseStopRequest21CheckTypeAndMergeFromERKN6google8protobuf11MessageLiteE, 
                       __ZN3awd7metrics28WiProxLeAdvertiseStopRequest21InitAsDefaultInstanceEv, 
                       __ZN3awd7metrics28WiProxLeAdvertiseStopRequest21kSessionIdFieldNumberE, 
                       __ZN3awd7metrics28WiProxLeAdvertiseStopRequest21kTimestampFieldNumberE, 
                       __ZN3awd7metrics28WiProxLeAdvertiseStopRequest27MergePartialFromCodedStreamEPN6google8protobuf2io16CodedInputStreamE, 
                       __ZN3awd7metrics28WiProxLeAdvertiseStopRequest4SwapEPS1_, 
                       __ZN3awd7metrics28WiProxLeAdvertiseStopRequest5ClearEv, 
                       __ZN3awd7metrics28WiProxLeAdvertiseStopRequest8CopyFromERKS1_, 
                       __ZN3awd7metrics28WiProxLeAdvertiseStopRequest9MergeFromERKS1_, 
                       __ZN3awd7metrics28WiProxLeAdvertiseStopRequestC1ERKS1_, 
                       __ZN3awd7metrics28WiProxLeAdvertiseStopRequestC1Ev, 
                       __ZN3awd7metrics28WiProxLeAdvertiseStopRequestC2ERKS1_, 
                       __ZN3awd7metrics28WiProxLeAdvertiseStopRequestC2Ev, 
                       __ZN3awd7metrics28WiProxLeAdvertiseStopRequestD0Ev, 
                       __ZN3awd7metrics28WiProxLeAdvertiseStopRequestD1Ev, 
                       __ZN3awd7metrics28WiProxLeAdvertiseStopRequestD2Ev, 
                       __ZN3awd7metrics28WiProxLeDisconnectionRequest10SharedCtorEv, 
                       __ZN3awd7metrics28WiProxLeDisconnectionRequest10SharedDtorEv, 
                       __ZN3awd7metrics28WiProxLeDisconnectionRequest16_default_peerid_E, 
                       __ZN3awd7metrics28WiProxLeDisconnectionRequest16default_instanceEv, 
                       __ZN3awd7metrics28WiProxLeDisconnectionRequest17default_instance_E, 
                       __ZN3awd7metrics28WiProxLeDisconnectionRequest18kPeerIdFieldNumberE, 
                       __ZN3awd7metrics28WiProxLeDisconnectionRequest19_default_sessionid_E, 
                       __ZN3awd7metrics28WiProxLeDisconnectionRequest21CheckTypeAndMergeFromERKN6google8protobuf11MessageLiteE, 
                       __ZN3awd7metrics28WiProxLeDisconnectionRequest21InitAsDefaultInstanceEv, 
                       __ZN3awd7metrics28WiProxLeDisconnectionRequest21kSessionIdFieldNumberE, 
                       __ZN3awd7metrics28WiProxLeDisconnectionRequest21kTimestampFieldNumberE, 
                       __ZN3awd7metrics28WiProxLeDisconnectionRequest27MergePartialFromCodedStreamEPN6google8protobuf2io16CodedInputStreamE, 
                       __ZN3awd7metrics28WiProxLeDisconnectionRequest4SwapEPS1_, 
                       __ZN3awd7metrics28WiProxLeDisconnectionRequest5ClearEv, 
                       __ZN3awd7metrics28WiProxLeDisconnectionRequest8CopyFromERKS1_, 
                       __ZN3awd7metrics28WiProxLeDisconnectionRequest9MergeFromERKS1_, 
                       __ZN3awd7metrics28WiProxLeDisconnectionRequestC1ERKS1_, 
                       __ZN3awd7metrics28WiProxLeDisconnectionRequestC1Ev, 
                       __ZN3awd7metrics28WiProxLeDisconnectionRequestC2ERKS1_, 
                       __ZN3awd7metrics28WiProxLeDisconnectionRequestC2Ev, 
                       __ZN3awd7metrics28WiProxLeDisconnectionRequestD0Ev, 
                       __ZN3awd7metrics28WiProxLeDisconnectionRequestD1Ev, 
                       __ZN3awd7metrics28WiProxLeDisconnectionRequestD2Ev, 
                       __ZN3awd7metrics28WiProxLeRemoveServiceRequest10SharedCtorEv, 
                       __ZN3awd7metrics28WiProxLeRemoveServiceRequest10SharedDtorEv, 
                       __ZN3awd7metrics28WiProxLeRemoveServiceRequest16default_instanceEv, 
                       __ZN3awd7metrics28WiProxLeRemoveServiceRequest17default_instance_E, 
                       __ZN3awd7metrics28WiProxLeRemoveServiceRequest19_default_sessionid_E, 
                       __ZN3awd7metrics28WiProxLeRemoveServiceRequest21CheckTypeAndMergeFromERKN6google8protobuf11MessageLiteE, 
                       __ZN3awd7metrics28WiProxLeRemoveServiceRequest21InitAsDefaultInstanceEv, 
                       __ZN3awd7metrics28WiProxLeRemoveServiceRequest21_default_serviceuuid_E, 
                       __ZN3awd7metrics28WiProxLeRemoveServiceRequest21kSessionIdFieldNumberE, 
                       __ZN3awd7metrics28WiProxLeRemoveServiceRequest21kTimestampFieldNumberE, 
                       __ZN3awd7metrics28WiProxLeRemoveServiceRequest23kServiceUUIDFieldNumberE, 
                       __ZN3awd7metrics28WiProxLeRemoveServiceRequest27MergePartialFromCodedStreamEPN6google8protobuf2io16CodedInputStreamE, 
                       __ZN3awd7metrics28WiProxLeRemoveServiceRequest4SwapEPS1_, 
                       __ZN3awd7metrics28WiProxLeRemoveServiceRequest5ClearEv, 
                       __ZN3awd7metrics28WiProxLeRemoveServiceRequest8CopyFromERKS1_, 
                       __ZN3awd7metrics28WiProxLeRemoveServiceRequest9MergeFromERKS1_, 
                       __ZN3awd7metrics28WiProxLeRemoveServiceRequestC1ERKS1_, 
                       __ZN3awd7metrics28WiProxLeRemoveServiceRequestC1Ev, 
                       __ZN3awd7metrics28WiProxLeRemoveServiceRequestC2ERKS1_, 
                       __ZN3awd7metrics28WiProxLeRemoveServiceRequestC2Ev, 
                       __ZN3awd7metrics28WiProxLeRemoveServiceRequestD0Ev, 
                       __ZN3awd7metrics28WiProxLeRemoveServiceRequestD1Ev, 
                       __ZN3awd7metrics28WiProxLeRemoveServiceRequestD2Ev, 
                       __ZN3awd7metrics29WiProxLeAdvertiseStartRequest10SharedCtorEv, 
                       __ZN3awd7metrics29WiProxLeAdvertiseStartRequest10SharedDtorEv, 
                       __ZN3awd7metrics29WiProxLeAdvertiseStartRequest16default_instanceEv, 
                       __ZN3awd7metrics29WiProxLeAdvertiseStartRequest16kTypeFieldNumberE, 
                       __ZN3awd7metrics29WiProxLeAdvertiseStartRequest17default_instance_E, 
                       __ZN3awd7metrics29WiProxLeAdvertiseStartRequest19_default_sessionid_E, 
                       __ZN3awd7metrics29WiProxLeAdvertiseStartRequest21CheckTypeAndMergeFromERKN6google8protobuf11MessageLiteE, 
                       __ZN3awd7metrics29WiProxLeAdvertiseStartRequest21InitAsDefaultInstanceEv, 
                       __ZN3awd7metrics29WiProxLeAdvertiseStartRequest21kSessionIdFieldNumberE, 
                       __ZN3awd7metrics29WiProxLeAdvertiseStartRequest21kTimestampFieldNumberE, 
                       __ZN3awd7metrics29WiProxLeAdvertiseStartRequest22kDataLengthFieldNumberE, 
                       __ZN3awd7metrics29WiProxLeAdvertiseStartRequest27MergePartialFromCodedStreamEPN6google8protobuf2io16CodedInputStreamE, 
                       __ZN3awd7metrics29WiProxLeAdvertiseStartRequest4SwapEPS1_, 
                       __ZN3awd7metrics29WiProxLeAdvertiseStartRequest5ClearEv, 
                       __ZN3awd7metrics29WiProxLeAdvertiseStartRequest8CopyFromERKS1_, 
                       __ZN3awd7metrics29WiProxLeAdvertiseStartRequest9MergeFromERKS1_, 
                       __ZN3awd7metrics29WiProxLeAdvertiseStartRequestC1ERKS1_, 
                       __ZN3awd7metrics29WiProxLeAdvertiseStartRequestC1Ev, 
                       __ZN3awd7metrics29WiProxLeAdvertiseStartRequestC2ERKS1_, 
                       __ZN3awd7metrics29WiProxLeAdvertiseStartRequestC2Ev, 
                       __ZN3awd7metrics29WiProxLeAdvertiseStartRequestD0Ev, 
                       __ZN3awd7metrics29WiProxLeAdvertiseStartRequestD1Ev, 
                       __ZN3awd7metrics29WiProxLeAdvertiseStartRequestD2Ev, 
                       __ZN3awd7metrics30WiProxLeStopTrackingPeerResult10SharedCtorEv, 
                       __ZN3awd7metrics30WiProxLeStopTrackingPeerResult10SharedDtorEv, 
                       __ZN3awd7metrics30WiProxLeStopTrackingPeerResult16_default_peerid_E, 
                       __ZN3awd7metrics30WiProxLeStopTrackingPeerResult16default_instanceEv, 
                       __ZN3awd7metrics30WiProxLeStopTrackingPeerResult16kTypeFieldNumberE, 
                       __ZN3awd7metrics30WiProxLeStopTrackingPeerResult17default_instance_E, 
                       __ZN3awd7metrics30WiProxLeStopTrackingPeerResult18kPeerIdFieldNumberE, 
                       __ZN3awd7metrics30WiProxLeStopTrackingPeerResult18kResultFieldNumberE, 
                       __ZN3awd7metrics30WiProxLeStopTrackingPeerResult19_default_sessionid_E, 
                       __ZN3awd7metrics30WiProxLeStopTrackingPeerResult21CheckTypeAndMergeFromERKN6google8protobuf11MessageLiteE, 
                       __ZN3awd7metrics30WiProxLeStopTrackingPeerResult21InitAsDefaultInstanceEv, 
                       __ZN3awd7metrics30WiProxLeStopTrackingPeerResult21kSessionIdFieldNumberE, 
                       __ZN3awd7metrics30WiProxLeStopTrackingPeerResult21kTimestampFieldNumberE, 
                       __ZN3awd7metrics30WiProxLeStopTrackingPeerResult22_default_resultstring_E, 
                       __ZN3awd7metrics30WiProxLeStopTrackingPeerResult24kResultStringFieldNumberE, 
                       __ZN3awd7metrics30WiProxLeStopTrackingPeerResult27MergePartialFromCodedStreamEPN6google8protobuf2io16CodedInputStreamE, 
                       __ZN3awd7metrics30WiProxLeStopTrackingPeerResult4SwapEPS1_, 
                       __ZN3awd7metrics30WiProxLeStopTrackingPeerResult5ClearEv, 
                       __ZN3awd7metrics30WiProxLeStopTrackingPeerResult8CopyFromERKS1_, 
                       __ZN3awd7metrics30WiProxLeStopTrackingPeerResult9MergeFromERKS1_, 
                       __ZN3awd7metrics30WiProxLeStopTrackingPeerResultC1ERKS1_, 
                       __ZN3awd7metrics30WiProxLeStopTrackingPeerResultC1Ev, 
                       __ZN3awd7metrics30WiProxLeStopTrackingPeerResultC2ERKS1_, 
                       __ZN3awd7metrics30WiProxLeStopTrackingPeerResultC2Ev, 
                       __ZN3awd7metrics30WiProxLeStopTrackingPeerResultD0Ev, 
                       __ZN3awd7metrics30WiProxLeStopTrackingPeerResultD1Ev, 
                       __ZN3awd7metrics30WiProxLeStopTrackingPeerResultD2Ev, 
                       __ZN3awd7metrics31WiProxLeStartTrackingPeerResult10SharedCtorEv, 
                       __ZN3awd7metrics31WiProxLeStartTrackingPeerResult10SharedDtorEv, 
                       __ZN3awd7metrics31WiProxLeStartTrackingPeerResult16_default_peerid_E, 
                       __ZN3awd7metrics31WiProxLeStartTrackingPeerResult16default_instanceEv, 
                       __ZN3awd7metrics31WiProxLeStartTrackingPeerResult16kTypeFieldNumberE, 
                       __ZN3awd7metrics31WiProxLeStartTrackingPeerResult17default_instance_E, 
                       __ZN3awd7metrics31WiProxLeStartTrackingPeerResult18kPeerIdFieldNumberE, 
                       __ZN3awd7metrics31WiProxLeStartTrackingPeerResult18kResultFieldNumberE, 
                       __ZN3awd7metrics31WiProxLeStartTrackingPeerResult19_default_sessionid_E, 
                       __ZN3awd7metrics31WiProxLeStartTrackingPeerResult21CheckTypeAndMergeFromERKN6google8protobuf11MessageLiteE, 
                       __ZN3awd7metrics31WiProxLeStartTrackingPeerResult21InitAsDefaultInstanceEv, 
                       __ZN3awd7metrics31WiProxLeStartTrackingPeerResult21kSessionIdFieldNumberE, 
                       __ZN3awd7metrics31WiProxLeStartTrackingPeerResult21kTimestampFieldNumberE, 
                       __ZN3awd7metrics31WiProxLeStartTrackingPeerResult22_default_resultstring_E, 
                       __ZN3awd7metrics31WiProxLeStartTrackingPeerResult24kResultStringFieldNumberE, 
                       __ZN3awd7metrics31WiProxLeStartTrackingPeerResult27MergePartialFromCodedStreamEPN6google8protobuf2io16CodedInputStreamE, 
                       __ZN3awd7metrics31WiProxLeStartTrackingPeerResult4SwapEPS1_, 
                       __ZN3awd7metrics31WiProxLeStartTrackingPeerResult5ClearEv, 
                       __ZN3awd7metrics31WiProxLeStartTrackingPeerResult8CopyFromERKS1_, 
                       __ZN3awd7metrics31WiProxLeStartTrackingPeerResult9MergeFromERKS1_, 
                       __ZN3awd7metrics31WiProxLeStartTrackingPeerResultC1ERKS1_, 
                       __ZN3awd7metrics31WiProxLeStartTrackingPeerResultC1Ev, 
                       __ZN3awd7metrics31WiProxLeStartTrackingPeerResultC2ERKS1_, 
                       __ZN3awd7metrics31WiProxLeStartTrackingPeerResultC2Ev, 
                       __ZN3awd7metrics31WiProxLeStartTrackingPeerResultD0Ev, 
                       __ZN3awd7metrics31WiProxLeStartTrackingPeerResultD1Ev, 
                       __ZN3awd7metrics31WiProxLeStartTrackingPeerResultD2Ev, 
                       __ZN3awd7metrics42protobuf_AddDesc_WirelessProximity_2eprotoEv, 
                       __ZN3awd7metrics47protobuf_ShutdownFile_WirelessProximity_2eprotoEv, 
                       __ZN3awd7metrics56static_descriptor_initializer_WirelessProximity_2eproto_E, 
                       __ZNK3awd7metrics18WiProxLeDeviceLost11GetTypeNameEv, 
                       __ZNK3awd7metrics18WiProxLeDeviceLost13IsInitializedEv, 
                       __ZNK3awd7metrics18WiProxLeDeviceLost13SetCachedSizeEi, 
                       __ZNK3awd7metrics18WiProxLeDeviceLost24SerializeWithCachedSizesEPN6google8protobuf2io17CodedOutputStreamE, 
                       __ZNK3awd7metrics18WiProxLeDeviceLost3NewEv, __ZNK3awd7metrics18WiProxLeDeviceLost8ByteSizeEv, 
                       __ZNK3awd7metrics20WiProxBluetoothState11GetTypeNameEv, 
                       __ZNK3awd7metrics20WiProxBluetoothState13IsInitializedEv, 
                       __ZNK3awd7metrics20WiProxBluetoothState13SetCachedSizeEi, 
                       __ZNK3awd7metrics20WiProxBluetoothState24SerializeWithCachedSizesEPN6google8protobuf2io17CodedOutputStreamE, 
                       __ZNK3awd7metrics20WiProxBluetoothState3NewEv, __ZNK3awd7metrics20WiProxBluetoothState8ByteSizeEv, 
                       __ZNK3awd7metrics22WiProxLeScanStopResult11GetTypeNameEv, 
                       __ZNK3awd7metrics22WiProxLeScanStopResult13IsInitializedEv, 
                       __ZNK3awd7metrics22WiProxLeScanStopResult13SetCachedSizeEi, 
                       __ZNK3awd7metrics22WiProxLeScanStopResult24SerializeWithCachedSizesEPN6google8protobuf2io17CodedOutputStreamE, 
                       __ZNK3awd7metrics22WiProxLeScanStopResult3NewEv, 
                       __ZNK3awd7metrics22WiProxLeScanStopResult8ByteSizeEv, 
                       __ZNK3awd7metrics22WiProxLeSendDataResult11GetTypeNameEv, 
                       __ZNK3awd7metrics22WiProxLeSendDataResult13IsInitializedEv, 
                       __ZNK3awd7metrics22WiProxLeSendDataResult13SetCachedSizeEi, 
                       __ZNK3awd7metrics22WiProxLeSendDataResult24SerializeWithCachedSizesEPN6google8protobuf2io17CodedOutputStreamE, 
                       __ZNK3awd7metrics22WiProxLeSendDataResult3NewEv, 
                       __ZNK3awd7metrics22WiProxLeSendDataResult8ByteSizeEv, 
                       __ZNK3awd7metrics23WiProxLeScanStartResult11GetTypeNameEv, 
                       __ZNK3awd7metrics23WiProxLeScanStartResult13IsInitializedEv, 
                       __ZNK3awd7metrics23WiProxLeScanStartResult13SetCachedSizeEi, 
                       __ZNK3awd7metrics23WiProxLeScanStartResult24SerializeWithCachedSizesEPN6google8protobuf2io17CodedOutputStreamE, 
                       __ZNK3awd7metrics23WiProxLeScanStartResult3NewEv, 
                       __ZNK3awd7metrics23WiProxLeScanStartResult8ByteSizeEv, 
                       __ZNK3awd7metrics23WiProxLeScanStopRequest11GetTypeNameEv, 
                       __ZNK3awd7metrics23WiProxLeScanStopRequest13IsInitializedEv, 
                       __ZNK3awd7metrics23WiProxLeScanStopRequest13SetCachedSizeEi, 
                       __ZNK3awd7metrics23WiProxLeScanStopRequest24SerializeWithCachedSizesEPN6google8protobuf2io17CodedOutputStreamE, 
                       __ZNK3awd7metrics23WiProxLeScanStopRequest3NewEv, 
                       __ZNK3awd7metrics23WiProxLeScanStopRequest8ByteSizeEv, 
                       __ZNK3awd7metrics23WiProxLeSendDataRequest11GetTypeNameEv, 
                       __ZNK3awd7metrics23WiProxLeSendDataRequest13IsInitializedEv, 
                       __ZNK3awd7metrics23WiProxLeSendDataRequest13SetCachedSizeEi, 
                       __ZNK3awd7metrics23WiProxLeSendDataRequest24SerializeWithCachedSizesEPN6google8protobuf2io17CodedOutputStreamE, 
                       __ZNK3awd7metrics23WiProxLeSendDataRequest3NewEv, 
                       __ZNK3awd7metrics23WiProxLeSendDataRequest8ByteSizeEv, 
                       __ZNK3awd7metrics24WiProxLeAddServiceResult11GetTypeNameEv, 
                       __ZNK3awd7metrics24WiProxLeAddServiceResult13IsInitializedEv, 
                       __ZNK3awd7metrics24WiProxLeAddServiceResult13SetCachedSizeEi, 
                       __ZNK3awd7metrics24WiProxLeAddServiceResult24SerializeWithCachedSizesEPN6google8protobuf2io17CodedOutputStreamE, 
                       __ZNK3awd7metrics24WiProxLeAddServiceResult3NewEv, 
                       __ZNK3awd7metrics24WiProxLeAddServiceResult8ByteSizeEv, 
                       __ZNK3awd7metrics24WiProxLeConnectionResult11GetTypeNameEv, 
                       __ZNK3awd7metrics24WiProxLeConnectionResult13IsInitializedEv, 
                       __ZNK3awd7metrics24WiProxLeConnectionResult13SetCachedSizeEi, 
                       __ZNK3awd7metrics24WiProxLeConnectionResult24SerializeWithCachedSizesEPN6google8protobuf2io17CodedOutputStreamE, 
                       __ZNK3awd7metrics24WiProxLeConnectionResult3NewEv, 
                       __ZNK3awd7metrics24WiProxLeConnectionResult8ByteSizeEv, 
                       __ZNK3awd7metrics24WiProxLeDeviceDiscovered11GetTypeNameEv, 
                       __ZNK3awd7metrics24WiProxLeDeviceDiscovered13IsInitializedEv, 
                       __ZNK3awd7metrics24WiProxLeDeviceDiscovered13SetCachedSizeEi, 
                       __ZNK3awd7metrics24WiProxLeDeviceDiscovered24SerializeWithCachedSizesEPN6google8protobuf2io17CodedOutputStreamE, 
                       __ZNK3awd7metrics24WiProxLeDeviceDiscovered3NewEv, 
                       __ZNK3awd7metrics24WiProxLeDeviceDiscovered8ByteSizeEv, 
                       __ZNK3awd7metrics24WiProxLeScanStartRequest11GetTypeNameEv, 
                       __ZNK3awd7metrics24WiProxLeScanStartRequest13IsInitializedEv, 
                       __ZNK3awd7metrics24WiProxLeScanStartRequest13SetCachedSizeEi, 
                       __ZNK3awd7metrics24WiProxLeScanStartRequest24SerializeWithCachedSizesEPN6google8protobuf2io17CodedOutputStreamE, 
                       __ZNK3awd7metrics24WiProxLeScanStartRequest3NewEv, 
                       __ZNK3awd7metrics24WiProxLeScanStartRequest8ByteSizeEv, 
                       __ZNK3awd7metrics25WiProxLeAddServiceRequest11GetTypeNameEv, 
                       __ZNK3awd7metrics25WiProxLeAddServiceRequest13IsInitializedEv, 
                       __ZNK3awd7metrics25WiProxLeAddServiceRequest13SetCachedSizeEi, 
                       __ZNK3awd7metrics25WiProxLeAddServiceRequest24SerializeWithCachedSizesEPN6google8protobuf2io17CodedOutputStreamE, 
                       __ZNK3awd7metrics25WiProxLeAddServiceRequest3NewEv, 
                       __ZNK3awd7metrics25WiProxLeAddServiceRequest8ByteSizeEv, 
                       __ZNK3awd7metrics25WiProxLeConnectionRequest11GetTypeNameEv, 
                       __ZNK3awd7metrics25WiProxLeConnectionRequest13IsInitializedEv, 
                       __ZNK3awd7metrics25WiProxLeConnectionRequest13SetCachedSizeEi, 
                       __ZNK3awd7metrics25WiProxLeConnectionRequest24SerializeWithCachedSizesEPN6google8protobuf2io17CodedOutputStreamE, 
                       __ZNK3awd7metrics25WiProxLeConnectionRequest3NewEv, 
                       __ZNK3awd7metrics25WiProxLeConnectionRequest8ByteSizeEv, 
                       __ZNK3awd7metrics25WiProxLeReceiveDataResult11GetTypeNameEv, 
                       __ZNK3awd7metrics25WiProxLeReceiveDataResult13IsInitializedEv, 
                       __ZNK3awd7metrics25WiProxLeReceiveDataResult13SetCachedSizeEi, 
                       __ZNK3awd7metrics25WiProxLeReceiveDataResult24SerializeWithCachedSizesEPN6google8protobuf2io17CodedOutputStreamE, 
                       __ZNK3awd7metrics25WiProxLeReceiveDataResult3NewEv, 
                       __ZNK3awd7metrics25WiProxLeReceiveDataResult8ByteSizeEv, 
                       __ZNK3awd7metrics27WiProxLeAdvertiseStopResult11GetTypeNameEv, 
                       __ZNK3awd7metrics27WiProxLeAdvertiseStopResult13IsInitializedEv, 
                       __ZNK3awd7metrics27WiProxLeAdvertiseStopResult13SetCachedSizeEi, 
                       __ZNK3awd7metrics27WiProxLeAdvertiseStopResult24SerializeWithCachedSizesEPN6google8protobuf2io17CodedOutputStreamE, 
                       __ZNK3awd7metrics27WiProxLeAdvertiseStopResult3NewEv, 
                       __ZNK3awd7metrics27WiProxLeAdvertiseStopResult8ByteSizeEv, 
                       __ZNK3awd7metrics27WiProxLeDisconnectionResult11GetTypeNameEv, 
                       __ZNK3awd7metrics27WiProxLeDisconnectionResult13IsInitializedEv, 
                       __ZNK3awd7metrics27WiProxLeDisconnectionResult13SetCachedSizeEi, 
                       __ZNK3awd7metrics27WiProxLeDisconnectionResult24SerializeWithCachedSizesEPN6google8protobuf2io17CodedOutputStreamE, 
                       __ZNK3awd7metrics27WiProxLeDisconnectionResult3NewEv, 
                       __ZNK3awd7metrics27WiProxLeDisconnectionResult8ByteSizeEv, 
                       __ZNK3awd7metrics28WiProxLeAdvertiseStartResult11GetTypeNameEv, 
                       __ZNK3awd7metrics28WiProxLeAdvertiseStartResult13IsInitializedEv, 
                       __ZNK3awd7metrics28WiProxLeAdvertiseStartResult13SetCachedSizeEi, 
                       __ZNK3awd7metrics28WiProxLeAdvertiseStartResult24SerializeWithCachedSizesEPN6google8protobuf2io17CodedOutputStreamE, 
                       __ZNK3awd7metrics28WiProxLeAdvertiseStartResult3NewEv, 
                       __ZNK3awd7metrics28WiProxLeAdvertiseStartResult8ByteSizeEv, 
                       __ZNK3awd7metrics28WiProxLeAdvertiseStopRequest11GetTypeNameEv, 
                       __ZNK3awd7metrics28WiProxLeAdvertiseStopRequest13IsInitializedEv, 
                       __ZNK3awd7metrics28WiProxLeAdvertiseStopRequest13SetCachedSizeEi, 
                       __ZNK3awd7metrics28WiProxLeAdvertiseStopRequest24SerializeWithCachedSizesEPN6google8protobuf2io17CodedOutputStreamE, 
                       __ZNK3awd7metrics28WiProxLeAdvertiseStopRequest3NewEv, 
                       __ZNK3awd7metrics28WiProxLeAdvertiseStopRequest8ByteSizeEv, 
                       __ZNK3awd7metrics28WiProxLeDisconnectionRequest11GetTypeNameEv, 
                       __ZNK3awd7metrics28WiProxLeDisconnectionRequest13IsInitializedEv, 
                       __ZNK3awd7metrics28WiProxLeDisconnectionRequest13SetCachedSizeEi, 
                       __ZNK3awd7metrics28WiProxLeDisconnectionRequest24SerializeWithCachedSizesEPN6google8protobuf2io17CodedOutputStreamE, 
                       __ZNK3awd7metrics28WiProxLeDisconnectionRequest3NewEv, 
                       __ZNK3awd7metrics28WiProxLeDisconnectionRequest8ByteSizeEv, 
                       __ZNK3awd7metrics28WiProxLeRemoveServiceRequest11GetTypeNameEv, 
                       __ZNK3awd7metrics28WiProxLeRemoveServiceRequest13IsInitializedEv, 
                       __ZNK3awd7metrics28WiProxLeRemoveServiceRequest13SetCachedSizeEi, 
                       __ZNK3awd7metrics28WiProxLeRemoveServiceRequest24SerializeWithCachedSizesEPN6google8protobuf2io17CodedOutputStreamE, 
                       __ZNK3awd7metrics28WiProxLeRemoveServiceRequest3NewEv, 
                       __ZNK3awd7metrics28WiProxLeRemoveServiceRequest8ByteSizeEv, 
                       __ZNK3awd7metrics29WiProxLeAdvertiseStartRequest11GetTypeNameEv, 
                       __ZNK3awd7metrics29WiProxLeAdvertiseStartRequest13IsInitializedEv, 
                       __ZNK3awd7metrics29WiProxLeAdvertiseStartRequest13SetCachedSizeEi, 
                       __ZNK3awd7metrics29WiProxLeAdvertiseStartRequest24SerializeWithCachedSizesEPN6google8protobuf2io17CodedOutputStreamE, 
                       __ZNK3awd7metrics29WiProxLeAdvertiseStartRequest3NewEv, 
                       __ZNK3awd7metrics29WiProxLeAdvertiseStartRequest8ByteSizeEv, 
                       __ZNK3awd7metrics30WiProxLeStopTrackingPeerResult11GetTypeNameEv, 
                       __ZNK3awd7metrics30WiProxLeStopTrackingPeerResult13IsInitializedEv, 
                       __ZNK3awd7metrics30WiProxLeStopTrackingPeerResult13SetCachedSizeEi, 
                       __ZNK3awd7metrics30WiProxLeStopTrackingPeerResult24SerializeWithCachedSizesEPN6google8protobuf2io17CodedOutputStreamE, 
                       __ZNK3awd7metrics30WiProxLeStopTrackingPeerResult3NewEv, 
                       __ZNK3awd7metrics30WiProxLeStopTrackingPeerResult8ByteSizeEv, 
                       __ZNK3awd7metrics31WiProxLeStartTrackingPeerResult11GetTypeNameEv, 
                       __ZNK3awd7metrics31WiProxLeStartTrackingPeerResult13IsInitializedEv, 
                       __ZNK3awd7metrics31WiProxLeStartTrackingPeerResult13SetCachedSizeEi, 
                       __ZNK3awd7metrics31WiProxLeStartTrackingPeerResult24SerializeWithCachedSizesEPN6google8protobuf2io17CodedOutputStreamE, 
                       __ZNK3awd7metrics31WiProxLeStartTrackingPeerResult3NewEv, 
                       __ZNK3awd7metrics31WiProxLeStartTrackingPeerResult8ByteSizeEv, 
                       __ZTIN3awd7metrics18WiProxLeDeviceLostE, __ZTIN3awd7metrics20WiProxBluetoothStateE, 
                       __ZTIN3awd7metrics22WiProxLeScanStopResultE, __ZTIN3awd7metrics22WiProxLeSendDataResultE, 
                       __ZTIN3awd7metrics23WiProxLeScanStartResultE, __ZTIN3awd7metrics23WiProxLeScanStopRequestE, 
                       __ZTIN3awd7metrics23WiProxLeSendDataRequestE, __ZTIN3awd7metrics24WiProxLeAddServiceResultE, 
                       __ZTIN3awd7metrics24WiProxLeConnectionResultE, __ZTIN3awd7metrics24WiProxLeDeviceDiscoveredE, 
                       __ZTIN3awd7metrics24WiProxLeScanStartRequestE, __ZTIN3awd7metrics25WiProxLeAddServiceRequestE, 
                       __ZTIN3awd7metrics25WiProxLeConnectionRequestE, 
                       __ZTIN3awd7metrics25WiProxLeReceiveDataResultE, 
                       __ZTIN3awd7metrics27WiProxLeAdvertiseStopResultE, 
                       __ZTIN3awd7metrics27WiProxLeDisconnectionResultE, 
                       __ZTIN3awd7metrics28WiProxLeAdvertiseStartResultE, 
                       __ZTIN3awd7metrics28WiProxLeAdvertiseStopRequestE, 
                       __ZTIN3awd7metrics28WiProxLeDisconnectionRequestE, 
                       __ZTIN3awd7metrics28WiProxLeRemoveServiceRequestE, 
                       __ZTIN3awd7metrics29WiProxLeAdvertiseStartRequestE, 
                       __ZTIN3awd7metrics30WiProxLeStopTrackingPeerResultE, 
                       __ZTIN3awd7metrics31WiProxLeStartTrackingPeerResultE, 
                       __ZTSN3awd7metrics18WiProxLeDeviceLostE, __ZTSN3awd7metrics20WiProxBluetoothStateE, 
                       __ZTSN3awd7metrics22WiProxLeScanStopResultE, __ZTSN3awd7metrics22WiProxLeSendDataResultE, 
                       __ZTSN3awd7metrics23WiProxLeScanStartResultE, __ZTSN3awd7metrics23WiProxLeScanStopRequestE, 
                       __ZTSN3awd7metrics23WiProxLeSendDataRequestE, __ZTSN3awd7metrics24WiProxLeAddServiceResultE, 
                       __ZTSN3awd7metrics24WiProxLeConnectionResultE, __ZTSN3awd7metrics24WiProxLeDeviceDiscoveredE, 
                       __ZTSN3awd7metrics24WiProxLeScanStartRequestE, __ZTSN3awd7metrics25WiProxLeAddServiceRequestE, 
                       __ZTSN3awd7metrics25WiProxLeConnectionRequestE, 
                       __ZTSN3awd7metrics25WiProxLeReceiveDataResultE, 
                       __ZTSN3awd7metrics27WiProxLeAdvertiseStopResultE, 
                       __ZTSN3awd7metrics27WiProxLeDisconnectionResultE, 
                       __ZTSN3awd7metrics28WiProxLeAdvertiseStartResultE, 
                       __ZTSN3awd7metrics28WiProxLeAdvertiseStopRequestE, 
                       __ZTSN3awd7metrics28WiProxLeDisconnectionRequestE, 
                       __ZTSN3awd7metrics28WiProxLeRemoveServiceRequestE, 
                       __ZTSN3awd7metrics29WiProxLeAdvertiseStartRequestE, 
                       __ZTSN3awd7metrics30WiProxLeStopTrackingPeerResultE, 
                       __ZTSN3awd7metrics31WiProxLeStartTrackingPeerResultE, 
                       __ZTVN3awd7metrics18WiProxLeDeviceLostE, __ZTVN3awd7metrics20WiProxBluetoothStateE, 
                       __ZTVN3awd7metrics22WiProxLeScanStopResultE, __ZTVN3awd7metrics22WiProxLeSendDataResultE, 
                       __ZTVN3awd7metrics23WiProxLeScanStartResultE, __ZTVN3awd7metrics23WiProxLeScanStopRequestE, 
                       __ZTVN3awd7metrics23WiProxLeSendDataRequestE, __ZTVN3awd7metrics24WiProxLeAddServiceResultE, 
                       __ZTVN3awd7metrics24WiProxLeConnectionResultE, __ZTVN3awd7metrics24WiProxLeDeviceDiscoveredE, 
                       __ZTVN3awd7metrics24WiProxLeScanStartRequestE, __ZTVN3awd7metrics25WiProxLeAddServiceRequestE, 
                       __ZTVN3awd7metrics25WiProxLeConnectionRequestE, 
                       __ZTVN3awd7metrics25WiProxLeReceiveDataResultE, 
                       __ZTVN3awd7metrics27WiProxLeAdvertiseStopResultE, 
                       __ZTVN3awd7metrics27WiProxLeDisconnectionResultE, 
                       __ZTVN3awd7metrics28WiProxLeAdvertiseStartResultE, 
                       __ZTVN3awd7metrics28WiProxLeAdvertiseStopRequestE, 
                       __ZTVN3awd7metrics28WiProxLeDisconnectionRequestE, 
                       __ZTVN3awd7metrics28WiProxLeRemoveServiceRequestE, 
                       __ZTVN3awd7metrics29WiProxLeAdvertiseStartRequestE, 
                       __ZTVN3awd7metrics30WiProxLeStopTrackingPeerResultE, 
                       __ZTVN3awd7metrics31WiProxLeStartTrackingPeerResultE ]
...
