---
archs:           [ x86_64 ]
platform:        macosx
install-name:    /System/Library/PrivateFrameworks/CoreSuggestionsInternals.framework/Versions/A/CoreSuggestionsInternals
exports:         
  - archs:           [ x86_64 ]
    symbols:         [ _CreateCFBurstTrieFromFilePath, _SGBytesToHex, _SGCaseInsensitiveEqual, 
                       _SGCaseInsensitiveStringHash, _SGCleavePhoneNumberAndExtension, 
                       _SGCollapseWhitespaceAndStrip, _SGContactDetailTypeDescription, 
                       _SGContactDetailTypeToEntityTypes, _SGConvertUtf8ByteOffsetsToUtf16WordOffsets, 
                       _SGDataDetectorsCreateScannerOrFail, _SGDataDetectorsCreateSharedScanner, 
                       _SGDataDetectorsGetDate, _SGDataDetectorsGetDateAndTimeZoneWithLocale, 
                       _SGDataDetectorsGetDateWithLocale, _SGDataDetectorsGetIntervalDatesAndTimeZoneWithLocale, 
                       _SGDataDetectorsGetMatchType, _SGDataDetectorsGetType, 
                       _SGDataDetectorsScan, _SGDataDetectorsScanRange, 
                       _SGDataDetectorsTypeToString, _SGDataNormalizationClearCaches, 
                       _SGDetectionNotabilityFeatureVecLog, _SGEntityTagsForStorage, 
                       _SGEntityTagsFromStorage, _SGEntityTypeDescription, 
                       _SGEntityTypeIsContact, _SGEntityTypeIsContactDetail, 
                       _SGEntityTypeIsCurated, _SGEntityTypeIsEvent, _SGEntityTypeToContactDetailType, 
                       _SGEnumerateBodyHeaderCandidates, _SGEnumerateReplyAttributionCandidates, 
                       _SGEnumerateSimpleLinesInString, _SGFeatureVectorLog, 
                       _SGFeatureVectorParse, _SGFeatureVectorSerialize, 
                       _SGFeatureVectorSize, _SGGetNameCharacterSet, _SGGetNounsAndNames, 
                       _SGGetQuotationMarkCharacterSet, _SGGuessNamingTradition, 
                       _SGHexToBytes, _SGInhumanityFeatureVecLog, _SGIsAllDigits, 
                       _SGIsAllUppercase, _SGKeepOnlyCharacterSet, _SGKeychainData, 
                       _SGMachTimeToNanoseconds, _SGMemoryHeavyOperation, 
                       _SGMemoryWatchAdd, _SGMemoryWatchRemove, _SGNamesAsciify, 
                       _SGNamesIsMostlyAlpha, _SGNamesOnlyNameChars, _SGNormalizeAddress, 
                       _SGNormalizeCNAddress, _SGNormalizeEmailAddress, 
                       _SGNormalizeName, _SGNormalizePhoneNumber, _SGNormalizeUnicodeString, 
                       _SGPostalAddressParse, _SGPostalAddressParsedCompare, 
                       _SGPostalAddressUnparse, _SGPostalAddressesMatch, 
                       _SGPostalAddressesMatchWithParsed, _SGPreferChineseNamesForTesting, 
                       _SGPreferJapaneseNamesForTesting, _SGPrettifyPhoneNumber, 
                       _SGPseudoContactsDomainIdentifier, _SGRTCCategory, 
                       _SGRandomDataOfLength, _SGRealtimeContactConfidenceFeatureVecLog, 
                       _SGRemoveCharacterSet, _SGRemoveSomePunctuation, 
                       _SGRemoveWhitespace, _SGResetPreferredNameTraditionForTesting, 
                       _SGScalesRecordTime, _SGSetOverrideCountryCodeForPhoneNumberNormalization, 
                       _SGSha256BytesForString, _SGSha256BytesForStrings, 
                       _SGSha256Data, _SGSha256ForString, _SGSha256ForStrings, 
                       _SGSimpleICUClearCache, _SGSimpleICUTransform, _SGSqliteDatabaseErrorCode, 
                       _SGSqliteDatabaseErrorDomain, _SGSqliteDatabaseErrorKeyCode, 
                       _SGSqliteDatabaseErrorKeyQuery, _SGSqliteDatabaseErrorKeyReason, 
                       _SGStripQuotationMarks, _SGTinyLinusAcquireSharedAddressBook, 
                       _SGTinyLinusContactIsMe, _SGTinyLinusCopyAddressBookPeopleMatchingNormalizedName, 
                       _SGTinyLinusCopyAddressBookPeopleMatchingPseudoContact, 
                       _SGTinyLinusCopyCandidatesForNormalizedName, _SGTinyLinusCopyCandidatesWithGoodMatchToNormalizedName, 
                       _SGTinyLinusCopyCandidatesWithPoorButUniqueMatchToNormalizedName, 
                       _SGTinyLinusCopyCandidatesWithUnnormalizedEmailAddresses, 
                       _SGTinyLinusCopyCandidatesWithUnnormalizedPhoneNumbers, 
                       _SGTinyLinusRealtimeContactForPseudoContactWithNormalizedName, 
                       _SGTinyLinusReleaseSharedAddressBook, _SGTrimTrailingWhitespace, 
                       _SGUtfNCursorAdvance, _SGUtfNCursorInit, _SGWeakLinkClass, 
                       _SGWeakLinkProtocol, _SGWeakLinkStringConstant, 
                       _SGWeakLinkSymbol, __ZN3re210PCREWalker9PostVisitEPNS_6RegexpEbbPbi, 
                       __ZN3re210chartoruneEPiPKc, __ZN3re210runetocharEPcPKi, 
                       __ZN3re211FilteredRE214PrintPrefilterEi, __ZN3re211FilteredRE219RegexpsGivenStringsERKNSt3__16vectorIiNS1_9allocatorIiEEEEPS5_, 
                       __ZN3re211FilteredRE23AddERKNS_11StringPieceERKNS_3RE27OptionsEPi, 
                       __ZN3re211FilteredRE27CompileEPNSt3__16vectorINS1_12basic_stringIcNS1_11char_traitsIcEENS1_9allocatorIcEEEENS6_IS8_EEEE, 
                       __ZN3re211FilteredRE2C1Ev, __ZN3re211FilteredRE2C2Ev, 
                       __ZN3re211FilteredRE2D1Ev, __ZN3re211FilteredRE2D2Ev, 
                       __ZN3re211StringPiece4nposE, __ZN3re211StringPiece6_equalERKS0_S2_, 
                       __ZN3re211perl_groupsE, __ZN3re212RegexpStatus4CopyERKS0_, 
                       __ZN3re212RegexpStatus8CodeTextENS_16RegexpStatusCodeE, 
                       __ZN3re212StringPrintfEPKcz, __ZN3re212posix_groupsE, 
                       __ZN3re213CEscapeStringEPKciPci, __ZN3re213CycleFoldRuneEi, 
                       __ZN3re213PrefilterTree13CanonicalNodeEPNS_9PrefilterE, 
                       __ZN3re213PrefilterTree14PrintDebugInfoEv, __ZN3re213PrefilterTree14PrintPrefilterEi, 
                       __ZN3re213PrefilterTree15AssignUniqueIdsEPNSt3__16vectorINS1_12basic_stringIcNS1_11char_traitsIcEENS1_9allocatorIcEEEENS6_IS8_EEEE, 
                       __ZN3re213PrefilterTree3AddEPNS_9PrefilterE, __ZN3re213PrefilterTree7CompileEPNSt3__16vectorINS1_12basic_stringIcNS1_11char_traitsIcEENS1_9allocatorIcEEEENS6_IS8_EEEE, 
                       __ZN3re213PrefilterTreeC1Ev, __ZN3re213PrefilterTreeC2Ev, 
                       __ZN3re213PrefilterTreeD1Ev, __ZN3re213PrefilterTreeD2Ev, 
                       __ZN3re213SStringPrintfEPNSt3__112basic_stringIcNS0_11char_traitsIcEENS0_9allocatorIcEEEEPKcz, 
                       __ZN3re213StringAppendFEPNSt3__112basic_stringIcNS0_11char_traitsIcEENS0_9allocatorIcEEEEPKcz, 
                       __ZN3re214LookupCaseFoldEPKNS_8CaseFoldEii, __ZN3re214OnePass_ChecksEv, 
                       __ZN3re214SimplifyWalker10ShortVisitEPNS_6RegexpES2_, 
                       __ZN3re214SimplifyWalker14SimplifyRepeatEPNS_6RegexpEiiNS1_10ParseFlagsE, 
                       __ZN3re214SimplifyWalker17SimplifyCharClassEPNS_6RegexpE, 
                       __ZN3re214SimplifyWalker4CopyEPNS_6RegexpE, __ZN3re214SimplifyWalker7Concat2EPNS_6RegexpES2_NS1_10ParseFlagsE, 
                       __ZN3re214SimplifyWalker8PreVisitEPNS_6RegexpES2_Pb, 
                       __ZN3re214SimplifyWalker9PostVisitEPNS_6RegexpES2_S2_PS2_i, 
                       __ZN3re214ToStringWalker8PreVisitEPNS_6RegexpEiPb, 
                       __ZN3re214ToStringWalker9PostVisitEPNS_6RegexpEiiPii, 
                       __ZN3re214unicode_groupsE, __ZN3re215FLAGS_trace_re2E, 
                       __ZN3re215PrefixSuccessorERKNS_11StringPieceE, __ZN3re215num_perl_groupsE, 
                       __ZN3re215unicode_tolowerE, __ZN3re216CharClassBuilder10FoldsASCIIEv, 
                       __ZN3re216CharClassBuilder11RemoveAboveEi, __ZN3re216CharClassBuilder12AddCharClassEPS0_, 
                       __ZN3re216CharClassBuilder12GetCharClassEv, __ZN3re216CharClassBuilder13AddRangeFlagsEiiNS_6Regexp10ParseFlagsE, 
                       __ZN3re216CharClassBuilder4CopyEv, __ZN3re216CharClassBuilder6NegateEv, 
                       __ZN3re216CharClassBuilder8AddRangeEii, __ZN3re216CharClassBuilder8ContainsEi, 
                       __ZN3re216CharClassBuilderC1Ev, __ZN3re216CharClassBuilderC2Ev, 
                       __ZN3re216num_posix_groupsE, __ZN3re216unicode_casefoldE, 
                       __ZN3re217EmptyStringWalker9PostVisitEPNS_6RegexpEbbPbi, 
                       __ZN3re217ParseUnicodeGroupEPNS_11StringPieceENS_6Regexp10ParseFlagsEPNS_16CharClassBuilderEPNS_12RegexpStatusE, 
                       __ZN3re217RunningOnValgrindEv, __ZN3re218num_unicode_groupsE, 
                       __ZN3re219ConvertLatin1ToUTF8ERKNS_11StringPieceEPNSt3__112basic_stringIcNS3_11char_traitsIcEENS3_9allocatorIcEEEE, 
                       __ZN3re219num_unicode_tolowerE, __ZN3re220num_unicode_casefoldE, 
                       __ZN3re222MaybeParsePerlCCEscapeEPNS_11StringPieceENS_6Regexp10ParseFlagsE, 
                       __ZN3re228FLAGS_re2_dfa_bail_when_slowE, __ZN3re231FLAGS_filtered_re2_min_atom_lenE, 
                       __ZN3re23DFA10AddToQueueEPNS0_5WorkqEij, __ZN3re23DFA10ClearCacheEv, 
                       __ZN3re23DFA10ResetCacheEPNS0_8RWLockerE, __ZN3re23DFA10StateSaver7RestoreEv, 
                       __ZN3re23DFA10StateSaverC1EPS0_PNS0_5StateE, __ZN3re23DFA10StateSaverC2EPS0_PNS0_5StateE, 
                       __ZN3re23DFA10StateSaverD1Ev, __ZN3re23DFA10StateSaverD2Ev, 
                       __ZN3re23DFA11CachedStateEPiij, __ZN3re23DFA12StateToWorkqEPNS0_5StateEPNS0_5WorkqE, 
                       __ZN3re23DFA13AnalyzeSearchEPNS0_12SearchParamsE, 
                       __ZN3re23DFA14BuildAllStatesEv, __ZN3re23DFA14FastSearchLoopEPNS0_12SearchParamsE, 
                       __ZN3re23DFA14RunStateOnByteEPNS0_5StateEi, __ZN3re23DFA14RunWorkqOnByteEPNS0_5WorkqES2_ijPbNS_4Prog9MatchKindEi, 
                       __ZN3re23DFA14SlowSearchLoopEPNS0_12SearchParamsE, 
                       __ZN3re23DFA18PossibleMatchRangeEPNSt3__112basic_stringIcNS1_11char_traitsIcEENS1_9allocatorIcEEEES8_i, 
                       __ZN3re23DFA18WorkqToCachedStateEPNS0_5WorkqEj, 
                       __ZN3re23DFA19AnalyzeSearchHelperEPNS0_12SearchParamsEPNS0_9StartInfoEj, 
                       __ZN3re23DFA21RunWorkqOnEmptyStringEPNS0_5WorkqES2_j, 
                       __ZN3re23DFA22RunStateOnByteUnlockedEPNS0_5StateEi, 
                       __ZN3re23DFA6SearchERKNS_11StringPieceES3_bbbPbPPKcPNSt3__16vectorIiNS8_9allocatorIiEEEE, 
                       __ZN3re23DFA8RWLocker14LockForWritingEv, __ZN3re23DFA8RWLockerC1EPNS_5MutexE, 
                       __ZN3re23DFA8RWLockerC2EPNS_5MutexE, __ZN3re23DFA8RWLockerD1Ev, 
                       __ZN3re23DFA8RWLockerD2Ev, __ZN3re23DFA9DumpStateEPNS0_5StateE, 
                       __ZN3re23DFA9DumpWorkqEPNS0_5WorkqE, __ZN3re23DFA9SearchFFFEPNS0_12SearchParamsE, 
                       __ZN3re23DFA9SearchFFTEPNS0_12SearchParamsE, __ZN3re23DFA9SearchFTFEPNS0_12SearchParamsE, 
                       __ZN3re23DFA9SearchFTTEPNS0_12SearchParamsE, __ZN3re23DFA9SearchTFFEPNS0_12SearchParamsE, 
                       __ZN3re23DFA9SearchTFTEPNS0_12SearchParamsE, __ZN3re23DFA9SearchTTFEPNS0_12SearchParamsE, 
                       __ZN3re23DFA9SearchTTTEPNS0_12SearchParamsE, __ZN3re23DFAC1EPNS_4ProgENS1_9MatchKindEx, 
                       __ZN3re23DFAC2EPNS_4ProgENS1_9MatchKindEx, __ZN3re23DFAD1Ev, 
                       __ZN3re23DFAD2Ev, __ZN3re23NFA12AddToThreadqEPNS_11SparseArrayIPNS0_6ThreadEEEiiPKcPS7_, 
                       __ZN3re23NFA13FormatCaptureEPPKc, __ZN3re23NFA16ComputeFirstByteEv, 
                       __ZN3re23NFA6SearchERKNS_11StringPieceES3_bbPS1_i, 
                       __ZN3re23NFAC1EPNS_4ProgE, __ZN3re23NFAC2EPNS_4ProgE, 
                       __ZN3re23NFAD1Ev, __ZN3re23NFAD2Ev, __ZN3re23RE210FullMatchNERKNS_11StringPieceERKS0_PKPKNS0_3ArgEi, 
                       __ZN3re23RE211MaxSubmatchERKNS_11StringPieceE, __ZN3re23RE212PartialMatchE, 
                       __ZN3re23RE213GlobalReplaceEPNSt3__112basic_stringIcNS1_11char_traitsIcEENS1_9allocatorIcEEEERKS0_RKNS_11StringPieceE, 
                       __ZN3re23RE213PartialMatchNERKNS_11StringPieceERKS0_PKPKNS0_3ArgEi, 
                       __ZN3re23RE214FindAndConsumeE, __ZN3re23RE215FindAndConsumeNEPNS_11StringPieceERKS0_PKPKNS0_3ArgEi, 
                       __ZN3re23RE23Arg10parse_charEPKciPv, __ZN3re23RE23Arg10parse_longEPKciPv, 
                       __ZN3re23RE23Arg10parse_nullEPKciPv, __ZN3re23RE23Arg10parse_uintEPKciPv, 
                       __ZN3re23RE23Arg11parse_floatEPKciPv, __ZN3re23RE23Arg11parse_shortEPKciPv, 
                       __ZN3re23RE23Arg11parse_ucharEPKciPv, __ZN3re23RE23Arg11parse_ulongEPKciPv, 
                       __ZN3re23RE23Arg12parse_doubleEPKciPv, __ZN3re23RE23Arg12parse_stringEPKciPv, 
                       __ZN3re23RE23Arg12parse_ushortEPKciPv, __ZN3re23RE23Arg13parse_int_hexEPKciPv, 
                       __ZN3re23RE23Arg14parse_long_hexEPKciPv, __ZN3re23RE23Arg14parse_longlongEPKciPv, 
                       __ZN3re23RE23Arg14parse_uint_hexEPKciPv, __ZN3re23RE23Arg15parse_int_octalEPKciPv, 
                       __ZN3re23RE23Arg15parse_int_radixEPKciPvi, __ZN3re23RE23Arg15parse_short_hexEPKciPv, 
                       __ZN3re23RE23Arg15parse_ulong_hexEPKciPv, __ZN3re23RE23Arg15parse_ulonglongEPKciPv, 
                       __ZN3re23RE23Arg16parse_int_cradixEPKciPv, __ZN3re23RE23Arg16parse_long_octalEPKciPv, 
                       __ZN3re23RE23Arg16parse_long_radixEPKciPvi, __ZN3re23RE23Arg16parse_uint_octalEPKciPv, 
                       __ZN3re23RE23Arg16parse_uint_radixEPKciPvi, __ZN3re23RE23Arg16parse_ushort_hexEPKciPv, 
                       __ZN3re23RE23Arg17parse_long_cradixEPKciPv, __ZN3re23RE23Arg17parse_short_octalEPKciPv, 
                       __ZN3re23RE23Arg17parse_short_radixEPKciPvi, __ZN3re23RE23Arg17parse_stringpieceEPKciPv, 
                       __ZN3re23RE23Arg17parse_uint_cradixEPKciPv, __ZN3re23RE23Arg17parse_ulong_octalEPKciPv, 
                       __ZN3re23RE23Arg17parse_ulong_radixEPKciPvi, __ZN3re23RE23Arg18parse_longlong_hexEPKciPv, 
                       __ZN3re23RE23Arg18parse_short_cradixEPKciPv, __ZN3re23RE23Arg18parse_ulong_cradixEPKciPv, 
                       __ZN3re23RE23Arg18parse_ushort_octalEPKciPv, __ZN3re23RE23Arg18parse_ushort_radixEPKciPvi, 
                       __ZN3re23RE23Arg19parse_ulonglong_hexEPKciPv, __ZN3re23RE23Arg19parse_ushort_cradixEPKciPv, 
                       __ZN3re23RE23Arg20parse_longlong_octalEPKciPv, __ZN3re23RE23Arg20parse_longlong_radixEPKciPvi, 
                       __ZN3re23RE23Arg21parse_longlong_cradixEPKciPv, 
                       __ZN3re23RE23Arg21parse_ulonglong_octalEPKciPv, 
                       __ZN3re23RE23Arg21parse_ulonglong_radixEPKciPvi, 
                       __ZN3re23RE23Arg22parse_ulonglong_cradixEPKciPv, 
                       __ZN3re23RE23Arg9parse_intEPKciPv, __ZN3re23RE23Set3AddERKNS_11StringPieceEPNSt3__112basic_stringIcNS5_11char_traitsIcEENS5_9allocatorIcEEEE, 
                       __ZN3re23RE23Set7CompileEv, __ZN3re23RE23SetC1ERKNS0_7OptionsENS0_6AnchorE, 
                       __ZN3re23RE23SetC2ERKNS0_7OptionsENS0_6AnchorE, 
                       __ZN3re23RE23SetD1Ev, __ZN3re23RE23SetD2Ev, __ZN3re23RE24InitERKNS_11StringPieceERKNS0_7OptionsE, 
                       __ZN3re23RE27ConsumeE, __ZN3re23RE27ExtractERKNS_11StringPieceERKS0_S3_PNSt3__112basic_stringIcNS6_11char_traitsIcEENS6_9allocatorIcEEEE, 
                       __ZN3re23RE27Options14kDefaultMaxMemE, __ZN3re23RE27OptionsC1ENS0_13CannedOptionsE, 
                       __ZN3re23RE27OptionsC2ENS0_13CannedOptionsE, __ZN3re23RE27ReplaceEPNSt3__112basic_stringIcNS1_11char_traitsIcEENS1_9allocatorIcEEEERKS0_RKNS_11StringPieceE, 
                       __ZN3re23RE28ConsumeNEPNS_11StringPieceERKS0_PKPKNS0_3ArgEi, 
                       __ZN3re23RE29FullMatchE, __ZN3re23RE29QuoteMetaERKNS_11StringPieceE, 
                       __ZN3re23RE2C1EPKc, __ZN3re23RE2C1ERKNS_11StringPieceE, 
                       __ZN3re23RE2C1ERKNS_11StringPieceERKNS0_7OptionsE, 
                       __ZN3re23RE2C1ERKNSt3__112basic_stringIcNS1_11char_traitsIcEENS1_9allocatorIcEEEE, 
                       __ZN3re23RE2C2EPKc, __ZN3re23RE2C2ERKNS_11StringPieceE, 
                       __ZN3re23RE2C2ERKNS_11StringPieceERKNS0_7OptionsE, 
                       __ZN3re23RE2C2ERKNSt3__112basic_stringIcNS1_11char_traitsIcEENS1_9allocatorIcEEEE, 
                       __ZN3re23RE2D1Ev, __ZN3re23RE2D2Ev, __ZN3re24Prog10CompileSetERKNS_3RE27OptionsENS1_6AnchorEPNS_6RegexpE, 
                       __ZN3re24Prog10EmptyFlagsERKNS_11StringPieceEPKc, 
                       __ZN3re24Prog13MarkByteRangeEii, __ZN3re24Prog13SearchOnePassERKNS_11StringPieceES3_NS0_6AnchorENS0_9MatchKindEPS1_i, 
                       __ZN3re24Prog14BuildEntireDFAENS0_9MatchKindE, __ZN3re24Prog14ComputeByteMapEv, 
                       __ZN3re24Prog14DumpUnanchoredEv, __ZN3re24Prog14SearchBitStateERKNS_11StringPieceES3_NS0_6AnchorENS0_9MatchKindEPS1_i, 
                       __ZN3re24Prog18PossibleMatchRangeEPNSt3__112basic_stringIcNS1_11char_traitsIcEENS1_9allocatorIcEEEES8_i, 
                       __ZN3re24Prog4DumpEv, __ZN3re24Prog4Inst11InitCaptureEij, 
                       __ZN3re24Prog4Inst13InitByteRangeEiiij, __ZN3re24Prog4Inst14InitEmptyWidthENS_7EmptyOpEj, 
                       __ZN3re24Prog4Inst4DumpEv, __ZN3re24Prog4Inst7InitAltEjj, 
                       __ZN3re24Prog4Inst7InitNopEj, __ZN3re24Prog4Inst8InitFailEv, 
                       __ZN3re24Prog4Inst9InitMatchEi, __ZN3re24Prog6GetDFAENS0_9MatchKindE, 
                       __ZN3re24Prog8OptimizeEv, __ZN3re24Prog9IsOnePassEv, 
                       __ZN3re24Prog9SearchDFAERKNS_11StringPieceES3_NS0_6AnchorENS0_9MatchKindEPS1_PbPNSt3__16vectorIiNS8_9allocatorIiEEEE, 
                       __ZN3re24Prog9SearchNFAERKNS_11StringPieceES3_NS0_6AnchorENS0_9MatchKindEPS1_i, 
                       __ZN3re24ProgC1Ev, __ZN3re24ProgC2Ev, __ZN3re24ProgD1Ev, 
                       __ZN3re24ProgD2Ev, __ZN3re26Regexp10MimicsPCREEv, 
                       __ZN3re26Regexp10NewLiteralEiNS0_10ParseFlagsE, 
                       __ZN3re26Regexp10ParseState10DoCollapseENS_8RegexpOpE, 
                       __ZN3re26Regexp10ParseState10PushDollarEv, __ZN3re26Regexp10ParseState10PushRegexpEPS0_, 
                       __ZN3re26Regexp10ParseState11DoLeftParenERKNS_11StringPieceE, 
                       __ZN3re26Regexp10ParseState11PushLiteralEi, __ZN3re26Regexp10ParseState12DoRightParenEv, 
                       __ZN3re26Regexp10ParseState12FinishRegexpEPS0_, 
                       __ZN3re26Regexp10ParseState12ParseCCRangeEPNS_11StringPieceEPNS_9RuneRangeERKS2_PNS_12RegexpStatusE, 
                       __ZN3re26Regexp10ParseState12PushRepeatOpENS_8RegexpOpERKNS_11StringPieceEb, 
                       __ZN3re26Regexp10ParseState12PushSimpleOpENS_8RegexpOpE, 
                       __ZN3re26Regexp10ParseState13DoAlternationEv, __ZN3re26Regexp10ParseState13DoVerticalBarEv, 
                       __ZN3re26Regexp10ParseState14ParseCharClassEPNS_11StringPieceEPPS0_PNS_12RegexpStatusE, 
                       __ZN3re26Regexp10ParseState14ParsePerlFlagsEPNS_11StringPieceE, 
                       __ZN3re26Regexp10ParseState14PushRepetitionEiiRKNS_11StringPieceEb, 
                       __ZN3re26Regexp10ParseState15DoConcatenationEv, 
                       __ZN3re26Regexp10ParseState16ParseCCCharacterEPNS_11StringPieceEPiRKS2_PNS_12RegexpStatusE, 
                       __ZN3re26Regexp10ParseState16PushWordBoundaryEb, 
                       __ZN3re26Regexp10ParseState17MaybeConcatStringEiNS0_10ParseFlagsE, 
                       __ZN3re26Regexp10ParseState20DoLeftParenNoCaptureEv, 
                       __ZN3re26Regexp10ParseState7PushDotEv, __ZN3re26Regexp10ParseState8DoFinishEv, 
                       __ZN3re26Regexp10ParseState8IsMarkerENS_8RegexpOpE, 
                       __ZN3re26Regexp10ParseState9PushCaratEv, __ZN3re26Regexp10ParseStateC1ENS0_10ParseFlagsERKNS_11StringPieceEPNS_12RegexpStatusE, 
                       __ZN3re26Regexp10ParseStateC2ENS0_10ParseFlagsERKNS_11StringPieceEPNS_12RegexpStatusE, 
                       __ZN3re26Regexp10ParseStateD1Ev, __ZN3re26Regexp10ParseStateD2Ev, 
                       __ZN3re26Regexp11NumCapturesEv, __ZN3re26Regexp12CaptureNamesEv, 
                       __ZN3re26Regexp12NewCharClassEPNS_9CharClassENS0_10ParseFlagsE, 
                       __ZN3re26Regexp12QuickDestroyEv, __ZN3re26Regexp13CompileToProgEx, 
                       __ZN3re26Regexp13ComputeSimpleEv, __ZN3re26Regexp13LeadingRegexpEPS0_, 
                       __ZN3re26Regexp13LeadingStringEPS0_PiPNS0_10ParseFlagsE, 
                       __ZN3re26Regexp13LiteralStringEPiiNS0_10ParseFlagsE, 
                       __ZN3re26Regexp13NamedCapturesEv, __ZN3re26Regexp14RequiredPrefixEPNSt3__112basic_stringIcNS1_11char_traitsIcEENS1_9allocatorIcEEEEPbPPS0_, 
                       __ZN3re26Regexp14SimplifyRegexpERKNS_11StringPieceENS0_10ParseFlagsEPNSt3__112basic_stringIcNS5_11char_traitsIcEENS5_9allocatorIcEEEEPNS_12RegexpStatusE, 
                       __ZN3re26Regexp15AddRuneToStringEi, __ZN3re26Regexp17AlternateNoFactorEPPS0_iNS0_10ParseFlagsE, 
                       __ZN3re26Regexp17ConcatOrAlternateENS_8RegexpOpEPPS0_iNS0_10ParseFlagsEb, 
                       __ZN3re26Regexp17FactorAlternationEPPS0_iNS0_10ParseFlagsE, 
                       __ZN3re26Regexp19RemoveLeadingRegexpEPS0_, __ZN3re26Regexp19RemoveLeadingStringEPS0_i, 
                       __ZN3re26Regexp20CompileToReverseProgEx, __ZN3re26Regexp26FactorAlternationRecursiveEPPS0_iNS0_10ParseFlagsEi, 
                       __ZN3re26Regexp3RefEv, __ZN3re26Regexp4PlusEPS0_NS0_10ParseFlagsE, 
                       __ZN3re26Regexp4StarEPS0_NS0_10ParseFlagsE, __ZN3re26Regexp4SwapEPS0_, 
                       __ZN3re26Regexp5EqualEPS0_S1_, __ZN3re26Regexp5ParseERKNS_11StringPieceENS0_10ParseFlagsEPNS_12RegexpStatusE, 
                       __ZN3re26Regexp5QuestEPS0_NS0_10ParseFlagsE, __ZN3re26Regexp6ConcatEPPS0_iNS0_10ParseFlagsE, 
                       __ZN3re26Regexp6DecrefEv, __ZN3re26Regexp6IncrefEv, 
                       __ZN3re26Regexp6RepeatEPS0_NS0_10ParseFlagsEii, 
                       __ZN3re26Regexp7CaptureEPS0_NS0_10ParseFlagsEi, 
                       __ZN3re26Regexp7DestroyEv, __ZN3re26Regexp8SimplifyEv, 
                       __ZN3re26Regexp8ToStringEv, __ZN3re26Regexp9AlternateEPPS0_iNS0_10ParseFlagsE, 
                       __ZN3re26Regexp9HaveMatchEiNS0_10ParseFlagsE, __ZN3re26RegexpC1ENS_8RegexpOpENS0_10ParseFlagsE, 
                       __ZN3re26RegexpC2ENS_8RegexpOpENS0_10ParseFlagsE, 
                       __ZN3re26RegexpD1Ev, __ZN3re26RegexpD2Ev, __ZN3re26RegexpdlEPv, 
                       __ZN3re26RegexpnwEm, __ZN3re26utflenEPKc, __ZN3re27CEscapeERKNS_11StringPieceE, 
                       __ZN3re27runelenEi, __ZN3re27utfruneEPKci, __ZN3re28BitState4PushEiPKci, 
                       __ZN3re28BitState6SearchERKNS_11StringPieceES3_bbPS1_i, 
                       __ZN3re28BitState9GrowStackEv, __ZN3re28BitState9TrySearchEiPKc, 
                       __ZN3re28BitStateC1EPNS_4ProgE, __ZN3re28BitStateC2EPNS_4ProgE, 
                       __ZN3re28BitStateD1Ev, __ZN3re28BitStateD2Ev, __ZN3re28Compiler10BeginRangeEv, 
                       __ZN3re28Compiler10CompileSetERKNS_3RE27OptionsENS1_6AnchorEPNS_6RegexpE, 
                       __ZN3re28Compiler10EmptyWidthENS_7EmptyOpE, __ZN3re28Compiler10ShortVisitEPNS_6RegexpENS_4FragE, 
                       __ZN3re28Compiler12AddRuneRangeEiib, __ZN3re28Compiler13Add_80_10ffffEv, 
                       __ZN3re28Compiler14RuneByteSuffixEhhbi, __ZN3re28Compiler16AddRuneRangeUTF8Eiib, 
                       __ZN3re28Compiler18AddRuneRangeLatin1Eiib, __ZN3re28Compiler22UncachedRuneByteSuffixEhhbi, 
                       __ZN3re28Compiler3AltENS_4FragES1_, __ZN3re28Compiler3CatENS_4FragES1_, 
                       __ZN3re28Compiler3NopEv, __ZN3re28Compiler4CopyENS_4FragE, 
                       __ZN3re28Compiler4PlusENS_4FragEb, __ZN3re28Compiler4StarENS_4FragEb, 
                       __ZN3re28Compiler4TrimEv, __ZN3re28Compiler5MatchEi, 
                       __ZN3re28Compiler5QuestENS_4FragEb, __ZN3re28Compiler5SetupENS_6Regexp10ParseFlagsExNS_3RE26AnchorE, 
                       __ZN3re28Compiler6FinishEv, __ZN3re28Compiler7CaptureENS_4FragEi, 
                       __ZN3re28Compiler7CompileEPNS_6RegexpEbx, __ZN3re28Compiler7DotStarEv, 
                       __ZN3re28Compiler7LiteralEib, __ZN3re28Compiler7NoMatchEv, 
                       __ZN3re28Compiler8EndRangeEv, __ZN3re28Compiler8PreVisitEPNS_6RegexpENS_4FragEPb, 
                       __ZN3re28Compiler9AddSuffixEi, __ZN3re28Compiler9AllocInstEi, 
                       __ZN3re28Compiler9ByteRangeEiib, __ZN3re28Compiler9PostVisitEPNS_6RegexpENS_4FragES3_PS3_i, 
                       __ZN3re28CompilerC1Ev, __ZN3re28CompilerC2Ev, __ZN3re28CompilerD0Ev, 
                       __ZN3re28CompilerD1Ev, __ZN3re28CompilerD2Ev, __ZN3re28fullruneEPKci, 
                       __ZN3re28hashwordEPKjmj, __ZN3re29ApplyFoldEPKNS_8CaseFoldEi, 
                       __ZN3re29CharClass3NewEi, __ZN3re29CharClass6DeleteEv, 
                       __ZN3re29CharClass6NegateEv, __ZN3re29CharClass8ContainsEi, 
                       __ZN3re29PatchList2MkEj, __ZN3re29PatchList5DerefEPNS_4Prog4InstES0_, 
                       __ZN3re29PatchList5PatchEPNS_4Prog4InstES0_j, __ZN3re29PatchList6AppendEPNS_4Prog4InstES0_S0_, 
                       __ZN3re29Prefilter10FromRegexpEPNS_6RegexpE, __ZN3re29Prefilter10FromStringERKNSt3__112basic_stringIcNS1_11char_traitsIcEENS1_9allocatorIcEEEE, 
                       __ZN3re29Prefilter2OrEPS0_S1_, __ZN3re29Prefilter3AndEPS0_S1_, 
                       __ZN3re29Prefilter4Info11EmptyStringEv, __ZN3re29Prefilter4Info13LiteralLatin1Ei, 
                       __ZN3re29Prefilter4Info3AltEPS1_S2_, __ZN3re29Prefilter4Info3AndEPS1_S2_, 
                       __ZN3re29Prefilter4Info4PlusEPS1_, __ZN3re29Prefilter4Info4StarEPS1_, 
                       __ZN3re29Prefilter4Info5QuestEPS1_, __ZN3re29Prefilter4Info6CClassEPNS_9CharClassEb, 
                       __ZN3re29Prefilter4Info6ConcatEPS1_S2_, __ZN3re29Prefilter4Info6Walker10ShortVisitEPNS_6RegexpEPS1_, 
                       __ZN3re29Prefilter4Info6Walker9PostVisitEPNS_6RegexpEPS1_S5_PS5_i, 
                       __ZN3re29Prefilter4Info7AnyCharEv, __ZN3re29Prefilter4Info7LiteralEi, 
                       __ZN3re29Prefilter4Info7NoMatchEv, __ZN3re29Prefilter4Info8AnyMatchEv, 
                       __ZN3re29Prefilter4Info8ToStringEv, __ZN3re29Prefilter4Info9TakeMatchEv, 
                       __ZN3re29Prefilter4InfoC1Ev, __ZN3re29Prefilter4InfoC2Ev, 
                       __ZN3re29Prefilter4InfoD1Ev, __ZN3re29Prefilter4InfoD2Ev, 
                       __ZN3re29Prefilter5AndOrENS0_2OpEPS0_S2_, __ZN3re29Prefilter7FromRE2EPKNS_3RE2E, 
                       __ZN3re29Prefilter8SimplifyEv, __ZN3re29Prefilter9BuildInfoEPNS_6RegexpE, 
                       __ZN3re29Prefilter9OrStringsEPNSt3__13setINS1_12basic_stringIcNS1_11char_traitsIcEENS1_9allocatorIcEEEENS1_4lessIS8_EENS6_IS8_EEEE, 
                       __ZN3re29PrefilterC1ENS0_2OpE, __ZN3re29PrefilterC2ENS0_2OpE, 
                       __ZN3re29PrefilterD1Ev, __ZN3re29PrefilterD2Ev, 
                       __ZN3re29hashword2EPKjmPjS2_, __ZNK3re211FilteredRE210AllMatchesERKNS_11StringPieceERKNSt3__16vectorIiNS4_9allocatorIiEEEEPS8_, 
                       __ZNK3re211FilteredRE210FirstMatchERKNS_11StringPieceERKNSt3__16vectorIiNS4_9allocatorIiEEEE, 
                       __ZNK3re211FilteredRE214SlowFirstMatchERKNS_11StringPieceE, 
                       __ZNK3re211StringPiece12CopyToStringEPNSt3__112basic_stringIcNS1_11char_traitsIcEENS1_9allocatorIcEEEE, 
                       __ZNK3re211StringPiece4copyEPcmm, __ZNK3re211StringPiece4findERKS0_m, 
                       __ZNK3re211StringPiece4findEcm, __ZNK3re211StringPiece5rfindERKS0_m, 
                       __ZNK3re211StringPiece5rfindEcm, __ZNK3re211StringPiece6substrEmm, 
                       __ZNK3re212RegexpStatus4TextEv, __ZNK3re213PrefilterTree10NodeStringEPNS_9PrefilterE, 
                       __ZNK3re213PrefilterTree14PropagateMatchERKNSt3__16vectorIiNS1_9allocatorIiEEEEPNS_11SparseArrayIiEE, 
                       __ZNK3re213PrefilterTree15DebugNodeStringEPNS_9PrefilterE, 
                       __ZNK3re213PrefilterTree19RegexpsGivenStringsERKNSt3__16vectorIiNS1_9allocatorIiEEEEPS5_, 
                       __ZNK3re23RE211ProgramSizeEv, __ZNK3re23RE211ReverseProgEv, 
                       __ZNK3re23RE218CheckRewriteStringERKNS_11StringPieceEPNSt3__112basic_stringIcNS4_11char_traitsIcEENS4_9allocatorIcEEEE, 
                       __ZNK3re23RE218PossibleMatchRangeEPNSt3__112basic_stringIcNS1_11char_traitsIcEENS1_9allocatorIcEEEES8_i, 
                       __ZNK3re23RE219CapturingGroupNamesEv, __ZNK3re23RE220NamedCapturingGroupsEv, 
                       __ZNK3re23RE223NumberOfCapturingGroupsEv, __ZNK3re23RE23Set5MatchERKNS_11StringPieceEPNSt3__16vectorIiNS5_9allocatorIiEEEE, 
                       __ZNK3re23RE25MatchERKNS_11StringPieceEiiNS0_6AnchorEPS1_i, 
                       __ZNK3re23RE27DoMatchERKNS_11StringPieceENS0_6AnchorEPiPKPKNS0_3ArgEi, 
                       __ZNK3re23RE27Options10ParseFlagsEv, __ZNK3re23RE27RewriteEPNSt3__112basic_stringIcNS1_11char_traitsIcEENS1_9allocatorIcEEEERKNS_11StringPieceEPSA_i, 
                       __ZNK3re29Prefilter11DebugStringEv, __ZTIN3re210PCREWalkerE, 
                       __ZTIN3re214SimplifyWalkerE, __ZTIN3re214ToStringWalkerE, 
                       __ZTIN3re217EmptyStringWalkerE, __ZTIN3re28CompilerE, 
                       __ZTIN3re29Prefilter4Info6WalkerE, __ZTSN3re210PCREWalkerE, 
                       __ZTSN3re214SimplifyWalkerE, __ZTSN3re214ToStringWalkerE, 
                       __ZTSN3re217EmptyStringWalkerE, __ZTSN3re28CompilerE, 
                       __ZTSN3re29Prefilter4Info6WalkerE, __ZTVN3re210PCREWalkerE, 
                       __ZTVN3re214SimplifyWalkerE, __ZTVN3re214ToStringWalkerE, 
                       __ZTVN3re217EmptyStringWalkerE, __ZTVN3re28CompilerE, 
                       __ZTVN3re29Prefilter4Info6WalkerE, __ZlsRNSt3__113basic_ostreamIcNS_11char_traitsIcEEEERKN3re211StringPieceE, 
                       _addEdge, _descriptionForIdentityKeyType, _emailAddressDomain, 
                       _enumerateTokensInEmailAddress, _findConnectedComponents, 
                       _freeDisjointSet, _freeGraph, _freeRegexp, _globEscape, 
                       _handlers, _initGraph, _kSGContactDetailTypeAddress, 
                       _kSGContactDetailTypeEmailAddress, _kSGContactDetailTypePhone, 
                       _kSGMailPatternsHeaderCc, _kSGMailPatternsHeaderDate, 
                       _kSGMailPatternsHeaderFrom, _kSGMailPatternsHeaderSubject, 
                       _kSGMailPatternsHeaderTo, _kSGOriginTypeCalendarEvent, 
                       _kSGOriginTypeContact, _kSGOriginTypeMail, _kSGOriginTypeUnrecognizedPhone, 
                       _keyForIdentityKeyType, _lastMemoryStatus, _mallocRegexp, 
                       _masterEntityCacheOnce, _memoryStatusSource, _mincut, 
                       _newVertex, _plainTextToHtml, _printDot, _qmarksSeparatedByCommas, 
                       _sameConnectedComponent, _sqlite3_bind_nscoding, 
                       _sqlite3_bind_nsdata, _sqlite3_bind_nsstring, _sqlite3_column_nscoding, 
                       _sqlite3_column_nsdata, _sqlite3_column_nsstring, 
                       _tokenizeNameAfterWhitespaceNormalization, _updateConnectedComponents, 
                       _visitConnectedComponents ]
    objc-classes:    [ _SGABContainer, _SGAggregateLogging, _SGAhoCorasick, 
                       _SGAsset, _SGBloomFilter, _SGBloomFilterChunkInMemory, 
                       _SGBloomFilterChunkInMemorySparse, _SGBloomFilterChunkMmap, 
                       _SGContactDetail, _SGContactDetailKey, _SGContactEntity, 
                       _SGCuratedChangeNotifications, _SGCuratedChangeNotificationsAddressBookListener, 
                       _SGCuratedChangeNotificationsBaseListener, _SGCuratedContactKey, 
                       _SGCuratedEventKey, _SGDataDetectorDissector, _SGDataDetectorMatch, 
                       _SGDataNormalization, _SGDatabaseJournal, _SGDatabaseMigratorEntities, 
                       _SGDatabaseMigratorSnippets, _SGDeduper, _SGDetectedAttributeDissector, 
                       _SGDuplicateKey, _SGEKCalendarAdapter, _SGEmailKey, 
                       _SGEntity, _SGExtractionDissector, _SGFlight, _SGFlightData, 
                       _SGHtmlEntities, _SGHtmlParserDissector, _SGHtmlParserDissectorTask, 
                       _SGHtmlParserUtf8Source, _SGIdentityEdge, _SGIdentityKey, 
                       _SGIdentityName, _SGInMemoryAdapter, _SGInhumanDissector, 
                       _SGInhumans, _SGIntervalTree, _SGIntervalTreeNode, 
                       _SGJournal, _SGJournalEntry, _SGLabeledValue, _SGMailPatterns, 
                       _SGMailQuoteDissector, _SGMicrodataDocument, _SGMicrodataItem, 
                       _SGMicrodataItemProp, _SGMicrodataItemScope, _SGMicrodataParser, 
                       _SGMicrodataParserStackItem, _SGNameInversionPredictor, 
                       _SGNames, _SGNaturalLanguageDissector, _SGNicknames, 
                       _SGNoCloudNSUbiquitousKeyValueStore, _SGOffsetDictionary, 
                       _SGPaths, _SGPatterns, _SGPipeline, _SGPipelineDissector, 
                       _SGPipelineEntity, _SGPlainTextContentCursor, _SGPreparedStatement, 
                       _SGPseudoContactKey, _SGPseudoEventKey, _SGRTCLogging, 
                       _SGRawKey, _SGRe2, _SGRe2Basic, _SGRe2Lazy, _SGRe2PrefilterTree, 
                       _SGRe2Subregexps, _SGReplyParserDissector, _SGReverseTemplateJS, 
                       _SGReverseTemplatesJSDataDetectors, _SGSeekableData, 
                       _SGSignatureDissector, _SGSimpleMailHeaderKeyValue, 
                       _SGSimpleMailMessage, _SGSlice, _SGSpotlightContactsAdapter, 
                       _SGSqlEntityStore, _SGSqliteDatabase, _SGStorageContact, 
                       _SGStorageEvent, _SGStorageLocation, _SGSuggestHistory, 
                       _SGThreadParser, _SGTinyLinusMeData, _SGTokenizer, 
                       _SGUnrecognizedContactKey, _SGWeakAsset, _SGWords, 
                       _SGXPCActivityManager ]
    objc-ivars:      [ _SGABContainer._ab, _SGABContainer._isInUse, _SGABContainer._isInvalidated, 
                       _SGABContainer._lifetimeObject, _SGHtmlParserDissectorTask._activeRegionIndexSetStack, 
                       _SGHtmlParserDissectorTask._activeRegionStartPositionStack, 
                       _SGHtmlParserDissectorTask._activeRegions, _SGHtmlParserDissectorTask._bytesConsumedInPreviousPasses, 
                       _SGHtmlParserDissectorTask._chunkLength, _SGHtmlParserDissectorTask._chunkStart, 
                       _SGHtmlParserDissectorTask._currentLineIsCollapsed, 
                       _SGHtmlParserDissectorTask._currentLineText, _SGHtmlParserDissectorTask._depth, 
                       _SGHtmlParserDissectorTask._depthsWithActiveRegions, 
                       _SGHtmlParserDissectorTask._parserContext, _SGHtmlParserDissectorTask._plainTextLineToHTMLOffset, 
                       _SGHtmlParserDissectorTask._plainTextLines, _SGHtmlParserDissectorTask._plainTextLinesTotalLength, 
                       _SGHtmlParserDissectorTask._preBlockDepth, _SGHtmlParserDissectorTask._quoteToEndFromPosition, 
                       _SGHtmlParserDissectorTask._quotedRegions, _SGHtmlParserDissectorTask._renderingSuspended, 
                       _SGHtmlParserDissectorTask._sigHtmlBlockRegions, 
                       _SGHtmlParserDissectorTask._tabularRegions, _SGIdentityEdge.a, 
                       _SGIdentityEdge.b, _SGIdentityEdge.strength, _SGIdentityName._privFullName, 
                       _SGMicrodataDocument._htmlIds, _SGMicrodataDocument._items, 
                       _SGMicrodataItem._itemRef, _SGMicrodataItemScope._itemProps, 
                       _SGOffsetDictionary._carrierEntries, _SGOffsetDictionary._count, 
                       _SGOffsetDictionary._mruCarrierEntry, _SGOffsetDictionary._payloadOffset, 
                       _SGOffsetDictionary._sizeFactor, _SGOffsetDictionary._totalPayloadSize, 
                       _SGSlice._end, _SGSlice._start, _SGSlice._type, 
                       _SGSqlEntityStore._db, _SGSqlEntityStore._entityMigrations, 
                       _SGSqlEntityStore._entityVersion, _SGSqlEntityStore._history, 
                       _SGSqlEntityStore._identityStoreDirty, _SGSqlEntityStore._snippetDb, 
                       _SGSqlEntityStore._snippetsJournal, _SGSqlEntityStore._snippetsMigrations, 
                       _SGSqlEntityStore._snippetsVersion, _SGSqliteDatabase._currentExclusivity, 
                       _SGSqliteDatabase._db, _SGSqliteDatabase._filename, 
                       _SGSqliteDatabase._queryCache, _SGSqliteDatabase._queue, 
                       _SGSqliteDatabase._threadInQueue, _SGSqliteDatabase._transactionDepth, 
                       _SGSqliteDatabase._transactionRolledback ]
    weak-def-symbols: [ __ZTIN3re217NumCapturesWalkerE, __ZTIN3re218CaptureNamesWalkerE, 
                        __ZTIN3re219NamedCapturesWalkerE, __ZTIN3re26Regexp6WalkerINS_4FragEEE, 
                        __ZTIN3re26Regexp6WalkerIPNS_9Prefilter4InfoEEE, 
                        __ZTIN3re26Regexp6WalkerIPS0_EE, __ZTIN3re26Regexp6WalkerIbEE, 
                        __ZTIN3re26Regexp6WalkerIiEE, __ZTINSt3__115basic_stringbufIcNS_11char_traitsIcEENS_9allocatorIcEEEE, 
                        __ZTINSt3__119basic_ostringstreamIcNS_11char_traitsIcEENS_9allocatorIcEEEE, 
                        __ZTSN3re217NumCapturesWalkerE, __ZTSN3re218CaptureNamesWalkerE, 
                        __ZTSN3re219NamedCapturesWalkerE, __ZTSN3re26Regexp6WalkerINS_4FragEEE, 
                        __ZTSN3re26Regexp6WalkerIPNS_9Prefilter4InfoEEE, 
                        __ZTSN3re26Regexp6WalkerIPS0_EE, __ZTSN3re26Regexp6WalkerIbEE, 
                        __ZTSN3re26Regexp6WalkerIiEE, __ZTSNSt3__115basic_stringbufIcNS_11char_traitsIcEENS_9allocatorIcEEEE, 
                        __ZTSNSt3__119basic_ostringstreamIcNS_11char_traitsIcEENS_9allocatorIcEEEE ]
...
