--- !tapi-tbd
tbd-version:     4
targets:         [ x86_64-macos, arm64-macos, arm64e-macos ]
uuids:
  - target:          x86_64-macos
    value:           2E4D6B81-9B41-322F-8EF8-82A74B35F720
  - target:          arm64-macos
    value:           00000000-0000-0000-0000-000000000000
  - target:          arm64e-macos
    value:           1777F20A-21B4-3C82-904E-1B5486D5423C
install-name:    '/System/Library/PrivateFrameworks/PAImagingCore.framework/Versions/A/PAImagingCore'
current-version: 340.0.220
exports:
  - targets:         [ x86_64-macos ]
    weak-symbols:    [ __ZTIN2PA10RectFinderE, __ZTIN2PA14PathRectFinderE, __ZTIN2PA16AnchorRectFinderE, 
                       __ZTIN2PA16centerRectFinderE, __ZTIN2PA24AnchorRectFinderVerticalE, 
                       __ZTIN2PA26AnchorRectFinderHorizontalE, __ZTSN2PA10RectFinderE, 
                       __ZTSN2PA14PathRectFinderE, __ZTSN2PA16AnchorRectFinderE, 
                       __ZTSN2PA16centerRectFinderE, __ZTSN2PA24AnchorRectFinderVerticalE, 
                       __ZTSN2PA26AnchorRectFinderHorizontalE ]
  - targets:         [ x86_64-macos, arm64e-macos, arm64-macos ]
    symbols:         [ _CompareLab, _PAImageFormatInvalid, _PAImagingCoreVersionNumber, 
                       _PAImagingCoreVersionString, _PMRDurationUnits, _PMRFPSUnits, 
                       _PMRTimestampUnits, __Z12clippedPointRKN2PA8Vector2dERKNS_13LineSegment2dE, 
                       __Z15CGRectTranslate6CGRectN2PA8Vector2dE, __Z15projectionPointRKN2PA8Vector2dERKNS_13LineSegment2dE, 
                       __Z17intersectionPointRKN2PA6Quad2dES2_RK8CGVectord, __Z17pointFromVertexIDRK6CGRecti, 
                       __Z17vertexIDFromPointRK6CGRectRK7CGPoint, __Z17vertexIDFromPointRK6CGRectRK7CGPointd, 
                       __Z24CGRectEqualToRectWithTol6CGRectS_d, __Z27canExpandWithAbsoluteAnchormRKN2PA6Quad2dERK6CGRectR7CGPoint, 
                       __Z30aspectRatioConstrainedFromRect6CGRect13PAAspectRatio7CGPoint, 
                       __Z30aspectRatioConstrainedFromRect6CGRect13PAAspectRatio7CGPointd, 
                       __Z35deriveScaledRectFromConstrainedRect6CGRectS_N2PA6Quad2dE7CGPoint, 
                       __Z39deriveTranslatedRectFromConstrainedRect6CGRectN2PA6Quad2dE8CGVector, 
                       __Z3AbsO7DataSet, __Z3AbsRK7DataSet, __Z3ExpO7DataSet, __Z3ExpRK7DataSet, 
                       __Z3LogO7DataSet, __Z3LogRK7DataSet, __Z6SquareO7DataSet, 
                       __Z6SquareRK7DataSet, __Z7logQuadP8NSStringN2PA6Quad2dE, __Z7logRectP8NSString6CGRect, 
                       __ZN7DataSet3AbsEv, __ZN7DataSet3ExpEv, __ZN7DataSet3LogEv, 
                       __ZN7DataSet3PowEd, __ZN7DataSet6SquareEv, __ZN7DataSetmIEd, 
                       __ZN7DataSetmLERKS_, __ZN7DataSetpLEd, __ZmiRK7DataSetd, __ZplRK7DataSetd, 
                       _kConsolidateImagesWhenExportingLibraryKey, _kDefaultColorSpace, 
                       _kExportAttachmentsWithMastersKey, _kExportFolderNamingPresetKey, 
                       _kExportNamingPresetKey, _kExportPresetsKey, _kExportSizeLarge, 
                       _kExportSizeMedium, _kExportSizeSmall, _kExportVideoPresetsKey, 
                       _kIncludePreviewsWhenExportingLibraryKey, _kPMRStdDevDefaultTolerance, 
                       _kRKExportDestinationPathKey, _kRKExportFileNamingPolicyKey, 
                       _kRKExportFinalDestinationPathKey, _kRKExportSettingsKey, 
                       _kRKExportVersionKey, _kShowAlertWhenExportLibraryFinishedKey, 
                       _kShowAlertWhenExportMastersFinishedKey, _kShowAlertWhenExportVersionsFinishedKey ]
    objc-classes:    [ IPAHistogramDifferencer, IPARenderedImageData, PACGUtilities, 
                       PACropModel, PAExportImageFormat, PAImageDifferencer, PAImagingCore, 
                       PAJPEGExportFormat, PALauncher, PAPNGExportFormat, PAPSDExportFormat, 
                       PATIFFExportFormat, PATimer, PMRDataSet, PMRMeasurement, PMRMeasurementList, 
                       PMRMutableDataSet, PMRStatistics, PMRStdDevMeasurementFilter, 
                       PMRStreamingStatistics, PMRTimer, RKExportSettings ]
    objc-ivars:      [ IPARenderedImageData._histogramA, IPARenderedImageData._histogramB, 
                       IPARenderedImageData._histogramG, IPARenderedImageData._histogramR, 
                       IPARenderedImageData._histograms, PMRDataSet._data ]
...
