--- !tapi-tbd
tbd-version:     4
targets:         [ x86_64-macos, x86_64-maccatalyst, arm64-macos, arm64-maccatalyst, 
                   arm64e-macos, arm64e-maccatalyst ]
uuids:
  - target:          x86_64-macos
    value:           75601AFD-9DAC-3045-8C73-4E439081AD7F
  - target:          x86_64-maccatalyst
    value:           75601AFD-9DAC-3045-8C73-4E439081AD7F
  - target:          arm64-macos
    value:           00000000-0000-0000-0000-000000000000
  - target:          arm64-maccatalyst
    value:           00000000-0000-0000-0000-000000000000
  - target:          arm64e-macos
    value:           3CF2EB16-6995-336C-B08B-DCD091FB3DE5
  - target:          arm64e-maccatalyst
    value:           3CF2EB16-6995-336C-B08B-DCD091FB3DE5
install-name:    '/System/Library/Frameworks/ApplicationServices.framework/Versions/A/Frameworks/ATS.framework/Versions/A/Resources/libFontWorkerAccess.dylib'
exports:
  - targets:         [ x86_64-maccatalyst, x86_64-macos ]
    weak-symbols:    [ __ZTI14TATSFontWorker, __ZTS14TATSFontWorker ]
  - targets:         [ x86_64-maccatalyst, x86_64-macos, arm64e-maccatalyst, arm64e-macos, 
                       arm64-macos, arm64-maccatalyst ]
    symbols:         [ _BeginSandboxing, _CopyATSPathAppendingPath, _EnableSandbox, 
                       _GetATSAlternatePath, _GetATSPath, _GetEnvironmentVariable, 
                       _GetFontWorkerVT, _IsEnvironmentVariableEnabled, _LoadATSDylib, 
                       _LoadATSDylibFunction, _XTConsumeSandboxExtension, _XTConsumeSandboxExtensions, 
                       _XTDataStreamAppendBytes, _XTDataStreamAppendCString, _XTDataStreamAppendDouble, 
                       _XTDataStreamAppendEmptySegments, _XTDataStreamAppendEmptyStrings, 
                       _XTDataStreamAppendString, _XTDataStreamAppendUInt32, _XTDataStreamBytesLeftToRead, 
                       _XTDataStreamBytesLeftToReadInCurrentSegment, _XTDataStreamClearStream, 
                       _XTDataStreamClearToStartOfSegment, _XTDataStreamCloseReadSegment, 
                       _XTDataStreamCloseWriteSegment, _XTDataStreamCreateStream, 
                       _XTDataStreamCurrentReadSegment, _XTDataStreamCurrentWriteSegment, 
                       _XTDataStreamFree, _XTDataStreamNextSegmentID, _XTDataStreamOpenReadSegment, 
                       _XTDataStreamOpenWriteSegment, _XTDataStreamReadBytes, _XTDataStreamReadCString, 
                       _XTDataStreamReadDouble, _XTDataStreamReadString, _XTDataStreamReadUInt32, 
                       _XTDataStreamResetReadSegment, _XTDataStreamResetStream, _XTDataStreamShow, 
                       _XTDataStreamSkipReadSegment, _XTDataStreamWithData, _XTIssueSandboxExtension, 
                       _XTIssueSandboxExtensionsForURLs, _XTIssueSandboxExtensionsForURLsByPID, 
                       __Z18CopyFindAndReplacePK10__CFStringS1_S1_, __Z19utf8CopyDescriptionPKv, 
                       __Z29TFontWorkerProtocolSetClassesP14NSXPCInterface, __Z5MergePK9__CFArrayS1_R14TCFSortedArray, 
                       __Z8utf8HashPKv, __Z9utf8EqualPKvS0_, __ZN10TCFTypeRef15GetBooleanValueEPKv, 
                       __ZN11TCFBookmark16InitBookmarkDataEPK7__CFURLPK9__CFArraym, 
                       __ZN11TCFBookmark18sDefaultPropertiesE, __ZN11TCFBookmark20GetDefaultPropertiesEv, 
                       __ZN11TCFBookmark23CreateDefaultPropertiesEv, __ZN11TCFBookmark28CopyPropertyFromBookmarkDataEPK8__CFDataPK10__CFString, 
                       __ZN11TCFBookmark30CopyPropertiesFromBookmarkDataEPK8__CFDataPK9__CFArray, 
                       __ZN11TCFBookmark32CreateURLByResolvingBookmarkDataEPK8__CFDataPhPK9__CFArrayPK7__CFURLmPP9__CFError, 
                       __ZN11TFontWorker19GetFontWorkerClientEv, __ZN11TFontWorker5sLockE, 
                       __ZN14TATSFontWorker22GetATSFontWorkerClientEv, __ZN14TATSFontWorker5sLockE, 
                       __ZN14TCFSortedArray12InsertUniqueEPKv, __ZN15TCoreFontWorkerC1EP17TFontWorkerClient, 
                       __ZN15TCoreFontWorkerC2EP17TFontWorkerClient, __ZN15TCoreFontWorkerD0Ev, 
                       __ZN15TCoreFontWorkerD1Ev, __ZN15TCoreFontWorkerD2Ev, __ZN15TSessionManager11SetSafeModeEb, 
                       __ZN15TSessionManager15sSessionManagerE, __ZN15TSessionManager17GetSessionManagerEv, 
                       __ZN15TSessionManager18ResolveServiceNameEPcmPKc, __ZN15TSessionManager20CreateSessionManagerEv, 
                       __ZN15TSessionManager20IsCJKLanguageEnabledEb, __ZN15TSessionManager22IsIndicLanguageEnabledEb, 
                       __ZN15TSessionManager22IsInstallerEnvironmentEv, __ZN15TSessionManager22sEnableSessionRegistryE, 
                       __ZN15TSessionManager25GetFontAssetDirectoryPathEv, __ZN15TSessionManager29GetInstallationKindForFontURLEPK7__CFURL, 
                       __ZN15TSessionManager31IsFontConflictProtectionEnabledEv, 
                       __ZN15TSessionManagerC1Ev, __ZN15TSessionManagerC2Ev, __ZN16TCFStringUniquer14sStringUniquerE, 
                       __ZN16TCFStringUniquer16GetStringUniquerEv, __ZN16TCFStringUniquer19CreateStringUniquerEPv, 
                       __ZN16TCFStringUniquerC1Ev, __ZN16TCFStringUniquerC2Ev, __ZN17TCFFlattenContext12EstimateSizeEPKv, 
                       __ZN17TCFFlattenContext12FlattenCFSetEPK7__CFSet, __ZN17TCFFlattenContext12FlattenCFURLEPK7__CFURL, 
                       __ZN17TCFFlattenContext13FlattenCFDataEPK8__CFData, __ZN17TCFFlattenContext13FlattenCFNullEPKv, 
                       __ZN17TCFFlattenContext13FlattenCFUUIDEPK8__CFUUID, __ZN17TCFFlattenContext14FlattenCFArrayEPK9__CFArray, 
                       __ZN17TCFFlattenContext14FlattenCFErrorEP9__CFError, __ZN17TCFFlattenContext15FlattenCFNumberEPK10__CFNumber, 
                       __ZN17TCFFlattenContext15FlattenCFStringEPK10__CFString, __ZN17TCFFlattenContext16FlattenCFBooleanEPK11__CFBoolean, 
                       __ZN17TCFFlattenContext17EstimateCFSetSizeEPK7__CFSet, __ZN17TCFFlattenContext17EstimateCFURLSizeEPK7__CFURL, 
                       __ZN17TCFFlattenContext18EstimateCFDataSizeEPK8__CFData, __ZN17TCFFlattenContext18EstimateCFNullSizeEPK8__CFNull, 
                       __ZN17TCFFlattenContext18EstimateCFUUIDSizeEPK8__CFUUID, __ZN17TCFFlattenContext19EstimateCFArraySizeEPK9__CFArray, 
                       __ZN17TCFFlattenContext19EstimateCFErrorSizeEP9__CFError, 
                       __ZN17TCFFlattenContext19FlattenCFDictionaryEPK14__CFDictionary, 
                       __ZN17TCFFlattenContext20EstimateCFNumberSizeEPK10__CFNumber, 
                       __ZN17TCFFlattenContext20EstimateCFStringSizeEPK10__CFString, 
                       __ZN17TCFFlattenContext20StreamOut32bitEntityEj, __ZN17TCFFlattenContext21EstimateCFBooleanSizeEPK11__CFBoolean, 
                       __ZN17TCFFlattenContext21FlattenCFCharacterSetEPK16__CFCharacterSet, 
                       __ZN17TCFFlattenContext24EstimateCFDictionarySizeEPK14__CFDictionary, 
                       __ZN17TCFFlattenContext26EstimateCFCharacterSetSizeEPK16__CFCharacterSet, 
                       __ZN17TCFFlattenContext7FlattenEPKv, __ZN17TCFFlattenContext9StreamOutEPKvml, 
                       __ZN17TCFFlattenContextC1EP8__CFDatab, __ZN17TCFFlattenContextC2EP8__CFDatab, 
                       __ZN17TCFFlattenContextD0Ev, __ZN17TCFFlattenContextD1Ev, 
                       __ZN17TCFFlattenContextD2Ev, __ZN18TSessionManagerImp11SetSafeModeEb, 
                       __ZN18TSessionManagerImp12RemoveClientEi, __ZN18TSessionManagerImp14ShutdownServerEb, 
                       __ZN18TSessionManagerImp14sFontServerUIDE, __ZN18TSessionManagerImp15InitSessionInfoEv, 
                       __ZN18TSessionManagerImp20SetFrameworkDirPathsEv, __ZN18TSessionManagerImp22CopySessionInfoForUserEj, 
                       __ZN18TSessionManagerImp23GetDefaultDispatchQueueEv, __ZN18TSessionManagerImp9AddClientEi, 
                       __ZN18TSessionManagerImpC1Ev, __ZN18TSessionManagerImpC2Ev, 
                       __ZN18TSessionManagerImpD1Ev, __ZN18TSessionManagerImpD2Ev, 
                       __ZN19TCFResurrectContext12StreamInDataEPvml, __ZN19TCFResurrectContext13RetrieveCFSetEv, 
                       __ZN19TCFResurrectContext13RetrieveCFURLEv, __ZN19TCFResurrectContext14ResurrectCFSetEv, 
                       __ZN19TCFResurrectContext14ResurrectCFURLEv, __ZN19TCFResurrectContext14RetrieveCFDataEv, 
                       __ZN19TCFResurrectContext14RetrieveCFNullEv, __ZN19TCFResurrectContext14RetrieveCFUUIDEv, 
                       __ZN19TCFResurrectContext15ResurrectCFDataEv, __ZN19TCFResurrectContext15ResurrectCFNullEv, 
                       __ZN19TCFResurrectContext15ResurrectCFUUIDEv, __ZN19TCFResurrectContext15RetrieveCFArrayEv, 
                       __ZN19TCFResurrectContext15RetrieveCFErrorEv, __ZN19TCFResurrectContext15StreamInCFIndexEv, 
                       __ZN19TCFResurrectContext16ResurrectCFArrayEv, __ZN19TCFResurrectContext16ResurrectCFErrorEv, 
                       __ZN19TCFResurrectContext16RetrieveCFNumberEv, __ZN19TCFResurrectContext16RetrieveCFStringEv, 
                       __ZN19TCFResurrectContext17ResurrectCFNumberEv, __ZN19TCFResurrectContext17ResurrectCFStringEv, 
                       __ZN19TCFResurrectContext17ResurrectionErrorEPKc, __ZN19TCFResurrectContext17RetrieveCFBooleanEv, 
                       __ZN19TCFResurrectContext17StreamInTCFTypeIDEv, __ZN19TCFResurrectContext18ResurrectCFBooleanEv, 
                       __ZN19TCFResurrectContext19StreamIn32bitEntityEv, __ZN19TCFResurrectContext20RetrieveCFDictionaryEv, 
                       __ZN19TCFResurrectContext21ResurrectCFDictionaryEv, __ZN19TCFResurrectContext22RetrieveCFCharacterSetEv, 
                       __ZN19TCFResurrectContext23ResurrectCFCharacterSetEv, __ZN19TCFResurrectContext9ResurrectE7TCFType, 
                       __ZN19TCFResurrectContextC1EPKhm, __ZN19TCFResurrectContextC1Emm, 
                       __ZN19TCFResurrectContextC2EPKhm, __ZN19TCFResurrectContextC2Emm, 
                       __ZN19TCFResurrectContextD0Ev, __ZN19TCFResurrectContextD1Ev, 
                       __ZN19TCFResurrectContextD2Ev, __ZN19TCFStringUniquerImpC1Ev, 
                       __ZN19TCFStringUniquerImpC2Ev, __ZN19TCFStringUniquerImpD1Ev, 
                       __ZN19TCFStringUniquerImpD2Ev, __ZN20TFontProviderManager20sFontProviderManagerE, 
                       __ZN20TFontProviderManager22GetFontProviderManagerEv, __ZN20TFontProviderManager23AddFontProviderEndpointEiPv, 
                       __ZN20TFontProviderManager25CreateFontProviderManagerEv, __ZN20TFontProviderManager26RemoveFontProviderEndpointEiPv, 
                       __ZN20TFontProviderManagerC1Ev, __ZN20TFontProviderManagerC2Ev, 
                       __ZN20TFontProviderManagerD1Ev, __ZN20TFontProviderManagerD2Ev, 
                       __ZN23TFontProviderManagerImp23AddFontProviderEndpointEiPv, 
                       __ZN23TFontProviderManagerImp26RemoveFontProviderEndpointEiPv, 
                       __ZN6TCFStr34CreateStringByExpandingTildeInPathEPK10__CFString, 
                       __ZN6TCFStr36CreateSubstringWithoutRegionalSuffixEv, __ZN6TCFURL17CopySymlinkTargetEPK7__CFURL, 
                       __ZN6TCFURL18CopyNormalizedPathEPK7__CFURLb, __ZN6TCFURL23kCFURLFragmentSeparatorE, 
                       __ZN6TCFURL24kCFURLParameterSeparatorE, __ZN6TCFURL28ConvertURLArrayToStringArrayEPK9__CFArray, 
                       __ZN6TCFURL28CreateStandardizedURLFromURLEPK7__CFURL, __ZN6TCFURL29CopyConfigurationDirectoryURLE14confstr_path_t, 
                       __ZN6TCFURL31kCFURLParameterSandboxExtensionE, __ZN6TCFURL32kCFURLParameterKeyValueSeparatorE, 
                       __ZN6TCFURL39kPercentEscapedCharsForSandboxExtensionE, __ZN7TCFBlob10WriteToURLEPK7__CFURL, 
                       __ZN7TCFDataC1EPK7__CFURL, __ZN7TCFDataC2EPK7__CFURL, __ZN7TCFDict14ContainsSubsetEPK14__CFDictionary, 
                       __ZN9TCFNumber15CreateForStringEPK10__CFString, __ZN9TCFNumber17CreateFromBooleanEb, 
                       __ZN9TCFStringC1Ej, __ZN9TCFStringC2Ej, __ZNK13TCFMutableSet5UnionEPK7__CFSet, 
                       __ZNK13TCFMutableSet8MinusSetEPK7__CFSet, __ZNK13TCFMutableSet9AddValuesEPK9__CFArray, 
                       __ZNK13TCFMutableSet9IntersectEPK7__CFSet, __ZNK15TCoreFontWorker14CopyDomainInfoEjb, 
                       __ZNK15TCoreFontWorker15CopyResolvedURLEPK8__CFData, __ZNK15TCoreFontWorker16CopyResolvedURLsEPK9__CFArray, 
                       __ZNK15TCoreFontWorker17CopyDirectoryInfoEPK7__CFURL, __ZNK15TCoreFontWorker19CopyDomainInfoAsyncEjbU13block_pointerFvPK14__CFDictionaryE, 
                       __ZNK15TCoreFontWorker20CopyRegistrationInfoEPK7__CFURL, __ZNK15TCoreFontWorker22CopyDirectoryInfoAsyncEPK7__CFURLU13block_pointerFvPK14__CFDictionaryE, 
                       __ZNK15TCoreFontWorker23CopyATSRegistrationInfoEPK7__CFURLj, 
                       __ZNK15TCoreFontWorker28CopyRegistrationInfoForArrayEPK9__CFArray, 
                       __ZNK15TCoreFontWorker28CopyRegistrationInfoForArrayEPK9__CFArrayRK7retry_t, 
                       __ZNK15TSessionManager10IsReadOnlyEv, __ZNK15TSessionManager10IsSafeBootEv, 
                       __ZNK15TSessionManager11IsSafeLoginEv, __ZNK15TSessionManager12RemoveClientEi, 
                       __ZNK15TSessionManager14GetClientCountEv, __ZNK15TSessionManager14IsUserLoggedInEv, 
                       __ZNK15TSessionManager14ShutdownServerEb, __ZNK15TSessionManager16GetCurrentUserIDEv, 
                       __ZNK15TSessionManager16GetServiceSuffixEv, __ZNK15TSessionManager19GetFrameworkDirPathEv, 
                       __ZNK15TSessionManager23GetDefaultDispatchQueueEv, __ZNK15TSessionManager28GetFrameworkResourcesDirPathEv, 
                       __ZNK15TSessionManager9AddClientEi, __ZNK16TCFStringUniquer15GetUniqueStringEPK10__CFString, 
                       __ZNK16TCFStringUniquer15GetUniqueStringEPKhm, __ZNK18TSessionManagerImp10IsSafeBootEv, 
                       __ZNK19TCFStringUniquerImp15GetUniqueStringEPK10__CFString, 
                       __ZNK19TCFStringUniquerImp15GetUniqueStringEPKhm, __ZNK20TCFMutableDictionary13AddMultiValueEPKvS1_, 
                       __ZNK20TCFMutableDictionary14AddMultiValuesEPK14__CFDictionary, 
                       __ZNK20TCFMutableDictionary14AddMultiValuesEPKvPK9__CFArray, 
                       __ZNK20TCFMutableDictionary8SetPairsEPK14__CFDictionary, __ZNK20TFontProviderManager21CopyProviderEndpointsEv, 
                       __ZNK6TCFStr15GetUniqueStringEv, __ZNK6TCFURL13ConformsToUTIEPK10__CFString, 
                       __ZNK6TCFURL23CreateComponentPathURLsEv, __ZNK7TCFDict21GetPreferredLanguagesEPK9__CFArray, 
                       __ZNK7TCFDict29CreateDictionaryFilteredByKeyEPK7__CFSet, __ZTI15TCoreFontWorker, 
                       __ZTI17TCFFlattenContext, __ZTI19TCFResurrectContext, __ZTS15TCoreFontWorker, 
                       __ZTS17TCFFlattenContext, __ZTS19TCFResurrectContext, __ZTV15TCoreFontWorker, 
                       __ZTV17TCFFlattenContext, __ZTV19TCFResurrectContext, __fConnectionInterrupted, 
                       _indexOfSegment, _kAdopted, _kEscapeString, _kFWFailureMarker, 
                       _kFWNonExistentMarker, _kIsDirectory, _kIsFile, _parentOfSegment, 
                       _readStack, _segmentAtPosition, _writeSegmentAtPosition, _writeStack ]
    objc-classes:    [ TFontWorkerClient ]
...
