--- !tapi-tbd
tbd-version:     4
targets:         [ x86_64-macos, arm64-macos, arm64e-macos ]
uuids:
  - target:          x86_64-macos
    value:           42BEEFE2-1D44-3E83-AA57-FA1FFD2AA0FE
  - target:          arm64-macos
    value:           00000000-0000-0000-0000-000000000000
  - target:          arm64e-macos
    value:           E9416D20-5702-3EFE-9DC7-707ACE86C132
install-name:    '/System/Library/PrivateFrameworks/Helium.framework/Versions/A/Helium'
current-version: 0
compatibility-version: 0
exports:
  - targets:         [ x86_64-macos ]
    symbols:         [ __ZN10HGRenderer10RenderTileEP15HGExecutionUnitPDv4_f6HGRectP6HGNodei, 
                       __ZN10HGRenderer15RenderInputTileEP15HGExecutionUnitPDv4_f6HGRectP6HGNodeiP6HGTilei, 
                       __ZN12HGColorGamma11LoadMatrix1EPKDv4_f, __ZN12HGColorGamma11LoadMatrix2EPKDv4_f, 
                       __ZN12HGColorGamma16SetGammaFunctionENS_16hgColorGammaFormEDv4_fS1_S1_S1_S1_S1_S1_, 
                       __ZN12HGColorGamma8SetBias1EDv4_f, __ZN12HGColorGamma8SetBias2EDv4_f, 
                       __ZN12HGColorGamma9SetClamp1EDv4_fS0_, __ZN12HGColorGamma9SetClamp2EDv4_fS0_, 
                       __ZN12HGColorGamma9SetScale1EDv4_f, __ZN12HGColorGamma9SetScale2EDv4_f, 
                       __ZN13HGColorMatrix10LoadMatrixEPKDv4_fb, __ZN13HGColorMatrix10MultMatrixEPKDv4_fb, 
                       __ZN13HGColorMatrix14PostMultMatrixEPKDv4_fb, __ZN15HGExecutionUnit10RenderTileEPDv4_f6HGRectP6HGNodei, 
                       __ZN15HGExecutionUnit11CommitStackEPDv4_fm, __ZN16HGLinearFilter2D3setEiiDv4_fj, 
                       __ZN16HGLinearFilter2D4copyEiiiiPKDv4_fij, __ZN16HGLinearFilter2D4fillEiiiiDv4_fj, 
                       __ZN16HGLinearFilter2D5applyE4HGOpDv4_fj, __ZN16HGLinearFilter2D9normalizeEDv4_fj, 
                       __ZN16HGLinearFilter2DC1EPKDv4_fiiiii, __ZN16HGLinearFilter2DC2EPKDv4_fiiiii, 
                       __ZN8HGLogger4vlogEPKciS1_P13__va_list_tag, __ZN8HGLogger6verrorEPKcP13__va_list_tag, 
                       __ZN8HGLogger6vprintEPKcP13__va_list_tag, __ZN8HGLogger8vwarningEPKcP13__va_list_tag, 
                       __ZN9HGSampler16ReadTileIndirectEP8HGBitmapP11HGTransformPDv4_f6HGRectS6_, 
                       __ZN9HGSampler7GetTileEP8HGBitmapP11HGTransformPDv4_f6HGRecti, 
                       __ZN9HGSampler8ReadTileEP8HGBitmapP11HGTransformPDv4_f6HGRecti, 
                       __ZNK13HGColorMatrix9GetMatrixEPDv4_fbb, __ZNK13HGColorMatrix9TransformEDv4_f ]
    weak-symbols:    [ __ZTI15HGComputeDevice, __ZTI15HGGLContextImpl, __ZTI18HGCPUComputeDevice, 
                       __ZTI22HGTextureManagerHandle, __ZTIN6HGPool15ServicingPolicyE, 
                       __ZTIN6HGPool16AllocationPolicyIN17HGMetalBufferPool10DescriptorEEE, 
                       __ZTIN6HGPool16AllocationPolicyIN18HGMetalTexturePool10DescriptorEEE, 
                       __ZTIN6HGPool20FixedServicingPolicyE, __ZTIN6HGPool25FixedGroupServicingPolicyE, 
                       __ZTIN6HGPool30FixedTotalUsageServicingPolicyE, __ZTIN6HGPool8BasePoolE, 
                       __ZTIN6HGPool9AllocatorIPU19objcproto9MTLBuffer11objc_objectN17HGMetalBufferPool10DescriptorEEE, 
                       __ZTIN6HGPool9AllocatorIPU19objcproto9MTLBuffer11objc_objectN30HGMetalBufferWrapperInfinipool10DescriptorEEE, 
                       __ZTIN6HGPool9AllocatorIPU21objcproto10MTLTexture11objc_objectN18HGMetalTexturePool10DescriptorEEE, 
                       __ZTIN6HGPool9AllocatorIPU21objcproto10MTLTexture11objc_objectN31HGMetalTextureWrapperInfinipool10DescriptorEEE, 
                       __ZTINSt3__113basic_filebufIcNS_11char_traitsIcEEEE, __ZTINSt3__114basic_ifstreamIcNS_11char_traitsIcEEEE, 
                       __ZTINSt3__114basic_ofstreamIcNS_11char_traitsIcEEEE, __ZTINSt3__115basic_stringbufIcNS_11char_traitsIcEENS_9allocatorIcEEEE, 
                       __ZTINSt3__117bad_function_callE, __ZTINSt3__118basic_stringstreamIcNS_11char_traitsIcEENS_9allocatorIcEEEE, 
                       __ZTINSt3__119basic_ostringstreamIcNS_11char_traitsIcEENS_9allocatorIcEEEE, 
                       __ZTS15HGComputeDevice, __ZTS15HGGLContextImpl, __ZTS18HGCPUComputeDevice, 
                       __ZTS22HGTextureManagerHandle, __ZTSN6HGPool15ServicingPolicyE, 
                       __ZTSN6HGPool16AllocationPolicyIN17HGMetalBufferPool10DescriptorEEE, 
                       __ZTSN6HGPool16AllocationPolicyIN18HGMetalTexturePool10DescriptorEEE, 
                       __ZTSN6HGPool20FixedServicingPolicyE, __ZTSN6HGPool25FixedGroupServicingPolicyE, 
                       __ZTSN6HGPool30FixedTotalUsageServicingPolicyE, __ZTSN6HGPool8BasePoolE, 
                       __ZTSN6HGPool9AllocatorIPU19objcproto9MTLBuffer11objc_objectN17HGMetalBufferPool10DescriptorEEE, 
                       __ZTSN6HGPool9AllocatorIPU19objcproto9MTLBuffer11objc_objectN30HGMetalBufferWrapperInfinipool10DescriptorEEE, 
                       __ZTSN6HGPool9AllocatorIPU21objcproto10MTLTexture11objc_objectN18HGMetalTexturePool10DescriptorEEE, 
                       __ZTSN6HGPool9AllocatorIPU21objcproto10MTLTexture11objc_objectN31HGMetalTextureWrapperInfinipool10DescriptorEEE, 
                       __ZTSNSt3__113basic_filebufIcNS_11char_traitsIcEEEE, __ZTSNSt3__114basic_ifstreamIcNS_11char_traitsIcEEEE, 
                       __ZTSNSt3__114basic_ofstreamIcNS_11char_traitsIcEEEE, __ZTSNSt3__115basic_stringbufIcNS_11char_traitsIcEENS_9allocatorIcEEEE, 
                       __ZTSNSt3__117bad_function_callE, __ZTSNSt3__118basic_stringstreamIcNS_11char_traitsIcEENS_9allocatorIcEEEE, 
                       __ZTSNSt3__119basic_ostringstreamIcNS_11char_traitsIcEENS_9allocatorIcEEEE ]
  - targets:         [ x86_64-macos, arm64e-macos, arm64-macos ]
    symbols:         [ _HFAcquireExclusive, _HFAcquireShared, _HFAddInstanceForFactory, 
                       _HFCreateInstance, _HFDecrementThenTestI32, _HFDecrementThenTestU32, 
                       _HFGetProcessorFrequency, _HFGetTBC, _HFGetTBCFrequency, _HFIncrementThenTestI32, 
                       _HFIncrementThenTestU32, _HFReleaseExclusive, _HFReleaseShared, 
                       _HFRemoveInstanceForFactory, _HGCubeLut, _HGFree, _HGGetActiveCPU, 
                       _HGGetTBC, _HGGetTBCFrequency, _HGMalloc, _HGRealloc, _HGRectContainsRect, 
                       _HGRectExcludesRect, _HGRectFloat, _HGRectGrow, _HGRectHasSameOrigin, 
                       _HGRectInfinite, _HGRectIntegral, _HGRectIntersection, _HGRectIsEqual, 
                       _HGRectIsEqualSize, _HGRectIsInfinite, _HGRectIsNull, _HGRectIsZero, 
                       _HGRectMake4f, _HGRectMake4i, _HGRectNull, _HGRectOffset, 
                       _HGRectScale, _HGRectTranslate, _HGRectUnion, _HGRectfInfinite, 
                       _HGRectfMake4f, _HGRectfNull, _HGTestAndAddI32, _HGTestThenAddI32, 
                       __Z11HGGLisIntel14HGGLContextPtr, __Z12HGGLisNvidia14HGGLContextPtr, 
                       __Z12HGRandomInitPff, __Z13HGFormat_repr8HGFormat, __Z13HGFormat_size8HGFormat, 
                       __Z13PerfConfigurePKcyyyyb, __Z14PerfAddMessageP16tagPerfEventInfoPvyc, 
                       __Z15HGGetHostTargetv, __Z15HGSetHostTargetj, __Z15__PerfAutoFlushPv, 
                       __Z16HGFormat_isFixed8HGFormat, __Z16HGFormat_isFloat8HGFormat, 
                       __Z16__PerfAllocEventP16tagPerfEventInfoj, __Z16__PerfCreateFileP16tagPerfEventInfoPKcS2_, 
                       __Z17CreateRenderQueueP28HGRenderQueueSetupPropertiesb, __Z17HGFormat_baseType8HGFormat, 
                       __Z17HGSampleRect_INITR17HGSampleRect_STATRK7HGTRectS3_RK6HGRecti, 
                       __Z17__PerfFlushEventsv, __Z17__PerfMarkEventExyP16tagPerfEventInfo16tagPerfEventTypejyy, 
                       __Z18HGGLGetErrorStringj, __Z18HGSampleRect_DEBUGRK9HGTBuffer5HGVecS2_12HGFilterModeR17HGSampleRect_STAT, 
                       __Z18HGSampleRect_DEBUGRK9HGTBufferRK7HGTRectR16HGSampleRectStat5HGVecS7_12HGFilterMode, 
                       __Z19HGSampleRect_UNINITR17HGSampleRect_STATPKcP6HGNodeRK7HGTRecti, 
                       __Z19__PerfFlushMessagesP16tagPerfEventInfo, __Z19__PerfThreadCleanupPv, 
                       __Z20HGFormat_numChannels8HGFormat, __Z20PerfAllocGlobalEventPKc16tagPerfEventTypeS0_j, 
                       __Z20PerfStopEventLoggingv, __Z20__PerfAutoInitializePKcyyy, 
                       __Z21HGGLGetCurrentContextv, __Z21HGGLSetCurrentContext14HGGLContextPtr, 
                       __Z21PerfStartEventLoggingv, __Z21StartUserExecUnitFuncPv, 
                       __Z21__PerfAllocEventSpacev, __Z22PerfSetGroupIndicatorscc, 
                       __Z23HGGLisIntelIrisOrBetter14HGGLContextPtr, __Z23HGGetCLResourcesManagerR5HGRefI11HGGLContextEPv, 
                       __Z23StartRenderExecUnitFuncPv, __Z23__PerfDeallocEventSpacePP16tagPerfEventInfo, 
                       __Z24__PerfFinishEventLoggingP16tagPerfEventInfoP17_opaque_pthread_t, 
                       __Z24__PerfFlushEvents_threadP16tagPerfEventInfo, __Z25GetHGCameraLogEncodingMapv, 
                       __Z25HGMarkClientBufferAsDirtyP8HGBitmapmm, __Z25PerfTerminateEventLoggingv, 
                       __Z26HGGLResetSharedPixelFormatv, __Z26PerfInitializeEventLoggingv, 
                       __Z26__PerfFindInternalThreadIdP17_opaque_pthread_t, __Z27GetHGCameraLUTConversionMapv, 
                       __Z27HGCLReleaseResourcesManagerPv, __Z30HGGLGetFramebufferStatusStringj, 
                       __Z43hgColorConformNodeListCacheLockInitFunctionv, __Z9HGGLisAMD14HGGLContextPtr, 
                       __ZN10HGARRILogC18logCurveParametersE, __ZN10HGARRILogC19logCurveParamsForEIEj, 
                       __ZN10HGARRILogC1aE, __ZN10HGARRILogC6Decode9GetOutputEP10HGRenderer, 
                       __ZN10HGARRILogC6DecodeC1ENS_16SceneColorimetryEj, __ZN10HGARRILogC6DecodeC2ENS_16SceneColorimetryEj, 
                       __ZN10HGARRILogC6DecodeD0Ev, __ZN10HGARRILogC6DecodeD1Ev, 
                       __ZN10HGARRILogC6DecodeD2Ev, __ZN10HGARRILogC6Encode21sourceToARRIWideGamutE, 
                       __ZN10HGARRILogC6Encode9GetOutputEP10HGRenderer, __ZN10HGARRILogC6EncodeC1ENS_16SceneColorimetryEj, 
                       __ZN10HGARRILogC6EncodeC2ENS_16SceneColorimetryEj, __ZN10HGARRILogC6EncodeD0Ev, 
                       __ZN10HGARRILogC6EncodeD1Ev, __ZN10HGARRILogC6EncodeD2Ev, 
                       __ZN10HGCLBufferC1EP10HGCLResManP7_cl_memm, __ZN10HGCLBufferC2EP10HGCLResManP7_cl_memm, 
                       __ZN10HGCLBufferD0Ev, __ZN10HGCLBufferD1Ev, __ZN10HGCLBufferD2Ev, 
                       __ZN10HGCLResMan11createImageE6HGRect8HGFormatPi, __ZN10HGCLResMan12createBufferEmPi, 
                       __ZN10HGCLResMan12registerUserEPv, __ZN10HGCLResMan13_releaseImageEP7_cl_mem, 
                       __ZN10HGCLResMan14_releaseBufferEP7_cl_mem, __ZN10HGCLResMan14unregisterUserEPv, 
                       __ZN10HGCLResManC1ER5HGRefI11HGGLContextE, __ZN10HGCLResManC2ER5HGRefI11HGGLContextE, 
                       __ZN10HGCLResManD0Ev, __ZN10HGCLResManD1Ev, __ZN10HGCLResManD2Ev, 
                       __ZN10HGCVBitmap18getCVBitmapStorageEP8HGBitmap, __ZN10HGCVBitmap4lockEb, 
                       __ZN10HGCVBitmap6createE6HGRect8HGFormat, __ZN10HGCVBitmap6createEP10__CVBuffer8HGFormatm, 
                       __ZN10HGCVBitmap6createERK5HGRefI15HGCVPixelBufferE6HGRect8HGFormatm, 
                       __ZN10HGCVBitmap6createERK5HGRefI15HGCVPixelBufferE8HGFormatm, 
                       __ZN10HGCVBitmap6createERK5HGRefI19HGCVPixelBufferPoolE6HGRect8HGFormat, 
                       __ZN10HGCVBitmap6createERK5HGRefI19HGCVPixelBufferPoolEmm8HGFormat, 
                       __ZN10HGCVBitmap6createEmm8HGFormat, __ZN10HGCVBitmap6unlockEb, 
                       __ZN10HGCVBitmap7_createERK5HGRefI15HGCVPixelBufferE6HGRect8HGFormatm, 
                       __ZN10HGCVBitmap7_createERK5HGRefI15HGCVPixelBufferE8HGFormatm, 
                       __ZN10HGCVBitmapC1ERK5HGRefI15HGCVPixelBufferE6HGRect8HGFormatPvim, 
                       __ZN10HGCVBitmapC2ERK5HGRefI15HGCVPixelBufferE6HGRect8HGFormatPvim, 
                       __ZN10HGCVBitmapD0Ev, __ZN10HGCVBitmapD1Ev, __ZN10HGCVBitmapD2Ev, 
                       __ZN10HGComicLUT7GetDataENS_8LUTIndexE, __ZN10HGComicLUT7GetRectEv, 
                       __ZN10HGComicLUT9GetFormatEv, __ZN10HGDemosaic12SetParameterEiffff, 
                       __ZN10HGDemosaic9GetOutputEP10HGRenderer, __ZN10HGDemosaicC1Ev, 
                       __ZN10HGDemosaicC2Ev, __ZN10HGDemosaicD0Ev, __ZN10HGDemosaicD1Ev, 
                       __ZN10HGDemosaicD2Ev, __ZN10HGDotGraph10_streamAllERNSt3__113basic_ostreamIcNS0_11char_traitsIcEEEE, 
                       __ZN10HGDotGraph3endEv, __ZN10HGDotGraph4linkEPKvS1_PKcb, 
                       __ZN10HGDotGraph4nodeEPKvPKcNS_9NodeShapeE, __ZN10HGDotGraph4rankEPKv, 
                       __ZN10HGDotGraph5beginEPKc, __ZN10HGDotGraph6dashedEPKv, __ZN10HGDotGraph6enableEb, 
                       __ZN10HGDotGraph6filledEPKvPKc, __ZN10HGDotGraph6recordEPKvPKc, 
                       __ZN10HGDotGraph7endRankEv, __ZN10HGDotGraph7outlineEPKvPKc, 
                       __ZN10HGDotGraph8fontSizeEPKvj, __ZN10HGDotGraph8footnodeEb, 
                       __ZN10HGDotGraph9beginRankEv, __ZN10HGDotGraph9fontColorEPKvPKc, 
                       __ZN10HGDotGraph9linkStyleEPKvS1_bNS_10ArrowStyleE, __ZN10HGDotGraphC1Ev, 
                       __ZN10HGDotGraphC2Ev, __ZN10HGDotGraphD1Ev, __ZN10HGDotGraphD2Ev, 
                       __ZN10HGExposure10GetProgramEP10HGRenderer, __ZN10HGExposure10RenderTileEP6HGTile, 
                       __ZN10HGExposure11BindTextureEP9HGHandleri, __ZN10HGExposure12SetParameterEiffff, 
                       __ZN10HGExposure4BindEP9HGHandler, __ZN10HGExposure8SetLabelEPKf, 
                       __ZN10HGExposure9GetOutputEP10HGRenderer, __ZN10HGExposureC1Ev, 
                       __ZN10HGExposureC2Ev, __ZN10HGExposureD0Ev, __ZN10HGExposureD1Ev, 
                       __ZN10HGExposureD2Ev, __ZN10HGGLBuffer10ReadPixelsEP16HGPixelBufferObj6HGRect, 
                       __ZN10HGGLBuffer14AttachRendererEP12HGGLRenderer, __ZN10HGGLBuffer14DetachRendererEv, 
                       __ZN10HGGLBuffer7ReleaseEv, __ZN10HGGLBufferC1E6HGRect8HGFormatP12HGGLRenderer, 
                       __ZN10HGGLBufferC1E6HGRect8HGFormatP12HGGLRendererjmb, __ZN10HGGLBufferC2E6HGRect8HGFormatP12HGGLRenderer, 
                       __ZN10HGGLBufferC2E6HGRect8HGFormatP12HGGLRendererjmb, __ZN10HGGLBufferD0Ev, 
                       __ZN10HGGLBufferD1Ev, __ZN10HGGLBufferD2Ev, __ZN10HGGamutMap13SetConversionEN12HGColorGamma26hgColorGammaColorPrimariesENS0_28hgColorGammaTransferFunctionENS0_30hgColorGammaMatrixCoefficientsES1_S2_S3_, 
                       __ZN10HGGamutMap13SetConversionEN14HGColorConform30hgColorConformConversionPresetE, 
                       __ZN10HGGamutMap13SetConversionEP12CGColorSpaceS1_, __ZN10HGGamutMap21DebugOutOfGamutColorsEb, 
                       __ZN10HGGamutMap8SetSlopeEf, __ZN10HGGamutMap9GetOutputEP10HGRenderer, 
                       __ZN10HGGamutMapC1Ev, __ZN10HGGamutMapC2Ev, __ZN10HGGamutMapD0Ev, 
                       __ZN10HGGamutMapD1Ev, __ZN10HGGamutMapD2Ev, __ZN10HGGradient12SetParameterEiffff, 
                       __ZN10HGGradient15SetGradientModeENS_12GradientModeE, __ZN10HGGradient19_createGradientNodeENS_12GradientModeE, 
                       __ZN10HGGradient9GetOutputEP10HGRenderer, __ZN10HGGradientC1Ev, 
                       __ZN10HGGradientC2Ev, __ZN10HGGradientD0Ev, __ZN10HGGradientD1Ev, 
                       __ZN10HGGradientD2Ev, __ZN10HGProfiler10getTimeSecEv, __ZN10HGProfiler4initEv, 
                       __ZN10HGProfiler4stopEv, __ZN10HGProfiler5startEv, __ZN10HGProfiler6_firstE, 
                       __ZN10HGProfiler7_tbfreqE, __ZN10HGProfiler7getTimeEv, __ZN10HGProfiler8_tb_initEv, 
                       __ZN10HGProfilerC1Ev, __ZN10HGProfilerC2Ev, __ZN10HGRGB_EETF26setPeakColorComponentLevelEd, 
                       __ZN10HGRGB_EETF9GetOutputEP10HGRenderer, __ZN10HGRGB_EETFC1Ev, 
                       __ZN10HGRGB_EETFC2Ev, __ZN10HGRGB_EETFD0Ev, __ZN10HGRGB_EETFD1Ev, 
                       __ZN10HGRGB_EETFD2Ev, __ZN10HGRenderer10BindBufferEP8HGBitmap, 
                       __ZN10HGRenderer10GetProgramEP6HGNode, __ZN10HGRenderer10GetTextureEP8HGBitmap, 
                       __ZN10HGRenderer10RenderNodeEP6HGNode6HGRect8HGFormatP8HGBitmap, 
                       __ZN10HGRenderer10RenderNodeERK16HGRendererOutputb, __ZN10HGRenderer11BindTextureEiP8HGBitmapP11HGTransform12HGFilterMode, 
                       __ZN10HGRenderer11IsMergeableEP6HGNodeib, __ZN10HGRenderer11RenderInputEP15HGExecutionUnitP6HGNodeiP9HGTBuffer6HGRecti, 
                       __ZN10HGRenderer11RenderNodesERKNSt3__16vectorI16HGRendererOutputNS0_9allocatorIS2_EEEEb, 
                       __ZN10HGRenderer11RenderNodesEiPP8HGBitmapPP6HGNodeP6HGRectP8HGFormatb, 
                       __ZN10HGRenderer11RenderTilesEP6HGNode6HGRect8HGFormatP8HGBitmapbb, 
                       __ZN10HGRenderer11SetTilesROIEP6HGNode6HGRect, __ZN10HGRenderer11StatsProbesEv, 
                       __ZN10HGRenderer12CreateBufferE6HGRect8HGFormat, __ZN10HGRenderer12DepthManagerEi, 
                       __ZN10HGRenderer12GetLastErrorEv, __ZN10HGRenderer12GetParameterE19HGRendererParameter, 
                       __ZN10HGRenderer12RenderBitmapEP8HGBitmapP6HGNode, __ZN10HGRenderer12RenderBitmapEP8HGBitmapP6HGNodeb, 
                       __ZN10HGRenderer12SetParameterE19HGRendererParameteri, __ZN10HGRenderer12UpdateLimitsEP8HGLimitsj, 
                       __ZN10HGRenderer13GetUserRegionEP6HGNodeiPv, __ZN10HGRenderer13PostGetOutputEP6HGNode, 
                       __ZN10HGRenderer13PreRenderNodeEP6HGNode, __ZN10HGRenderer13RenderBitmapsEiPP8HGBitmapPP6HGNode, 
                       __ZN10HGRenderer13RenderNodeBgnEP6HGNodei, __ZN10HGRenderer13RenderNodeEndEP6HGNode, 
                       __ZN10HGRenderer14RenderTilesEndEP6HGNode, __ZN10HGRenderer15GetCachedLimitsEj, 
                       __ZN10HGRenderer15GetOutputFormatEP6HGNode, __ZN10HGRenderer16DotLogHWBlendingEP6HGNodeS1_b, 
                       __ZN10HGRenderer16RenderCheckPointEv, __ZN10HGRenderer16RenderTilesBeginEP6HGNode6HGRect8HGFormat, 
                       __ZN10HGRenderer16SetBufferDumpDirENSt3__112basic_stringIcNS0_11char_traitsIcEENS0_9allocatorIcEEEE, 
                       __ZN10HGRenderer17m_RendererCounterE, __ZN10HGRenderer18DotLogBufferOutputEP6HGNodeP8HGBitmap, 
                       __ZN10HGRenderer18MarkBufferedOutputEP6HGNode, __ZN10HGRenderer18PreRenderTraversalEP6HGNode, 
                       __ZN10HGRenderer19RenderBufferedInputEP6HGNodei, __ZN10HGRenderer19SetExternalResourceEPv, 
                       __ZN10HGRenderer20DumpLiveDebugDotTreeEPKc, __ZN10HGRenderer20DumpPreRenderDotTreeEP6HGNodePKc, 
                       __ZN10HGRenderer20GetShaderCompileTimeEv, __ZN10HGRenderer20ReleaseBufferedInputEP6HGNodei, 
                       __ZN10HGRenderer20RenderBufferedOutputEP6HGNode, __ZN10HGRenderer20SetDotGraphOutputDirENSt3__112basic_stringIcNS0_11char_traitsIcEENS0_9allocatorIcEEEE, 
                       __ZN10HGRenderer20SetOwningRenderQueueEP13HGRenderQueue, __ZN10HGRenderer21ReleaseBufferedOutputEP6HGNode, 
                       __ZN10HGRenderer22DotLogInplaceRenderingEP6HGNode, __ZN10HGRenderer22DotLogNodeBufferFormatEP6HGNodeP8HGBitmap, 
                       __ZN10HGRenderer23AdjustForBufferLocationEP6HGNode24HGRendererBufferLocation, 
                       __ZN10HGRenderer23AdjustForBufferLocationEP8HGBitmap24HGRendererBufferLocation, 
                       __ZN10HGRenderer25CreateDepthBufferManagersEv, __ZN10HGRenderer29FinalizeInputsOfBufferedNodesEP6HGNode, 
                       __ZN10HGRenderer32GetCLResourcesManagerForRendererEv, __ZN10HGRenderer6GetDODEP6HGNode, 
                       __ZN10HGRenderer6GetROIEP6HGNode, __ZN10HGRenderer6RenderE6HGRect8HGFormatP6HGNodeb, 
                       __ZN10HGRenderer6SetROIEP6HGNode6HGRectii, __ZN10HGRenderer7DotNodeEP6HGNode, 
                       __ZN10HGRenderer8GetFlagsEP6HGNodei, __ZN10HGRenderer8GetInputEP6HGNodei, 
                       __ZN10HGRenderer8GetStatsE14HGRendererStat, __ZN10HGRenderer8IsMergedEP6HGNodei, 
                       __ZN10HGRenderer9DumpStatsEv, __ZN10HGRenderer9GetBitmapEP8HGBitmap8HGFormat, 
                       __ZN10HGRenderer9GetLimitsEj, __ZN10HGRenderer9GetOutputEP6HGNode, 
                       __ZN10HGRenderer9GetTargetEj, __ZN10HGRenderer9RenderBgnEi, 
                       __ZN10HGRenderer9RenderEndEi, __ZN10HGRendererC1Ev, __ZN10HGRendererC2Ev, 
                       __ZN10HGRendererD0Ev, __ZN10HGRendererD1Ev, __ZN10HGRendererD2Ev, 
                       __ZN10HgcSampler4InitEPNS_5StateEPK11HGTransformi, __ZN10HgcSampler6CreateEv, 
                       __ZN10HgcSampler7DestroyEPNS_5StateE, __ZN11HGAntiAlias12SetParameterEiffff, 
                       __ZN11HGAntiAlias9GetOutputEP10HGRenderer, __ZN11HGAntiAliasC1ENS_10ColorSpaceE, 
                       __ZN11HGAntiAliasC2ENS_10ColorSpaceE, __ZN11HGAntiAliasD0Ev, 
                       __ZN11HGAntiAliasD1Ev, __ZN11HGAntiAliasD2Ev, __ZN11HGBlurGroup12setDumbLevelEi, 
                       __ZN11HGBlurGroup13setBlurValuesEPKfS1_m, __ZN11HGBlurGroup13setBlurValuesEPKfm, 
                       __ZN11HGBlurGroup5levelEj, __ZN11HGBlurGroupC1EP6HGNodeb, 
                       __ZN11HGBlurGroupC2EP6HGNodeb, __ZN11HGBlurGroupD0Ev, __ZN11HGBlurGroupD1Ev, 
                       __ZN11HGBlurGroupD2Ev, __ZN11HGColorBars12SetParameterEiffff, 
                       __ZN11HGColorBars9GetOutputEP10HGRenderer, __ZN11HGColorBarsC1Ev, 
                       __ZN11HGColorBarsC2Ev, __ZN11HGColorBarsD0Ev, __ZN11HGColorBarsD1Ev, 
                       __ZN11HGColorBarsD2Ev, __ZN11HGFractured10GetProgramEP10HGRenderer, 
                       __ZN11HGFractured10RenderPageEP6HGPage, __ZN11HGFractured10RenderTileEP6HGTile, 
                       __ZN11HGFractured11BindTextureEP9HGHandleri, __ZN11HGFractured11SetLightingEb, 
                       __ZN11HGFractured12GetParameterEiPf, __ZN11HGFractured12SetParameterEiffff, 
                       __ZN11HGFractured19SetMultiSampleLevelEj, __ZN11HGFractured4BindEP9HGHandler, 
                       __ZN11HGFractured6Effect10SetExtrudeEf, __ZN11HGFractured6Effect10SetImpulseEff, 
                       __ZN11HGFractured6Effect10apply_rectEPS0_fi, __ZN11HGFractured6Effect11SetLeftHandEb, 
                       __ZN11HGFractured6Effect11apply_polarEPS0_fi, __ZN11HGFractured6Effect11gen_glass_2Eiif, 
                       __ZN11HGFractured6Effect11gen_glass_2Eiiff, __ZN11HGFractured6Effect11scale_facesEf, 
                       __ZN11HGFractured6Effect12GetImageRectEv, __ZN11HGFractured6Effect12SetImageRectE6HGRect, 
                       __ZN11HGFractured6Effect12SetPointsizeEf, __ZN11HGFractured6Effect12SetRandomizeEf, 
                       __ZN11HGFractured6Effect12SetSubdivideEjj, __ZN11HGFractured6Effect13SetForceBlendEb, 
                       __ZN11HGFractured6Effect14SetOriginPointEff, __ZN11HGFractured6Effect16GetTextureMatrixEPd, 
                       __ZN11HGFractured6Effect18GetModelviewMatrixEPd, __ZN11HGFractured6Effect19GetProjectionMatrixEPd6HGRect, 
                       __ZN11HGFractured6Effect4barsEPS0_, __ZN11HGFractured6Effect4cubeEPS0_, 
                       __ZN11HGFractured6Effect4flipEPS0_, __ZN11HGFractured6Effect4initEv, 
                       __ZN11HGFractured6Effect4testEPS0_, __ZN11HGFractured6Effect5applyEff, 
                       __ZN11HGFractured6Effect5blastEPS0_, __ZN11HGFractured6Effect5buildEii, 
                       __ZN11HGFractured6Effect5buildEv, __ZN11HGFractured6Effect5swipeEPS0_, 
                       __ZN11HGFractured6Effect5twirlEPS0_, __ZN11HGFractured6Effect5whirlEPS0_, 
                       __ZN11HGFractured6Effect6RenderEP12HGGLRenderer6HGRectffi, 
                       __ZN11HGFractured6Effect6Vertex3texERK6float2S4_ii, __ZN11HGFractured6Effect6blocksEPS0_, 
                       __ZN11HGFractured6Effect6rotateEPS0_, __ZN11HGFractured6Effect6spreadEPS0_, 
                       __ZN11HGFractured6Effect6vortexEPS0_, __ZN11HGFractured6Effect7GetRectEv, 
                       __ZN11HGFractured6Effect7SetDualEib, __ZN11HGFractured6Effect7SetEaseEff, 
                       __ZN11HGFractured6Effect7SetModeEPFPFvPS0_fiES1_E, __ZN11HGFractured6Effect7SetModeEi, 
                       __ZN11HGFractured6Effect7SetRectE6HGRect, __ZN11HGFractured6Effect7crumbleEPS0_, 
                       __ZN11HGFractured6Effect7explodeEPS0_, __ZN11HGFractured6Effect7gen_triEiif, 
                       __ZN11HGFractured6Effect7gen_triEiiff, __ZN11HGFractured6Effect7shatterEPS0_, 
                       __ZN11HGFractured6Effect7shutterEPS0_, __ZN11HGFractured6Effect8GetStateEv, 
                       __ZN11HGFractured6Effect8SetDelayEf, __ZN11HGFractured6Effect8SetOrthoEb, 
                       __ZN11HGFractured6Effect8SetScaleEff, __ZN11HGFractured6Effect8SetShapeEif, 
                       __ZN11HGFractured6Effect8SetStateENS0_22HGFracturedEffectStateE, 
                       __ZN11HGFractured6Effect8gen_quadEiif, __ZN11HGFractured6Effect8gen_quadEiiff, 
                       __ZN11HGFractured6Effect8get_timeEfff, __ZN11HGFractured6Effect9TranslateEf, 
                       __ZN11HGFractured6Effect9evaporateEPS0_, __ZN11HGFractured6Effect9gen_brickEiiff, 
                       __ZN11HGFractured6Effect9gen_glassEiif, __ZN11HGFractured6Effect9gen_glassEiiff, 
                       __ZN11HGFractured6Effect9gen_pointEiif, __ZN11HGFractured6Effect9gen_pointEiiff, 
                       __ZN11HGFractured6Effect9isCroppedEv, __ZN11HGFractured6Effect9pulverizeEPS0_, 
                       __ZN11HGFractured6EffectC1Ev, __ZN11HGFractured6EffectC2Ev, 
                       __ZN11HGFractured6EffectD0Ev, __ZN11HGFractured6EffectD1Ev, 
                       __ZN11HGFractured6EffectD2Ev, __ZN11HGFractured6GetDODEP10HGRendereri6HGRect, 
                       __ZN11HGFractured6GetROIEP10HGRendereri6HGRect, __ZN11HGFractured9GetEffectEv, 
                       __ZN11HGFractured9GetOutputEP10HGRenderer, __ZN11HGFractured9SetEffectEPNS_6EffectE, 
                       __ZN11HGFracturedC1Ev, __ZN11HGFracturedC2Ev, __ZN11HGFracturedD0Ev, 
                       __ZN11HGFracturedD1Ev, __ZN11HGFracturedD2Ev, __ZN11HGGLContext10setCurrentEv, 
                       __ZN11HGGLContext11setPriorityENS_8PriorityE, __ZN11HGGLContext16setVirtualScreenEi, 
                       __ZN11HGGLContext5ShareE14HGGLContextPtr, __ZN11HGGLContext6CreateE14HGGLContextPtr, 
                       __ZN11HGGLContext6CreateEv, __ZN11HGGLContext6_shareE14HGGLContextPtr, 
                       __ZN11HGGLContext7_createE14HGGLContextPtr, __ZN11HGGLContext7_createEv, 
                       __ZN11HGGLContextC1Ev, __ZN11HGGLContextC2Ev, __ZN11HGGLContextD0Ev, 
                       __ZN11HGGLContextD1Ev, __ZN11HGGLContextD2Ev, __ZN11HGGLTexture10ReadPixelsEP16HGPixelBufferObj6HGRect, 
                       __ZN11HGGLTexture12GetOwnershipEv, __ZN11HGGLTexture13CreateTextureEP10HGGLBufferP12HGGLRenderer, 
                       __ZN11HGGLTexture14AssignRendererEP12HGGLRenderer, __ZN11HGGLTexture14AttachRendererEP12HGGLRenderer, 
                       __ZN11HGGLTexture14DetachRendererEv, __ZN11HGGLTexture14SetTextureRectE6HGRect, 
                       __ZN11HGGLTexture7ReleaseEv, __ZN11HGGLTextureC1E6HGRect8HGFormatP12HGGLRenderer, 
                       __ZN11HGGLTextureC1E6HGRect8HGFormatP12HGGLRendererjmb, __ZN11HGGLTextureC1E6HGRect8HGFormatP12HGGLRenderermb, 
                       __ZN11HGGLTextureC1E6HGRectP8HGBitmapP12HGGLRenderer, __ZN11HGGLTextureC2E6HGRect8HGFormatP12HGGLRenderer, 
                       __ZN11HGGLTextureC2E6HGRect8HGFormatP12HGGLRendererjmb, __ZN11HGGLTextureC2E6HGRect8HGFormatP12HGGLRenderermb, 
                       __ZN11HGGLTextureC2E6HGRectP8HGBitmapP12HGGLRenderer, __ZN11HGGLTextureD0Ev, 
                       __ZN11HGGLTextureD1Ev, __ZN11HGGLTextureD2Ev, __ZN11HGNikonNLog1aE, 
                       __ZN11HGNikonNLog1bE, __ZN11HGNikonNLog1cE, __ZN11HGNikonNLog1dE, 
                       __ZN11HGNikonNLog3cutE, __ZN11HGNikonNLog6Encode1tE, __ZN11HGNikonNLog6Encode2aaE, 
                       __ZN11HGNikonNLog6Encode2bbE, __ZN11HGNikonNLog6Encode9GetOutputEP10HGRenderer, 
                       __ZN11HGNikonNLog6EncodeC1ENS_16SceneColorimetryE, __ZN11HGNikonNLog6EncodeC2ENS_16SceneColorimetryE, 
                       __ZN11HGNikonNLog6EncodeD0Ev, __ZN11HGNikonNLog6EncodeD1Ev, 
                       __ZN11HGNikonNLog6EncodeD2Ev, __ZN11HGNodeInputC1EP6HGNodei, 
                       __ZN11HGNodeInputC2EP6HGNodei, __ZN11HGNodeInputD1Ev, __ZN11HGNodeInputD2Ev, 
                       __ZN11HGOverwrite10RenderPageEP6HGPage, __ZN11HGOverwrite10RenderTileEP6HGTile, 
                       __ZN11HGOverwrite12SetParameterEiffff, __ZN11HGOverwrite15RenderPageMetalEP6HGPage, 
                       __ZN11HGOverwrite6GetDODEP10HGRendereri6HGRect, __ZN11HGOverwrite6GetROIEP10HGRendereri6HGRect, 
                       __ZN11HGOverwriteC1Ev, __ZN11HGOverwriteC2Ev, __ZN11HGOverwriteD0Ev, 
                       __ZN11HGOverwriteD1Ev, __ZN11HGOverwriteD2Ev, __ZN11HGPBOBitmap8ReadTileEPv6HGRecti, 
                       __ZN11HGPBOBitmap9WriteTileEPKv6HGRect, __ZN11HGPBOBitmapC1EP16HGPixelBufferObj, 
                       __ZN11HGPBOBitmapC2EP16HGPixelBufferObj, __ZN11HGPBOBitmapD0Ev, 
                       __ZN11HGPBOBitmapD1Ev, __ZN11HGPBOBitmapD2Ev, __ZN11HGRenderJob10GetUserTagEv, 
                       __ZN11HGRenderJob10SetUserTagEy, __ZN11HGRenderJob11GetRendererEv, 
                       __ZN11HGRenderJob11GetResourceEv, __ZN11HGRenderJob11GetUserDataEv, 
                       __ZN11HGRenderJob11GetUserNameEv, __ZN11HGRenderJob11SetPriorityENS_8PriorityE, 
                       __ZN11HGRenderJob11SetRendererEP10HGRenderer, __ZN11HGRenderJob11SetResourceENS_8ResourceE, 
                       __ZN11HGRenderJob11SetUserDataEPv, __ZN11HGRenderJob11SetUserNameEPKc, 
                       __ZN11HGRenderJob12GetTypeLabelEv, __ZN11HGRenderJob13AddNotifyTimeEd, 
                       __ZN11HGRenderJob13AddRenderNodeEP12HGRenderNode, __ZN11HGRenderJob13SetNotifyFuncEPFvPS_E, 
                       __ZN11HGRenderJob14CallNotifyFuncEv, __ZN11HGRenderJob14GetPreloadTimeEv, 
                       __ZN11HGRenderJob14GetRenderQueueEv, __ZN11HGRenderJob15GetJobStartTimeEv, 
                       __ZN11HGRenderJob15GetResourceUsedEv, __ZN11HGRenderJob15IsRenderTypeJobEv, 
                       __ZN11HGRenderJob16ClearRenderNodesEv, __ZN11HGRenderJob16GetExecutionTimeEv, 
                       __ZN11HGRenderJob16GetRenderContextEv, __ZN11HGRenderJob16SetComputeDeviceERKNSt3__110shared_ptrIK15HGComputeDeviceEE, 
                       __ZN11HGRenderJob16SetRenderContextEP15HGRenderContext, __ZN11HGRenderJob16SetVirtualScreenEi, 
                       __ZN11HGRenderJob17GetGPUGraphicsAPIEv, __ZN11HGRenderJob17GetRenderNodeListEv, 
                       __ZN11HGRenderJob17SetGPUGraphicsAPIENS_14GPUGraphicsAPIE, 
                       __ZN11HGRenderJob17SetSerializeLimitEh, __ZN11HGRenderJob18RenderNodeCallbackEP12HGRenderNode, 
                       __ZN11HGRenderJob18SetDumpHeliumGraphEb, __ZN11HGRenderJob19GetNotificationTimeEv, 
                       __ZN11HGRenderJob19PreloadBitmapsToGPUEv, __ZN11HGRenderJob19UsesOnlyCPUResourceEv, 
                       __ZN11HGRenderJob19UsesOnlyGPUResourceEv, __ZN11HGRenderJob20GetComputeDeviceUsedEv, 
                       __ZN11HGRenderJob20GetForceGLFinishFlagEv, __ZN11HGRenderJob20GetPreloadBitmapListEv, 
                       __ZN11HGRenderJob20GetVirtualScreenMaskEv, __ZN11HGRenderJob20GetVirtualScreenUsedEv, 
                       __ZN11HGRenderJob20SetComputeDeviceListERKNSt3__16vectorINS0_10shared_ptrIK15HGComputeDeviceEENS0_9allocatorIS5_EEEE, 
                       __ZN11HGRenderJob20SetForceGLFinishFlagEb, __ZN11HGRenderJob20SetGLContextPriorityENS_17GLContextPriorityE, 
                       __ZN11HGRenderJob20SetVirtualScreenMaskEj, __ZN11HGRenderJob21AddRenderNodeInternalEP12HGRenderNode, 
                       __ZN11HGRenderJob21SetDumpHeliumDotGraphEb, __ZN11HGRenderJob22SetNumCPURenderThreadsEi, 
                       __ZN11HGRenderJob23GetMetalShaderPrecisionEv, __ZN11HGRenderJob23GetRenderThreadPriorityEv, 
                       __ZN11HGRenderJob23SetDumpHeliumGraphLevelEj, __ZN11HGRenderJob23SetMetalShaderPrecisionENS_20MetalShaderPrecisionE, 
                       __ZN11HGRenderJob23SetRenderThreadPriorityENS_20RenderThreadPriorityE, 
                       __ZN11HGRenderJob23SpecifiesComputeDevicesEv, __ZN11HGRenderJob24IsRequestedVirtualScreenEi, 
                       __ZN11HGRenderJob24SetDumpHeliumRenderStatsEb, __ZN11HGRenderJob25GetGraphConcatenationFlagEv, 
                       __ZN11HGRenderJob25SetGraphConcatenationFlagEb, __ZN11HGRenderJob25SetPreferredVirtualScreenEi, 
                       __ZN11HGRenderJob26GetCustomJobThreadPriorityEv, __ZN11HGRenderJob26GetPreloadBitmapsToGPUFlagEv, 
                       __ZN11HGRenderJob26SetCustomJobThreadPriorityENS_23CustomJobThreadPriorityE, 
                       __ZN11HGRenderJob26SetDumpHeliumDotGraphLevelEj, __ZN11HGRenderJob26SetPreloadBitmapsToGPUFlagEb, 
                       __ZN11HGRenderJob28AddBitmapLoaderForGPUPreloadEP14HGBitmapLoaderb, 
                       __ZN11HGRenderJob28GetProcessingBufferPrecisionEv, __ZN11HGRenderJob28HasCPUBufferDestinationsOnlyEv, 
                       __ZN11HGRenderJob28SetPreferredGPUComputeDeviceERKNSt3__110shared_ptrIK18HGGPUComputeDeviceEE, 
                       __ZN11HGRenderJob28SetProcessingBufferPrecisionENS_25ProcessingBufferPrecisionE, 
                       __ZN11HGRenderJob34SetCustomRenderThreadPriorityValueEm, __ZN11HGRenderJob7GetTypeEv, 
                       __ZN11HGRenderJob7SetTypeENS_4TypeE, __ZN11HGRenderJob8GetStateEv, 
                       __ZN11HGRenderJob8SetStateENS_5StateE, __ZN11HGRenderJobC1Ev, 
                       __ZN11HGRenderJobC2Ev, __ZN11HGRenderJobD0Ev, __ZN11HGRenderJobD1Ev, 
                       __ZN11HGRenderJobD2Ev, __ZN11HGSonySLog36Encode15sourceToSGamut3E, 
                       __ZN11HGSonySLog36Encode19sourceToSGamut3CineE, __ZN11HGSonySLog36Encode9GetOutputEP10HGRenderer, 
                       __ZN11HGSonySLog36EncodeC1ENS_16SceneColorimetryENS_14LogColorimetryE, 
                       __ZN11HGSonySLog36EncodeC2ENS_16SceneColorimetryENS_14LogColorimetryE, 
                       __ZN11HGSonySLog36EncodeD0Ev, __ZN11HGSonySLog36EncodeD1Ev, 
                       __ZN11HGSonySLog36EncodeD2Ev, __ZN11HGToneCurve10CanProcessEv, 
                       __ZN11HGToneCurve10GetProgramEP10HGRenderer, __ZN11HGToneCurve10RenderTileEP6HGTile, 
                       __ZN11HGToneCurve11BindTextureEP9HGHandleri, __ZN11HGToneCurve12GetParameterEiPf, 
                       __ZN11HGToneCurve12SetParameterEiffff, __ZN11HGToneCurve15SetShaderParamsEv, 
                       __ZN11HGToneCurve16AcceleratedStateENS_15hgToneCurveFormEfffffff, 
                       __ZN11HGToneCurve18SetToneCurveParamsENS_15hgToneCurveFormEfffffff, 
                       __ZN11HGToneCurve19SetAcceleratedStateENS_27hgToneCurveAcceleratedStateE, 
                       __ZN11HGToneCurve19SetPremultiplyStateEb, __ZN11HGToneCurve19SetToneCurveQualityENS_18hgToneCurveQualityE, 
                       __ZN11HGToneCurve4BindEP9HGHandler, __ZN11HGToneCurve6GetDODEP10HGRendereri6HGRect, 
                       __ZN11HGToneCurve6GetROIEP10HGRendereri6HGRect, __ZN11HGToneCurve9CanBypassEPS_, 
                       __ZN11HGToneCurve9GetOutputEP10HGRenderer, __ZN11HGToneCurveC1Ev, 
                       __ZN11HGToneCurveC2Ev, __ZN11HGToneCurveD0Ev, __ZN11HGToneCurveD1Ev, 
                       __ZN11HGToneCurveD2Ev, __ZN11HGTransform11LoadColumnfEPKfi, 
                       __ZN11HGTransform11LoadFrustumEffffff, __ZN11HGTransform11LoadMatrixdEPKd, 
                       __ZN11HGTransform11LoadMatrixfEPKf, __ZN11HGTransform11PerspectiveEdd, 
                       __ZN11HGTransform11PreMultiplyEPKS_, __ZN11HGTransform12LoadIdentityEv, 
                       __ZN11HGTransform13LoadTransformEPKS_, __ZN11HGTransform18LoadMatrixfloat4x4EPKN4simd8float4x4E, 
                       __ZN11HGTransform19LoadMatrixdouble4x4EPKN4simd9double4x4E, 
                       __ZN11HGTransform5ScaleEddd, __ZN11HGTransform5ShearEdddd, 
                       __ZN11HGTransform6InvertEv, __ZN11HGTransform6RotateEdddd, 
                       __ZN11HGTransform8Invert2DEv, __ZN11HGTransform8Matrix2DEv, 
                       __ZN11HGTransform8MultiplyEPKS_, __ZN11HGTransform9Adjoint2DEv, 
                       __ZN11HGTransform9LoadOrthoEffffff, __ZN11HGTransform9TranslateEddd, 
                       __ZN11HGTransform9TransposeEv, __ZN11HGTransformC1Ev, __ZN11HGTransformC2Ev, 
                       __ZN11HGTransformD0Ev, __ZN11HGTransformD1Ev, __ZN11HGTransformD2Ev, 
                       __ZN12HGApply1DLUT10SetLUTDataEPvi8HGFormat, __ZN12HGApply1DLUT12CreateBitmapEv, 
                       __ZN12HGApply1DLUT12SetLUTBitmapEP8HGBitmap, __ZN12HGApply1DLUT4InitEjffbbbbbb, 
                       __ZN12HGApply1DLUT6SetLUTEPFiPvfPfS1_S1_S1_ES0_, __ZN12HGApply1DLUT9GetOutputEP10HGRenderer, 
                       __ZN12HGApply1DLUTC1Ej, __ZN12HGApply1DLUTC1Ejffbbbbbb, __ZN12HGApply1DLUTC1Ev, 
                       __ZN12HGApply1DLUTC2Ej, __ZN12HGApply1DLUTC2Ejffbbbbbb, __ZN12HGApply1DLUTC2Ev, 
                       __ZN12HGApply1DLUTD0Ev, __ZN12HGApply1DLUTD1Ev, __ZN12HGApply1DLUTD2Ev, 
                       __ZN12HGApply3DLUT12SetLUTBitmapEP8HGBitmap, __ZN12HGApply3DLUT4InitEm8HGFormatffbNS_29hgApply3DLUTInterpolationTypeEbbbb, 
                       __ZN12HGApply3DLUT4InitEm8HGFormatffffffbNS_29hgApply3DLUTInterpolationTypeEbbbb, 
                       __ZN12HGApply3DLUT6SetLUTEPFiPvfffPfS1_S1_S1_ES0_, __ZN12HGApply3DLUT6SetLUTEPviii8HGFormat, 
                       __ZN12HGApply3DLUT8InvCubicEf, __ZN12HGApply3DLUT9GetOutputEP10HGRenderer, 
                       __ZN12HGApply3DLUTC1Em, __ZN12HGApply3DLUTC1Em8HGFormat, __ZN12HGApply3DLUTC1Em8HGFormatffbNS_29hgApply3DLUTInterpolationTypeE, 
                       __ZN12HGApply3DLUTC1Em8HGFormatffbNS_29hgApply3DLUTInterpolationTypeEbbbb, 
                       __ZN12HGApply3DLUTC1Em8HGFormatffffffbNS_29hgApply3DLUTInterpolationTypeEbbbb, 
                       __ZN12HGApply3DLUTC1Ev, __ZN12HGApply3DLUTC2Em, __ZN12HGApply3DLUTC2Em8HGFormat, 
                       __ZN12HGApply3DLUTC2Em8HGFormatffbNS_29hgApply3DLUTInterpolationTypeE, 
                       __ZN12HGApply3DLUTC2Em8HGFormatffbNS_29hgApply3DLUTInterpolationTypeEbbbb, 
                       __ZN12HGApply3DLUTC2Em8HGFormatffffffbNS_29hgApply3DLUTInterpolationTypeEbbbb, 
                       __ZN12HGApply3DLUTC2Ev, __ZN12HGApply3DLUTD0Ev, __ZN12HGApply3DLUTD1Ev, 
                       __ZN12HGApply3DLUTD2Ev, __ZN12HGColorClamp12SetParameterEiffff, 
                       __ZN12HGColorClamp17SetClampMaxValuesEffff, __ZN12HGColorClamp17SetClampMinValuesEffff, 
                       __ZN12HGColorClamp9GetOutputEP10HGRenderer, __ZN12HGColorClampC1Eff, 
                       __ZN12HGColorClampC1Ev, __ZN12HGColorClampC2Eff, __ZN12HGColorClampC2Ev, 
                       __ZN12HGColorClampD0Ev, __ZN12HGColorClampD1Ev, __ZN12HGColorClampD2Ev, 
                       __ZN12HGColorGamma10RGBToYCbCrE, __ZN12HGColorGamma10RenderTileEP6HGTile, 
                       __ZN12HGColorGamma10YCbCrToRGBE, __ZN12HGColorGamma10m_Get1DLutEv, 
                       __ZN12HGColorGamma11CanLoadDataE8HGFormat, __ZN12HGColorGamma11CreateNodesEv, 
                       __ZN12HGColorGamma11ScaleParamsEP6HGNodeP10HGRenderer, __ZN12HGColorGamma12ReleaseNodesEv, 
                       __ZN12HGColorGamma12SetParameterEiffff, __ZN12HGColorGamma13SetConversionENS_26hgColorGammaColorPrimariesENS_28hgColorGammaTransferFunctionENS_30hgColorGammaMatrixCoefficientsES0_S1_S2_, 
                       __ZN12HGColorGamma13SetConversionENS_30hgColorGammaMatrixCoefficientsENS_20hgColorGammaLogCurveENS_20hgColorGammaLogGamutENS_26hgColorGammaColorPrimariesE, 
                       __ZN12HGColorGamma13SetDitherModeEb, __ZN12HGColorGamma13m_GetCropNodeEv, 
                       __ZN12HGColorGamma14TestConversionENS_26hgColorGammaColorPrimariesENS_28hgColorGammaTransferFunctionENS_30hgColorGammaMatrixCoefficientsES0_S1_S2_, 
                       __ZN12HGColorGamma14m_GetBias1NodeEv, __ZN12HGColorGamma14m_GetBias2NodeEv, 
                       __ZN12HGColorGamma15Set1DLUTnumBinsEj, __ZN12HGColorGamma15SetFallbackModeEb, 
                       __ZN12HGColorGamma15m_GetDitherNodeEv, __ZN12HGColorGamma16IsConcatenatableEP6HGNode, 
                       __ZN12HGColorGamma16SetGammaFunctionENS_20hgColorGammaLogCurveE, 
                       __ZN12HGColorGamma16m_GetGammaMCNodeEv, __ZN12HGColorGamma17PrepareOutputNodeEP10HGRenderer6HGRect8HGFormat, 
                       __ZN12HGColorGamma18SetToneQualityModeENS_23hgColorGammaToneQualityE, 
                       __ZN12HGColorGamma18m_GetMatrix_1_NodeEv, __ZN12HGColorGamma18m_GetMatrix_2_NodeEv, 
                       __ZN12HGColorGamma19LoadMacroNodeParamsEv, __ZN12HGColorGamma19SetConversionPresetENS_28hgColorGammaConversionPresetE, 
                       __ZN12HGColorGamma19SetInputPixelFormatENS_23hgColorGammaYCbCrFormatE, 
                       __ZN12HGColorGamma19SetPremultiplyStateEbb, __ZN12HGColorGamma20SetOutputPixelFormatE8HGFormatNS_23hgColorGammaYCbCrFormatE, 
                       __ZN12HGColorGamma20SetYCbCrBiasAndScaleEv, __ZN12HGColorGamma20m_GetGammaFittedNodeEv, 
                       __ZN12HGColorGamma20m_GetHDRFunctionNodeENS_16hgColorGammaFormE, 
                       __ZN12HGColorGamma20m_GetPremultiplyNodeEv, __ZN12HGColorGamma20m_GetTextureWrapNodeEv, 
                       __ZN12HGColorGamma20m_GetToneParamCurve1Ev, __ZN12HGColorGamma20m_GetToneParamCurve2Ev, 
                       __ZN12HGColorGamma20m_GetToneParamCurve3Ev, __ZN12HGColorGamma20m_GetToneParamCurve4Ev, 
                       __ZN12HGColorGamma21SetInOut422FilterModeENS_30hgColorGammaInOut422FilterModeE, 
                       __ZN12HGColorGamma21SetInOut422FilterRectE6HGRect, __ZN12HGColorGamma21m_GetGammaUniformNodeEv, 
                       __ZN12HGColorGamma21rec2020RGBToRec709RGBE, __ZN12HGColorGamma21rec709RGBToRec2020RGBE, 
                       __ZN12HGColorGamma22Set1DLutScaleAndOffsetEff, __ZN12HGColorGamma22logGamutRGBToRec709RGBE, 
                       __ZN12HGColorGamma22m_GetUnpremultiplyNodeEv, __ZN12HGColorGamma23logGamutRGBToRec2020RGBE, 
                       __ZN12HGColorGamma23m_GetGammaUnPremultNodeEv, __ZN12HGColorGamma24SetARRILogCExposureIndexEj, 
                       __ZN12HGColorGamma24m_Get2vuy_XYXZExpandNodeEv, __ZN12HGColorGamma24m_Get2vuy_YXZXExpandNodeEv, 
                       __ZN12HGColorGamma24m_Getv210_YXZXExpandNodeEP10HGRenderer, 
                       __ZN12HGColorGamma24m_Getv216_YXZXExpandNodeEv, __ZN12HGColorGamma25m_GetChromaUpsampleF1NodeEv, 
                       __ZN12HGColorGamma26m_Get2vuy_XYXZCollapseNodeEv, __ZN12HGColorGamma26m_Get2vuy_YXZXCollapseNodeEv, 
                       __ZN12HGColorGamma26m_Getv210_YXZXCollapseNodeEP10HGRenderer, 
                       __ZN12HGColorGamma26m_Getv216_YXZXCollapseNodeEv, __ZN12HGColorGamma27ConcatenateWithUpstreamNodeEP10HGRendererPP6HGNode, 
                       __ZN12HGColorGamma27m_GetChromaDownsampleF1NodeEv, __ZN12HGColorGamma47m_GetPixelFormatConversion_kV4B_WXYZ_OutputNodeEv, 
                       __ZN12HGColorGamma47m_GetPixelFormatConversion_kV4F_WXYZ_OutputNodeEv, 
                       __ZN12HGColorGamma47m_GetPixelFormatConversion_kV4S_WXYZ_OutputNodeEv, 
                       __ZN12HGColorGamma50m_GetPixelFormatConversion_kV4B10Bit_BE_OutputNodeEv, 
                       __ZN12HGColorGamma50m_GetPixelFormatConversion_kV4S_BE_WXYZ_OutputNodeEv, 
                       __ZN12HGColorGamma6GetDODEP10HGRendereri6HGRect, __ZN12HGColorGamma6GetROIEP10HGRendereri6HGRect, 
                       __ZN12HGColorGamma8RGBToXYZE, __ZN12HGColorGamma8XYZToRGBE, 
                       __ZN12HGColorGamma8identityE, __ZN12HGColorGamma9GetOutputEP10HGRenderer, 
                       __ZN12HGColorGammaC1Ev, __ZN12HGColorGammaC2Ev, __ZN12HGColorGammaD0Ev, 
                       __ZN12HGColorGammaD1Ev, __ZN12HGColorGammaD2Ev, __ZN12HGComicEdges10GetProgramEP10HGRenderer, 
                       __ZN12HGComicEdges10RenderTileEP6HGTile, __ZN12HGComicEdges11BindTextureEP9HGHandleri, 
                       __ZN12HGComicEdges12SetParameterEiffff, __ZN12HGComicEdges6GetDODEP10HGRendereri6HGRect, 
                       __ZN12HGComicEdges6GetROIEP10HGRendereri6HGRect, __ZN12HGComicEdges9GetOutputEP10HGRenderer, 
                       __ZN12HGComicEdgesC1Ev, __ZN12HGComicEdgesC2Ev, __ZN12HGComicEdgesD0Ev, 
                       __ZN12HGComicEdgesD1Ev, __ZN12HGComicEdgesD2Ev, __ZN12HGDefinition13SetBlurAmountEf, 
                       __ZN12HGDefinition16CIToHGBlurRadiusEf, __ZN12HGDefinition19SetDefinitionAmountEf, 
                       __ZN12HGDefinition9GetOutputEP10HGRenderer, __ZN12HGDefinitionC1Ev, 
                       __ZN12HGDefinitionC2Ev, __ZN12HGDefinitionD0Ev, __ZN12HGDefinitionD1Ev, 
                       __ZN12HGDefinitionD2Ev, __ZN12HGEdgePolicyC1ENS_8WrapModeE, 
                       __ZN12HGEdgePolicyC1Ev, __ZN12HGEdgePolicyC2ENS_8WrapModeE, 
                       __ZN12HGEdgePolicyC2Ev, __ZN12HGGLRenderer10BindBufferEP8HGBitmap, 
                       __ZN12HGGLRenderer10ClearMetalEP8HGBuffer6HGRect, __ZN12HGGLRenderer10ClearMetalEP8HGBuffer6HGRectPf, 
                       __ZN12HGGLRenderer10ClearMetalEP8HGBuffer6HGRectS2_, __ZN12HGGLRenderer10ForceClearEv, 
                       __ZN12HGGLRenderer10GenProgramEP6HGNodeb, __ZN12HGGLRenderer10GetDrawFBOEv, 
                       __ZN12HGGLRenderer10GetTextureEP8HGBitmap, __ZN12HGGLRenderer10ReadBitmapE6HGRectP8HGBitmap, 
                       __ZN12HGGLRenderer10RenderPageEP6HGNodeP6HGPage, __ZN12HGGLRenderer10TestShaderEPK13HGShaderEntry, 
                       __ZN12HGGLRenderer10TestShaderERK8HGStringP8HGLimitsPPK13HGShaderEntry, 
                       __ZN12HGGLRenderer10TestShaderERKN8HGString6DigestEP8HGLimitsPPK13HGShaderEntry, 
                       __ZN12HGGLRenderer11BindProgramEPK13HGShaderEntryPv, __ZN12HGGLRenderer11BindProgramEPKcPv, 
                       __ZN12HGGLRenderer11BindTextureEiP8HGBitmapP11HGTransform12HGFilterMode, 
                       __ZN12HGGLRenderer11ClearBufferEP8HGBuffer6HGRect, __ZN12HGGLRenderer11ClearBufferEP8HGBuffer6HGRectPf, 
                       __ZN12HGGLRenderer11ClearBufferEP8HGBuffer6HGRectS2_, __ZN12HGGLRenderer11ConcatenateEP6HGNodePK13HGShaderEntryj, 
                       __ZN12HGGLRenderer11LoadTextureE6HGRectP8HGBitmap, __ZN12HGGLRenderer11LoadTextureE6HGRectP8HGBitmapb, 
                       __ZN12HGGLRenderer11ProcessNodeEP6HGNode6HGRect8HGFormatP8HGBitmapP8HGBufferbbb, 
                       __ZN12HGGLRenderer11RenderTilesEP6HGNode6HGRect8HGFormatP8HGBitmapbb, 
                       __ZN12HGGLRenderer12CreateBufferE6HGRect8HGFormat, __ZN12HGGLRenderer12CreateBufferE6HGRect8HGFormat14HGGPURenderAPIbb, 
                       __ZN12HGGLRenderer12CreateBufferE6HGRect8HGFormatb, __ZN12HGGLRenderer12GetGLTextureEP8HGBitmap, 
                       __ZN12HGGLRenderer12GetOwnershipEP11HGGLTexture, __ZN12HGGLRenderer12GetParameterE19HGRendererParameter, 
                       __ZN12HGGLRenderer12RenderBitmapEP8HGBitmapP6HGNode, __ZN12HGGLRenderer12RenderBitmapEP8HGBitmapP6HGNodeb, 
                       __ZN12HGGLRenderer12SetParameterE19HGRendererParameteri, __ZN12HGGLRenderer12UpdateLimitsEP8HGLimitsj, 
                       __ZN12HGGLRenderer13CreateTextureEv, __ZN12HGGLRenderer13GetNodeBitmapEP6HGNode6HGRectP8HGBufferb, 
                       __ZN12HGGLRenderer13PostGetOutputEP6HGNode, __ZN12HGGLRenderer13PreRenderNodeEP6HGNode, 
                       __ZN12HGGLRenderer13ReleaseBitmapEP8HGBitmapb, __ZN12HGGLRenderer13RenderBitmapsEiPP8HGBitmapPP6HGNode, 
                       __ZN12HGGLRenderer13UnBindProgramEP9HGHandler, __ZN12HGGLRenderer14BuildPagesListERNSt3__16vectorI10HGROIsInfoNS0_9allocatorIS2_EEEEP6HGNode6HGRect, 
                       __ZN12HGGLRenderer14FinishTexturesEi, __ZN12HGGLRenderer14GenRectTextureEPjj, 
                       __ZN12HGGLRenderer14GenRectTextureEPjjjjjjjb, __ZN12HGGLRenderer14GetNodeTextureEP6HGNode6HGRectP8HGBufferb, 
                       __ZN12HGGLRenderer14GetRenderEventEv, __ZN12HGGLRenderer14LoadNullBitmapEv, 
                       __ZN12HGGLRenderer14LoadNullBufferEv, __ZN12HGGLRenderer14ProcessNodeEndEP6HGNode, 
                       __ZN12HGGLRenderer14ProcessOnePageEP6HGNode6HGRectR10HGROIsInfo8HGFormatP8HGBufferbb, 
                       __ZN12HGGLRenderer14ReleaseTextureEP11HGGLTextureb, __ZN12HGGLRenderer15AddTextureUsageEP8HGBitmap, 
                       __ZN12HGGLRenderer15BufferCopyMetalEP8HGBuffer6HGRectP8HGBitmap, 
                       __ZN12HGGLRenderer15DelTextureUsageEP8HGBitmap, __ZN12HGGLRenderer15GetMetalContextEv, 
                       __ZN12HGGLRenderer15GetMetalTextureEP8HGBitmap, __ZN12HGGLRenderer15GetRawGLTextureEP8HGBitmap, 
                       __ZN12HGGLRenderer16BufferCopyOpenGLEP8HGBuffer6HGRectP8HGBitmap, 
                       __ZN12HGGLRenderer16ConvertToTextureE6HGRectP8HGBitmap, __ZN12HGGLRenderer16EmptyTexturePoolEv, 
                       __ZN12HGGLRenderer16GetNodeRenderAPIEP6HGNode, __ZN12HGGLRenderer16ProcessNodeBeginEP6HGNode, 
                       __ZN12HGGLRenderer16RenderTilesBeginEP6HGNode6HGRect8HGFormat, 
                       __ZN12HGGLRenderer17DeleteRectTextureEPKjbPv, __ZN12HGGLRenderer17GetMultiSampleFBOEv, 
                       __ZN12HGGLRenderer17LoadNullGLTextureEv, __ZN12HGGLRenderer17ProcessOnePageEndEP6HGNode, 
                       __ZN12HGGLRenderer17ReadBitmapClassicE6HGRectP8HGBitmap, __ZN12HGGLRenderer17ReadBitmapWithPBOE6HGRectP8HGBitmap, 
                       __ZN12HGGLRenderer17TextureUsageCountEv, __ZN12HGGLRenderer18BindBufferInternalEP8HGBitmap, 
                       __ZN12HGGLRenderer18ConvertToGLTextureE6HGRectP8HGBitmap, 
                       __ZN12HGGLRenderer18CreateMetalTextureE6HGRect8HGFormatb, 
                       __ZN12HGGLRenderer18DismissRectTextureEPKjbPv, __ZN12HGGLRenderer18FinishMetalTextureEP14HGMetalTexture, 
                       __ZN12HGGLRenderer18GetRawMetalTextureEP8HGBitmap, __ZN12HGGLRenderer18MarkBufferedOutputEP6HGNode, 
                       __ZN12HGGLRenderer19GetNodeMetalTextureEP6HGNode6HGRectP8HGBufferb, 
                       __ZN12HGGLRenderer19InitDefaultPageSizeEv, __ZN12HGGLRenderer19InitV210PixelFormatEv, 
                       __ZN12HGGLRenderer19ProcessNodeInternalEP6HGNode6HGRect8HGFormatP8HGBufferbbb, 
                       __ZN12HGGLRenderer19ProcessOnePageBeginEP6HGNode, __ZN12HGGLRenderer19SetProjectionMatrixEP11HGTransform, 
                       __ZN12HGGLRenderer20CopyBitmapIntoBufferEP8HGBuffer6HGRectP8HGBitmap, 
                       __ZN12HGGLRenderer20EnqueueTextureDeleteEPKjP8HGBitmapbb, 
                       __ZN12HGGLRenderer20GetCVPixelBufferPoolEv, __ZN12HGGLRenderer20GetConcatenationMaskEP6HGNodePKc, 
                       __ZN12HGGLRenderer20GetShaderCompileTimeEv, __ZN12HGGLRenderer20LoadNullMetalTextureEv, 
                       __ZN12HGGLRenderer20ReadbackMetalTextureEP8HGBitmapS1_, __ZN12HGGLRenderer20RenderBufferedOutputEP6HGNode, 
                       __ZN12HGGLRenderer20UpdateCurrentContextEv, __ZN12HGGLRenderer21BindCachedFramebufferEjjj, 
                       __ZN12HGGLRenderer21BindMultiSampleBufferEibb, __ZN12HGGLRenderer21ConvertToMetalTextureE6HGRectP8HGBitmap, 
                       __ZN12HGGLRenderer21ConvertToMetalTextureE6HGRectP8HGBitmapb, 
                       __ZN12HGGLRenderer21ConvertToMetalTextureEP8HGBitmap, __ZN12HGGLRenderer21ConvertToNonGLTextureEP8HGBitmap, 
                       __ZN12HGGLRenderer21ConvertToRawGLTextureEP8HGBitmap, __ZN12HGGLRenderer21GetLastMetalCmdBufferEv, 
                       __ZN12HGGLRenderer21ProcessNodeIntoBitmapEP6HGNode6HGRect8HGFormatP8HGBitmapbb, 
                       __ZN12HGGLRenderer21PurgePostDeleteEventsEv, __ZN12HGGLRenderer21SetLastMetalCmdBufferE22HGMTLCommandBufferType, 
                       __ZN12HGGLRenderer21WaitForCommandBuffersEv, __ZN12HGGLRenderer22ValidateCurrentContextEv, 
                       __ZN12HGGLRenderer23AdjustForBufferLocationEP6HGNode24HGRendererBufferLocation, 
                       __ZN12HGGLRenderer23AdjustForBufferLocationEP8HGBitmap24HGRendererBufferLocation, 
                       __ZN12HGGLRenderer23EncodeRenderEventSignalEv, __ZN12HGGLRenderer23FlushMetalCommandBufferEb, 
                       __ZN12HGGLRenderer23ResetLastMetalCmdBufferEv, __ZN12HGGLRenderer23UnBindCachedFramebufferEv, 
                       __ZN12HGGLRenderer24ConvertToNonMetalTextureEP8HGBitmap, __ZN12HGGLRenderer24ConvertToRawMetalTextureEP8HGBitmap, 
                       __ZN12HGGLRenderer24FinishMetalCommandBufferEv, __ZN12HGGLRenderer24ResolveMultiSampleBufferEv, 
                       __ZN12HGGLRenderer24SetCVPoolRecyclingPolicyEmmy, __ZN12HGGLRenderer25CreateDepthBufferManagersEv, 
                       __ZN12HGGLRenderer28GetCLCommandQueueForRendererEv, __ZN12HGGLRenderer28InitSpecificGraphicCardPrefsEv, 
                       __ZN12HGGLRenderer28RenderAndReadbackMaxTileSizeEv, __ZN12HGGLRenderer32GetCLResourcesManagerForRendererEv, 
                       __ZN12HGGLRenderer33GetMetalContextForAuxiliaryDeviceEPK17HGMetalDeviceInfo, 
                       __ZN12HGGLRenderer4CopyE6HGRecti, __ZN12HGGLRenderer4InitE14HGGLContextPtr, 
                       __ZN12HGGLRenderer4RectE6HGRecti, __ZN12HGGLRenderer4RectEP9HGHandler6HGRecti, 
                       __ZN12HGGLRenderer5ClearE6HGRect, __ZN12HGGLRenderer5ClearE6HGRectPf, 
                       __ZN12HGGLRenderer5ClearE6HGRectS0_, __ZN12HGGLRenderer7ReleaseEv, 
                       __ZN12HGGLRenderer8PageInitEP6HGNode6HGRectPS2_i, __ZN12HGGLRenderer8SetOrthoE6HGRect, 
                       __ZN12HGGLRenderer9BindProbeEiii, __ZN12HGGLRenderer9CopyMetalEP8HGBuffer6HGRectP8HGBitmap, 
                       __ZN12HGGLRenderer9CopyMetalEP8HGBuffer6HGRectP8HGBitmapRK14HGBlendingInfoRKDv4_fb, 
                       __ZN12HGGLRenderer9GetBitmapEP8HGBitmap, __ZN12HGGLRenderer9GetBitmapEP8HGBitmap8HGFormat, 
                       __ZN12HGGLRenderer9GetStringEPK13HGShaderEntry, __ZN12HGGLRenderer9InitMetalEv, 
                       __ZN12HGGLRenderer9RenderBgnEi, __ZN12HGGLRenderer9RenderEndEi, 
                       __ZN12HGGLRendererC1E14HGGLContextPtr, __ZN12HGGLRendererC1E14HGGLContextPtrPv, 
                       __ZN12HGGLRendererC2E14HGGLContextPtr, __ZN12HGGLRendererC2E14HGGLContextPtrPv, 
                       __ZN12HGGLRendererD0Ev, __ZN12HGGLRendererD1Ev, __ZN12HGGLRendererD2Ev, 
                       __ZN12HGMetalUtils11metalFormatE8HGFormat, __ZN12HGMetalUtils12structStringE8HGLimits, 
                       __ZN12HGMetalUtils12vertexStringE8HGLimits, __ZN12HGMetalUtils13bytesPerPixelEm, 
                       __ZN12HGMetalUtils13includeStringEv, __ZN12HGMetalUtils14compileShadersE15HGMTLDeviceTypeRKNSt3__112basic_stringIcNS1_11char_traitsIcEENS1_9allocatorIcEEEE, 
                       __ZN12HGMetalUtils18blitBufferToBufferE21HGMTLCommandQueueTypeP13HGMetalBufferS2_6HGRectbb, 
                       __ZN12HGMetalUtils19blitBufferToTextureE21HGMTLCommandQueueTypeP13HGMetalBufferP14HGMetalTexture6HGRectbb, 
                       __ZN12HGMetalUtils19blitTextureToBufferE21HGMTLCommandQueueTypeP14HGMetalTextureP13HGMetalBuffer6HGRectbb, 
                       __ZN12HGMetalUtils20blitTextureToTextureE21HGMTLCommandQueueTypeP14HGMetalTextureS0_S2_bb, 
                       __ZN12HGMetalUtils20blitTextureToTextureE21HGMTLCommandQueueTypeP14HGMetalTextureS2_6HGRectbb, 
                       __ZN12HGMetalUtils24tiledBlitBufferToTextureE21HGMTLCommandQueueTypeP13HGMetalBufferP14HGMetalTexture6HGRectbbm, 
                       __ZN12HGMetalUtils24tiledBlitTextureToBufferE21HGMTLCommandQueueTypeP14HGMetalTextureP13HGMetalBuffer6HGRectbbm, 
                       __ZN12HGMetalUtils31addStatusCheckCompletionHandlerE22HGMTLCommandBufferType, 
                       __ZN12HGMetalUtils8hgFormatEm, __ZN12HGMetalUtils8toStringEm, 
                       __ZN12HGPerspXForm12SetTransformEP11HGTransform, __ZN12HGPerspXForm7SetBiasEf, 
                       __ZN12HGPerspXForm8SetAnisoEb, __ZN12HGPerspXForm9GetOutputEP10HGRenderer, 
                       __ZN12HGPerspXFormC1Ev, __ZN12HGPerspXFormC2Ev, __ZN12HGPerspXFormD0Ev, 
                       __ZN12HGPerspXFormD1Ev, __ZN12HGPerspXFormD2Ev, __ZN12HGRenderNode10GetUserTagEv, 
                       __ZN12HGRenderNode10SetUserTagEy, __ZN12HGRenderNode11GetLocationEv, 
                       __ZN12HGRenderNode11GetRendererEv, __ZN12HGRenderNode11GetUserDataEv, 
                       __ZN12HGRenderNode11GetUserNameEv, __ZN12HGRenderNode11SetRendererEP10HGRenderer, 
                       __ZN12HGRenderNode11SetUserDataEPv, __ZN12HGRenderNode11SetUserNameEPKc, 
                       __ZN12HGRenderNode12GetStatsTimeEv, __ZN12HGRenderNode13GetRBLocationEv, 
                       __ZN12HGRenderNode13GetRenderTimeEv, __ZN12HGRenderNode13SetNotifyFuncEPFvPS_E, 
                       __ZN12HGRenderNode14CallNotifyFuncEv, __ZN12HGRenderNode14GetDestinationEv, 
                       __ZN12HGRenderNode14GetRenderQueueEv, __ZN12HGRenderNode14SetDestinationENS_11DestinationE, 
                       __ZN12HGRenderNode14SetFullROIFlagEb, __ZN12HGRenderNode14SetRenderQueueEP13HGRenderQueue, 
                       __ZN12HGRenderNode16GetGPUUploadTimeEv, __ZN12HGRenderNode17GetBufferCopyTimeEv, 
                       __ZN12HGRenderNode17GetPixelBufferObjEv, __ZN12HGRenderNode18GetGPUReadbackTimeEv, 
                       __ZN12HGRenderNode23GetDestinationGLContextEv, __ZN12HGRenderNode23NotifyRenderJobFinishedEv, 
                       __ZN12HGRenderNode23SetDestinationGLContextE14HGGLContextPtr, 
                       __ZN12HGRenderNode25GetXgmiXGpuBufferCopyTimeEv, __ZN12HGRenderNode27GetDestinationComputeDeviceEv, 
                       __ZN12HGRenderNode27SetDestinationComputeDeviceERKNSt3__110shared_ptrIK15HGComputeDeviceEE, 
                       __ZN12HGRenderNode6SetROIE6HGRect, __ZN12HGRenderNode7SetNodeEP6HGNode, 
                       __ZN12HGRenderNode8GetStateEv, __ZN12HGRenderNode8SetStateENS_5StateE, 
                       __ZN12HGRenderNode9GetBitmapEv, __ZN12HGRenderNode9GetFormatEv, 
                       __ZN12HGRenderNode9SetBitmapEP8HGBitmap, __ZN12HGRenderNode9SetFormatE8HGFormat, 
                       __ZN12HGRenderNodeC1Ev, __ZN12HGRenderNodeC2Ev, __ZN12HGRenderNodeD0Ev, 
                       __ZN12HGRenderNodeD1Ev, __ZN12HGRenderNodeD2Ev, __ZN12HGSWRendererC1Ev, 
                       __ZN12HGSWRendererC2Ev, __ZN12HGSWRendererD0Ev, __ZN12HGSWRendererD1Ev, 
                       __ZN12HGSWRendererD2Ev, __ZN12HGShaderNode10GetProgramEP10HGRenderer, 
                       __ZN12HGShaderNode13SetShaderFileERKNSt3__112basic_stringIcNS0_11char_traitsIcEENS0_9allocatorIcEEEE, 
                       __ZN12HGShaderNode14GetErrorStringEv, __ZN12HGShaderNode15SetShaderStringERKNSt3__112basic_stringIcNS0_11char_traitsIcEENS0_9allocatorIcEEEE, 
                       __ZN12HGShaderNode17SetGLSLShaderFileERKNSt3__112basic_stringIcNS0_11char_traitsIcEENS0_9allocatorIcEEEE, 
                       __ZN12HGShaderNode18SetMetalShaderFileERKNSt3__112basic_stringIcNS0_11char_traitsIcEENS0_9allocatorIcEEEE, 
                       __ZN12HGShaderNode19SetGLSLShaderStringERKNSt3__112basic_stringIcNS0_11char_traitsIcEENS0_9allocatorIcEEEE, 
                       __ZN12HGShaderNode20SetMetalShaderStringERKNSt3__112basic_stringIcNS0_11char_traitsIcEENS0_9allocatorIcEEEE, 
                       __ZN12HGShaderNode24ValidateGLSLShaderStringEP10HGRenderer, 
                       __ZN12HGShaderNode25ValidateMetalShaderStringEP10HGRenderer, 
                       __ZN12HGShaderNode6GetROIEP10HGRendereri6HGRect, __ZN12HGShaderNode7IsValidEv, 
                       __ZN12HGShaderNode9GetOutputEP10HGRenderer, __ZN12HGShaderNodeC1Ev, 
                       __ZN12HGShaderNodeC2Ev, __ZN12HGShaderNodeD0Ev, __ZN12HGShaderNodeD1Ev, 
                       __ZN12HGShaderNodeD2Ev, __ZN12HGSolidColor12SetParameterEiffff, 
                       __ZN12HGSolidColor9GetOutputEP10HGRenderer, __ZN12HGSolidColorC1E6HGRect, 
                       __ZN12HGSolidColorC1Ev, __ZN12HGSolidColorC2E6HGRect, __ZN12HGSolidColorC2Ev, 
                       __ZN12HGSolidColorD0Ev, __ZN12HGSolidColorD1Ev, __ZN12HGSolidColorD2Ev, 
                       __ZN12HGTraceGuardC1EPKciS1_, __ZN12HGTraceGuardC2EPKciS1_, 
                       __ZN12HGTraceGuardD1Ev, __ZN12HGTraceGuardD2Ev, __ZN13HGBT2390_EETF14LMSToRGBMatrixE, 
                       __ZN13HGBT2390_EETF14RGBToLMSMatrixE, __ZN13HGBT2390_EETF16ICtCpToLMSMatrixE, 
                       __ZN13HGBT2390_EETF16LMSToICtCpMatrixE, __ZN13HGBT2390_EETF29setDisplayLuminanceCapabilityEdd, 
                       __ZN13HGBT2390_EETF9GetOutputEP10HGRenderer, __ZN13HGBT2390_EETFC1ENS_12MappingSpaceE, 
                       __ZN13HGBT2390_EETFC2ENS_12MappingSpaceE, __ZN13HGBT2390_EETFD0Ev, 
                       __ZN13HGBT2390_EETFD1Ev, __ZN13HGBT2390_EETFD2Ev, __ZN13HGBitmapUtils11GetCVBitmapERK5HGRefI8HGBitmapE, 
                       __ZN13HGBitmapUtils14GetTextureRectEP8HGBitmap, __ZN13HGBitmapUtils21GetTextureDataSubRectEP8HGBitmap, 
                       __ZN13HGBitmapUtils8isPaddedEP8HGBitmap, __ZN13HGBitmapUtils9WriteTIFFERK5HGRefI8HGBitmapERKNSt3__112basic_stringIcNS5_11char_traitsIcEENS5_9allocatorIcEEEE, 
                       __ZN13HGChannelCopy14SetCopyChannelEbbbb, __ZN13HGChannelCopy9GetOutputEP10HGRenderer, 
                       __ZN13HGChannelCopyC1Ev, __ZN13HGChannelCopyC2Ev, __ZN13HGChannelCopyD0Ev, 
                       __ZN13HGChannelCopyD1Ev, __ZN13HGChannelCopyD2Ev, __ZN13HGColorMatrix10GetProgramEP10HGRenderer, 
                       __ZN13HGColorMatrix10LoadMatrixEPK5HGVecb, __ZN13HGColorMatrix10MultMatrixEPK5HGVecb, 
                       __ZN13HGColorMatrix10RenderTileEP6HGTile, __ZN13HGColorMatrix10XYZtoppRGBE, 
                       __ZN13HGColorMatrix10XYZtowgRGBE, __ZN13HGColorMatrix10ppRGBtoXYZE, 
                       __ZN13HGColorMatrix10wgRGBtoXYZE, __ZN13HGColorMatrix11BindTextureEP9HGHandleri, 
                       __ZN13HGColorMatrix11YCbCrTosRGBE, __ZN13HGColorMatrix11sRGBtoYCbCrE, 
                       __ZN13HGColorMatrix12LoadIdentityEv, __ZN13HGColorMatrix12SetParameterEiffff, 
                       __ZN13HGColorMatrix14PostMultMatrixEPK5HGVecb, __ZN13HGColorMatrix14RenderFragmentEP10HGFragmentP6HGTile, 
                       __ZN13HGColorMatrix18ParameterizeMatrixEP10HGRenderer, __ZN13HGColorMatrix4BindEP9HGHandler, 
                       __ZN13HGColorMatrix5ScaleEfff, __ZN13HGColorMatrix6RotateEffff, 
                       __ZN13HGColorMatrix8CATtoXYZE, __ZN13HGColorMatrix8LMStoXYZE, 
                       __ZN13HGColorMatrix8OPPtoXYZE, __ZN13HGColorMatrix8XYZtoCATE, 
                       __ZN13HGColorMatrix8XYZtoLMSE, __ZN13HGColorMatrix8XYZtoOPPE, 
                       __ZN13HGColorMatrix9BradtoXYZE, __ZN13HGColorMatrix9GetOutputEP10HGRenderer, 
                       __ZN13HGColorMatrix9NTSCtoXYZE, __ZN13HGColorMatrix9TranslateEfff, 
                       __ZN13HGColorMatrix9XYZtoBradE, __ZN13HGColorMatrix9XYZtoNTSCE, 
                       __ZN13HGColorMatrix9XYZtoaRGBE, __ZN13HGColorMatrix9XYZtogRGBE, 
                       __ZN13HGColorMatrix9XYZtosRGBE, __ZN13HGColorMatrix9aRGBtoXYZE, 
                       __ZN13HGColorMatrix9gRGBtoXYZE, __ZN13HGColorMatrix9sRGBtoXYZE, 
                       __ZN13HGColorMatrixC1Ev, __ZN13HGColorMatrixC2Ev, __ZN13HGColorMatrixD0Ev, 
                       __ZN13HGColorMatrixD1Ev, __ZN13HGColorMatrixD2Ev, __ZN13HGComicStroke10GetProgramEP10HGRenderer, 
                       __ZN13HGComicStroke10RenderTileEP6HGTile, __ZN13HGComicStroke11BindTextureEP9HGHandleri, 
                       __ZN13HGComicStroke12SetParameterEiffff, __ZN13HGComicStroke6GetDODEP10HGRendereri6HGRect, 
                       __ZN13HGComicStroke6GetROIEP10HGRendereri6HGRect, __ZN13HGComicStroke9GetOutputEP10HGRenderer, 
                       __ZN13HGComicStrokeC1Ev, __ZN13HGComicStrokeC2Ev, __ZN13HGComicStrokeD0Ev, 
                       __ZN13HGComicStrokeD1Ev, __ZN13HGComicStrokeD2Ev, __ZN13HGConvolution12SetParameterEiffff, 
                       __ZN13HGConvolution14GetCoefficientEii, __ZN13HGConvolution14GetCoefficientEiij, 
                       __ZN13HGConvolution14SetCoefficientEiif, __ZN13HGConvolution14SetCoefficientEiiffff, 
                       __ZN13HGConvolution17SeparableFilter2DE14HGFilterPresetS0_, 
                       __ZN13HGConvolution17SeparableFilter2DERK16HGLinearFilter2DS2_, 
                       __ZN13HGConvolution19ConvolutionFilter2DE14HGFilterPreset, 
                       __ZN13HGConvolution19ConvolutionFilter2DERK16HGLinearFilter2D, 
                       __ZN13HGConvolution3Mad10GetProgramEP10HGRenderer, __ZN13HGConvolution3MadC1Ev, 
                       __ZN13HGConvolution3MadC2Ev, __ZN13HGConvolution3MadD0Ev, 
                       __ZN13HGConvolution3MadD1Ev, __ZN13HGConvolution3MadD2Ev, 
                       __ZN13HGConvolution7SetSizeEii, __ZN13HGConvolution9GetOutputEP10HGRenderer, 
                       __ZN13HGConvolution9SetBoundsEiiii, __ZN13HGConvolution9SetOriginEii, 
                       __ZN13HGConvolutionC1Ev, __ZN13HGConvolutionC2Ev, __ZN13HGConvolutionD0Ev, 
                       __ZN13HGConvolutionD1Ev, __ZN13HGConvolutionD2Ev, __ZN13HGFormatUtils10toGLFormatE8HGFormat, 
                       __ZN13HGFormatUtils10toGLFormatE8HGFormatb, __ZN13HGFormatUtils11buildFormatE18HGFormatComponentsj, 
                       __ZN13HGFormatUtils12rowBytesHintE8HGFormatj, __ZN13HGFormatUtils12toHGGLFormatE8HGFormat, 
                       __ZN13HGFormatUtils13bytesPerPixelE8HGFormat, __ZN13HGFormatUtils13textureSizeMBEjj8HGFormat, 
                       __ZN13HGFormatUtils14isPackedFormatE8HGFormat, __ZN13HGFormatUtils15adjustPrecisionEjj, 
                       __ZN13HGFormatUtils16GLFormatToStringEj, __ZN13HGFormatUtils16textureSizeBytesEjj8HGFormat, 
                       __ZN13HGFormatUtils18GLFormatToByteSizeEj, __ZN13HGFormatUtils18GLFormatToByteSizeEjj, 
                       __ZN13HGFormatUtils18toGLInternalFormatE8HGFormat, __ZN13HGFormatUtils18toGLInternalFormatE8HGFormatb, 
                       __ZN13HGFormatUtils19GLPixelTypeToStringEj, __ZN13HGFormatUtils19expandRectForFormatERK6HGRect8HGFormat, 
                       __ZN13HGFormatUtils20HGGLFormatToHGFormatE10HGGLFormat, __ZN13HGFormatUtils21GLPixelFormatToStringEj, 
                       __ZN13HGFormatUtils21collapseRectForFormatERK6HGRect8HGFormat, 
                       __ZN13HGFormatUtils26tileWidthFactorRequirementE8HGFormat, 
                       __ZN13HGFormatUtils28HGGLFormatToGLInternalFormatE10HGGLFormat, 
                       __ZN13HGFormatUtils8toGLTypeE8HGFormat, __ZN13HGFormatUtils8toGLTypeE8HGFormatb, 
                       __ZN13HGFormatUtils8toStringE8HGFormat, __ZN13HGFormatUtils9RGBtoRGBAE8HGFormat, 
                       __ZN13HGFormatUtils9precisionE8HGFormat, __ZN13HGInvertAlpha9GetOutputEP10HGRenderer, 
                       __ZN13HGInvertAlphaC1Ev, __ZN13HGInvertAlphaC2Ev, __ZN13HGInvertAlphaD0Ev, 
                       __ZN13HGInvertAlphaD1Ev, __ZN13HGInvertAlphaD2Ev, __ZN13HGLayerParamsC1EifiRKDv4_f, 
                       __ZN13HGLayerParamsC1Ev, __ZN13HGLayerParamsC2EifiRKDv4_f, 
                       __ZN13HGLayerParamsC2Ev, __ZN13HGLensDistort13SetLensParamsEfffffff, 
                       __ZN13HGLensDistort9GetOutputEP10HGRenderer, __ZN13HGLensDistortC1Ev, 
                       __ZN13HGLensDistortC2Ev, __ZN13HGLensDistortD0Ev, __ZN13HGLensDistortD1Ev, 
                       __ZN13HGLensDistortD2Ev, __ZN13HGLoggerUtils16timePrettyStringEy, 
                       __ZN13HGLoggerUtils17bytesPrettyStringEy, __ZN13HGLoggerUtils18matrixPrettyStringEPKdiiRKNSt3__112basic_stringIcNS2_11char_traitsIcEENS2_9allocatorIcEEEESA_, 
                       __ZN13HGLoggerUtils18matrixPrettyStringEPKfiiRKNSt3__112basic_stringIcNS2_11char_traitsIcEENS2_9allocatorIcEEEESA_, 
                       __ZN13HGMetalBuffer10GetContentEv, __ZN13HGMetalBuffer11MarkAsDirtyEmm, 
                       __ZN13HGMetalBuffer14createWithCopyE15HGMTLDeviceTypeP8HGBitmap, 
                       __ZN13HGMetalBuffer14createWithCopyE15HGMTLDeviceTypePvm, 
                       __ZN13HGMetalBuffer15createFromBytesE15HGMTLDeviceTypeP30HGMetalBufferWrapperInfinipoolP8HGBitmapb, 
                       __ZN13HGMetalBuffer15createFromBytesE15HGMTLDeviceTypeP30HGMetalBufferWrapperInfinipoolPvmb, 
                       __ZN13HGMetalBuffer15getMetalStorageEP8HGBitmap, __ZN13HGMetalBuffer16createFromBitmapE15HGMTLDeviceTypeP30HGMetalBufferWrapperInfinipoolP8HGBitmapb, 
                       __ZN13HGMetalBuffer18canCreateFromBytesEP8HGBitmap, __ZN13HGMetalBuffer18canCreateFromBytesEPvm, 
                       __ZN13HGMetalBuffer25ModifyRangeAndMarkAsDirtyEmmPKv, __ZN13HGMetalBuffer32ModifyRangeWithoutMarkingAsDirtyEmmPKv, 
                       __ZN13HGMetalBuffer6createE15HGMTLDeviceTypeP17HGMetalBufferPool6HGRect8HGFormat, 
                       __ZN13HGMetalBuffer6createE15HGMTLDeviceTypeP17HGMetalBufferPoolm, 
                       __ZN13HGMetalBufferC1E15HGMTLDeviceType6HGRect8HGFormat, __ZN13HGMetalBufferC2E15HGMTLDeviceType6HGRect8HGFormat, 
                       __ZN13HGMetalBufferD0Ev, __ZN13HGMetalBufferD1Ev, __ZN13HGMetalBufferD2Ev, 
                       __ZN13HGMipMapGroup5levelEj, __ZN13HGMipMapGroupC1EP6HGNodeb, 
                       __ZN13HGMipMapGroupC2EP6HGNodeb, __ZN13HGMipMapGroupD0Ev, 
                       __ZN13HGMipMapGroupD1Ev, __ZN13HGMipMapGroupD2Ev, __ZN13HGMipmapLevelC2Ev, 
                       __ZN13HGMipmapLevelD0Ev, __ZN13HGMipmapLevelD1Ev, __ZN13HGMipmapLevelD2Ev, 
                       __ZN13HGOutputClamp10Set_B_coefEffff, __ZN13HGOutputClamp10Set_G_coefEffff, 
                       __ZN13HGOutputClamp10Set_R_coefEffff, __ZN13HGOutputClamp11Set_Cb_coefEffff, 
                       __ZN13HGOutputClamp11Set_Cr_coefEffff, __ZN13HGOutputClamp11Set_Yp_coefEffff, 
                       __ZN13HGOutputClamp9GetOutputEP10HGRenderer, __ZN13HGOutputClampC1ENS_4ModeE, 
                       __ZN13HGOutputClampC2ENS_4ModeE, __ZN13HGPremultiply9GetOutputEP10HGRenderer, 
                       __ZN13HGPremultiplyC1Ev, __ZN13HGPremultiplyC2Ev, __ZN13HGPremultiplyD0Ev, 
                       __ZN13HGPremultiplyD1Ev, __ZN13HGPremultiplyD2Ev, __ZN13HGRenderQueue10GetRunModeEv, 
                       __ZN13HGRenderQueue10GetUserJobEP14HGUserExecUnitPP9HGUserJob, 
                       __ZN13HGRenderQueue10SetRunModeENS_7RunModeE, __ZN13HGRenderQueue11AddRendererEP10HGRenderer, 
                       __ZN13HGRenderQueue11AddRendererEP10HGRendererNS_8WorkModeEm, 
                       __ZN13HGRenderQueue11GetRunStateEv, __ZN13HGRenderQueue12GetRenderJobEP16HGRenderExecUnitPP11HGRenderJob, 
                       __ZN13HGRenderQueue13CancelUserJobEP9HGUserJob, __ZN13HGRenderQueue14CancelUserJobsEb, 
                       __ZN13HGRenderQueue14CancelUserJobsEjb, __ZN13HGRenderQueue14EnqueueUserJobEP9HGUserJob, 
                       __ZN13HGRenderQueue14IsShuttingDownEv, __ZN13HGRenderQueue14RemoveRendererEP10HGRenderer, 
                       __ZN13HGRenderQueue15AddUserJobQueueEv, __ZN13HGRenderQueue15CancelRenderJobEP11HGRenderJob, 
                       __ZN13HGRenderQueue16AddRenderContextEP15HGRenderContext, 
                       __ZN13HGRenderQueue16DequeueRenderJobEP11HGRenderJob, __ZN13HGRenderQueue16EnqueueRenderJobEP11HGRenderJob, 
                       __ZN13HGRenderQueue16ExecuteRenderJobEP11HGRenderJob, __ZN13HGRenderQueue17DeleteHGGLTextureEP11HGGLTexture, 
                       __ZN13HGRenderQueue17GetGPUReadbackJobEP21HGGPUReadbackExecUnitPP16HGGPUReadbackJob, 
                       __ZN13HGRenderQueue17GetRenderContextsEPNSt3__14listIP15HGRenderContextNS0_9allocatorIS3_EEEE, 
                       __ZN13HGRenderQueue19CancelAllRenderJobsEb, __ZN13HGRenderQueue19DumpRenderJobQueuesEv, 
                       __ZN13HGRenderQueue19GetUserJobFromQueueEP14HGUserExecUnitPP9HGUserJob, 
                       __ZN13HGRenderQueue19IsRenderJobEnqueuedEPK11HGRenderJob, 
                       __ZN13HGRenderQueue19RemoveRenderContextEP15HGRenderContext, 
                       __ZN13HGRenderQueue20GetNumActiveUserJobsEj, __ZN13HGRenderQueue20GetNumActiveUserJobsEv, 
                       __ZN13HGRenderQueue20GetPBOFromSharedPoolEP21HGGPUReadbackExecUnitP16HGGPUReadbackJob, 
                       __ZN13HGRenderQueue20SetPreferredResourceENS_17PreferredResourceE, 
                       __ZN13HGRenderQueue21CancelUserJobsWithTagEyb, __ZN13HGRenderQueue21EnqueueGPUReadbackJobEP16HGGPUReadbackJob, 
                       __ZN13HGRenderQueue21GetMinJobExecPriorityEv, __ZN13HGRenderQueue21GetNumJobsInUserQueueEv, 
                       __ZN13HGRenderQueue21GetRenderJobFromQueueEP16HGRenderExecUnitPP11HGRenderJob, 
                       __ZN13HGRenderQueue21NotifyIdleRenderUnitsEv, __ZN13HGRenderQueue21SetMTLRenderSyncLevelEi, 
                       __ZN13HGRenderQueue21SetMinJobExecPriorityEi, __ZN13HGRenderQueue22ReleasePBOToSharedPoolEP16HGPixelBufferObj, 
                       __ZN13HGRenderQueue23CancelRenderJobsWithTagEyb, __ZN13HGRenderQueue23EnqueueDeleteRenderNodeEP12HGRenderNode, 
                       __ZN13HGRenderQueue23ExecuteRenderJobsManualEm, __ZN13HGRenderQueue23GetNumJobsInRenderQueueEv, 
                       __ZN13HGRenderQueue23SetSerializeRendersFlagEb, __ZN13HGRenderQueue24EnqueueDeleteHGGLTextureEP11HGGLTexture, 
                       __ZN13HGRenderQueue24GetDebugQueueVerboseMaskEv, __ZN13HGRenderQueue24SetDebugQueueVerboseMaskEj, 
                       __ZN13HGRenderQueue25CancelAllActiveRenderJobsEb, __ZN13HGRenderQueue25CancelAllQueuedRenderJobsEv, 
                       __ZN13HGRenderQueue25GetNumActiveCPURenderJobsEv, __ZN13HGRenderQueue25GetNumActiveGPURenderJobsEiN11HGRenderJob8PriorityE, 
                       __ZN13HGRenderQueue26GetGPUReadbackJobFromQueueEP21HGGPUReadbackExecUnitPP16HGGPUReadbackJob, 
                       __ZN13HGRenderQueue26GetGPURendererForGLContextE14HGGLContextPtrb, 
                       __ZN13HGRenderQueue26GetLockFlagOnVirtualScreenEi, __ZN13HGRenderQueue26SetLockFlagOnVirtualScreenEib, 
                       __ZN13HGRenderQueue27GetNumActiveGPUReadbackJobsEi, __ZN13HGRenderQueue27ShouldNotifyIdleRenderUnitsEv, 
                       __ZN13HGRenderQueue28EnqueueRenderJobWithPriorityEP11HGRenderJob, 
                       __ZN13HGRenderQueue28GetNumJobsInPBOReadbackQueueEv, __ZN13HGRenderQueue28GetRenderLockOnVirtualScreenEi, 
                       __ZN13HGRenderQueue28SetSerializeGPUReadbacksFlagEb, __ZN13HGRenderQueue29CancelActiveRenderJobsWithTagEyb, 
                       __ZN13HGRenderQueue29CancelQueuedRenderJobsWithTagEy, __ZN13HGRenderQueue30GetThrottleFlagOnVirtualScreenEi, 
                       __ZN13HGRenderQueue30SetThrottleFlagOnVirtualScreenEib, __ZN13HGRenderQueue31GetNumActiveGPUCustomRenderJobsEi, 
                       __ZN13HGRenderQueue31SetGPUReadbackQueueThrottleSizeEm, __ZN13HGRenderQueue32ReleaseRenderLockOnVirtualScreenEiPv, 
                       __ZN13HGRenderQueue32SetNumPBOsPerGPUReadbackExecUnitEm, __ZN13HGRenderQueue32SetSerializeCustomRenderJobsFlagEb, 
                       __ZN13HGRenderQueue33SetUseXGMIForXGPUBufferCopiesFlagEb, 
                       __ZN13HGRenderQueue35CreateRenderContextForComputeDeviceERKNSt3__110shared_ptrIK15HGComputeDeviceEEN15HGRenderContext8WorkModeE, 
                       __ZN13HGRenderQueue35DeactivateExternalGPURenderContextsEv, 
                       __ZN13HGRenderQueue36RemoveRenderContextsForComputeDeviceERKNSt3__110shared_ptrIK15HGComputeDeviceEE, 
                       __ZN13HGRenderQueue40SetNumGPUReadbackExecUnitsPerGPURendererEm, 
                       __ZN13HGRenderQueue52SetRelaxRenderSerializationForPriorityInversionsFlagEb, 
                       __ZN13HGRenderQueue54FindIdleRenderExecUnitForJobWithPreferredVirtualScreenEP11HGRenderJob, 
                       __ZN13HGRenderQueue5DrainEv, __ZN13HGRenderQueue5PauseEv, 
                       __ZN13HGRenderQueue5StartEv, __ZN13HGRenderQueue7RestartEv, 
                       __ZN13HGRenderQueue8ShutdownEv, __ZN13HGRenderQueueC1Ev, __ZN13HGRenderQueueC2Ev, 
                       __ZN13HGRenderQueueD0Ev, __ZN13HGRenderQueueD1Ev, __ZN13HGRenderQueueD2Ev, 
                       __ZN13HGRenderUtils12BufferCopier5startEP8HGBitmapS2_, __ZN13HGRenderUtils12BufferCopier6finishEv, 
                       __ZN13HGRenderUtils12BufferCopier7executeEP8HGBitmapS2_, __ZN13HGRenderUtils12BufferCopierC1Ev, 
                       __ZN13HGRenderUtils12BufferCopierC2Ev, __ZN13HGRenderUtils12BufferCopierD1Ev, 
                       __ZN13HGRenderUtils12BufferCopierD2Ev, __ZN13HGRenderUtils12BufferFiller5startEP8HGBitmap6HGRectPhm, 
                       __ZN13HGRenderUtils12BufferFiller5startEP8HGBitmapPhm, __ZN13HGRenderUtils12BufferFiller6finishEv, 
                       __ZN13HGRenderUtils12BufferFiller7executeEP8HGBitmap6HGRectPhm, 
                       __ZN13HGRenderUtils12BufferFiller7executeEP8HGBitmapPhm, __ZN13HGRenderUtils12BufferFillerC1Ev, 
                       __ZN13HGRenderUtils12BufferFillerC2Ev, __ZN13HGRenderUtils12BufferFillerD1Ev, 
                       __ZN13HGRenderUtils12BufferFillerD2Ev, __ZN13HGRenderUtils17BufferReformatter5startEP8HGBitmapS2_, 
                       __ZN13HGRenderUtils17BufferReformatter6finishEv, __ZN13HGRenderUtils17BufferReformatter7executeEP8HGBitmapS2_, 
                       __ZN13HGRenderUtils17BufferReformatterC1Ev, __ZN13HGRenderUtils17BufferReformatterC2Ev, 
                       __ZN13HGRenderUtils17BufferReformatterD1Ev, __ZN13HGRenderUtils17BufferReformatterD2Ev, 
                       __ZN13HGTextureWrap11SetCropRectERK6HGRect, __ZN13HGTextureWrap12SetParameterEiffff, 
                       __ZN13HGTextureWrap15_createWrapNodeENS_8WrapModeE, __ZN13HGTextureWrap18GetTextureWrapModeEv, 
                       __ZN13HGTextureWrap18SetTextureWrapModeENS_8WrapModeE, __ZN13HGTextureWrap21GetTextureBorderColorEPf, 
                       __ZN13HGTextureWrap21SetTextureBorderColorEPKf, __ZN13HGTextureWrap9GetOutputEP10HGRenderer, 
                       __ZN13HGTextureWrapC1Ev, __ZN13HGTextureWrapC2Ev, __ZN13HGTextureWrapD0Ev, 
                       __ZN13HGTextureWrapD1Ev, __ZN13HGTextureWrapD2Ev, __ZN13HGYUV601ToRGB12SetParameterEiffff, 
                       __ZN13HGYUV601ToRGB9GetOutputEP10HGRenderer, __ZN13HGYUV601ToRGBC1Ev, 
                       __ZN13HGYUV601ToRGBC2Ev, __ZN13HGYUV601ToRGBD0Ev, __ZN13HGYUV601ToRGBD1Ev, 
                       __ZN13HGYUV601ToRGBD2Ev, __ZN13HGYUV709ToRGB12SetParameterEiffff, 
                       __ZN13HGYUV709ToRGB9GetOutputEP10HGRenderer, __ZN13HGYUV709ToRGBC1Ev, 
                       __ZN13HGYUV709ToRGBC2Ev, __ZN13HGYUV709ToRGBD0Ev, __ZN13HGYUV709ToRGBD1Ev, 
                       __ZN13HGYUV709ToRGBD2Ev, __ZN14HGArrayDataRef13generic_fieldEPKv8HGFormatR11HGArrayBase, 
                       __ZN14HGArrayDataRef4moveEiii, __ZN14HGArrayDataRef5fieldEPKci, 
                       __ZN14HGArrayDataRef5fieldEPKdi, __ZN14HGArrayDataRef5fieldEPKfi, 
                       __ZN14HGArrayDataRef5fieldEPKii, __ZN14HGArrayDataRef5fieldEPKsi, 
                       __ZN14HGBitmapLoader10RenderPageEP6HGPage, __ZN14HGBitmapLoader10RenderPageEP6HGPage14HGGPURenderAPI, 
                       __ZN14HGBitmapLoader10RenderTileEP6HGTile, __ZN14HGBitmapLoader12ReleaseNodesEv, 
                       __ZN14HGBitmapLoader12SetParameterEiffff, __ZN14HGBitmapLoader12UploadBitmapE6HGRectP14HGMetalContextb, 
                       __ZN14HGBitmapLoader12UploadBitmapEP12HGGLRendererb, __ZN14HGBitmapLoader12UploadBitmapEP14HGMetalContext, 
                       __ZN14HGBitmapLoader15PreRenderOptionEP10HGRenderer, __ZN14HGBitmapLoader15RenderPageMetalEP6HGPage, 
                       __ZN14HGBitmapLoader21EnablePreUploadOptionEbb, __ZN14HGBitmapLoader32SetCheckForPixelFormatConversionEb, 
                       __ZN14HGBitmapLoader46m_GetPixelFormatConversion_kV4B_WXYZ_InputNodeEv, 
                       __ZN14HGBitmapLoader46m_GetPixelFormatConversion_kV4F_WXYZ_InputNodeEv, 
                       __ZN14HGBitmapLoader46m_GetPixelFormatConversion_kV4S_WXYZ_InputNodeEv, 
                       __ZN14HGBitmapLoader49m_GetPixelFormatConversion_kV4B10Bit_BE_InputNodeEv, 
                       __ZN14HGBitmapLoader49m_GetPixelFormatConversion_kV4S_BE_WXYZ_InputNodeEv, 
                       __ZN14HGBitmapLoader6GetDODEP10HGRendereri6HGRect, __ZN14HGBitmapLoader8SetStateEP10HGRendereri, 
                       __ZN14HGBitmapLoader9DuplicateEv, __ZN14HGBitmapLoader9GetOutputEP10HGRenderer, 
                       __ZN14HGBitmapLoader9SetBitmapEP8HGBitmap, __ZN14HGBitmapLoaderC1EP8HGBitmap, 
                       __ZN14HGBitmapLoaderC1Ev, __ZN14HGBitmapLoaderC2EP8HGBitmap, 
                       __ZN14HGBitmapLoaderC2Ev, __ZN14HGBitmapLoaderD0Ev, __ZN14HGBitmapLoaderD1Ev, 
                       __ZN14HGBitmapLoaderD2Ev, __ZN14HGBlendingInfo3GetEj, __ZN14HGBlendingInfoC1EmNS_11BlendFactorES0_S0_S0_NS_14BlendOperationES1_, 
                       __ZN14HGBlendingInfoC2EmNS_11BlendFactorES0_S0_S0_NS_14BlendOperationES1_, 
                       __ZN14HGBufferDumper13_validatePathEv, __ZN14HGBufferDumper19_updateBaseFilenameEv, 
                       __ZN14HGBufferDumper19_updateNodeFilenameEiPKci6HGRect, __ZN14HGBufferDumper5resetEv, 
                       __ZN14HGBufferDumper5writeEPKciP8HGBitmap, __ZN14HGBufferDumper6enableEb, 
                       __ZN14HGBufferDumper7setPathEPKc, __ZN14HGBufferDumperC1Ev, 
                       __ZN14HGBufferDumperC2Ev, __ZN14HGBufferDumperD1Ev, __ZN14HGBufferDumperD2Ev, 
                       __ZN14HGColorConform10SetLookCDLEPfS0_S0_f, __ZN14HGColorConform13SetConversionEN12HGColorGamma26hgColorGammaColorPrimariesENS0_28hgColorGammaTransferFunctionENS0_30hgColorGammaMatrixCoefficientsES1_S2_S3_, 
                       __ZN14HGColorConform13SetConversionEN12HGColorGamma30hgColorGammaMatrixCoefficientsENS_27hgColorConformLogConversionENS0_26hgColorGammaColorPrimariesE, 
                       __ZN14HGColorConform13SetConversionEN12HGColorGamma30hgColorGammaMatrixCoefficientsENS_30hgColorConformLogLinearizationENS0_20hgColorGammaLogGamutENS0_26hgColorGammaColorPrimariesE, 
                       __ZN14HGColorConform13SetConversionENS_30hgColorConformConversionPresetE, 
                       __ZN14HGColorConform13SetConversionEP12CGColorSpaceS1_, __ZN14HGColorConform13SetConversionEPK16ColorSyncProfileS2_, 
                       __ZN14HGColorConform13SetDitherModeEb, __ZN14HGColorConform14DeleteNodeListEPPNSt3__16vectorIP26HGColorConformNodeListItemNS0_9allocatorIS3_EEEE, 
                       __ZN14HGColorConform15ConvertRGBColorEP12CGColorSpaceS1_RNSt3__16vectorIfNS2_9allocatorIfEEEE, 
                       __ZN14HGColorConform15Prep3DLUTBitmapEP10HGRendererPKhmmmbNS_15hgLookLUTEndianE, 
                       __ZN14HGColorConform15SetFallbackModeEb, __ZN14HGColorConform15s_NodeListCacheE, 
                       __ZN14HGColorConform16ConvertRGBAColorEP12CGColorSpaceS1_RNSt3__16vectorIfNS2_9allocatorIfEEEE, 
                       __ZN14HGColorConform16SetRAWConversionEjjjjffjjPA3_fN12HGColorGamma26hgColorGammaColorPrimariesEfS3_ffPKfNS_30hgColorConformRAWToLogEncodingE, 
                       __ZN14HGColorConform17InitNodeListCacheEv, __ZN14HGColorConform17PrepareOutputNodeEP10HGRenderer6HGRect8HGFormat, 
                       __ZN14HGColorConform17ProcessParamStateEPNS_23ParamGatheringStateEnumEi, 
                       __ZN14HGColorConform18AddNodeListToCacheEPK16ColorSyncProfileS2_PNSt3__16vectorIP26HGColorConformNodeListItemNS3_9allocatorIS6_EEEE, 
                       __ZN14HGColorConform18DecodeFragmentListEPK16ColorSyncProfileS2_PP31HGColorConformNodeListCacheItemb, 
                       __ZN14HGColorConform18SetToneQualityModeENS_25hgColorConformToneQualityE, 
                       __ZN14HGColorConform19DeleteNodeListCacheEv, __ZN14HGColorConform19SetConversionStaticEP12CGColorSpaceS1_PP31HGColorConformNodeListCacheItem, 
                       __ZN14HGColorConform19SetConversionStaticEPK16ColorSyncProfileS2_PP31HGColorConformNodeListCacheItem, 
                       __ZN14HGColorConform19SetInputPixelFormatENS_25hgColorConformYCbCrFormatE, 
                       __ZN14HGColorConform19SetPremultiplyStateEbb, __ZN14HGColorConform19s_LastAddedCacheKeyE, 
                       __ZN14HGColorConform19s_NodeListCacheLockE, __ZN14HGColorConform20GetNodeListFromCacheEPK16ColorSyncProfileS2_PP31HGColorConformNodeListCacheItem, 
                       __ZN14HGColorConform20SetOutputPixelFormatE8HGFormatNS_25hgColorConformYCbCrFormatE, 
                       __ZN14HGColorConform20TestConversionStaticEP12CGColorSpaceS1_, 
                       __ZN14HGColorConform21ClearConversionParamsEv, __ZN14HGColorConform21SetInOut422FilterModeENS_32hgColorConformInOut422FilterModeE, 
                       __ZN14HGColorConform21SetInOut422FilterRectE6HGRect, __ZN14HGColorConform22Set1DLutScaleAndOffsetEff, 
                       __ZN14HGColorConform22SetLook3DLutConversionEN12HGColorGamma30hgColorGammaMatrixCoefficientsENS0_26hgColorGammaColorPrimariesENS0_28hgColorGammaTransferFunctionES2_PK8__CFDatammmfffbNS_15hgLookLUTEndianEPhmffff, 
                       __ZN14HGColorConform22SetLook3DLutConversionEP23HGColorConformLook3DLUTN12HGColorGamma30hgColorGammaMatrixCoefficientsENS2_26hgColorGammaColorPrimariesE, 
                       __ZN14HGColorConform24SetARRILogCExposureIndexEj, __ZN14HGColorConform26KeyFromColorSpaceTransformEPK16ColorSyncProfileS2_, 
                       __ZN14HGColorConform26SetSonySGamutGainAndMatrixEfb, __ZN14HGColorConform29CreateColorConformHeliumGraphEP10HGRenderer, 
                       __ZN14HGColorConform29CreateColorConformHeliumGraphEP10HGRendererNS_30hgColorConformConversionPresetE, 
                       __ZN14HGColorConform38CreateColorSyncProfileFromCGColorSpaceEP12CGColorSpace, 
                       __ZN14HGColorConform9GetOutputEP10HGRenderer, __ZN14HGColorConformC1Ev, 
                       __ZN14HGColorConformC2Ev, __ZN14HGColorConformD0Ev, __ZN14HGColorConformD1Ev, 
                       __ZN14HGColorConformD2Ev, __ZN14HGDepthToColor10RenderPageEP6HGPage, 
                       __ZN14HGDepthToColor10RenderTileEP6HGTile, __ZN14HGDepthToColor18_saveDepthForInputEi, 
                       __ZN14HGDepthToColor6GetDODEP10HGRendereri6HGRect, __ZN14HGDepthToColor6GetROIEP10HGRendereri6HGRect, 
                       __ZN14HGDepthToColorC1Ev, __ZN14HGDepthToColorC2Ev, __ZN14HGDepthToColorD0Ev, 
                       __ZN14HGDepthToColorD1Ev, __ZN14HGDepthToColorD2Ev, __ZN14HGGLContextPtrC1EPv, 
                       __ZN14HGGLContextPtrC1Ev, __ZN14HGGLContextPtrC2EPv, __ZN14HGGLContextPtrC2Ev, 
                       __ZN14HGGLContextPtrD1Ev, __ZN14HGGLContextPtrD2Ev, __ZN14HGGLMultiBlend10GetProgramEP10HGRenderer, 
                       __ZN14HGGLMultiBlend10RenderPageEP6HGPage, __ZN14HGGLMultiBlend10RenderTileEP6HGTile, 
                       __ZN14HGGLMultiBlend12SetParameterEiffff, __ZN14HGGLMultiBlend15RenderPageMetalEP6HGPage, 
                       __ZN14HGGLMultiBlend17PrepareOutputNodeEP10HGRenderer6HGRect8HGFormat, 
                       __ZN14HGGLMultiBlend19UpdateHWBlendStatusEP10HGRenderer, __ZN14HGGLMultiBlend6GetDODEP10HGRendereri6HGRect, 
                       __ZN14HGGLMultiBlend6GetROIEP10HGRendereri6HGRect, __ZN14HGGLMultiBlend8SetInputEiP6HGNode, 
                       __ZN14HGGLMultiBlend8SetInputEiP6HGNodeif, __ZN14HGGLMultiBlend8SetInputEiP6HGNodeifRKDv4_f, 
                       __ZN14HGGLMultiBlend8SetInputEiP6HGNodeifRKDv4_fi, __ZN14HGGLMultiBlend8SetInputEiP6HGNodeifi, 
                       __ZN14HGGLMultiBlend9GetOutputEP10HGRenderer, __ZN14HGGLMultiBlend9PageBeginEP6HGPageiP9HGHandler, 
                       __ZN14HGGLMultiBlendC1Ev, __ZN14HGGLMultiBlendC2Ev, __ZN14HGGPUResources18getDeviceResourcesEPK17HGMetalDeviceInfo, 
                       __ZN14HGGPUResources18releaseFreeObjectsEv, __ZN14HGGPUResources20releaseAllFreeOjectsEv, 
                       __ZN14HGGPUResources23setupIndividualPoliciesERKNS_22IndividualPoliciesInfoE, 
                       __ZN14HGGPUResources23setupTotalUsagePoliciesERKNS_20TotalUsagePolicyInfoE, 
                       __ZN14HGGPUResources24forceResetCVTextureCacheEv, __ZN14HGGPUResources28forceResetAllCVTextureCachesEv, 
                       __ZN14HGGPUResources28setupGroupTotalUsagePoliciesERKNS_25GroupTotalUsagePolicyInfoE, 
                       __ZN14HGGPUResources30setupDefaultIndividualPoliciesEv, __ZN14HGGPUResources30setupDefaultTotalUsagePoliciesEv, 
                       __ZN14HGGPUResources35setupDefaultGroupTotalUsagePoliciesEv, 
                       __ZN14HGGPUResourcesC1EPK17HGMetalDeviceInfo, __ZN14HGGPUResourcesC2EPK17HGMetalDeviceInfo, 
                       __ZN14HGGPUResourcesD0Ev, __ZN14HGGPUResourcesD1Ev, __ZN14HGGPUResourcesD2Ev, 
                       __ZN14HGLinearFilter4discEffff, __ZN14HGLinearFilter4hannEfff, 
                       __ZN14HGLinearFilter4rectEfff, __ZN14HGLinearFilter4sincEfff, 
                       __ZN14HGLinearFilter5gaussEfff, __ZN14HGLinearFilter6kaiserEfff, 
                       __ZN14HGLinearFilter7bicubicEfff, __ZN14HGLinearFilter7hammingEfff, 
                       __ZN14HGLinearFilter7lanczosEfff, __ZN14HGLinearFilter7uniformEfff, 
                       __ZN14HGLinearFilter8bartlettEfff, __ZN14HGLinearFilter8blackmanEfff, 
                       __ZN14HGLinearFilter8gaussianEfff, __ZN14HGLinearFilter8mitchellEfff, 
                       __ZN14HGLinearFilter9_identityE, __ZN14HGMetalContext11stopCaptureEv, 
                       __ZN14HGMetalContext12startCaptureEv, __ZN14HGMetalContext19synchronizeResourceE17HGMTLResourceType, 
                       __ZN14HGMetalContext21setCommandQueueLimitsEjjm, __ZN14HGMetalContext22setCommandBufferLimitsEjm, 
                       __ZN14HGMetalContext23synchronizeCommandQueueEv, __ZN14HGMetalContext8setLabelEPKc, 
                       __ZN14HGMetalContextC1EPK17HGMetalDeviceInfo, __ZN14HGMetalContextC2EPK17HGMetalDeviceInfo, 
                       __ZN14HGMetalContextD0Ev, __ZN14HGMetalContextD1Ev, __ZN14HGMetalContextD2Ev, 
                       __ZN14HGMetalHandler10BindBufferEP8HGBitmap, __ZN14HGMetalHandler10BindBufferEiP8HGBitmap, 
                       __ZN14HGMetalHandler10EnableMSAAEj, __ZN14HGMetalHandler10MultMatrixEPKd, 
                       __ZN14HGMetalHandler10MultMatrixEPKf, __ZN14HGMetalHandler10PrimitivesE18HGMTLPrimitiveType, 
                       __ZN14HGMetalHandler10SetIndicesE5HGRefI13HGMetalBufferE, 
                       __ZN14HGMetalHandler10SetIndicesEPKvmj, __ZN14HGMetalHandler10SetShadersEP18HGMetalShadersPair8HGLimits, 
                       __ZN14HGMetalHandler11ActiveStageEb, __ZN14HGMetalHandler11BindTextureEiP8HGBitmap, 
                       __ZN14HGMetalHandler11CheckStatusEv, __ZN14HGMetalHandler11SetVerticesE5HGRefI13HGMetalBufferE, 
                       __ZN14HGMetalHandler11SetVerticesEPKvmj, __ZN14HGMetalHandler11_encodeDrawE18HGMTLPrimitiveType, 
                       __ZN14HGMetalHandler12LoadIdentityEv, __ZN14HGMetalHandler13ActiveTextureEib, 
                       __ZN14HGMetalHandler13PrimitivesEndEv, __ZN14HGMetalHandler13SetDebugLabelERKNSt3__112basic_stringIcNS0_11char_traitsIcEENS0_9allocatorIcEEEE, 
                       __ZN14HGMetalHandler13SetEdgePolicyERK12HGEdgePolicy, __ZN14HGMetalHandler13_stopEncodingEv, 
                       __ZN14HGMetalHandler14EnableBlendingEi, __ZN14HGMetalHandler14EnableBlendingEv, 
                       __ZN14HGMetalHandler14LocalParameterEiffff, __ZN14HGMetalHandler14PrimitivesDrawE18HGMTLPrimitiveTypePKDv4_fjS3_, 
                       __ZN14HGMetalHandler14SetScissorRectERK6HGRect, __ZN14HGMetalHandler14SetScissorTestEb, 
                       __ZN14HGMetalHandler14_createBuffersEv, __ZN14HGMetalHandler14_encodeBuffersEv, 
                       __ZN14HGMetalHandler14_startEncodingEv, __ZN14HGMetalHandler14_updateBuffersEPKDv4_fS2_, 
                       __ZN14HGMetalHandler15DisableBlendingEi, __ZN14HGMetalHandler15DisableBlendingEv, 
                       __ZN14HGMetalHandler15InitTextureUnitE6HGRecti, __ZN14HGMetalHandler15LocalParametersEiPKfi, 
                       __ZN14HGMetalHandler15PrimitivesStartEv, __ZN14HGMetalHandler15SetBlendingInfoERK14HGBlendingInfo, 
                       __ZN14HGMetalHandler15SetBlendingInfoEiRK14HGBlendingInfo, 
                       __ZN14HGMetalHandler15_setNumVerticesEj, __ZN14HGMetalHandler16SetBlendingColorERKDv4_f, 
                       __ZN14HGMetalHandler16SetTextureCoordsE5HGRefI13HGMetalBufferEj, 
                       __ZN14HGMetalHandler16SetTextureCoordsEPKvmjj, __ZN14HGMetalHandler17EnableDepthBufferEv, 
                       __ZN14HGMetalHandler17PrimitivesIndexedE18HGMTLPrimitiveTypejj, 
                       __ZN14HGMetalHandler17_resetBufferCargoEv, __ZN14HGMetalHandler17_setupScissorRectEv, 
                       __ZN14HGMetalHandler18DisableDepthBufferEv, __ZN14HGMetalHandler18_encodeDrawIndexedE18HGMTLPrimitiveTypejj, 
                       __ZN14HGMetalHandler19ActiveTextureMatrixEi, __ZN14HGMetalHandler19_setupCommandBufferEv, 
                       __ZN14HGMetalHandler20_commitCommandBufferEv, __ZN14HGMetalHandler20_encodeSourceSamplerEi, 
                       __ZN14HGMetalHandler20_encodeSourceTextureEi, __ZN14HGMetalHandler20_setupCommandEncoderEv, 
                       __ZN14HGMetalHandler20_updatePipelineStateEv, __ZN14HGMetalHandler21FinalizeCommandBufferEv, 
                       __ZN14HGMetalHandler21PrimitivesIndexedDrawE18HGMTLPrimitiveTypejj, 
                       __ZN14HGMetalHandler21_encodeSourceTexturesEv, __ZN14HGMetalHandler21_updateVerticesBufferEPKDv4_f, 
                       __ZN14HGMetalHandler22FinalizeCommandEncoderEjmm, __ZN14HGMetalHandler22FinalizeCommandEncoderEv, 
                       __ZN14HGMetalHandler22_updateTexCoordsBufferEPKDv4_f, __ZN14HGMetalHandler22_updateTextureMatricesEv, 
                       __ZN14HGMetalHandler22_waitForCommandBuffersEmmm, __ZN14HGMetalHandler23_finalizeSourceTexturesEv, 
                       __ZN14HGMetalHandler23_updateParametersBufferEv, __ZN14HGMetalHandler26WaitForCommandBuffersCountEm, 
                       __ZN14HGMetalHandler29_setupCommandBufferAndEncoderEv, __ZN14HGMetalHandler32_updateModelViewProjectionMatrixEv, 
                       __ZN14HGMetalHandler33SetTextureCoordinateNormalizationEb, 
                       __ZN14HGMetalHandler40_transferEncoderResourcesToCommandBufferEv, 
                       __ZN14HGMetalHandler4RectE6HGRecti, __ZN14HGMetalHandler5ResetEP10HGRenderer, 
                       __ZN14HGMetalHandler5ScaleEddd, __ZN14HGMetalHandler6UnBindEv, 
                       __ZN14HGMetalHandler9NormalizeEv, __ZN14HGMetalHandler9SetColorsE5HGRefI13HGMetalBufferE, 
                       __ZN14HGMetalHandler9SetColorsEPKvmj, __ZN14HGMetalHandler9SetFilterEii, 
                       __ZN14HGMetalHandler9TranslateEddd, __ZN14HGMetalHandlerC1EP14HGMetalContext, 
                       __ZN14HGMetalHandlerC2EP14HGMetalContext, __ZN14HGMetalHandlerD0Ev, 
                       __ZN14HGMetalHandlerD1Ev, __ZN14HGMetalHandlerD2Ev, __ZN14HGMetalTexture10createMSAAE15HGMTLDeviceTypeP18HGMetalTexturePool6HGRect8HGFormatj, 
                       __ZN14HGMetalTexture11CopyTextureEP14HGMetalContextP8HGBitmap6HGRect, 
                       __ZN14HGMetalTexture11CopyTextureEP14HGMetalContextS1_, __ZN14HGMetalTexture11MarkForCopyEb, 
                       __ZN14HGMetalTexture11WaitForCopyEv, __ZN14HGMetalTexture11createDepthE15HGMTLDeviceTypeP18HGMetalTexturePool6HGRectj, 
                       __ZN14HGMetalTexture14SetTextureRectE6HGRect, __ZN14HGMetalTexture14createWithBlitEP14HGMetalContextP8HGBitmap6HGRectb, 
                       __ZN14HGMetalTexture14createWithCopyE15HGMTLDeviceTypeP18HGMetalTexturePoolP8HGBitmap6HGRectbb, 
                       __ZN14HGMetalTexture15getMetalStorageEP8HGBitmap, __ZN14HGMetalTexture16CreateBitmapCopyEP14HGMetalContext6HGRect, 
                       __ZN14HGMetalTexture16createFromBitmapEP14HGMetalContextP8HGBitmap6HGRectbb, 
                       __ZN14HGMetalTexture16createFromBitmapEP14HGMetalContextjP8HGBitmap6HGRectbb, 
                       __ZN14HGMetalTexture16createFromBufferE15HGMTLDeviceTypeP13HGMetalBuffer6HGRect, 
                       __ZN14HGMetalTexture16createFromBufferEP14HGMetalContextjP13HGMetalBuffer6HGRectb, 
                       __ZN14HGMetalTexture17InitializeBordersEv, __ZN14HGMetalTexture17createFromTextureE16HGMTLTextureType, 
                       __ZN14HGMetalTexture19canCreateFromBufferE15HGMTLDeviceTypeP8HGBitmap, 
                       __ZN14HGMetalTexture19createFromIOSurfaceE15HGMTLDeviceType24HGCVMetalTextureCacheRefP10HGCVBitmap, 
                       __ZN14HGMetalTexture19createFromIOSurfaceE15HGMTLDeviceTypeP10HGCVBitmap, 
                       __ZN14HGMetalTexture19createFromIOSurfaceEP14HGMetalContextP10HGCVBitmap, 
                       __ZN14HGMetalTexture19createFromIOSurfaceEP14HGMetalContextjP10HGCVBitmap, 
                       __ZN14HGMetalTexture20createTiledFromBytesE15HGMTLDeviceTypeP31HGMetalTextureWrapperInfinipoolP8HGBitmap6HGRect, 
                       __ZN14HGMetalTexture21createTiledFromBufferE15HGMTLDeviceTypeP13HGMetalBuffer6HGRect, 
                       __ZN14HGMetalTexture21createWithBlitEncoderEP14HGMetalContextP13HGMetalBuffer6HGRectb, 
                       __ZN14HGMetalTexture22CopyManagedTextureDataEP8HGBitmap6HGRect, 
                       __ZN14HGMetalTexture22createLinearFromBufferE15HGMTLDeviceTypeP13HGMetalBuffer6HGRect, 
                       __ZN14HGMetalTexture23CreateRemoteTextureViewE15HGMTLDeviceType, 
                       __ZN14HGMetalTexture23_overrideUploadStrategyEP14HGMetalContextj6HGRect8HGFormat, 
                       __ZN14HGMetalTexture23canCreateTiledFromBytesE15HGMTLDeviceTypeP8HGBitmap, 
                       __ZN14HGMetalTexture23createFromBufferStorageE15HGMTLDeviceTypejP13HGMetalBuffer6HGRect, 
                       __ZN14HGMetalTexture24canCreateTiledFromBufferE15HGMTLDeviceTypeP8HGBitmap, 
                       __ZN14HGMetalTexture25ReplaceManagedTextureDataEP8HGBitmap6HGRectb, 
                       __ZN14HGMetalTexture25canCreateLinearFromBufferE15HGMTLDeviceTypeP8HGBitmap, 
                       __ZN14HGMetalTexture6createE15HGMTLDeviceTypeP18HGMetalTexturePool6HGRect8HGFormatbbb, 
                       __ZN14HGMetalTexture7IsReadyEv, __ZN14HGMetalTexture7_createE15HGMTLDeviceTypeP18HGMetalTexturePool6HGRect8HGFormatbbmj, 
                       __ZN14HGMetalTextureC1E15HGMTLDeviceType6HGRect8HGFormat, 
                       __ZN14HGMetalTextureC1E6HGRectPS_, __ZN14HGMetalTextureC2E15HGMTLDeviceType6HGRect8HGFormat, 
                       __ZN14HGMetalTextureC2E6HGRectPS_, __ZN14HGMetalTextureD0Ev, 
                       __ZN14HGMetalTextureD1Ev, __ZN14HGMetalTextureD2Ev, __ZN14HGSensoLogging12sPerformanceE, 
                       __ZN14HGSensoLogging8sGeneralE, __ZN14HGUserExecUnit12StartRunLoopEv, 
                       __ZN14HGUserExecUnit6_countE, __ZN14HGUserExecUnit7RunLoopEv, 
                       __ZN14HGUserExecUnitC1EP13HGRenderQueue, __ZN14HGUserExecUnitC2EP13HGRenderQueue, 
                       __ZN14HGUserExecUnitD0Ev, __ZN14HGUserExecUnitD1Ev, __ZN14HGUserExecUnitD2Ev, 
                       __ZN14MotionROIFrame3getEv, __ZN14MotionROIFrame6_pThisE, 
                       __ZN14MotionROIFrameD1Ev, __ZN14MotionROIFrameD2Ev, __ZN15HGCVPixelBuffer6createEP10__CVBuffer, 
                       __ZN15HGCVPixelBuffer6createERK5HGRefI19HGCVPixelBufferPoolEmm, 
                       __ZN15HGCVPixelBuffer6createERK5HGRefI19HGCVPixelBufferPoolEmmj, 
                       __ZN15HGCVPixelBuffer6createERK5HGRefI19HGCVPixelBufferPoolEmmjb, 
                       __ZN15HGCVPixelBuffer6createEmm, __ZN15HGCVPixelBuffer6createEmmj, 
                       __ZN15HGCVPixelBuffer6createEmmjb, __ZN15HGCVPixelBuffer7_createEP10__CVBufferb, 
                       __ZN15HGCVPixelBuffer7convertEP10__CVBuffer, __ZN15HGCVPixelBufferC1ERK5HGRefI19HGCVPixelBufferPoolEP10__CVBuffer, 
                       __ZN15HGCVPixelBufferC2ERK5HGRefI19HGCVPixelBufferPoolEP10__CVBuffer, 
                       __ZN15HGCVPixelBufferD0Ev, __ZN15HGCVPixelBufferD1Ev, __ZN15HGCVPixelBufferD2Ev, 
                       __ZN15HGComicQuantize10GetProgramEP10HGRenderer, __ZN15HGComicQuantize10RenderTileEP6HGTile, 
                       __ZN15HGComicQuantize11BindTextureEP9HGHandleri, __ZN15HGComicQuantize12SetParameterEiffff, 
                       __ZN15HGComicQuantize6GetDODEP10HGRendereri6HGRect, __ZN15HGComicQuantize6GetROIEP10HGRendereri6HGRect, 
                       __ZN15HGComicQuantize9GetOutputEP10HGRenderer, __ZN15HGComicQuantizeC1Ev, 
                       __ZN15HGComicQuantizeC2Ev, __ZN15HGComicQuantizeD0Ev, __ZN15HGComicQuantizeD1Ev, 
                       __ZN15HGComicQuantizeD2Ev, __ZN15HGComputeDeltaE12SetParameterEiffff, 
                       __ZN15HGComputeDeltaE9GetOutputEP10HGRenderer, __ZN15HGComputeDeltaEC1ENS_20GammaCorrectionStateENS_4ModeE, 
                       __ZN15HGComputeDeltaEC1Ev, __ZN15HGComputeDeltaEC2ENS_20GammaCorrectionStateENS_4ModeE, 
                       __ZN15HGComputeDeltaEC2Ev, __ZN15HGComputeDeltaED0Ev, __ZN15HGComputeDeltaED1Ev, 
                       __ZN15HGComputeDeltaED2Ev, __ZN15HGComputeDeviceC1ENS_4TypeE, 
                       __ZN15HGComputeDeviceC2ENS_4TypeE, __ZN15HGExecutionUnit10ClearStatsEv, 
                       __ZN15HGExecutionUnit10RenderTileEP5HGVec6HGRectP6HGNodei, 
                       __ZN15HGExecutionUnit10ResetStackEv, __ZN15HGExecutionUnit11CommitStackEP5HGVecm, 
                       __ZN15HGExecutionUnit13GetStackStateEv, __ZN15HGExecutionUnit13SetStackStateE12HGStackState, 
                       __ZN15HGExecutionUnit7BgnExecEv, __ZN15HGExecutionUnit7EndExecEv, 
                       __ZN15HGExecutionUnit7ExecuteEv, __ZN15HGExecutionUnit8GetStackEm, 
                       __ZN15HGExecutionUnit8PopStatsEv, __ZN15HGExecutionUnit9PushStatsEv, 
                       __ZN15HGExecutionUnit9StackSizeEv, __ZN15HGExecutionUnit9SwapStackEv, 
                       __ZN15HGExecutionUnitC1EP10HGRendereri, __ZN15HGExecutionUnitC2EP10HGRendereri, 
                       __ZN15HGExecutionUnitD1Ev, __ZN15HGExecutionUnitD2Ev, __ZN15HGFlipAndOffset10GetProgramEP10HGRenderer, 
                       __ZN15HGFlipAndOffset10RenderTileEP6HGTile, __ZN15HGFlipAndOffset11BindTextureEP9HGHandleri, 
                       __ZN15HGFlipAndOffset12GetParameterEiPf, __ZN15HGFlipAndOffset12SetParameterEiffff, 
                       __ZN15HGFlipAndOffset15RenderTile_flipILb0ELb0EEEiP6HGTile, 
                       __ZN15HGFlipAndOffset31SupportsInplaceHardwareBlendingEf, 
                       __ZN15HGFlipAndOffset6GetDODEP10HGRendereri6HGRect, __ZN15HGFlipAndOffset6GetROIEP10HGRendereri6HGRect, 
                       __ZN15HGFlipAndOffset9GetOutputEP10HGRenderer, __ZN15HGFlipAndOffsetC1Ev, 
                       __ZN15HGFlipAndOffsetC2Ev, __ZN15HGFlipAndOffsetD0Ev, __ZN15HGFlipAndOffsetD1Ev, 
                       __ZN15HGFlipAndOffsetD2Ev, __ZN15HGGLContextImplD0Ev, __ZN15HGGLContextImplD1Ev, 
                       __ZN15HGGLContextImplD2Ev, __ZN15HGModulatedBlur12SetParameterEiffff, 
                       __ZN15HGModulatedBlur13setBlurValuesEPKfm, __ZN15HGModulatedBlur9GetOutputEP10HGRenderer, 
                       __ZN15HGModulatedBlurC1Ev, __ZN15HGModulatedBlurC2Ev, __ZN15HGModulatedBlurD0Ev, 
                       __ZN15HGModulatedBlurD1Ev, __ZN15HGModulatedBlurD2Ev, __ZN15HGNodeWithDepth10RenderPageEP6HGPage, 
                       __ZN15HGNodeWithDepth10_bindDepthEv, __ZN15HGNodeWithDepth11_writeDepthEv, 
                       __ZN15HGNodeWithDepth12PullTexturesEP6HGPagei, __ZN15HGNodeWithDepth12_doDepthTestEv, 
                       __ZN15HGNodeWithDepth14_depthTestFuncEv, __ZN15HGNodeWithDepth14_preRenderTileEP6HGTile, 
                       __ZN15HGNodeWithDepth15_postRenderTileEP6HGTile, __ZN15HGNodeWithDepth15_renderOneInputEP6HGTileii, 
                       __ZN15HGNodeWithDepth16_forceClearDepthEv, __ZN15HGNodeWithDepth18_saveDepthForInputEi, 
                       __ZN15HGNodeWithDepth21_pushDepthForAnyInputEv, __ZN15HGNodeWithDepth8SetStateEP10HGRendereri, 
                       __ZN15HGNodeWithDepth9PageBeginEP6HGPageiP9HGHandler, __ZN15HGNodeWithDepthC1Ev, 
                       __ZN15HGNodeWithDepthC2Ev, __ZN15HGNodeWithDepthD0Ev, __ZN15HGNodeWithDepthD1Ev, 
                       __ZN15HGNodeWithDepthD2Ev, __ZN15HGPanasonicVLog6Encode14sourceToVGamutE, 
                       __ZN15HGPanasonicVLog6Encode9GetOutputEP10HGRenderer, __ZN15HGPanasonicVLog6EncodeC1ENS_16SceneColorimetryE, 
                       __ZN15HGPanasonicVLog6EncodeC2ENS_16SceneColorimetryE, __ZN15HGPanasonicVLog6EncodeD0Ev, 
                       __ZN15HGPanasonicVLog6EncodeD1Ev, __ZN15HGPanasonicVLog6EncodeD2Ev, 
                       __ZN15HGRenderContext10ClearStatsEv, __ZN15HGRenderContext11GetWorkModeEv, 
                       __ZN15HGRenderContext11SetWorkModeENS_8WorkModeE, __ZN15HGRenderContext13DumpHistogramEv, 
                       __ZN15HGRenderContext14GetRenderStatsEPmPdS1_S1_S1_S1_PNSt3__13mapIiiNS2_4lessIiEENS2_9allocatorINS2_4pairIKiiEEEEEE, 
                       __ZN15HGRenderContext14PushRenderTimeEf, __ZN15HGRenderContext16GetComputeDeviceEv, 
                       __ZN15HGRenderContext18SetRenderStatsFlagEb, __ZN15HGRenderContext20SetRenderStatsWarmupEm, 
                       __ZN15HGRenderContext21SetRenderStatsMaxValsEm, __ZN15HGRenderContext23GetDefaultFilteringModeEv, 
                       __ZN15HGRenderContext23SetDefaultFilteringModeE12HGFilterMode, 
                       __ZN15HGRenderContext23SetRenderGraphDumpLevelEi, __ZN15HGRenderContext27GetIntermediateBufferFormatEv, 
                       __ZN15HGRenderContext27SetIntermediateBufferFormatE8HGFormat, 
                       __ZN15HGRenderContext4LockEv, __ZN15HGRenderContext6UnlockEv, 
                       __ZN15HGRenderContext7GetTypeEv, __ZN15HGRenderContext8GetStateEv, 
                       __ZN15HGRenderContextC2EP10HGRenderer, __ZN15HGRenderContextC2Ev, 
                       __ZN15HGRenderContextD0Ev, __ZN15HGRenderContextD1Ev, __ZN15HGRenderContextD2Ev, 
                       __ZN15HGShaderBinding3popERKS_, __ZN15HGShaderBinding4pushERKS_, 
                       __ZN15HGShaderBinding5resetEv, __ZN15HGShaderBinding6isliveEj, 
                       __ZN15HGUnpremultiply9GetOutputEP10HGRenderer, __ZN15HGUnpremultiplyC1Ev, 
                       __ZN15HGUnpremultiplyC2Ev, __ZN15HGUnpremultiplyD0Ev, __ZN15HGUnpremultiplyD1Ev, 
                       __ZN15HGUnpremultiplyD2Ev, __ZN15HG_RENDERER_ENV12NO_FLUSH_OPTE, 
                       __ZN15HG_RENDERER_ENV14LOG_LEVEL_INITE, __ZN15HG_RENDERER_ENV15BUFFER_DUMP_DIREv, 
                       __ZN15HG_RENDERER_ENV15FORCE_PAGE_SIZEE, __ZN15HG_RENDERER_ENV16LOW_MEMORY_USAGEE, 
                       __ZN15HG_RENDERER_ENV18LOG_LEVEL_GL_TRACEE, __ZN15HG_RENDERER_ENV18MAX_TEXTURE_AGE_MSE, 
                       __ZN15HG_RENDERER_ENV19TRACK_TEXTURE_USAGEE, __ZN15HG_RENDERER_ENV20DOT_GRAPH_OUTPUT_DIREv, 
                       __ZN15HG_RENDERER_ENV20FORCE_SINGLE_CONTEXTE, __ZN15HG_RENDERER_ENV20LOG_LEVEL_GRAPH_DUMPE, 
                       __ZN15HG_RENDERER_ENV20LOG_LEVEL_TEXMANAGERE, __ZN15HG_RENDERER_ENV20TEX_PADDING_CLUMPINGE, 
                       __ZN15HG_RENDERER_ENV20USE_V210_BGRA_FORMATE, __ZN15HG_RENDERER_ENV21FORCE_NO_PBO_READBACKE, 
                       __ZN15HG_RENDERER_ENV21FORCE_SINGLE_DOT_FILEE, __ZN15HG_RENDERER_ENV21TEXTURE_POOL_STRATEGYE, 
                       __ZN15HG_RENDERER_ENV22TEX_PADDING_CUSHIONINGE, __ZN15HG_RENDERER_ENV23TEX_PADDING_REMEMBRANCEE, 
                       __ZN15HG_RENDERER_ENV24FORCE_POST_RENDER_FINISHE, __ZN15HG_RENDERER_ENV25SCISSORED_LARGE_TRI_TILESE, 
                       __ZN15HG_RENDERER_ENV26FORCE_DEFAULT_METAL_DEVICEE, __ZN15HG_RENDERER_ENV26FORCE_TEXTURE_STORAGE_HINTE, 
                       __ZN15HG_RENDERER_ENV27FORCE_NATIVE_TEXTURE_OUTPUTE, __ZN15HG_RENDERER_ENV27FORCE_POST_READPIXELS_FENCEE, 
                       __ZN15HG_RENDERER_ENV27LOAD_TEXTURE_TILE_ALIGNMENTE, __ZN15HG_RENDERER_ENV27LOG_LEVEL_COLORCONFORM_DUMPE, 
                       __ZN15HG_RENDERER_ENV27METAL_BLIT_MAX_TILE_SIZE_MBE, __ZN15HG_RENDERER_ENV27VALIDATE_CURRENT_GL_CONTEXTE, 
                       __ZN15HG_RENDERER_ENV28FORCE_LEGACY_TEXTURE_POOLINGE, __ZN15HG_RENDERER_ENV28FORCE_POST_READPIXELS_FINISHE, 
                       __ZN15HG_RENDERER_ENV29FORCE_FULLSIZE_TEXTURE_UPLOADE, __ZN15HG_RENDERER_ENV29FORCE_RECYCLE_SHARED_TEXTURESE, 
                       __ZN15HG_RENDERER_ENV29LOG_LEVEL_MTL_PERF_VALIDATIONE, __ZN15HG_RENDERER_ENV29MAX_TEXTURE_POOL_SIZE_PERCENTE, 
                       __ZN15HG_RENDERER_ENV29METAL_MAX_ENCODERS_PER_BUFFERE, __ZN15HG_RENDERER_ENV30MAX_TEXTURE_QUEUE_SIZE_PERCENTE, 
                       __ZN15HG_RENDERER_ENV30MAX_TEXTURE_TOTAL_SIZE_PERCENTE, __ZN15HG_RENDERER_ENV31CLIENT_STORAGE_RECYCLING_POLICYE, 
                       __ZN15HG_RENDERER_ENV31FORCE_CLUSTERED_TEXTURE_PADDINGE, __ZN15HG_RENDERER_ENV31MAX_TEXTURE_UNUSED_SIZE_PERCENTE, 
                       __ZN15HG_RENDERER_ENV31SCISSORED_LARGE_TRI_TILES_WIDTHE, __ZN15HG_RENDERER_ENV33FORCE_INTERLEAVED_RENDER_READBACKE, 
                       __ZN15HG_RENDERER_ENV34WAIT_FOR_QUEUED_TEXTURE_ONE_BY_ONEE, 
                       __ZN15HG_RENDERER_ENV38METAL_UPLOAD_TEXTURE_CREATION_STRATEGYE, 
                       __ZN15HG_RENDERER_ENV4InitEv, __ZN15HG_RENDERER_ENV8InstanceEv, 
                       __ZN15HG_RENDERER_ENVC1Ev, __ZN15HG_RENDERER_ENVC2Ev, __ZN15NoPaddingPolicy10adjustRectE6HGRect, 
                       __ZN15NoPaddingPolicyC1Ev, __ZN15NoPaddingPolicyC2Ev, __ZN15NoPaddingPolicyD0Ev, 
                       __ZN15NoPaddingPolicyD1Ev, __ZN15NoPaddingPolicyD2Ev, __ZN15NoPoolingPolicy18preAllocateTextureEjjjjj, 
                       __ZN15NoPoolingPolicy32waitForQueuedForDeletionTexturesEv, 
                       __ZN15NoPoolingPolicy9renderEndEv, __ZN15NoPoolingPolicyC1Ev, 
                       __ZN15NoPoolingPolicyC2Ev, __ZN15NoPoolingPolicyD0Ev, __ZN15NoPoolingPolicyD1Ev, 
                       __ZN15NoPoolingPolicyD2Ev, __ZN16HGAVADeinterlace12SetParameterEiffff, 
                       __ZN16HGAVADeinterlace9GetOutputEP10HGRenderer, __ZN16HGAVADeinterlaceC1Ev, 
                       __ZN16HGAVADeinterlaceC2Ev, __ZN16HGAVADeinterlaceD0Ev, __ZN16HGAVADeinterlaceD1Ev, 
                       __ZN16HGAVADeinterlaceD2Ev, __ZN16HGEnhanceDetails12SetParameterEiffff, 
                       __ZN16HGEnhanceDetails9GetOutputEP10HGRenderer, __ZN16HGEnhanceDetailsC1Ev, 
                       __ZN16HGEnhanceDetailsC2Ev, __ZN16HGEnhanceDetailsD0Ev, __ZN16HGEnhanceDetailsD1Ev, 
                       __ZN16HGEnhanceDetailsD2Ev, __ZN16HGGLBlendingInfoC1ERK14HGBlendingInfo, 
                       __ZN16HGGLBlendingInfoC2ERK14HGBlendingInfo, __ZN16HGGLRendererInfo13GetAuxVScreenEv, 
                       __ZN16HGGLRendererInfo16GetIsIntelHD3000EPKS_, __ZN16HGGLRendererInfo16GetIsNVidiaGT120EPKS_, 
                       __ZN16HGGLRendererInfo17GetGLRendererInfoEmPPS_14HGGLContextPtr, 
                       __ZN16HGGLRendererInfo17GetPrimaryVScreenEv, __ZN16HGGLRendererInfo17UpdateStringsInfoEv, 
                       __ZN16HGGLRendererInfo20GetNumVirtualScreensEv, __ZN16HGGLRendererInfo20IsValidVirtualScreenEj, 
                       __ZN16HGGLRendererInfo26GetNonDetachableGPUVScreenEv, __ZN16HGGLRendererInfo27GetDetachableVirtualScreensEmPPm, 
                       __ZN16HGGLRendererInfo30GetNumDetachableVirtualScreensEv, 
                       __ZN16HGGLRendererInfo31GetRendererInfoForVirtualScreenEj, 
                       __ZN16HGGLRendererInfoC1E14HGGLContextPtr, __ZN16HGGLRendererInfoC1E14HGGLContextPtrjj, 
                       __ZN16HGGLRendererInfoC2E14HGGLContextPtr, __ZN16HGGLRendererInfoC2E14HGGLContextPtrjj, 
                       __ZN16HGGLRendererInfoD0Ev, __ZN16HGGLRendererInfoD1Ev, __ZN16HGGLRendererInfoD2Ev, 
                       __ZN16HGGPUReadbackJobC1E14HGGLContextPtrP12HGRenderNode, 
                       __ZN16HGGPUReadbackJobC1ERKNSt3__110shared_ptrIK18HGGPUComputeDeviceEE14HGGLContextPtrP12HGRenderNode, 
                       __ZN16HGGPUReadbackJobC2E14HGGLContextPtrP12HGRenderNode, 
                       __ZN16HGGPUReadbackJobC2ERKNSt3__110shared_ptrIK18HGGPUComputeDeviceEE14HGGLContextPtrP12HGRenderNode, 
                       __ZN16HGGPUReadbackJobD0Ev, __ZN16HGGPUReadbackJobD1Ev, __ZN16HGGPUReadbackJobD2Ev, 
                       __ZN16HGGammaUnPremult10GetProgramEP10HGRenderer, __ZN16HGGammaUnPremult10RenderTileEP6HGTile, 
                       __ZN16HGGammaUnPremult11BindTextureEP9HGHandleri, __ZN16HGGammaUnPremult12SetParameterEiffff, 
                       __ZN16HGGammaUnPremult4BindEP9HGHandler, __ZN16HGGammaUnPremult8SetLabelEPKf, 
                       __ZN16HGGammaUnPremult9GetOutputEP10HGRenderer, __ZN16HGGammaUnPremultC1Ev, 
                       __ZN16HGGammaUnPremultC2Ev, __ZN16HGGammaUnPremultD0Ev, __ZN16HGGammaUnPremultD1Ev, 
                       __ZN16HGGammaUnPremultD2Ev, __ZN16HGLinearFilter2D10applyPolarE4HGOpPFffffEffS2_ffPA2_Kfj, 
                       __ZN16HGLinearFilter2D3setEiifj, __ZN16HGLinearFilter2D4copyEiiiiPKfij, 
                       __ZN16HGLinearFilter2D4fillEiiiifj, __ZN16HGLinearFilter2D5allocEiiii, 
                       __ZN16HGLinearFilter2D5applyE4HGOpRKS_iij, __ZN16HGLinearFilter2D5resetEii, 
                       __ZN16HGLinearFilter2D6mirrorEbb, __ZN16HGLinearFilter2D6resizeEiiiii, 
                       __ZN16HGLinearFilter2D7apply2DE4HGOpPFfffffEffPA2_Kfj, __ZN16HGLinearFilter2D7compactEv, 
                       __ZN16HGLinearFilter2D7disposeEiiii, __ZN16HGLinearFilter2D7setTypeE14HGFilterPresetj, 
                       __ZN16HGLinearFilter2D8convolveERKS_, __ZN16HGLinearFilter2D8identityEj, 
                       __ZN16HGLinearFilter2D9applyRectE4HGOpPFffffEffS2_ffPA2_Kfj, 
                       __ZN16HGLinearFilter2D9correlateERKS_, __ZN16HGLinearFilter2D9translateEii, 
                       __ZN16HGLinearFilter2D9transposeEv, __ZN16HGLinearFilter2DC1E14HGFilterPreset, 
                       __ZN16HGLinearFilter2DC1ERKS_, __ZN16HGLinearFilter2DC1ERKS_b, 
                       __ZN16HGLinearFilter2DC1Eii, __ZN16HGLinearFilter2DC1Ev, __ZN16HGLinearFilter2DC2E14HGFilterPreset, 
                       __ZN16HGLinearFilter2DC2ERKS_, __ZN16HGLinearFilter2DC2ERKS_b, 
                       __ZN16HGLinearFilter2DC2Eii, __ZN16HGLinearFilter2DC2Ev, __ZN16HGLinearFilter2DD1Ev, 
                       __ZN16HGLinearFilter2DD2Ev, __ZN16HGLinearFilter2DaSERKS_, 
                       __ZN16HGPixelBufferObj10CopyBitmapEP8HGBitmap, __ZN16HGPixelBufferObj10GetDataPtrEv, 
                       __ZN16HGPixelBufferObj10ReadPixelsE6HGRect8HGFormatjj, __ZN16HGPixelBufferObj10ReadPixelsE6HGRectS0_jj8HGFormatjj, 
                       __ZN16HGPixelBufferObj12CreateBitmapEv, __ZN16HGPixelBufferObj14ReleaseDataPtrEv, 
                       __ZN16HGPixelBufferObj15StartCopyBitmapEP8HGBitmap, __ZN16HGPixelBufferObj16FinishCopyBitmapEv, 
                       __ZN16HGPixelBufferObj6ResizeE6HGRect8HGFormat, __ZN16HGPixelBufferObj7paddingEj, 
                       __ZN16HGPixelBufferObj9usageModeEj, __ZN16HGPixelBufferObjC1E14HGGLContextPtr, 
                       __ZN16HGPixelBufferObjC2E14HGGLContextPtr, __ZN16HGPixelBufferObjD0Ev, 
                       __ZN16HGPixelBufferObjD1Ev, __ZN16HGPixelBufferObjD2Ev, __ZN16HGReflectionClip12SetParameterEiffff, 
                       __ZN16HGReflectionClip9GetOutputEP10HGRenderer, __ZN16HGReflectionClipC1Ev, 
                       __ZN16HGReflectionClipC2Ev, __ZN16HGReflectionClipD0Ev, __ZN16HGReflectionClipD1Ev, 
                       __ZN16HGReflectionClipD2Ev, __ZN16HGRenderExecUnit12StartRunLoopEv, 
                       __ZN16HGRenderExecUnit16ExecuteRenderCPUEP11HGRenderJob, __ZN16HGRenderExecUnit16ExecuteRenderGPUEP11HGRenderJob, 
                       __ZN16HGRenderExecUnit19FinalizeRenderNodesEP11HGRenderJob, 
                       __ZN16HGRenderExecUnit20AddEnqueuedRenderJobEP11HGRenderJob, 
                       __ZN16HGRenderExecUnit21ExecuteXGMIBufferCopyEP11HGRenderJob, 
                       __ZN16HGRenderExecUnit23RemoveEnqueuedRenderJobEP11HGRenderJob, 
                       __ZN16HGRenderExecUnit32ExecuteCopyCPUBitmapToGPUTextureEP12HGRenderNode, 
                       __ZN16HGRenderExecUnit5IsCPUEv, __ZN16HGRenderExecUnit5IsGPUEv, 
                       __ZN16HGRenderExecUnit7RunLoopEv, __ZN16HGRenderExecUnit8GetLabelEv, 
                       __ZN16HGRenderExecUnitC1EP10HGRendererP13HGRenderQueue, __ZN16HGRenderExecUnitC1EP15HGRenderContextP13HGRenderQueuei, 
                       __ZN16HGRenderExecUnitC2EP10HGRendererP13HGRenderQueue, __ZN16HGRenderExecUnitC2EP15HGRenderContextP13HGRenderQueuei, 
                       __ZN16HGRenderExecUnitD0Ev, __ZN16HGRenderExecUnitD1Ev, __ZN16HGRenderExecUnitD2Ev, 
                       __ZN16HGRendererOutputC1EP6HGNode6HGRect8HGFormat24HGRendererBufferLocation, 
                       __ZN16HGRendererOutputC1EP6HGNodeP8HGBitmap, __ZN16HGRendererOutputC2EP6HGNode6HGRect8HGFormat24HGRendererBufferLocation, 
                       __ZN16HGRendererOutputC2EP6HGNodeP8HGBitmap, __ZN16HGSampleRectStat3addEiiii, 
                       __ZN16HGSampleRectStatC1E6HGRectS0_RK6HGNodei, __ZN16HGSampleRectStatC2E6HGRectS0_RK6HGNodei, 
                       __ZN16HGSampleRectStatD1Ev, __ZN16HGSampleRectStatD2Ev, __ZN16HGSynchronizable4LockEv, 
                       __ZN16HGSynchronizable4WaitEv, __ZN16HGSynchronizable4WaitEx, 
                       __ZN16HGSynchronizable6NotifyEv, __ZN16HGSynchronizable6UnlockEv, 
                       __ZN16HGSynchronizable9NotifyAllEv, __ZN16HGSynchronizableC1Ev, 
                       __ZN16HGSynchronizableC2Ev, __ZN16HGSynchronizableD0Ev, __ZN16HGSynchronizableD1Ev, 
                       __ZN16HGSynchronizableD2Ev, __ZN16HGTextureManager10finishSyncEP8__GLsync, 
                       __ZN16HGTextureManager10texImage2DERKNS_11TextureInfoE, __ZN16HGTextureManager10texImage2DEjiiiiijjPKv, 
                       __ZN16HGTextureManager11TextureInfoC1Ejjjjjj, __ZN16HGTextureManager11TextureInfoC1Ev, 
                       __ZN16HGTextureManager11TextureInfoC2Ejjjjjj, __ZN16HGTextureManager11TextureInfoC2Ev, 
                       __ZN16HGTextureManager11TexturePool4lockEv, __ZN16HGTextureManager11TexturePool6unlockEv, 
                       __ZN16HGTextureManager11TexturePool8addUsageERKNS_12TextureEntryE, 
                       __ZN16HGTextureManager11TexturePool8delUsageERKNS_12TextureEntryE, 
                       __ZN16HGTextureManager11TexturePoolC1Ev, __ZN16HGTextureManager11TexturePoolC2Ev, 
                       __ZN16HGTextureManager11TexturePoolD0Ev, __ZN16HGTextureManager11TexturePoolD1Ev, 
                       __ZN16HGTextureManager11TexturePoolD2Ev, __ZN16HGTextureManager11bindTextureEjj, 
                       __ZN16HGTextureManager11deleteQueueEPv, __ZN16HGTextureManager11deleteQueueEv, 
                       __ZN16HGTextureManager11getNumBytesENS_15SizeRequestTypeENS_19SizeRequestLocationE, 
                       __ZN16HGTextureManager11testTextureEj, __ZN16HGTextureManager12TextureEntryC1Ejjjjjj, 
                       __ZN16HGTextureManager12TextureEntryC1Ev, __ZN16HGTextureManager12TextureEntryC2Ejjjjjj, 
                       __ZN16HGTextureManager12TextureEntryC2Ev, __ZN16HGTextureManager12TextureUsage3addERKNS_12TextureEntryE, 
                       __ZN16HGTextureManager12TextureUsage3delERKNS_12TextureEntryE, 
                       __ZN16HGTextureManager12TextureUsage7summaryERKS0_S2_S2_, 
                       __ZN16HGTextureManager12TextureUsage8addUsageERKS0_, __ZN16HGTextureManager12TextureUsage8maxUsageERKS0_, 
                       __ZN16HGTextureManager12TextureUsageC1Ev, __ZN16HGTextureManager12TextureUsageC2Ev, 
                       __ZN16HGTextureManager12_findTextureEPjRKNS_11TextureInfoE, 
                       __ZN16HGTextureManager12dumpTexturesEv, __ZN16HGTextureManager12setPurgeableEjb, 
                       __ZN16HGTextureManager13_dumpMaxUsageEPv, __ZN16HGTextureManager13_dumpMaxUsageEv, 
                       __ZN16HGTextureManager13_dumpTexturesEPv, __ZN16HGTextureManager13activeTextureEj, 
                       __ZN16HGTextureManager13createTextureEPjRKNS_11TextureInfoE, 
                       __ZN16HGTextureManager13createTextureEPjj, __ZN16HGTextureManager13deleteTextureEPKj, 
                       __ZN16HGTextureManager13deleteTextureEPKjbPv, __ZN16HGTextureManager13finishTextureEj, 
                       __ZN16HGTextureManager13removeTextureEj, __ZN16HGTextureManager14_resetMaxUsageEv, 
                       __ZN16HGTextureManager14dismissTextureEPKjbPv, __ZN16HGTextureManager14getNumTexturesENS_15SizeRequestTypeENS_19SizeRequestLocationE, 
                       __ZN16HGTextureManager14setUnpurgeableEjb, __ZN16HGTextureManager15TexturePoolLockC1EPNS_11TexturePoolE, 
                       __ZN16HGTextureManager15TexturePoolLockC2EPNS_11TexturePoolE, 
                       __ZN16HGTextureManager15TexturePoolLockD1Ev, __ZN16HGTextureManager15TexturePoolLockD2Ev, 
                       __ZN16HGTextureManager15_initShareGroupEv, __ZN16HGTextureManager15freeTexturePoolEPv, 
                       __ZN16HGTextureManager15freeTexturePoolEv, __ZN16HGTextureManager15releaseFromPoolERNSt3__116__deque_iteratorINS_12TextureEntryEPS2_RS2_PS3_lLl42EEE, 
                       __ZN16HGTextureManager15usedTexturePoolEv, __ZN16HGTextureManager16_allocateTextureEPjjjjjjj, 
                       __ZN16HGTextureManager16_initDeleteQueueEv, __ZN16HGTextureManager16_initTexturePoolEv, 
                       __ZN16HGTextureManager16emptyTexturePoolEv, __ZN16HGTextureManager17_printTextureListEiPvRNS_12TextureUsageE, 
                       __ZN16HGTextureManager17_uninitShareGroupEv, __ZN16HGTextureManager17adjustTextureSizeE6HGRect, 
                       __ZN16HGTextureManager18_initMaxUsageStatsEv, __ZN16HGTextureManager18_printFreeTexturesEiPvRNS_12TextureUsageE, 
                       __ZN16HGTextureManager18_printUsageSummaryEiPvRNS_12TextureUsageE, 
                       __ZN16HGTextureManager18_printUsedTexturesEiPvRNS_12TextureUsageE, 
                       __ZN16HGTextureManager18_uninitDeleteQueueEv, __ZN16HGTextureManager18_uninitTexturePoolEv, 
                       __ZN16HGTextureManager18createRenderbufferEjjjj, __ZN16HGTextureManager18deleteRenderbufferEj, 
                       __ZN16HGTextureManager19_initTexManagerListEv, __ZN16HGTextureManager20_printQueuedTexturesEiPvRNS_12TextureUsageE, 
                       __ZN16HGTextureManager20_uninitMaxUsageStatsEv, __ZN16HGTextureManager20framebufferTexture2DEjj, 
                       __ZN16HGTextureManager21_uninitTexManagerListEv, __ZN16HGTextureManager21freeTexturePoolMemoryEv, 
                       __ZN16HGTextureManager21getAuxiliaryGLContextEv, __ZN16HGTextureManager21getTotalTextureMemoryENS_19SizeRequestLocationE, 
                       __ZN16HGTextureManager21usedTexturePoolMemoryEv, __ZN16HGTextureManager22storageRecyclingPolicyENS_29TextureStorageRecyclingPolicyE, 
                       __ZN16HGTextureManager23_deleteFinishedTexturesEv, __ZN16HGTextureManager23_poolPreAllocateTextureEjjjjj, 
                       __ZN16HGTextureManager23emptyTexturePool_NoLockEv, __ZN16HGTextureManager23setTexturePaddingPolicyE5HGRefI22HGTexturePaddingPolicyE, 
                       __ZN16HGTextureManager23setTexturePoolingPolicyE5HGRefI22HGTexturePoolingPolicyE, 
                       __ZN16HGTextureManager24_waitForOneQueuedTextureEv, __ZN16HGTextureManager24finishDeleteTextureQueueEv, 
                       __ZN16HGTextureManager25_createAuxiliaryGLContextEv, __ZN16HGTextureManager25_getFreeTotalTextureCountEPv, 
                       __ZN16HGTextureManager25_getFreeTotalTextureCountEv, __ZN16HGTextureManager25_getFreeTotalTextureUsageEPv, 
                       __ZN16HGTextureManager25_getFreeTotalTextureUsageEv, __ZN16HGTextureManager25_poolWaitForQueuedTextureEv, 
                       __ZN16HGTextureManager25_waitForAllQueuedTexturesEv, __ZN16HGTextureManager26PostTextureDeleteEventList4lockEv, 
                       __ZN16HGTextureManager26PostTextureDeleteEventList6unlockEv, 
                       __ZN16HGTextureManager26PostTextureDeleteEventList8addEventEPv, 
                       __ZN16HGTextureManager26PostTextureDeleteEventList8hasEventEv, 
                       __ZN16HGTextureManager26PostTextureDeleteEventList8popEventEv, 
                       __ZN16HGTextureManager26PostTextureDeleteEventListC1Ev, __ZN16HGTextureManager26PostTextureDeleteEventListC2Ev, 
                       __ZN16HGTextureManager26PostTextureDeleteEventListD1Ev, __ZN16HGTextureManager26PostTextureDeleteEventListD2Ev, 
                       __ZN16HGTextureManager26_destroyAuxiliaryGLContextEv, __ZN16HGTextureManager27_getInUsedTotalTextureCountEPv, 
                       __ZN16HGTextureManager27_getInUsedTotalTextureCountEv, __ZN16HGTextureManager27_getInUsedTotalTextureUsageEPv, 
                       __ZN16HGTextureManager27_getInUsedTotalTextureUsageEv, __ZN16HGTextureManager27_getQueuedTotalTextureCountEPv, 
                       __ZN16HGTextureManager27_getQueuedTotalTextureCountEv, __ZN16HGTextureManager27_getQueuedTotalTextureUsageEPv, 
                       __ZN16HGTextureManager27_getQueuedTotalTextureUsageEv, __ZN16HGTextureManager28recycleClientStorageTexturesEb, 
                       __ZN16HGTextureManager4initEv, __ZN16HGTextureManager8sizeHintEP11HGGLTextureb, 
                       __ZN16HGTextureManager8testSyncEP8__GLsync, __ZN16HGTextureManager9maxMemoryEv, 
                       __ZN16HGTextureManager9renderBgnEv, __ZN16HGTextureManager9renderEndEv, 
                       __ZN16HGTextureManagerC1EP12HGGLRenderer, __ZN16HGTextureManagerC1EP12HGGLRendererPv, 
                       __ZN16HGTextureManagerC2EP12HGGLRenderer, __ZN16HGTextureManagerC2EP12HGGLRendererPv, 
                       __ZN16HGTextureManagerD1Ev, __ZN16HGTextureManagerD2Ev, __ZN16HGTransformUtils4MinWEv, 
                       __ZN16HGTransformUtils6GetDODEPK11HGTransform6HGRectff, __ZN16HGTransformUtils6GetROIEPK11HGTransform6HGRectff, 
                       __ZN16HGYUV420BiPlanar13HGYUV420To44412SetParameterEiffff, 
                       __ZN16HGYUV420BiPlanar13HGYUV420To44425GetOutputFor420ConversionEP10HGRenderer, 
                       __ZN16HGYUV420BiPlanar13HGYUV420To44425GetOutputFor444ConversionEP10HGRenderer, 
                       __ZN16HGYUV420BiPlanar13HGYUV420To4449GetOutputEP10HGRenderer, 
                       __ZN16HGYUV420BiPlanar13HGYUV420To444C1ENS_11SubSamplingE, 
                       __ZN16HGYUV420BiPlanar13HGYUV420To444C2ENS_11SubSamplingE, 
                       __ZN16HGYUV420BiPlanar13HGYUV420To444D0Ev, __ZN16HGYUV420BiPlanar13HGYUV420To444D1Ev, 
                       __ZN16HGYUV420BiPlanar13HGYUV420To444D2Ev, __ZN16HGYUV420BiPlanar13HGYUV420ToRGB12SetParameterEiffff, 
                       __ZN16HGYUV420BiPlanar13HGYUV420ToRGB18GetOutputForXRsRGBEP10HGRendererP6HGNode, 
                       __ZN16HGYUV420BiPlanar13HGYUV420ToRGB25GetOutputFor420ConversionEP10HGRenderer, 
                       __ZN16HGYUV420BiPlanar13HGYUV420ToRGB25GetOutputFor444ConversionEP10HGRenderer, 
                       __ZN16HGYUV420BiPlanar13HGYUV420ToRGB9GetOutputEP10HGRenderer, 
                       __ZN16HGYUV420BiPlanar13HGYUV420ToRGBC1ENS_11SubSamplingE, 
                       __ZN16HGYUV420BiPlanar13HGYUV420ToRGBC2ENS_11SubSamplingE, 
                       __ZN16HGYUV420BiPlanar13HGYUV420ToRGBD0Ev, __ZN16HGYUV420BiPlanar13HGYUV420ToRGBD1Ev, 
                       __ZN16HGYUV420BiPlanar13HGYUV420ToRGBD2Ev, __ZN16HGYUV420BiPlanar17HGYUV444To420Luma9GetOutputEP10HGRenderer, 
                       __ZN16HGYUV420BiPlanar17HGYUV444To420LumaC1Ev, __ZN16HGYUV420BiPlanar17HGYUV444To420LumaC2Ev, 
                       __ZN16HGYUV420BiPlanar17HGYUV444To420LumaD0Ev, __ZN16HGYUV420BiPlanar17HGYUV444To420LumaD1Ev, 
                       __ZN16HGYUV420BiPlanar17HGYUV444To420LumaD2Ev, __ZN16HGYUV420BiPlanar19HGYUV444To420Chroma9GetOutputEP10HGRenderer, 
                       __ZN16HGYUV420BiPlanar19HGYUV444To420ChromaC1Ev, __ZN16HGYUV420BiPlanar19HGYUV444To420ChromaC2Ev, 
                       __ZN16HGYUV420BiPlanar19HGYUV444To420ChromaD0Ev, __ZN16HGYUV420BiPlanar19HGYUV444To420ChromaD1Ev, 
                       __ZN16HGYUV420BiPlanar19HGYUV444To420ChromaD2Ev, __ZN16POTPaddingPolicy10adjustRectE6HGRect, 
                       __ZN16POTPaddingPolicyC1Ev, __ZN16POTPaddingPolicyC2Ev, __ZN16POTPaddingPolicyD0Ev, 
                       __ZN16POTPaddingPolicyD1Ev, __ZN16POTPaddingPolicyD2Ev, __ZN17HGBilateralFilter12UpdateParamsEb, 
                       __ZN17HGBilateralFilter20SetSpatialBlurRadiusEf, __ZN17HGBilateralFilter22SetFilterSpatialWindowEf, 
                       __ZN17HGBilateralFilter22SetIntensityBlurRadiusEf, __ZN17HGBilateralFilter9GetOutputEP10HGRenderer, 
                       __ZN17HGBilateralFilterC1Ev, __ZN17HGBilateralFilterC2Ev, 
                       __ZN17HGBilateralFilterD0Ev, __ZN17HGBilateralFilterD1Ev, 
                       __ZN17HGBilateralFilterD2Ev, __ZN17HGCameraLogEncode9GetOutputEP10HGRenderer, 
                       __ZN17HGCameraLogEncodeC1EN14HGColorConform30hgColorConformRAWToLogEncodingE, 
                       __ZN17HGCameraLogEncodeC2EN14HGColorConform30hgColorConformRAWToLogEncodingE, 
                       __ZN17HGCameraLogEncodeD0Ev, __ZN17HGCameraLogEncodeD1Ev, 
                       __ZN17HGCameraLogEncodeD2Ev, __ZN17HGDefaultPolicies22getStudioPaddingPolicyEyb, 
                       __ZN17HGDefaultPolicies22getStudioPoolingPolicyEyb, __ZN17HGEquirectProject10GetProgramEP10HGRenderer, 
                       __ZN17HGEquirectProject10RenderPageEP6HGPage, __ZN17HGEquirectProject10RenderTileEP6HGTile, 
                       __ZN17HGEquirectProject15RenderPageMetalEP6HGPage, __ZN17HGEquirectProject18getRenderResourcesEP12HGGLRenderer, 
                       __ZN17HGEquirectProject19initRenderResourcesER15RenderResources, 
                       __ZN17HGEquirectProject6GetDODEP10HGRendereri6HGRect, __ZN17HGEquirectProject6GetROIEP10HGRendereri6HGRect, 
                       __ZN17HGEquirectProject6renderEP8HGBufferP9HGTextureRK15RenderResources, 
                       __ZN17HGEquirectProject9GetOutputEP10HGRenderer, __ZN17HGEquirectProject9setParamsERK23HGEquirectProjectParams, 
                       __ZN17HGEquirectProjectC1Ev, __ZN17HGEquirectProjectC2Ev, 
                       __ZN17HGEquirectProjectD0Ev, __ZN17HGEquirectProjectD1Ev, 
                       __ZN17HGEquirectProjectD2Ev, __ZN17HGGLRenderContext11DumpContextEv, 
                       __ZN17HGGLRenderContext11GetPriorityEv, __ZN17HGGLRenderContext11InitContextE14HGGLContextPtrjj, 
                       __ZN17HGGLRenderContext11SetPriorityEN11HGGLContext8PriorityE, 
                       __ZN17HGGLRenderContext15FreeTexturePoolEv, __ZN17HGGLRenderContext22SetGPURendererTileSizeEm, 
                       __ZN17HGGLRenderContext23SetTexturePaddingPolicyE5HGRefI22HGTexturePaddingPolicyE, 
                       __ZN17HGGLRenderContext23SetTexturePoolingPolicyE5HGRefI22HGTexturePoolingPolicyE, 
                       __ZN17HGGLRenderContext24SetNumPBOReadbackThreadsEm, __ZN17HGGLRenderContext25GetGraphConcatenationFlagEv, 
                       __ZN17HGGLRenderContext25SetGraphConcatenationFlagEb, __ZN17HGGLRenderContext26SetTexturePoolVRAMFractionEf, 
                       __ZN17HGGLRenderContextC1E14HGGLContextPtr, __ZN17HGGLRenderContextC1E14HGGLContextPtrj, 
                       __ZN17HGGLRenderContextC1E14HGGLContextPtrjj, __ZN17HGGLRenderContextC1EP12HGGLRenderer, 
                       __ZN17HGGLRenderContextC1EP16HGGLRendererInfo, __ZN17HGGLRenderContextC2E14HGGLContextPtr, 
                       __ZN17HGGLRenderContextC2E14HGGLContextPtrj, __ZN17HGGLRenderContextC2E14HGGLContextPtrjj, 
                       __ZN17HGGLRenderContextC2EP12HGGLRenderer, __ZN17HGGLRenderContextC2EP16HGGLRendererInfo, 
                       __ZN17HGGLRenderContextD0Ev, __ZN17HGGLRenderContextD1Ev, 
                       __ZN17HGGLRenderContextD2Ev, __ZN17HGGLStateSnapshot16printDifferencesERKS_i, 
                       __ZN17HGGLStateSnapshot4takeEi, __ZN17HGGLStateSnapshot5printEi, 
                       __ZN17HGGLStateSnapshotC1ERKS_, __ZN17HGGLStateSnapshotC1Ev, 
                       __ZN17HGGLStateSnapshotC2ERKS_, __ZN17HGGLStateSnapshotC2Ev, 
                       __ZN17HGGLStateSnapshotD1Ev, __ZN17HGGLStateSnapshotD2Ev, 
                       __ZN17HGGLStateSnapshotaSERKS_, __ZN17HGIndirectSampler10GetProgramEP10HGRenderer, 
                       __ZN17HGIndirectSampler10RenderTileEP6HGTile, __ZN17HGIndirectSampler11BindTextureEP9HGHandleri, 
                       __ZN17HGIndirectSampler12SetParameterEiffff, __ZN17HGIndirectSampler13GetFilterModeEi12HGFilterMode, 
                       __ZN17HGIndirectSampler4BindEP9HGHandler, __ZN17HGIndirectSampler6GetDODEP10HGRendereri6HGRect, 
                       __ZN17HGIndirectSampler6GetROIEP10HGRendereri6HGRect, __ZN17HGIndirectSamplerC1E15HGTextureTarget12HGFilterMode, 
                       __ZN17HGIndirectSamplerC2E15HGTextureTarget12HGFilterMode, 
                       __ZN17HGIndirectSamplerD0Ev, __ZN17HGIndirectSamplerD1Ev, 
                       __ZN17HGIndirectSamplerD2Ev, __ZN17HGMetalBufferPool13releaseBufferE15HGMTLBufferType, 
                       __ZN17HGMetalBufferPool18setServicingPolicyERKNSt3__110shared_ptrIN6HGPool15ServicingPolicyEEE, 
                       __ZN17HGMetalBufferPool19setAllocationPolicyERKNSt3__110shared_ptrIN6HGPool16AllocationPolicyINS_10DescriptorEEEEE, 
                       __ZN17HGMetalBufferPool5clearEv, __ZN17HGMetalBufferPool7serviceEv, 
                       __ZN17HGMetalBufferPool8setLabelERKNSt3__112basic_stringIcNS0_11char_traitsIcEENS0_9allocatorIcEEEE, 
                       __ZN17HGMetalBufferPool9newBufferERKNS_10DescriptorE, __ZN17HGMetalBufferPoolC1E15HGMTLDeviceType, 
                       __ZN17HGMetalBufferPoolC2E15HGMTLDeviceType, __ZN17HGMetalBufferPoolD1Ev, 
                       __ZN17HGMetalBufferPoolD2Ev, __ZN17HGMetalDeviceInfo13getDeviceInfoE15HGMTLDeviceType, 
                       __ZN17HGMetalDeviceInfo13getMainDeviceEv, __ZN17HGMetalDeviceInfo14_getDeviceInfoE15HGMTLDeviceType, 
                       __ZN17HGMetalDeviceInfo14_getDeviceInfoEy, __ZN17HGMetalDeviceInfo15_initAllDevicesEv, 
                       __ZN17HGMetalDeviceInfo18_releaseAllDevicesEv, __ZN17HGMetalDeviceInfo18destroyDevicesListEv, 
                       __ZN17HGMetalDeviceInfo21getDeviceForDisplayIDEj, __ZN17HGMetalDeviceInfo22getDeviceForRegistryIDEy, 
                       __ZN17HGMetalDeviceInfo25_getMaxTextureSampleCountE15HGMTLDeviceType, 
                       __ZN17HGMetalDeviceInfo5_initEv, __ZN17HGMetalDeviceInfoC1E15HGMTLDeviceType, 
                       __ZN17HGMetalDeviceInfoC2E15HGMTLDeviceType, __ZN17HGMetalDeviceInfoD0Ev, 
                       __ZN17HGMetalDeviceInfoD1Ev, __ZN17HGMetalDeviceInfoD2Ev, 
                       __ZN17HGShadowHighlight11GetSettingsEffP26HGShadowHighlight_Settings, 
                       __ZN17HGShadowHighlight12UpdateParamsEv, __ZN17HGShadowHighlight13s_WidthsTableE, 
                       __ZN17HGShadowHighlight14SetInputRadiusEf, __ZN17HGShadowHighlight14s_AmountsTableE, 
                       __ZN17HGShadowHighlight15s_SettingsTableE, __ZN17HGShadowHighlight16CIToHGBlurRadiusEf, 
                       __ZN17HGShadowHighlight20SetInputShadowAmountEf, __ZN17HGShadowHighlight23SetInputColorCorrectionEf, 
                       __ZN17HGShadowHighlight23SetInputHighlightAmountEf, __ZN17HGShadowHighlight23SetInputMidtoneContrastEf, 
                       __ZN17HGShadowHighlight24SetInputShadowTonalWidthEf, __ZN17HGShadowHighlight27SetInputHighlightTonalWidthEf, 
                       __ZN17HGShadowHighlight9GetOutputEP10HGRenderer, __ZN17HGShadowHighlightC1Ev, 
                       __ZN17HGShadowHighlightC2Ev, __ZN17HGShadowHighlightD0Ev, 
                       __ZN17HGShadowHighlightD1Ev, __ZN17HGShadowHighlightD2Ev, 
                       __ZN17HGStackStateGuardC1EP15HGExecutionUnit, __ZN17HGStackStateGuardC2EP15HGExecutionUnit, 
                       __ZN17HGStackStateGuardD1Ev, __ZN17HGStackStateGuardD2Ev, 
                       __ZN18DepthBufferManager11enableDepthEbbjb, __ZN18DepthBufferManager11enableDepthEv, 
                       __ZN18DepthBufferManager12disableDepthEv, __ZN18DepthBufferManager14getDepthBufferEv, 
                       __ZN18DepthBufferManager14hasDepthBufferEv, __ZN18DepthBufferManager3popEv, 
                       __ZN18DepthBufferManager4initEP10HGRenderer, __ZN18DepthBufferManager4pushEv, 
                       __ZN18DepthBufferManager6uninitEv, __ZN18DepthBufferManagerC2EP10HGRenderer, 
                       __ZN18DepthBufferManagerD0Ev, __ZN18DepthBufferManagerD1Ev, 
                       __ZN18DepthBufferManagerD2Ev, __ZN18HGAnisotropicXForm10GetProgramEP10HGRenderer, 
                       __ZN18HGAnisotropicXForm10RenderTileEP6HGTile, __ZN18HGAnisotropicXForm11BindTextureEP9HGHandleri, 
                       __ZN18HGAnisotropicXForm12GetTransformEv, __ZN18HGAnisotropicXForm12SetLodFilterE15HGLodFilterMode, 
                       __ZN18HGAnisotropicXForm12SetParameterEiffff, __ZN18HGAnisotropicXForm12SetTransformEP11HGTransform, 
                       __ZN18HGAnisotropicXForm4BindEP9HGHandler, __ZN18HGAnisotropicXForm5setupEP10HGRenderer6HGRectS2_Pi12HGFilterMode, 
                       __ZN18HGAnisotropicXForm6GetDODEP10HGRendereri6HGRect, __ZN18HGAnisotropicXForm6GetROIEP10HGRendereri6HGRect, 
                       __ZN18HGAnisotropicXForm8SetInputEiP6HGNode, __ZN18HGAnisotropicXForm9GetOutputEP10HGRenderer, 
                       __ZN18HGAnisotropicXFormC1EP8HGMipmap, __ZN18HGAnisotropicXFormC1Ev, 
                       __ZN18HGAnisotropicXFormC2EP8HGMipmap, __ZN18HGAnisotropicXFormC2Ev, 
                       __ZN18HGAnisotropicXFormD0Ev, __ZN18HGAnisotropicXFormD1Ev, 
                       __ZN18HGAnisotropicXFormD2Ev, __ZN18HGCPUComputeDeviceC1Ev, 
                       __ZN18HGCPUComputeDeviceC2Ev, __ZN18HGCPURenderContext11DumpContextEv, 
                       __ZN18HGCPURenderContext20GetRendererTileSizeXEv, __ZN18HGCPURenderContext20GetRendererTileSizeYEv, 
                       __ZN18HGCPURenderContext20SetRendererTileSizeXEm, __ZN18HGCPURenderContext20SetRendererTileSizeYEm, 
                       __ZN18HGCPURenderContext25GetNumActiveRenderThreadsEv, __ZN18HGCPURenderContext25SetNumActiveRenderThreadsEm, 
                       __ZN18HGCPURenderContextC1EP10HGRenderer, __ZN18HGCPURenderContextC1ERKNSt3__110shared_ptrIK18HGCPUComputeDeviceEE, 
                       __ZN18HGCPURenderContextC1Ev, __ZN18HGCPURenderContextC2EP10HGRenderer, 
                       __ZN18HGCPURenderContextC2ERKNSt3__110shared_ptrIK18HGCPUComputeDeviceEE, 
                       __ZN18HGCPURenderContextC2Ev, __ZN18HGCPURenderContextD0Ev, 
                       __ZN18HGCPURenderContextD1Ev, __ZN18HGCPURenderContextD2Ev, 
                       __ZN18HGChannelDuplicate10GetProgramEP10HGRenderer, __ZN18HGChannelDuplicate10RenderTileEP6HGTile, 
                       __ZN18HGChannelDuplicate12SetParameterEiffff, __ZN18HGChannelDuplicateC1Ev, 
                       __ZN18HGChannelDuplicateC2Ev, __ZN18HGChannelDuplicateD0Ev, 
                       __ZN18HGChannelDuplicateD1Ev, __ZN18HGChannelDuplicateD2Ev, 
                       __ZN18HGChromaticAdapter10SetDParamsEff, __ZN18HGChromaticAdapter11SetComputeDEb, 
                       __ZN18HGChromaticAdapter13SetBlurParamsEff, __ZN18HGChromaticAdapter4SetAEf, 
                       __ZN18HGChromaticAdapter4SetDEf, __ZN18HGChromaticAdapter8SetWhiteEfff, 
                       __ZN18HGChromaticAdapter9GetOutputEP10HGRenderer, __ZN18HGChromaticAdapterC1Ev, 
                       __ZN18HGChromaticAdapterC2Ev, __ZN18HGChromaticAdapterD0Ev, 
                       __ZN18HGChromaticAdapterD1Ev, __ZN18HGChromaticAdapterD2Ev, 
                       __ZN18HGComicColorStroke10GetProgramEP10HGRenderer, __ZN18HGComicColorStroke10RenderTileEP6HGTile, 
                       __ZN18HGComicColorStroke11BindTextureEP9HGHandleri, __ZN18HGComicColorStroke12SetParameterEiffff, 
                       __ZN18HGComicColorStroke6GetDODEP10HGRendereri6HGRect, __ZN18HGComicColorStroke6GetROIEP10HGRendereri6HGRect, 
                       __ZN18HGComicColorStroke9GetOutputEP10HGRenderer, __ZN18HGComicColorStrokeC1Ev, 
                       __ZN18HGComicColorStrokeC2Ev, __ZN18HGComicColorStrokeD0Ev, 
                       __ZN18HGComicColorStrokeD1Ev, __ZN18HGComicColorStrokeD2Ev, 
                       __ZN18HGEquirectReorient11SetInputPTXEffff, __ZN18HGEquirectReorient11SetInputPTYEffff, 
                       __ZN18HGEquirectReorient14SetWrapTextureEb, __ZN18HGEquirectReorient19SetInverseOutputPTXEffff, 
                       __ZN18HGEquirectReorient19SetInverseOutputPTYEffff, __ZN18HGEquirectReorient6GetDODEP10HGRendereri6HGRect, 
                       __ZN18HGEquirectReorient6GetROIEP10HGRendereri6HGRect, __ZN18HGEquirectReorient7SetCol0Efff, 
                       __ZN18HGEquirectReorient7SetCol1Efff, __ZN18HGEquirectReorient7SetCol2Efff, 
                       __ZN18HGEquirectReorient7SetTexHEf, __ZN18HGEquirectReorient7SetTexWEf, 
                       __ZN18HGEquirectReorient9GetOutputEP10HGRenderer, __ZN18HGEquirectReorientC1Ev, 
                       __ZN18HGEquirectReorientC2Ev, __ZN18HGEquirectReorientD0Ev, 
                       __ZN18HGEquirectReorientD1Ev, __ZN18HGEquirectReorientD2Ev, 
                       __ZN18HGGPUComputeDeviceC1E15HGMTLDeviceType, __ZN18HGGPUComputeDeviceC1EP16HGGLRendererInfo, 
                       __ZN18HGGPUComputeDeviceC2E15HGMTLDeviceType, __ZN18HGGPUComputeDeviceC2EP16HGGLRendererInfo, 
                       __ZN18HGGPUComputeDeviceD0Ev, __ZN18HGGPUComputeDeviceD1Ev, 
                       __ZN18HGGPUComputeDeviceD2Ev, __ZN18HGGPURenderContext11DumpContextEv, 
                       __ZN18HGGPURenderContext14GetGPURendererEv, __ZN18HGGPURenderContext19GetGPUComputeDeviceEv, 
                       __ZN18HGGPURenderContext19GetRendererPageSizeEv, __ZN18HGGPURenderContext19SetRendererPageSizeEm, 
                       __ZN18HGGPURenderContext20GetGLContextPriorityEv, __ZN18HGGPURenderContext20SetGLContextPriorityEN11HGGLContext8PriorityE, 
                       __ZN18HGGPURenderContext23GetRenderFinishSyncFlagEv, __ZN18HGGPURenderContext23SetRenderFinishSyncFlagEb, 
                       __ZN18HGGPURenderContext25GetGraphConcatenationFlagEv, __ZN18HGGPURenderContext25SetGLTexturePaddingPolicyE5HGRefI22HGTexturePaddingPolicyE, 
                       __ZN18HGGPURenderContext25SetGLTexturePoolingPolicyE5HGRefI22HGTexturePoolingPolicyE, 
                       __ZN18HGGPURenderContext25SetGraphConcatenationFlagEb, __ZN18HGGPURenderContext26GetPreferredGPUGraphicsAPIEv, 
                       __ZN18HGGPURenderContext26SetPreferredGPUGraphicsAPIENS_23PreferredGPUGraphicsAPIE, 
                       __ZN18HGGPURenderContextC1EP12HGGLRenderer, __ZN18HGGPURenderContextC1ERKNSt3__110shared_ptrIK18HGGPUComputeDeviceEE, 
                       __ZN18HGGPURenderContextC1ERKNSt3__110shared_ptrIK18HGGPUComputeDeviceEE14HGGLContextPtr, 
                       __ZN18HGGPURenderContextC2EP12HGGLRenderer, __ZN18HGGPURenderContextC2ERKNSt3__110shared_ptrIK18HGGPUComputeDeviceEE, 
                       __ZN18HGGPURenderContextC2ERKNSt3__110shared_ptrIK18HGGPUComputeDeviceEE14HGGLContextPtr, 
                       __ZN18HGGPURenderContextD0Ev, __ZN18HGGPURenderContextD1Ev, 
                       __ZN18HGGPURenderContextD2Ev, __ZN18HGHybridQTGammaLog10calcParamsE, 
                       __ZN18HGHybridQTGammaLog19kDefaultCurveParamsE, __ZN18HGHybridQTGammaLog6Decode9GetOutputEP10HGRenderer, 
                       __ZN18HGHybridQTGammaLog6DecodeC1ENS_11CurveParamsE, __ZN18HGHybridQTGammaLog6DecodeC2ENS_11CurveParamsE, 
                       __ZN18HGHybridQTGammaLog6DecodeD0Ev, __ZN18HGHybridQTGammaLog6DecodeD1Ev, 
                       __ZN18HGHybridQTGammaLog6DecodeD2Ev, __ZN18HGHybridQTGammaLog6Encode9GetOutputEP10HGRenderer, 
                       __ZN18HGHybridQTGammaLog6EncodeC1ENS_11CurveParamsE, __ZN18HGHybridQTGammaLog6EncodeC2ENS_11CurveParamsE, 
                       __ZN18HGHybridQTGammaLog6EncodeD0Ev, __ZN18HGHybridQTGammaLog6EncodeD1Ev, 
                       __ZN18HGHybridQTGammaLog6EncodeD2Ev, __ZN18HGHybridQTGammaLog8kQTGammaE, 
                       __ZN18HGLaplacianSharpen12SetParameterEiffff, __ZN18HGLaplacianSharpen9GetOutputEP10HGRenderer, 
                       __ZN18HGLaplacianSharpen9SetAmountEf, __ZN18HGLaplacianSharpenC1Ev, 
                       __ZN18HGLaplacianSharpenC2Ev, __ZN18HGLaplacianSharpenD0Ev, 
                       __ZN18HGLaplacianSharpenD1Ev, __ZN18HGLaplacianSharpenD2Ev, 
                       __ZN18HGMetalShadersPairC1Ev, __ZN18HGMetalShadersPairC2Ev, 
                       __ZN18HGMetalShadersPairD1Ev, __ZN18HGMetalShadersPairD2Ev, 
                       __ZN18HGMetalShadersPairaSERKS_, __ZN18HGMetalSharedEvent10setEventIDEj, 
                       __ZN18HGMetalSharedEvent4waitE21HGMTLCommandQueueType, __ZN18HGMetalSharedEvent4waitE22HGMTLCommandBufferType, 
                       __ZN18HGMetalSharedEvent6signalE21HGMTLCommandQueueType, __ZN18HGMetalSharedEvent6signalE22HGMTLCommandBufferType, 
                       __ZN18HGMetalSharedEvent8setLabelEPKc, __ZN18HGMetalSharedEventC1E15HGMTLDeviceType, 
                       __ZN18HGMetalSharedEventC2E15HGMTLDeviceType, __ZN18HGMetalSharedEventD1Ev, 
                       __ZN18HGMetalSharedEventD2Ev, __ZN18HGMetalTexturePool10newTextureERKNS_10DescriptorEb, 
                       __ZN18HGMetalTexturePool14releaseTextureE16HGMTLTextureType, 
                       __ZN18HGMetalTexturePool18setServicingPolicyERKNSt3__110shared_ptrIN6HGPool15ServicingPolicyEEE, 
                       __ZN18HGMetalTexturePool19setAllocationPolicyERKNSt3__110shared_ptrIN6HGPool16AllocationPolicyINS_10DescriptorEEEEE, 
                       __ZN18HGMetalTexturePool5clearEv, __ZN18HGMetalTexturePool7serviceEv, 
                       __ZN18HGMetalTexturePool8setLabelERKNSt3__112basic_stringIcNS0_11char_traitsIcEENS0_9allocatorIcEEEE, 
                       __ZN18HGMetalTexturePoolC1E15HGMTLDeviceType, __ZN18HGMetalTexturePoolC2E15HGMTLDeviceType, 
                       __ZN18HGMetalTexturePoolD1Ev, __ZN18HGMetalTexturePoolD2Ev, 
                       __ZN18HGSony709_800_MLUT1cE, __ZN18HGSony709_800_MLUT1oE, 
                       __ZN18HGSony709_800_MLUT9GetOutputEP10HGRenderer, __ZN18HGSony709_800_MLUTC1Ev, 
                       __ZN18HGSony709_800_MLUTC2Ev, __ZN18HGSony709_800_MLUTD0Ev, 
                       __ZN18HGSony709_800_MLUTD1Ev, __ZN18HGSony709_800_MLUTD2Ev, 
                       __ZN19BorderPaddingPolicy10adjustRectE6HGRect, __ZN19BorderPaddingPolicyC1Ej, 
                       __ZN19BorderPaddingPolicyC2Ej, __ZN19BorderPaddingPolicyD0Ev, 
                       __ZN19BorderPaddingPolicyD1Ev, __ZN19BorderPaddingPolicyD2Ev, 
                       __ZN19HGAVAMotionDilation12SetParameterEiffff, __ZN19HGAVAMotionDilation9GetOutputEP10HGRenderer, 
                       __ZN19HGAVAMotionDilationC1Ev, __ZN19HGAVAMotionDilationC2Ev, 
                       __ZN19HGAVAMotionDilationD0Ev, __ZN19HGAVAMotionDilationD1Ev, 
                       __ZN19HGAVAMotionDilationD2Ev, __ZN19HGBlackWhiteRestore18SetBlackWhiteValueEff, 
                       __ZN19HGBlackWhiteRestore9GetOutputEP10HGRenderer, __ZN19HGBlackWhiteRestoreC1Ev, 
                       __ZN19HGBlackWhiteRestoreC2Ev, __ZN19HGBlackWhiteRestoreD0Ev, 
                       __ZN19HGBlackWhiteRestoreD1Ev, __ZN19HGBlackWhiteRestoreD2Ev, 
                       __ZN19HGCVPixelBufferPool10DescriptorC1Emmjb, __ZN19HGCVPixelBufferPool10DescriptorC2Emmjb, 
                       __ZN19HGCVPixelBufferPool13releaseBufferEP10__CVBuffer, __ZN19HGCVPixelBufferPool18setRecyclingPolicyEmmy, 
                       __ZN19HGCVPixelBufferPool18setServicingPolicyERKNSt3__110shared_ptrIN6HGPool15ServicingPolicyEEE, 
                       __ZN19HGCVPixelBufferPool19setAllocationPolicyERKNSt3__110shared_ptrIN6HGPool16AllocationPolicyINS_10DescriptorEEEEE, 
                       __ZN19HGCVPixelBufferPool5cleanEm, __ZN19HGCVPixelBufferPool5cleanEmmy, 
                       __ZN19HGCVPixelBufferPool5clearEv, __ZN19HGCVPixelBufferPool8setLabelERKNSt3__112basic_stringIcNS0_11char_traitsIcEENS0_9allocatorIcEEEE, 
                       __ZN19HGCVPixelBufferPool9newBufferEmmjb, __ZN19HGCVPixelBufferPoolC1Ev, 
                       __ZN19HGCVPixelBufferPoolC2Ev, __ZN19HGCVPixelBufferPoolD0Ev, 
                       __ZN19HGCVPixelBufferPoolD1Ev, __ZN19HGCVPixelBufferPoolD2Ev, 
                       __ZN19HGMetalBlendingInfoC1ERK14HGBlendingInfo, __ZN19HGMetalBlendingInfoC2ERK14HGBlendingInfo, 
                       __ZN19HGMultiTexBlendBase6createEi, __ZN19HGMultiTexBlendBaseC2Ev, 
                       __ZN19HGMultiTexBlendBaseD0Ev, __ZN19HGMultiTexBlendBaseD1Ev, 
                       __ZN19HGMultiTexBlendBaseD2Ev, __ZN19HGTexturePoolHandleC2Ev, 
                       __ZN19HGTexturePoolHandleD0Ev, __ZN19HGTexturePoolHandleD1Ev, 
                       __ZN19HGTexturePoolHandleD2Ev, __ZN19SimplePoolingPolicy14setMaxPoolSizeEm, 
                       __ZN19SimplePoolingPolicy18preAllocateTextureEjjjjj, __ZN19SimplePoolingPolicy26setMaxFinishQueueSizeRatioEf, 
                       __ZN19SimplePoolingPolicy32waitForQueuedForDeletionTexturesEv, 
                       __ZN19SimplePoolingPolicy9renderEndEv, __ZN19SimplePoolingPolicyC1Ev, 
                       __ZN19SimplePoolingPolicyC2Ev, __ZN19SimplePoolingPolicyD0Ev, 
                       __ZN19SimplePoolingPolicyD1Ev, __ZN19SimplePoolingPolicyD2Ev, 
                       __ZN20DefaultPaddingPolicy10adjustRectE6HGRect, __ZN20DefaultPaddingPolicyC1Ev, 
                       __ZN20DefaultPaddingPolicyC2Ev, __ZN20DefaultPaddingPolicyD0Ev, 
                       __ZN20DefaultPaddingPolicyD1Ev, __ZN20DefaultPaddingPolicyD2Ev, 
                       __ZN20DepthBufferPushGuardC1ER18DepthBufferManager, __ZN20DepthBufferPushGuardC2ER18DepthBufferManager, 
                       __ZN20DepthBufferPushGuardD1Ev, __ZN20DepthBufferPushGuardD2Ev, 
                       __ZN20HGAVAMotionDetection9GetOutputEP10HGRenderer, __ZN20HGAVAMotionDetectionC1Ev, 
                       __ZN20HGAVAMotionDetectionC2Ev, __ZN20HGAVAMotionDetectionD0Ev, 
                       __ZN20HGAVAMotionDetectionD1Ev, __ZN20HGAVAMotionDetectionD2Ev, 
                       __ZN20HGAVATemporalAverage9GetOutputEP10HGRenderer, __ZN20HGAVATemporalAverageC1Ev, 
                       __ZN20HGAVATemporalAverageC2Ev, __ZN20HGAVATemporalAverageD0Ev, 
                       __ZN20HGAVATemporalAverageD1Ev, __ZN20HGAVATemporalAverageD2Ev, 
                       __ZN20HGCVGLTextureFactory14_createTextureERK5HGRefI10HGCVBitmapE, 
                       __ZN20HGCVGLTextureFactory5flushEv, __ZN20HGCVGLTextureFactory6createEP10__CVBuffer8HGFormatm, 
                       __ZN20HGCVGLTextureFactory6createERK5HGRefI10HGCVBitmapE, 
                       __ZN20HGCVGLTextureFactory6createERK5HGRefI15HGCVPixelBufferE8HGFormatm, 
                       __ZN20HGCVGLTextureFactoryC1E14HGGLContextPtrf, __ZN20HGCVGLTextureFactoryC2E14HGGLContextPtrf, 
                       __ZN20HGCVGLTextureFactoryD0Ev, __ZN20HGCVGLTextureFactoryD1Ev, 
                       __ZN20HGCVGLTextureFactoryD2Ev, __ZN20HGClampPremultiplied9GetOutputEP10HGRenderer, 
                       __ZN20HGClampPremultipliedC1Ev, __ZN20HGClampPremultipliedC2Ev, 
                       __ZN20HGClampPremultipliedD0Ev, __ZN20HGClampPremultipliedD1Ev, 
                       __ZN20HGClampPremultipliedD2Ev, __ZN20HGComicSobelOperator10GetProgramEP10HGRenderer, 
                       __ZN20HGComicSobelOperator10RenderTileEP6HGTile, __ZN20HGComicSobelOperator11BindTextureEP9HGHandleri, 
                       __ZN20HGComicSobelOperator12SetParameterEiffff, __ZN20HGComicSobelOperator6GetDODEP10HGRendereri6HGRect, 
                       __ZN20HGComicSobelOperator6GetROIEP10HGRendereri6HGRect, __ZN20HGComicSobelOperator9GetOutputEP10HGRenderer, 
                       __ZN20HGComicSobelOperatorC1Ev, __ZN20HGComicSobelOperatorC2Ev, 
                       __ZN20HGComicSobelOperatorD0Ev, __ZN20HGComicSobelOperatorD1Ev, 
                       __ZN20HGComicSobelOperatorD2Ev, __ZN21HGCVBufferPairStorageC1EP10HGCVBitmapP10__CVBuffer, 
                       __ZN21HGCVBufferPairStorageC2EP10HGCVBitmapP10__CVBuffer, 
                       __ZN21HGCVBufferPairStorageD0Ev, __ZN21HGCVBufferPairStorageD1Ev, 
                       __ZN21HGCVBufferPairStorageD2Ev, __ZN21HGChromaticAberration12SetParameterEiffff, 
                       __ZN21HGChromaticAberration9GetOutputEP10HGRenderer, __ZN21HGChromaticAberrationC1Ev, 
                       __ZN21HGChromaticAberrationC2Ev, __ZN21HGChromaticAberrationD0Ev, 
                       __ZN21HGChromaticAberrationD1Ev, __ZN21HGChromaticAberrationD2Ev, 
                       __ZN21HGColorConformLUTData10getBytePtrEv, __ZN21HGColorConformLUTData15getConstBytePtrEv, 
                       __ZN21HGColorConformLUTData4copyEPKhmbm, __ZN21HGColorConformLUTData9getFormatEv, 
                       __ZN21HGColorConformLUTDataC1Em8HGFormat, __ZN21HGColorConformLUTDataC2Em8HGFormat, 
                       __ZN21HGColorConformLUTDataD0Ev, __ZN21HGColorConformLUTDataD1Ev, 
                       __ZN21HGColorConformLUTDataD2Ev, __ZN21HGComicStrokeAndBlend10GetProgramEP10HGRenderer, 
                       __ZN21HGComicStrokeAndBlend10RenderTileEP6HGTile, __ZN21HGComicStrokeAndBlend11BindTextureEP9HGHandleri, 
                       __ZN21HGComicStrokeAndBlend12SetParameterEiffff, __ZN21HGComicStrokeAndBlend6GetDODEP10HGRendereri6HGRect, 
                       __ZN21HGComicStrokeAndBlend6GetROIEP10HGRendereri6HGRect, 
                       __ZN21HGComicStrokeAndBlend9GetOutputEP10HGRenderer, __ZN21HGComicStrokeAndBlendC1Ev, 
                       __ZN21HGComicStrokeAndBlendC2Ev, __ZN21HGComicStrokeAndBlendD0Ev, 
                       __ZN21HGComicStrokeAndBlendD1Ev, __ZN21HGComicStrokeAndBlendD2Ev, 
                       __ZN21HGGPUReadbackExecUnit12StartRunLoopEv, __ZN21HGGPUReadbackExecUnit18ExecutePBOReadbackEP16HGGPUReadbackJob, 
                       __ZN21HGGPUReadbackExecUnit7RunLoopEv, __ZN21HGGPUReadbackExecUnitC1E14HGGLContextPtrP13HGRenderQueue, 
                       __ZN21HGGPUReadbackExecUnitC1ERKNSt3__110shared_ptrIK18HGGPUComputeDeviceEE14HGGLContextPtrP13HGRenderQueue, 
                       __ZN21HGGPUReadbackExecUnitC2E14HGGLContextPtrP13HGRenderQueue, 
                       __ZN21HGGPUReadbackExecUnitC2ERKNSt3__110shared_ptrIK18HGGPUComputeDeviceEE14HGGLContextPtrP13HGRenderQueue, 
                       __ZN21HGGPUReadbackExecUnitD0Ev, __ZN21HGGPUReadbackExecUnitD1Ev, 
                       __ZN21HGGPUReadbackExecUnitD2Ev, __ZN21HGShadowHighlightFast11SetCropRectE6HGRect, 
                       __ZN21HGShadowHighlightFast12SetParameterEiffff, __ZN21HGShadowHighlightFast12UpdateParamsEv, 
                       __ZN21HGShadowHighlightFast14SetInputRadiusEf, __ZN21HGShadowHighlightFast16CIToHGBlurRadiusEf, 
                       __ZN21HGShadowHighlightFast20SetInputShadowAmountEf, __ZN21HGShadowHighlightFast23SetInputHighlightAmountEf, 
                       __ZN21HGShadowHighlightFast9GetOutputEP10HGRenderer, __ZN21HGShadowHighlightFastC1Ev, 
                       __ZN21HGShadowHighlightFastC2Ev, __ZN21HGShadowHighlightFastD0Ev, 
                       __ZN21HGShadowHighlightFastD1Ev, __ZN21HGShadowHighlightFastD2Ev, 
                       __ZN21MultiGPUPoolingPolicy11setStrategyEb, __ZN21MultiGPUPoolingPolicy12_removeAllIfE5HGRefI19HGTexturePoolHandleEbb, 
                       __ZN21MultiGPUPoolingPolicy14_needsCleaningE5HGRefI19HGTexturePoolHandleE, 
                       __ZN21MultiGPUPoolingPolicy15_removeOldestIfE5HGRefI19HGTexturePoolHandleEbb, 
                       __ZN21MultiGPUPoolingPolicy16setMaxTextureAgeEf, __ZN21MultiGPUPoolingPolicy18_removeOldestByAgeE5HGRefI19HGTexturePoolHandleEf, 
                       __ZN21MultiGPUPoolingPolicy18preAllocateTextureEjjjjj, __ZN21MultiGPUPoolingPolicy19setMaxPoolSizeRatioEf, 
                       __ZN21MultiGPUPoolingPolicy20setMaxQueueSizeRatioEf, __ZN21MultiGPUPoolingPolicy20setMaxTotalSizeRatioEf, 
                       __ZN21MultiGPUPoolingPolicy21setMaxUnusedSizeRatioEf, __ZN21MultiGPUPoolingPolicy32waitForQueuedForDeletionTexturesEv, 
                       __ZN21MultiGPUPoolingPolicy9renderEndEv, __ZN21MultiGPUPoolingPolicyC1Ev, 
                       __ZN21MultiGPUPoolingPolicyC2Ev, __ZN21MultiGPUPoolingPolicyD0Ev, 
                       __ZN21MultiGPUPoolingPolicyD1Ev, __ZN21MultiGPUPoolingPolicyD2Ev, 
                       __ZN22ClusteredPaddingPolicy10adjustRectE6HGRect, __ZN22ClusteredPaddingPolicyC1Ev, 
                       __ZN22ClusteredPaddingPolicyC2Ev, __ZN22ClusteredPaddingPolicyD0Ev, 
                       __ZN22ClusteredPaddingPolicyD1Ev, __ZN22ClusteredPaddingPolicyD2Ev, 
                       __ZN22HGCanonLog2CinemaGamut6Encode19sourceToCinemaGamutE, 
                       __ZN22HGCanonLog2CinemaGamut6Encode9GetOutputEP10HGRenderer, 
                       __ZN22HGCanonLog2CinemaGamut6EncodeC1ENS_16SceneColorimetryENS_22CodeValueNormalizationE, 
                       __ZN22HGCanonLog2CinemaGamut6EncodeC2ENS_16SceneColorimetryENS_22CodeValueNormalizationE, 
                       __ZN22HGCanonLog2CinemaGamut6EncodeD0Ev, __ZN22HGCanonLog2CinemaGamut6EncodeD1Ev, 
                       __ZN22HGCanonLog2CinemaGamut6EncodeD2Ev, __ZN22HGComicBilateralFilter10GetProgramEP10HGRenderer, 
                       __ZN22HGComicBilateralFilter10RenderTileEP6HGTile, __ZN22HGComicBilateralFilter11BindTextureEP9HGHandleri, 
                       __ZN22HGComicBilateralFilter12SetParameterEiffff, __ZN22HGComicBilateralFilter6GetDODEP10HGRendereri6HGRect, 
                       __ZN22HGComicBilateralFilter6GetROIEP10HGRendereri6HGRect, 
                       __ZN22HGComicBilateralFilter9GetOutputEP10HGRenderer, __ZN22HGComicBilateralFilterC1Ev, 
                       __ZN22HGComicBilateralFilterC2Ev, __ZN22HGComicBilateralFilterD0Ev, 
                       __ZN22HGComicBilateralFilterD1Ev, __ZN22HGComicBilateralFilterD2Ev, 
                       __ZN22HGComputeDeviceManager13IsDualGPUCardENSt3__110shared_ptrIK18HGGPUComputeDeviceEES4_, 
                       __ZN22HGComputeDeviceManager19GetCPUComputeDeviceEv, __ZN22HGComputeDeviceManager20GetComputeDeviceListEv, 
                       __ZN22HGComputeDeviceManager23GetGPUComputeDeviceListEv, __ZN22HGComputeDeviceManager33GetGPUComputeDeviceForMetalDeviceE15HGMTLDeviceType, 
                       __ZN22HGComputeDeviceManager38GetGPUComputeDeviceForCGLVirtualScreenEi, 
                       __ZN22HGRetimeWithFlowInterp12SetParameterEiffff, __ZN22HGRetimeWithFlowInterp9GetOutputEP10HGRenderer, 
                       __ZN22HGRetimeWithFlowInterpC1Ev, __ZN22HGRetimeWithFlowInterpC2Ev, 
                       __ZN22HGRetimeWithFlowInterpD0Ev, __ZN22HGRetimeWithFlowInterpD1Ev, 
                       __ZN22HGRetimeWithFlowInterpD2Ev, __ZN22HGRetimeWithFrameBlend12SetParameterEiffff, 
                       __ZN22HGRetimeWithFrameBlend9GetOutputEP10HGRenderer, __ZN22HGRetimeWithFrameBlendC1Ev, 
                       __ZN22HGRetimeWithFrameBlendC2Ev, __ZN22HGRetimeWithFrameBlendD0Ev, 
                       __ZN22HGRetimeWithFrameBlendD1Ev, __ZN22HGRetimeWithFrameBlendD2Ev, 
                       __ZN22HGSimpleSpatialDenoise12SetParameterEiffff, __ZN22HGSimpleSpatialDenoise15SetFilterParamsEP6HGNode, 
                       __ZN22HGSimpleSpatialDenoise9GetOutputEP10HGRenderer, __ZN22HGSimpleSpatialDenoiseC1Ev, 
                       __ZN22HGSimpleSpatialDenoiseC2Ev, __ZN22HGSimpleSpatialDenoiseD0Ev, 
                       __ZN22HGSimpleSpatialDenoiseD1Ev, __ZN22HGSimpleSpatialDenoiseD2Ev, 
                       __ZN22HGTextureManagerHandleC2Ev, __ZN22HGTextureManagerHandleD0Ev, 
                       __ZN22HGTextureManagerHandleD1Ev, __ZN22HGTextureManagerHandleD2Ev, 
                       __ZN22HGTexturePaddingPolicyC2Ev, __ZN22HGTexturePaddingPolicyD0Ev, 
                       __ZN22HGTexturePaddingPolicyD1Ev, __ZN22HGTexturePaddingPolicyD2Ev, 
                       __ZN22HGTexturePoolingPolicy16getManagerHandleEv, __ZN22HGTexturePoolingPolicy16setManagerHandleE5HGRefI22HGTextureManagerHandleE, 
                       __ZN22HGTexturePoolingPolicyC2Ev, __ZN22HGTexturePoolingPolicyD0Ev, 
                       __ZN22HGTexturePoolingPolicyD1Ev, __ZN22HGTexturePoolingPolicyD2Ev, 
                       __ZN22HGVignettingCorrection12SetParameterEiffff, __ZN22HGVignettingCorrection9GetOutputEP10HGRenderer, 
                       __ZN22HGVignettingCorrectionC1Ev, __ZN22HGVignettingCorrectionC2Ev, 
                       __ZN22HGVignettingCorrectionD0Ev, __ZN22HGVignettingCorrectionD1Ev, 
                       __ZN22HGVignettingCorrectionD2Ev, __ZN23HGBilateralFilterInterp10BuildGraphEv, 
                       __ZN23HGBilateralFilterInterp10SetNumBinsEj, __ZN23HGBilateralFilterInterp12DestroyGraphEv, 
                       __ZN23HGBilateralFilterInterp12UpdateParamsEv, __ZN23HGBilateralFilterInterp13SetRangeScaleEf, 
                       __ZN23HGBilateralFilterInterp14SetRangeOffsetEf, __ZN23HGBilateralFilterInterp20SetSpatialBlurRadiusEf, 
                       __ZN23HGBilateralFilterInterp22SetIntensityBlurRadiusEf, __ZN23HGBilateralFilterInterp9GetOutputEP10HGRenderer, 
                       __ZN23HGBilateralFilterInterpC1Ev, __ZN23HGBilateralFilterInterpC2Ev, 
                       __ZN23HGBilateralFilterInterpD0Ev, __ZN23HGBilateralFilterInterpD1Ev, 
                       __ZN23HGBilateralFilterInterpD2Ev, __ZN23HGColorConformLook3DLUT11SetChecksumEPhm, 
                       __ZN23HGColorConformLook3DLUT5ClearEv, __ZN23HGColorConformLook3DLUT7IsEqualEPS_, 
                       __ZN23HGColorConformLook3DLUT9SetBufferEPK8__CFData, __ZN23HGColorConformLook3DLUTC1EN12HGColorGamma26hgColorGammaColorPrimariesENS0_28hgColorGammaTransferFunctionEPK8__CFDatammmfffbN14HGColorConform15hgLookLUTEndianEPhmffff, 
                       __ZN23HGColorConformLook3DLUTC1ENS_6PresetE, __ZN23HGColorConformLook3DLUTC1ERKS_, 
                       __ZN23HGColorConformLook3DLUTC1Ev, __ZN23HGColorConformLook3DLUTC2EN12HGColorGamma26hgColorGammaColorPrimariesENS0_28hgColorGammaTransferFunctionEPK8__CFDatammmfffbN14HGColorConform15hgLookLUTEndianEPhmffff, 
                       __ZN23HGColorConformLook3DLUTC2ENS_6PresetE, __ZN23HGColorConformLook3DLUTC2ERKS_, 
                       __ZN23HGColorConformLook3DLUTC2Ev, __ZN23HGColorConformLook3DLUTD0Ev, 
                       __ZN23HGColorConformLook3DLUTD1Ev, __ZN23HGColorConformLook3DLUTD2Ev, 
                       __ZN23HGMetalCommandBufferRef18waitUntilCompletedEv, __ZN23HGMetalCommandBufferRef18waitUntilScheduledEv, 
                       __ZN23HGMetalCommandBufferRefC1E22HGMTLCommandBufferType, 
                       __ZN23HGMetalCommandBufferRefC2E22HGMTLCommandBufferType, 
                       __ZN23HGMetalCommandBufferRefD1Ev, __ZN23HGMetalCommandBufferRefD2Ev, 
                       __ZN23HGPagePullTexturesGuardC1EP6HGNodeP6HGPage, __ZN23HGPagePullTexturesGuardC2EP6HGNodeP6HGPage, 
                       __ZN23HGPagePullTexturesGuardD1Ev, __ZN23HGPagePullTexturesGuardD2Ev, 
                       __ZN24HGComicDesignerInterface12SetParameterEiffff, __ZN24HGComicDesignerInterface9GetOutputEP10HGRenderer, 
                       __ZN24HGComicDesignerInterfaceC1Ev, __ZN24HGComicDesignerInterfaceC2Ev, 
                       __ZN24HGComicDesignerInterfaceD0Ev, __ZN24HGComicDesignerInterfaceD1Ev, 
                       __ZN24HGComicDesignerInterfaceD2Ev, __ZN24HGMetalSamplerStateCache15getSamplerStateERKNS_4InfoE, 
                       __ZN24HGMetalSamplerStateCache19_createSamplerStateERKNS_4InfoE, 
                       __ZN24HGMetalSamplerStateCacheC1E15HGMTLDeviceType, __ZN24HGMetalSamplerStateCacheC2E15HGMTLDeviceType, 
                       __ZN24HGMetalSamplerStateCacheD1Ev, __ZN24HGMetalSamplerStateCacheD2Ev, 
                       __ZN25HGBilateralFilterInterpSC10BuildGraphEv, __ZN25HGBilateralFilterInterpSC10SetNumBinsEj, 
                       __ZN25HGBilateralFilterInterpSC12DestroyGraphEv, __ZN25HGBilateralFilterInterpSC12UpdateParamsEv, 
                       __ZN25HGBilateralFilterInterpSC13SetRangeScaleEf, __ZN25HGBilateralFilterInterpSC14SetRangeOffsetEf, 
                       __ZN25HGBilateralFilterInterpSC16SetFilterChannelENS_39hgBilateralFilterInterpSC_FilterChannelE, 
                       __ZN25HGBilateralFilterInterpSC20SetSpatialBlurRadiusEf, __ZN25HGBilateralFilterInterpSC22SetIntensityBlurRadiusEf, 
                       __ZN25HGBilateralFilterInterpSC9GetOutputEP10HGRenderer, __ZN25HGBilateralFilterInterpSCC1Ev, 
                       __ZN25HGBilateralFilterInterpSCC2Ev, __ZN25HGBilateralFilterInterpSCD0Ev, 
                       __ZN25HGBilateralFilterInterpSCD1Ev, __ZN25HGBilateralFilterInterpSCD2Ev, 
                       __ZN25HGPremultiplyWhiteToBlack9GetOutputEP10HGRenderer, __ZN25HGPremultiplyWhiteToBlackC1Ev, 
                       __ZN25HGPremultiplyWhiteToBlackC2Ev, __ZN25HGPremultiplyWhiteToBlackD0Ev, 
                       __ZN25HGPremultiplyWhiteToBlackD1Ev, __ZN25HGPremultiplyWhiteToBlackD2Ev, 
                       __ZN26HGColorConformNodeListItemC1Ev, __ZN26HGColorConformNodeListItemC2Ev, 
                       __ZN26HGColorConformNodeListItemD1Ev, __ZN26HGColorConformNodeListItemD2Ev, 
                       __ZN26HGGLSetCurrentContextGuardC1E14HGGLContextPtr, __ZN26HGGLSetCurrentContextGuardC2E14HGGLContextPtr, 
                       __ZN26HGGLSetCurrentContextGuardD1Ev, __ZN26HGGLSetCurrentContextGuardD2Ev, 
                       __ZN28HGPagePullMetalTexturesGuardC1EP6HGNodeP6HGPage, __ZN28HGPagePullMetalTexturesGuardC2EP6HGNodeP6HGPage, 
                       __ZN28HGPagePullMetalTexturesGuardD1Ev, __ZN28HGPagePullMetalTexturesGuardD2Ev, 
                       __ZN29HGMetalDepthStencilStateCache20getDepthStencilStateERKNS_4InfoE, 
                       __ZN29HGMetalDepthStencilStateCache24_createDepthStencilStateERKNS_4InfoE, 
                       __ZN29HGMetalDepthStencilStateCacheC1E15HGMTLDeviceType, __ZN29HGMetalDepthStencilStateCacheC2E15HGMTLDeviceType, 
                       __ZN29HGMetalDepthStencilStateCacheD1Ev, __ZN29HGMetalDepthStencilStateCacheD2Ev, 
                       __ZN30HGMetalBufferWrapperInfinipool5clearEv, __ZN30HGMetalBufferWrapperInfinipool8setLabelERKNSt3__112basic_stringIcNS0_11char_traitsIcEENS0_9allocatorIcEEEE, 
                       __ZN30HGMetalBufferWrapperInfinipool9newBufferERKNS_10DescriptorE, 
                       __ZN30HGMetalBufferWrapperInfinipoolC1E15HGMTLDeviceType, 
                       __ZN30HGMetalBufferWrapperInfinipoolC2E15HGMTLDeviceType, 
                       __ZN30HGMetalBufferWrapperInfinipoolD1Ev, __ZN30HGMetalBufferWrapperInfinipoolD2Ev, 
                       __ZN31HGColorConformNodeListCacheItem11GetNodeListEv, __ZN31HGColorConformNodeListCacheItemC1EPNSt3__16vectorIP26HGColorConformNodeListItemNS0_9allocatorIS3_EEEE, 
                       __ZN31HGColorConformNodeListCacheItemC2EPNSt3__16vectorIP26HGColorConformNodeListItemNS0_9allocatorIS3_EEEE, 
                       __ZN31HGColorConformNodeListCacheItemD0Ev, __ZN31HGColorConformNodeListCacheItemD1Ev, 
                       __ZN31HGColorConformNodeListCacheItemD2Ev, __ZN31HGInterlaceHandler_ExtractField12SetParameterEiffff, 
                       __ZN31HGInterlaceHandler_ExtractField13SetWhichFieldENS_31hgInterlaceHandler_ExtractFieldE, 
                       __ZN31HGInterlaceHandler_ExtractField9GetOutputEP10HGRenderer, 
                       __ZN31HGInterlaceHandler_ExtractFieldC1Ev, __ZN31HGInterlaceHandler_ExtractFieldC2Ev, 
                       __ZN31HGInterlaceHandler_ExtractFieldD0Ev, __ZN31HGInterlaceHandler_ExtractFieldD1Ev, 
                       __ZN31HGInterlaceHandler_ExtractFieldD2Ev, __ZN31HGMetalRenderPipelineStateCache22getRenderPipelineStateERKNS_4InfoE, 
                       __ZN31HGMetalRenderPipelineStateCache26_createRenderPipelineStateERKNS_4InfoE, 
                       __ZN31HGMetalRenderPipelineStateCache5purgeEPK18HGMetalShadersPair, 
                       __ZN31HGMetalRenderPipelineStateCacheC1E15HGMTLDeviceType, 
                       __ZN31HGMetalRenderPipelineStateCacheC2E15HGMTLDeviceType, 
                       __ZN31HGMetalRenderPipelineStateCacheD1Ev, __ZN31HGMetalRenderPipelineStateCacheD2Ev, 
                       __ZN31HGMetalTextureWrapperInfinipool10newTextureERKNS_10DescriptorE, 
                       __ZN31HGMetalTextureWrapperInfinipool5clearEv, __ZN31HGMetalTextureWrapperInfinipool8setLabelERKNSt3__112basic_stringIcNS0_11char_traitsIcEENS0_9allocatorIcEEEE, 
                       __ZN31HGMetalTextureWrapperInfinipoolC1E15HGMTLDeviceType, 
                       __ZN31HGMetalTextureWrapperInfinipoolC2E15HGMTLDeviceType, 
                       __ZN31HGMetalTextureWrapperInfinipoolD1Ev, __ZN31HGMetalTextureWrapperInfinipoolD2Ev, 
                       __ZN32HGCLRedDebayerAndImageProcessing10RenderTileEP6HGTile, 
                       __ZN32HGCLRedDebayerAndImageProcessing12RenderCLPageEP6HGPage, 
                       __ZN32HGCLRedDebayerAndImageProcessing6GetDODEP10HGRendereri6HGRect, 
                       __ZN32HGCLRedDebayerAndImageProcessingC1EPFvPvP11_cl_contextP17_cl_command_queueP7_cl_memjPS6_ES0_PFvS0_Eii, 
                       __ZN32HGCLRedDebayerAndImageProcessingC2EPFvPvP11_cl_contextP17_cl_command_queueP7_cl_memjPS6_ES0_PFvS0_Eii, 
                       __ZN32HGCLRedDebayerAndImageProcessingD0Ev, __ZN32HGCLRedDebayerAndImageProcessingD1Ev, 
                       __ZN32HGCLRedDebayerAndImageProcessingD2Ev, __ZN34HGInterlaceHandler_InterlaceFields12SetParameterEiffff, 
                       __ZN34HGInterlaceHandler_InterlaceFields13SetFieldOrderENS_34hgInterlaceHandler_InterlaceFieldsE, 
                       __ZN34HGInterlaceHandler_InterlaceFields9GetOutputEP10HGRenderer, 
                       __ZN34HGInterlaceHandler_InterlaceFieldsC1Ev, __ZN34HGInterlaceHandler_InterlaceFieldsC2Ev, 
                       __ZN34HGInterlaceHandler_InterlaceFieldsD0Ev, __ZN34HGInterlaceHandler_InterlaceFieldsD1Ev, 
                       __ZN34HGInterlaceHandler_InterlaceFieldsD2Ev, __ZN36HGComicLookupFilterLUTBitmapResource9GetOutputEP10HGRenderer, 
                       __ZN36HGComicLookupFilterLUTBitmapResourceC1EN10HGComicLUT8LUTIndexE, 
                       __ZN36HGComicLookupFilterLUTBitmapResourceC2EN10HGComicLUT8LUTIndexE, 
                       __ZN36HGComicLookupFilterLUTBitmapResourceD0Ev, __ZN36HGComicLookupFilterLUTBitmapResourceD1Ev, 
                       __ZN36HGComicLookupFilterLUTBitmapResourceD2Ev, __ZN40HGComicGaussianBlurAndGradientGeneration10GetProgramEP10HGRenderer, 
                       __ZN40HGComicGaussianBlurAndGradientGeneration10RenderTileEP6HGTile, 
                       __ZN40HGComicGaussianBlurAndGradientGeneration11BindTextureEP9HGHandleri, 
                       __ZN40HGComicGaussianBlurAndGradientGeneration12SetParameterEiffff, 
                       __ZN40HGComicGaussianBlurAndGradientGeneration6GetDODEP10HGRendereri6HGRect, 
                       __ZN40HGComicGaussianBlurAndGradientGeneration6GetROIEP10HGRendereri6HGRect, 
                       __ZN40HGComicGaussianBlurAndGradientGeneration9GetOutputEP10HGRenderer, 
                       __ZN40HGComicGaussianBlurAndGradientGenerationC1Ev, __ZN40HGComicGaussianBlurAndGradientGenerationC2Ev, 
                       __ZN40HGComicGaussianBlurAndGradientGenerationD0Ev, __ZN40HGComicGaussianBlurAndGradientGenerationD1Ev, 
                       __ZN40HGComicGaussianBlurAndGradientGenerationD2Ev, __ZN4HGCV24CVPixelFormatForHGFormatE8HGFormatm, 
                       __ZN4HGCV24HGFormatForCVPixelFormatEjm, __ZN4HGCV32AllowPixelSizeCastingForHGFormatE8HGFormat, 
                       __ZN4HGPQ10kDefaultC1E, __ZN4HGPQ11InverseEOTF1NEd, __ZN4HGPQ11InverseEOTF9GetOutputEP10HGRenderer, 
                       __ZN4HGPQ11InverseEOTFC1Ed, __ZN4HGPQ11InverseEOTFC2Ed, __ZN4HGPQ11InverseEOTFD0Ev, 
                       __ZN4HGPQ11InverseEOTFD1Ev, __ZN4HGPQ11InverseEOTFD2Ev, __ZN4HGPQ11InverseOETF4rsm1E, 
                       __ZN4HGPQ11InverseOETF6qtsrm1E, __ZN4HGPQ11InverseOETF9GetOutputEP10HGRenderer, 
                       __ZN4HGPQ11InverseOETFC1Ebd, __ZN4HGPQ11InverseOETFC2Ebd, 
                       __ZN4HGPQ11InverseOETFD0Ev, __ZN4HGPQ11InverseOETFD1Ev, __ZN4HGPQ11InverseOETFD2Ev, 
                       __ZN4HGPQ11InverseOOTF2bbE, __ZN4HGPQ11InverseOOTF9GetOutputEP10HGRenderer, 
                       __ZN4HGPQ11InverseOOTFC1Ebdd, __ZN4HGPQ11InverseOOTFC2Ebdd, 
                       __ZN4HGPQ11InverseOOTFD0Ev, __ZN4HGPQ11InverseOOTFD1Ev, __ZN4HGPQ11InverseOOTFD2Ev, 
                       __ZN4HGPQ2c1E, __ZN4HGPQ2c2E, __ZN4HGPQ2c3E, __ZN4HGPQ2m1E, 
                       __ZN4HGPQ2m2E, __ZN4HGPQ4EOTF1CEd, __ZN4HGPQ4EOTF3mc3E, __ZN4HGPQ4EOTF3rm1E, 
                       __ZN4HGPQ4EOTF3rm2E, __ZN4HGPQ4EOTF9GetOutputEP10HGRenderer, 
                       __ZN4HGPQ4EOTFC1Ed, __ZN4HGPQ4EOTFC2Ed, __ZN4HGPQ4EOTFD0Ev, 
                       __ZN4HGPQ4EOTFD1Ev, __ZN4HGPQ4EOTFD2Ev, __ZN4HGPQ4OETF3sm1E, 
                       __ZN4HGPQ4OETF5qtsm1E, __ZN4HGPQ4OETF9GetOutputEP10HGRenderer, 
                       __ZN4HGPQ4OETFC1Ebd, __ZN4HGPQ4OETFC2Ebd, __ZN4HGPQ4OETFD0Ev, 
                       __ZN4HGPQ4OETFD1Ev, __ZN4HGPQ4OETFD2Ev, __ZN4HGPQ4OOTF1CEdbd, 
                       __ZN4HGPQ4OOTF1aE, __ZN4HGPQ4OOTF1bE, __ZN4HGPQ4OOTF1cE, __ZN4HGPQ4OOTF9GetOutputEP10HGRenderer, 
                       __ZN4HGPQ4OOTFC1Ebdd, __ZN4HGPQ4OOTFC2Ebdd, __ZN4HGPQ4OOTFD0Ev, 
                       __ZN4HGPQ4OOTFD1Ev, __ZN4HGPQ4OOTFD2Ev, __ZN4HGPQ7PQToSDR11SetPeakNitsEd, 
                       __ZN4HGPQ7PQToSDR22SetOutputIsRec709GammaEb, __ZN4HGPQ7PQToSDR9GetOutputEP10HGRenderer, 
                       __ZN4HGPQ7PQToSDRC1Ev, __ZN4HGPQ7PQToSDRC2Ev, __ZN4HGPQ7PQToSDRD0Ev, 
                       __ZN4HGPQ7PQToSDRD1Ev, __ZN4HGPQ7PQToSDRD2Ev, __ZN5GLPBO10GetDataPtrEv, 
                       __ZN5GLPBO10ReadPixelsEiijjjjjjjj, __ZN5GLPBO14ReleaseDataPtrEv, 
                       __ZN5GLPBO24forcePostReadPixelsFenceEi, __ZN5GLPBO25forcePostReadPixelsFinishEi, 
                       __ZN5GLPBO26m_ForcePostReadPixelsFenceE, __ZN5GLPBO27m_ForcePostReadPixelsFinishE, 
                       __ZN5GLPBO4_mapEv, __ZN5GLPBO6ResizeEjj, __ZN5GLPBO6_setupEj, 
                       __ZN5GLPBO6_unmapEv, __ZN5GLPBO7_deleteEv, __ZN5GLPBOC1E14HGGLContextPtr, 
                       __ZN5GLPBOC2E14HGGLContextPtr, __ZN5GLPBOD1Ev, __ZN5GLPBOD2Ev, 
                       __ZN5HGHLG10kDefaultC1E, __ZN5HGHLG11InverseOETF1LEd, __ZN5HGHLG11InverseOETF2bbE, 
                       __ZN5HGHLG11InverseOETF3rEwE, __ZN5HGHLG11InverseOETF6rrSqEwE, 
                       __ZN5HGHLG11InverseOETF9GetOutputEP10HGRenderer, __ZN5HGHLG11InverseOETFC1Ev, 
                       __ZN5HGHLG11InverseOETFC2Ev, __ZN5HGHLG11InverseOETFD0Ev, 
                       __ZN5HGHLG11InverseOETFD1Ev, __ZN5HGHLG11InverseOETFD2Ev, 
                       __ZN5HGHLG11InverseOOTF23setPeakDisplayLuminanceEd, __ZN5HGHLG11InverseOOTF9GetOutputEP10HGRenderer, 
                       __ZN5HGHLG11InverseOOTFC1ENS_4OOTF14ColorPrimariesEd, __ZN5HGHLG11InverseOOTFC2ENS_4OOTF14ColorPrimariesEd, 
                       __ZN5HGHLG11InverseOOTFD0Ev, __ZN5HGHLG11InverseOOTFD1Ev, 
                       __ZN5HGHLG11InverseOOTFD2Ev, __ZN5HGHLG1aE, __ZN5HGHLG1bE, 
                       __ZN5HGHLG1rE, __ZN5HGHLG2EwE, __ZN5HGHLG4OETF1tE, __ZN5HGHLG4OETF2EpEd, 
                       __ZN5HGHLG4OETF2bbE, __ZN5HGHLG4OETF9GetOutputEP10HGRenderer, 
                       __ZN5HGHLG4OETFC1Ev, __ZN5HGHLG4OETFC2Ev, __ZN5HGHLG4OETFD0Ev, 
                       __ZN5HGHLG4OETFD1Ev, __ZN5HGHLG4OETFD2Ev, __ZN5HGHLG4OOTF15luminanceCoeffsE, 
                       __ZN5HGHLG4OOTF23setPeakDisplayLuminanceEd, __ZN5HGHLG4OOTF9GetOutputEP10HGRenderer, 
                       __ZN5HGHLG4OOTFC1ENS0_14ColorPrimariesEd, __ZN5HGHLG4OOTFC2ENS0_14ColorPrimariesEd, 
                       __ZN5HGHLG4OOTFD0Ev, __ZN5HGHLG4OOTFD1Ev, __ZN5HGHLG4OOTFD2Ev, 
                       __ZN5HGHLG8HLGToSDR22SetOutputIsRec709GammaEb, __ZN5HGHLG8HLGToSDR9GetOutputEP10HGRenderer, 
                       __ZN5HGHLG8HLGToSDRC1Ev, __ZN5HGHLG8HLGToSDRC2Ev, __ZN5HGHLG8HLGToSDRD0Ev, 
                       __ZN5HGHLG8HLGToSDRD1Ev, __ZN5HGHLG8HLGToSDRD2Ev, __ZN5HGHLG8SDRToHLG9GetOutputEP10HGRenderer, 
                       __ZN5HGHLG8SDRToHLGC1ENS0_12SDRInputTypeE, __ZN5HGHLG8SDRToHLGC2ENS0_12SDRInputTypeE, 
                       __ZN5HGHLG8SDRToHLGD0Ev, __ZN5HGHLG8SDRToHLGD1Ev, __ZN5HGHLG8SDRToHLGD2Ev, 
                       __ZN5HGIQA10ReadBitmapEPKci, __ZN5HGIQA11WriteBitmapEPKcP8HGBitmapb, 
                       __ZN5HGIQA12GetPixelInfoENS_12IQAPixelTypeEPmS1_, __ZN5HGIQA12GetPixelInfoENS_12IQAPixelTypeEPmS1_P8HGFormat, 
                       __ZN5HGIQA12IQAWriteFileEPKcPNS_13IQAFileHeaderEPv, __ZN5HGIQA13WriteCVBitmapEPKcP10HGCVBitmapb, 
                       __ZN5HGIQA7IQAFile10colorSpaceEv, __ZN5HGIQA7IQAFile24ReadFrameReturningBufferEiPPv, 
                       __ZN5HGIQA7IQAFile26ReadFrameCopyingIntoBufferEiPvm, __ZN5HGIQA7IQAFile26ReadFrameReturningHGBitmapEiPP8HGBitmap, 
                       __ZN5HGIQA7IQAFile31WriteNextFrameCopyingFromBitmapEP8HGBitmap, 
                       __ZN5HGIQA7IQAFile31WriteNextFrameCopyingFromBufferEPvm, __ZN5HGIQA7IQAFileC1EPc, 
                       __ZN5HGIQA7IQAFileC1EPciiiiNS_12IQAPixelTypeENS_17IQAFieldDominanceEfNS_13IQAColorSpaceEbii, 
                       __ZN5HGIQA7IQAFileC2EPc, __ZN5HGIQA7IQAFileC2EPciiiiNS_12IQAPixelTypeENS_17IQAFieldDominanceEfNS_13IQAColorSpaceEbii, 
                       __ZN5HGIQA7IQAFileD1Ev, __ZN5HGIQA7IQAFileD2Ev, __ZN6DBM_gl11enableDepthEbbjb, 
                       __ZN6DBM_gl11enableDepthEv, __ZN6DBM_gl11getDepthResEi, __ZN6DBM_gl11nullTextureEv, 
                       __ZN6DBM_gl11setDepthResEi, __ZN6DBM_gl12_reinitDepthEv, __ZN6DBM_gl12disableDepthEv, 
                       __ZN6DBM_gl14setDepthBufferEP8HGBufferb, __ZN6DBM_gl17_initDepthFormatsEv, 
                       __ZN6DBM_gl18createDepthTextureEv, __ZN6DBM_gl18getCurrentDepthResEv, 
                       __ZN6DBM_gl19_initOneDepthFormatEi, __ZN6DBM_gl4bindEP6HGNode6HGRect, 
                       __ZN6DBM_gl5_bindEP6HGNode6HGRectb, __ZN6DBM_gl6glRendEv, 
                       __ZN6DBM_gl6unbindEv, __ZN6DBM_gl6uninitEv, __ZN6DBM_gl7preBindE6HGRect, 
                       __ZN6DBM_glC1EP10HGRenderer, __ZN6DBM_glC2EP10HGRenderer, 
                       __ZN6DBM_glD0Ev, __ZN6DBM_glD1Ev, __ZN6DBM_glD2Ev, __ZN6HGBlur12SetParameterEiffff, 
                       __ZN6HGBlur13GetDecimationEf, __ZN6HGBlur14fastDecimateUpEP6HGNode, 
                       __ZN6HGBlur16fastDecimateDownEP6HGNode, __ZN6HGBlur17ComputeDecimationEb, 
                       __ZN6HGBlur9GetOutputEP10HGRenderer, __ZN6HGBlur9QueueNodeEP6HGNode, 
                       __ZN6HGBlurC1Ev, __ZN6HGBlurC2Ev, __ZN6HGBlurD0Ev, __ZN6HGBlurD1Ev, 
                       __ZN6HGBlurD2Ev, __ZN6HGCrop12SetParameterEiffff, __ZN6HGCrop9GetOutputEP10HGRenderer, 
                       __ZN6HGCropC1Ev, __ZN6HGCropC2Ev, __ZN6HGNode10ClearFlagsEii, 
                       __ZN6HGNode10GetProgramEP10HGRenderer, __ZN6HGNode10RenderPageEP6HGPage, 
                       __ZN6HGNode10RenderTileEP6HGTile, __ZN6HGNode11BindTextureEP9HGHandleri, 
                       __ZN6HGNode11GetPropertyEij, __ZN6HGNode12GetNumInputsEv, 
                       __ZN6HGNode12GetParameterEiPf, __ZN6HGNode12PreBufferingEP10HGRenderer, 
                       __ZN6HGNode12PullTexturesEP6HGPagei, __ZN6HGNode12SetParameterEiffff, 
                       __ZN6HGNode13GetUserRegionEP10HGRendereriPv, __ZN6HGNode13PostBufferingEP10HGRendererP8HGBitmap, 
                       __ZN6HGNode15PreRenderOptionEP10HGRenderer, __ZN6HGNode15RenderPageMetalEP6HGPage, 
                       __ZN6HGNode16GetParameterNameEi, __ZN6HGNode16PreTileBufferingEP10HGRenderer, 
                       __ZN6HGNode16RenderInputOrderEi, __ZN6HGNode17GetParameterCountEv, 
                       __ZN6HGNode17PrepareOutputNodeEP10HGRenderer6HGRect8HGFormat, 
                       __ZN6HGNode17PullMetalTexturesEP6HGPagei, __ZN6HGNode19BindTextureDelegateEP9HGHandleri, 
                       __ZN6HGNode24EnableGLHardwareBlendingEv, __ZN6HGNode25AttemptEarlyConcatenationEPS_, 
                       __ZN6HGNode25DisableGLHardwareBlendingEv, __ZN6HGNode25DoInplaceHardwareBlendingEP12HGGLRendererPS_f, 
                       __ZN6HGNode25SetOutputFormatComponentsE18HGFormatComponents, 
                       __ZN6HGNode26SupportsEarlyConcatenationEv, __ZN6HGNode28SetSupportedFormatPrecisionsEj, 
                       __ZN6HGNode29EnableInplaceHardwareBlendingEv, __ZN6HGNode30DisableInplaceHardwareBlendingEv, 
                       __ZN6HGNode30SetInPlaceHardwareBlendingInfoERK14HGBlendingInfo, 
                       __ZN6HGNode31SetInPlaceHardwareBlendingColorERKDv4_f, __ZN6HGNode31SupportsInplaceHardwareBlendingEf, 
                       __ZN6HGNode33SetInPlaceHardwareBlendingOpacityEf, __ZN6HGNode4BindEP9HGHandler, 
                       __ZN6HGNode4InitEPfii, __ZN6HGNode6GetDODEP10HGRendereri6HGRect, 
                       __ZN6HGNode6GetROIEP10HGRendereri6HGRect, __ZN6HGNode6UnBindEP9HGHandler, 
                       __ZN6HGNode7PageEndEP6HGPageiP9HGHandler, __ZN6HGNode8GetFlagsEi, 
                       __ZN6HGNode8GetInputEi, __ZN6HGNode8SetFlagsEii, __ZN6HGNode8SetInputEiPS_, 
                       __ZN6HGNode8SetStateEP10HGRendereri, __ZN6HGNode9ClearBitsEi, 
                       __ZN6HGNode9ClearBitsEv, __ZN6HGNode9GetFilterEP10HGRenderer, 
                       __ZN6HGNode9GetOutputEP10HGRenderer, __ZN6HGNode9PageBeginEP6HGPageiP9HGHandler, 
                       __ZN6HGNode9SetFilterE12HGFilterMode, __ZN6HGNodeC1EPfi, __ZN6HGNodeC1Ev, 
                       __ZN6HGNodeC2EPfi, __ZN6HGNodeC2Ev, __ZN6HGNodeD0Ev, __ZN6HGNodeD1Ev, 
                       __ZN6HGNodeD2Ev, __ZN6HGPage15ReleaseTexturesEv, __ZN6HGPage6CancelEii, 
                       __ZN6HGPool11logAllPoolsEv, __ZN6HGPool12registerPoolEPNS_8BasePoolE, 
                       __ZN6HGPool13traceAllPoolsEv, __ZN6HGPool14unregisterPoolEPNS_8BasePoolE, 
                       __ZN6HGPool15serviceAllPoolsEv, __ZN6HGPool20GroupServicingPolicy7addPoolEPKNS_8BasePoolERKNSt3__110shared_ptrINS_15ServicingPolicyEEE, 
                       __ZN6HGPool29setObserverThreadWakeIntervalEj, __ZN6HGRect12IntersectionES_, 
                       __ZN6HGRect4GrowES_, __ZN6HGRect4InitE7HGRectf, __ZN6HGRect4InitEffff, 
                       __ZN6HGRect4InitEiiii, __ZN6HGRect5UnionES_, __ZN6HGRect6OffsetEii, 
                       __ZN7DBM_cpu10bufferHintEP8HGBuffer, __ZN7DBM_cpu14setDepthBufferEP8HGBitmap6HGRect, 
                       __ZN7DBM_cpu3popEv, __ZN7DBM_cpu4bindEP6HGNode6HGRect, __ZN7DBM_cpu4pushEv, 
                       __ZN7DBM_cpu6unbindEv, __ZN7DBM_cpu8rectHintE6HGRect, __ZN7DBM_cpuC1EP10HGRenderer, 
                       __ZN7DBM_cpuC2EP10HGRenderer, __ZN7DBM_cpuD0Ev, __ZN7DBM_cpuD1Ev, 
                       __ZN7DBM_cpuD2Ev, __ZN7HGBlend10GetProgramEP10HGRenderer, 
                       __ZN7HGBlend10RenderPageEP6HGPage, __ZN7HGBlend10RenderTileEP6HGTile, 
                       __ZN7HGBlend10RenderTileEP6HGTileiPKf, __ZN7HGBlend11BindTextureEP9HGHandleri, 
                       __ZN7HGBlend12GetBlendFuncE11HGBlendMode, __ZN7HGBlend12GetParameterEiPf, 
                       __ZN7HGBlend12SetParameterEiffff, __ZN7HGBlend13GAMMA_DEFAULTE, 
                       __ZN7HGBlend15RenderPageMetalEP6HGPage, __ZN7HGBlend4BindEP9HGHandler, 
                       __ZN7HGBlend6GetDODEP10HGRendereri6HGRect, __ZN7HGBlend6GetROIEP10HGRendereri6HGRect, 
                       __ZN7HGBlend9GetOutputEP10HGRenderer, __ZN7HGBlendC1Ev, __ZN7HGBlendC2Ev, 
                       __ZN7HGBlendD0Ev, __ZN7HGBlendD1Ev, __ZN7HGBlendD2Ev, __ZN7HGCache10ClearItemsEv, 
                       __ZN7HGCache7AddItemEPK5HGMD5P8HGBitmap, __ZN7HGCache7GetItemEPK5HGMD5, 
                       __ZN7HGCacheC1Ev, __ZN7HGCacheC2Ev, __ZN7HGCacheD0Ev, __ZN7HGCacheD1Ev, 
                       __ZN7HGCacheD2Ev, __ZN7HGComic12SetParameterEiffff, __ZN7HGComic9GetOutputEP10HGRenderer, 
                       __ZN7HGComicC1Ev, __ZN7HGComicC2Ev, __ZN7HGComicD0Ev, __ZN7HGComicD1Ev, 
                       __ZN7HGComicD2Ev, __ZN7HGGamma10GetProgramEP10HGRenderer, 
                       __ZN7HGGamma10RenderTileEP6HGTile, __ZN7HGGamma11BindTextureEP9HGHandleri, 
                       __ZN7HGGamma12SetParameterEiffff, __ZN7HGGamma4BindEP9HGHandler, 
                       __ZN7HGGamma8SetLabelEPKf, __ZN7HGGamma9GetOutputEP10HGRenderer, 
                       __ZN7HGGammaC1Ev, __ZN7HGGammaC2Ev, __ZN7HGGammaD0Ev, __ZN7HGGammaD1Ev, 
                       __ZN7HGGammaD2Ev, __ZN7HGPower10GetProgramEP10HGRenderer, 
                       __ZN7HGPower10RenderTileEP6HGTile, __ZN7HGPower11BindTextureEP9HGHandleri, 
                       __ZN7HGPower12SetParameterEiffff, __ZN7HGPower4BindEP9HGHandler, 
                       __ZN7HGPower8SetLabelEPKf, __ZN7HGPower9GetOutputEP10HGRenderer, 
                       __ZN7HGPowerC1Ev, __ZN7HGPowerC2Ev, __ZN7HGPowerD0Ev, __ZN7HGPowerD1Ev, 
                       __ZN7HGPowerD2Ev, __ZN7HGRectf4InitEffff, __ZN7HGRectf5ScaleEff, 
                       __ZN7HGRectf9TranslateEff, __ZN7HGTiler11_RenderTileEP6HGTile, 
                       __ZN7HGTiler12SetParameterEiffff, __ZN7HGTiler12_BindTextureEP9HGHandleri, 
                       __ZN7HGTiler15SetInitialValueEiffff, __ZN7HGTiler5_BindEP9HGHandler, 
                       __ZN7HGTiler5allocEbb, __ZN7HGTiler5resetEi, __ZN7HGTiler5setupEP12HGGLRendererP10HGTileNodeS3_, 
                       __ZN7HGTiler5shapeEjjj, __ZN7HGTiler6GetDODEP10HGRendereri6HGRect, 
                       __ZN7HGTiler6GetROIEP10HGRendereri6HGRect, __ZN7HGTiler6ResizeEiiiiPK5HGVec, 
                       __ZN7HGTiler7SetDataEPK5HGVec, __ZN7HGTiler7_GetDODEP10HGRendereri6HGRect, 
                       __ZN7HGTiler7_GetROIEP10HGRendereri6HGRect, __ZN7HGTiler7_ResizeEiiii, 
                       __ZN7HGTiler7disposeEP10HGTileNode, __ZN7HGTiler7rebuildEP12HGGLRenderer, 
                       __ZN7HGTiler8SetInputEiP6HGNode, __ZN7HGTiler8generateEiNS_4SizeE, 
                       __ZN7HGTiler9GetOutputEP10HGRenderer, __ZN7HGTiler9rebuild_rEP12HGGLRendererP10HGTileNode, 
                       __ZN7HGTilerC1EP6HGNodejbb, __ZN7HGTilerC1Ejii, __ZN7HGTilerC2EP6HGNodejbb, 
                       __ZN7HGTilerC2Ejii, __ZN7HGTilerD0Ev, __ZN7HGTilerD1Ev, __ZN7HGTilerD2Ev, 
                       __ZN7HGXForm10GetProgramEP10HGRenderer, __ZN7HGXForm10RenderTileEP6HGTile, 
                       __ZN7HGXForm10SetLodBiasEf, __ZN7HGXForm11BindTextureEP9HGHandleri, 
                       __ZN7HGXForm12GetParameterEiPf, __ZN7HGXForm12SetLodFilterE15HGLodFilterMode, 
                       __ZN7HGXForm12SetParameterEiffff, __ZN7HGXForm12SetPreFilterEfNS_6KernelE, 
                       __ZN7HGXForm12SetTransformEP11HGTransform, __ZN7HGXForm13IsAnisotropicEv, 
                       __ZN7HGXForm13SetAnisotropyEf, __ZN7HGXForm13SetFilterSizeEff, 
                       __ZN7HGXForm14IsPrefilteringEv, __ZN7HGXForm15SetClipDistanceEf, 
                       __ZN7HGXForm15TestPerspectiveEP10HGRenderer6HGRectS2_, __ZN7HGXForm16GetParameterNameEi, 
                       __ZN7HGXForm17GetParameterCountEv, __ZN7HGXForm20SetConvolutionFilterEP13HGConvolutionff, 
                       __ZN7HGXForm22ComputePreFilterAmountEPfS0_, __ZN7HGXForm25AttemptEarlyConcatenationEP6HGNode, 
                       __ZN7HGXForm26SupportsEarlyConcatenationEv, __ZN7HGXForm31SupportsInplaceHardwareBlendingEf, 
                       __ZN7HGXForm4BindEP9HGHandler, __ZN7HGXForm6GetDODEP10HGRendereri6HGRect, 
                       __ZN7HGXForm6GetROIEP10HGRendereri6HGRect, __ZN7HGXForm9GetOutputEP10HGRenderer, 
                       __ZN7HGXForm9QueueNodeEP6HGNode, __ZN7HGXForm9SetMaxLodEf, 
                       __ZN7HGXForm9SetMinLodEf, __ZN7HGXFormC1Ev, __ZN7HGXFormC2Ev, 
                       __ZN7HGXFormD0Ev, __ZN7HGXFormD1Ev, __ZN7HGXFormD2Ev, __ZN8HGBitmap10GetStorageEv, 
                       __ZN8HGBitmap10SetStorageEP8HGObject, __ZN8HGBitmap13SetEdgePolicyERK12HGEdgePolicy, 
                       __ZN8HGBitmap6uninitEv, __ZN8HGBitmap8ReadTileEPv6HGRecti, 
                       __ZN8HGBitmap9WriteTileEPKv6HGRect, __ZN8HGBitmapC1E6HGRect8HGFormat, 
                       __ZN8HGBitmapC1E6HGRect8HGFormatPv, __ZN8HGBitmapC1E6HGRect8HGFormatPvm, 
                       __ZN8HGBitmapC1E6HGRect8HGFormatPvmm, __ZN8HGBitmapC1E6HGRectPS_, 
                       __ZN8HGBitmapC2E6HGRect8HGFormat, __ZN8HGBitmapC2E6HGRect8HGFormatPv, 
                       __ZN8HGBitmapC2E6HGRect8HGFormatPvm, __ZN8HGBitmapC2E6HGRect8HGFormatPvmm, 
                       __ZN8HGBitmapC2E6HGRectPS_, __ZN8HGBitmapD0Ev, __ZN8HGBitmapD1Ev, 
                       __ZN8HGBitmapD2Ev, __ZN8HGBufferC1E6HGRect8HGFormat, __ZN8HGBufferC1E6HGRect8HGFormatPv, 
                       __ZN8HGBufferC1E6HGRectP8HGBitmap, __ZN8HGBufferC2E6HGRect8HGFormat, 
                       __ZN8HGBufferC2E6HGRect8HGFormatPv, __ZN8HGBufferC2E6HGRectP8HGBitmap, 
                       __ZN8HGBufferD0Ev, __ZN8HGBufferD1Ev, __ZN8HGBufferD2Ev, __ZN8HGCLNode10RenderPageEP6HGPage, 
                       __ZN8HGCLNode12RenderCLPageEP6HGPage, __ZN8HGCLNodeC1Eb, __ZN8HGCLNodeC1Ev, 
                       __ZN8HGCLNodeC2Eb, __ZN8HGCLNodeC2Ev, __ZN8HGCLNodeD0Ev, __ZN8HGCLNodeD1Ev, 
                       __ZN8HGCLNodeD2Ev, __ZN8HGDither12SetClampModeEb, __ZN8HGDither12SetParameterEiffff, 
                       __ZN8HGDither9GetOutputEP10HGRenderer, __ZN8HGDitherC1Ev, 
                       __ZN8HGDitherC2Ev, __ZN8HGDitherD0Ev, __ZN8HGDitherD1Ev, __ZN8HGDitherD2Ev, 
                       __ZN8HGGLNode10hglColor4fEffff, __ZN8HGGLNode10hglRotatedEdddd, 
                       __ZN8HGGLNode10hglRotatefEffff, __ZN8HGGLNode11hglColor4fvEPf, 
                       __ZN8HGGLNode11hglGetErrorEv, __ZN8HGGLNode11hglVertex2fEff, 
                       __ZN8HGGLNode11hglVertex3fEfff, __ZN8HGGLNode11hglVertex4fEffff, 
                       __ZN8HGGLNode12SetParameterEiffff, __ZN8HGGLNode12hglLineWidthEf, 
                       __ZN8HGGLNode13hglColorArrayERK14HGArrayDataRef, __ZN8HGGLNode13hglDrawArraysEjii, 
                       __ZN8HGGLNode13hglMatrixModeEj, __ZN8HGGLNode13hglTexCoord2fEff, 
                       __ZN8HGGLNode13hglTranslatedEddd, __ZN8HGGLNode13hglTranslatefEfff, 
                       __ZN8HGGLNode14hglColorBufferEP8HGBitmap, __ZN8HGGLNode14hglIndexBufferEP8HGBitmap, 
                       __ZN8HGGLNode14hglLoadMatrixdEPKd, __ZN8HGGLNode14hglLoadMatrixfEPKf, 
                       __ZN8HGGLNode14hglMultMatrixdEPKd, __ZN8HGGLNode14hglMultMatrixfEPKf, 
                       __ZN8HGGLNode14hglVertexArrayERK14HGArrayDataRef, __ZN8HGGLNode15hglClearToBlackEv, 
                       __ZN8HGGLNode15hglDrawElementsEjRK14HGArrayDataRef, __ZN8HGGLNode15hglLoadIdentityEv, 
                       __ZN8HGGLNode15hglVertexBufferEP8HGBitmap, __ZN8HGGLNode16hglActiveTextureEj, 
                       __ZN8HGGLNode16hglLoadTransformEPK11HGTransform, __ZN8HGGLNode16hglTexCoordArrayERK14HGArrayDataRef, 
                       __ZN8HGGLNode16hglTexParameteriEjjf, __ZN8HGGLNode17addFragmentShaderEP8HGNode3D, 
                       __ZN8HGGLNode17hglEnableBlendingE12HGLBlendModeb, __ZN8HGGLNode17hglTexCoordBufferEP8HGBitmap, 
                       __ZN8HGGLNode17hglTexParameterfvEjjPf, __ZN8HGGLNode18hglEnableDepthTestEv, 
                       __ZN8HGGLNode18hglEnableWireFrameEv, __ZN8HGGLNode18hglMultiTexCoord1fEjf, 
                       __ZN8HGGLNode18hglMultiTexCoord2fEjff, __ZN8HGGLNode18hglMultiTexCoord3fEjfff, 
                       __ZN8HGGLNode18hglMultiTexCoord4fEjffff, __ZN8HGGLNode19SetAntiAliasQualityENS_16AntiAliasQualityE, 
                       __ZN8HGGLNode19addLazyRenderClientEP18HGRasterizerClient, 
                       __ZN8HGGLNode20hglEnableClientStateEj, __ZN8HGGLNode20hglEnableTexCoordGenEj, 
                       __ZN8HGGLNode21enableInplaceBlendingEv, __ZN8HGGLNode21hglDisableClientStateEj, 
                       __ZN8HGGLNode21hglDisableTexCoordGenEj, __ZN8HGGLNode22useNaiveROI_DEPRECATEDEv, 
                       __ZN8HGGLNode23hglLoadTransposeMatrixdEPKd, __ZN8HGGLNode23hglLoadTransposeMatrixfEPKf, 
                       __ZN8HGGLNode23hglMultTransposeMatrixdEPKd, __ZN8HGGLNode23hglMultTransposeMatrixfEPKf, 
                       __ZN8HGGLNode24enableXFormConcatenationEP8HGNode3D, __ZN8HGGLNode24hglEnableDepthGenerationEv, 
                       __ZN8HGGLNode28SetActiveShaderNodeParameterEiffff, __ZN8HGGLNode30skipCheckFullBuffer_DEPRECATEDEv, 
                       __ZN8HGGLNode30skipDODCalculations_DEPRECATEDEv, __ZN8HGGLNode6hglEndEv, 
                       __ZN8HGGLNode8hglBeginEj, __ZN8HGGLNode9GetOutputEP10HGRenderer, 
                       __ZN8HGGLNode9hglScaledEddd, __ZN8HGGLNode9hglScalefEfff, 
                       __ZN8HGGLNodeC1Em, __ZN8HGGLNodeC2Em, __ZN8HGGLNodeD0Ev, __ZN8HGGLNodeD1Ev, 
                       __ZN8HGGLNodeD2Ev, __ZN8HGLevels12SetParameterEiffff, __ZN8HGLevels9GetOutputEP10HGRenderer, 
                       __ZN8HGLevels9getAmountEiPfS0_S0_S0_S0_S0_S0_S0_S0_S0_S0_S0_, 
                       __ZN8HGLevelsC1Ev, __ZN8HGLevelsC2Ev, __ZN8HGLevelsD0Ev, __ZN8HGLevelsD1Ev, 
                       __ZN8HGLevelsD2Ev, __ZN8HGLimits13setnormalizedEb, __ZN8HGLogger17getFormatPreambleEPKc, 
                       __ZN8HGLogger18getNewlinePreambleEv, __ZN8HGLogger3logEPKciS1_z, 
                       __ZN8HGLogger5errorEPKcz, __ZN8HGLogger5printEPKcz, __ZN8HGLogger6indentEi, 
                       __ZN8HGLogger7_indentE, __ZN8HGLogger7warningEPKcz, __ZN8HGLogger8_enabledE, 
                       __ZN8HGLogger8getLevelEPKc, __ZN8HGLogger8setLevelEPKci, __ZN8HGMemory13StorageObjectC1Em, 
                       __ZN8HGMemory13StorageObjectC2Em, __ZN8HGMemory13StorageObjectD0Ev, 
                       __ZN8HGMemory13StorageObjectD1Ev, __ZN8HGMemory13StorageObjectD2Ev, 
                       __ZN8HGMemory5clearEv, __ZN8HGMemory7releaseEPv, __ZN8HGMemory8allocateEmPm, 
                       __ZN8HGMemory9renderEndEv, __ZN8HGMinMax10_queueNodeE5HGRefI6HGNodeE, 
                       __ZN8HGMinMax12SetParameterEiffff, __ZN8HGMinMax15_buildGraph_CPUEP10HGRenderer, 
                       __ZN8HGMinMax15_buildGraph_GPUEP10HGRenderer, __ZN8HGMinMax9GetOutputEP10HGRenderer, 
                       __ZN8HGMinMaxC1Ev, __ZN8HGMinMaxC2Ev, __ZN8HGMinMaxD0Ev, __ZN8HGMinMaxD1Ev, 
                       __ZN8HGMinMaxD2Ev, __ZN8HGMipmap12GetTransformEib, __ZN8HGMipmap12SetLodFilterE15HGLodFilterMode, 
                       __ZN8HGMipmap12SetParameterEiffff, __ZN8HGMipmap12SetTransformEP11HGTransformS1_f, 
                       __ZN8HGMipmap16GetLevelOfDetailEP10HGRendererj, __ZN8HGMipmap7GetRectEi6HGRectbib, 
                       __ZN8HGMipmap8SetInputEiP6HGNode, __ZN8HGMipmap9GetOutputEP10HGRenderer, 
                       __ZN8HGMipmapC1Ev, __ZN8HGMipmapC2Ev, __ZN8HGMipmapD0Ev, __ZN8HGMipmapD1Ev, 
                       __ZN8HGMipmapD2Ev, __ZN8HGNode3D10RenderTileEP6HGTile, __ZN8HGNode3D14RenderFragmentEP10HGFragmentP6HGTile, 
                       __ZN8HGNode3D20RenderFragment_DEBUGEP10HGFragmentP6HGTileP16HGSampleRectStat, 
                       __ZN8HGNode3DC1Ev, __ZN8HGNode3DC2Ev, __ZN8HGNode3DD0Ev, __ZN8HGNode3DD1Ev, 
                       __ZN8HGNode3DD2Ev, __ZN8HGObject14DumpAllObjectsEv, __ZN8HGObject14DumpTypeCountsEv, 
                       __ZN8HGObject16DumpVerboseLevelEj, __ZN8HGObject6RetainEv, 
                       __ZN8HGObject7ReleaseEv, __ZN8HGObjectC1ERKS_, __ZN8HGObjectC1Ev, 
                       __ZN8HGObjectC2ERKS_, __ZN8HGObjectC2Ev, __ZN8HGObjectD0Ev, 
                       __ZN8HGObjectD1Ev, __ZN8HGObjectD2Ev, __ZN8HGObjectdlEPv, 
                       __ZN8HGObjectnwEm, __ZN8HGRetime12SetParameterEiffff, __ZN8HGRetime9GetOutputEP10HGRenderer, 
                       __ZN8HGRetimeC1Ev, __ZN8HGRetimeC2Ev, __ZN8HGRetimeD0Ev, __ZN8HGRetimeD1Ev, 
                       __ZN8HGRetimeD2Ev, __ZN8HGString10sampleRectEjj, __ZN8HGString10setattribsEv, 
                       __ZN8HGString11extralengthEv, __ZN8HGString11isdistilledEPKc, 
                       __ZN8HGString11ismetalfp16Ev, __ZN8HGString12setmetalfp16Eb, 
                       __ZN8HGString13appendHistoryER8HGLimits, __ZN8HGString13detachHistoryEv, 
                       __ZN8HGString3cmpERKNS_4HashES2_, __ZN8HGString3popER15HGShaderBindingRKS_jPK8HGLimits, 
                       __ZN8HGString3setEPKcmbj, __ZN8HGString4forkER15HGShaderBindingjRKS_PK8HGLimits, 
                       __ZN8HGString4gateEjPK8HGLimits, __ZN8HGString4is3dEv, __ZN8HGString4joinER15HGShaderBindingRKS_jPK8HGLimits, 
                       __ZN8HGString4nullEv, __ZN8HGString4pushEPK8HGLimits, __ZN8HGString4pushER15HGShaderBindingRKS_bbPK8HGLimits, 
                       __ZN8HGString4setcEjjj, __ZN8HGString4setpEi, __ZN8HGString4undoEv, 
                       __ZN8HGString4zeroEjj, __ZN8HGString5resetEv, __ZN8HGString5set3dEb, 
                       __ZN8HGString5touchEv, __ZN8HGString6Digest10sampleRectEjj, 
                       __ZN8HGString6Digest3popER15HGShaderBindingRKS0_S4_jPK8HGLimits, 
                       __ZN8HGString6Digest4forkER15HGShaderBindingRKS0_jS4_PK8HGLimits, 
                       __ZN8HGString6Digest4gateERKS0_jPK8HGLimits, __ZN8HGString6Digest4joinER15HGShaderBindingRKS0_S4_jPK8HGLimits, 
                       __ZN8HGString6Digest4nullEv, __ZN8HGString6Digest4pushER15HGShaderBindingRKS0_S4_bPK8HGLimits, 
                       __ZN8HGString6Digest4pushERKS0_PK8HGLimits, __ZN8HGString6Digest4tileERK14HGShaderTilingRKS0_jjb, 
                       __ZN8HGString6Digest4zeroEjj, __ZN8HGString6Digest5resetEv, 
                       __ZN8HGString6Digest6appendER15HGShaderBindingRKS0_S4_PK8HGLimits, 
                       __ZN8HGString6Digest6mat4x4Ej, __ZN8HGString6Digest6serialER15HGShaderBindingRKS0_jS4_jPK8HGLimits, 
                       __ZN8HGString6Digest7uniformEjj, __ZN8HGString6Digest8parallelER15HGShaderBindingRKS0_S4_PK8HGLimits, 
                       __ZN8HGString6Digest8sample2dEjjb, __ZN8HGString6Digest9append4x4ER15HGShaderBindingRKS0_jPK8HGLimits, 
                       __ZN8HGString6DigestaSERKS0_, __ZN8HGString6appendER15HGShaderBindingRKS_PK8HGLimits, 
                       __ZN8HGString6mat4x4Ej, __ZN8HGString6serialER15HGShaderBindingjRKS_jPK8HGLimits, 
                       __ZN8HGString6targetEPKcb, __ZN8HGString7uniformEjj, __ZN8HGString8_distillEPKcj, 
                       __ZN8HGString8parallelER15HGShaderBindingRKS_PK8HGLimits, 
                       __ZN8HGString8sample2dEjjb, __ZN8HGString9append4x4ER15HGShaderBindingjPK8HGLimits, 
                       __ZN8HGString9transformEjj, __ZN8HGStringC1EPKcbj, __ZN8HGStringC1ERKS_, 
                       __ZN8HGStringC1Ev, __ZN8HGStringC2EPKcbj, __ZN8HGStringC2ERKS_, 
                       __ZN8HGStringC2Ev, __ZN8HGStringD1Ev, __ZN8HGStringD2Ev, __ZN8HGStringaSERKS_, 
                       __ZN8HGTexEnv10GetProgramEP10HGRenderer, __ZN8HGTexEnv10RenderTileEP6HGTile, 
                       __ZN8HGTexEnv10renderTileE, __ZN8HGTexEnv11BindTextureEP9HGHandleri, 
                       __ZN8HGTexEnv12SetParameterEiffff, __ZN8HGTexEnv13GetFilterModeEi12HGFilterMode, 
                       __ZN8HGTexEnv16GetFragmentColorEPf, __ZN8HGTexEnv3addEP6HGTilePKNS_5StateE, 
                       __ZN8HGTexEnv4BindEP9HGHandler, __ZN8HGTexEnv5blendEP6HGTilePKNS_5StateE, 
                       __ZN8HGTexEnv5colorEP6HGTilePKNS_5StateE, __ZN8HGTexEnv5decalEP6HGTilePKNS_5StateE, 
                       __ZN8HGTexEnv6GetDODEP10HGRendereri6HGRect, __ZN8HGTexEnv6GetROIEP10HGRendereri6HGRect, 
                       __ZN8HGTexEnv6UnBindEP9HGHandler, __ZN8HGTexEnv8modulateEP6HGTilePKNS_5StateE, 
                       __ZN8HGTexEnv9GetOutputEP10HGRenderer, __ZN8HGTexEnvC1Ev, 
                       __ZN8HGTexEnvC2Ev, __ZN8HGTexEnvD0Ev, __ZN8HGTexEnvD1Ev, __ZN8HGTexEnvD2Ev, 
                       __ZN8HGTiming27GetMachTimeConversionFactorEv, __ZN9HGACEScct1aE, 
                       __ZN9HGACEScct1bE, __ZN9HGACEScct1tE, __ZN9HGACEScct6Decode4tEncE, 
                       __ZN9HGACEScct6Decode9GetOutputEP10HGRenderer, __ZN9HGACEScct6DecodeC1Ev, 
                       __ZN9HGACEScct6DecodeC2Ev, __ZN9HGACEScct6DecodeD0Ev, __ZN9HGACEScct6DecodeD1Ev, 
                       __ZN9HGACEScct6DecodeD2Ev, __ZN9HGACEScct6Encode2raE, __ZN9HGACEScct6Encode2ttE, 
                       __ZN9HGACEScct6Encode9GetOutputEP10HGRenderer, __ZN9HGACEScct6EncodeC1Ev, 
                       __ZN9HGACEScct6EncodeC2Ev, __ZN9HGACEScct6EncodeD0Ev, __ZN9HGACEScct6EncodeD1Ev, 
                       __ZN9HGACEScct6EncodeD2Ev, __ZN9HGCLImageC1EP10HGCLResManP7_cl_mem6HGRect8HGFormat, 
                       __ZN9HGCLImageC2EP10HGCLResManP7_cl_mem6HGRect8HGFormat, __ZN9HGCLImageD0Ev, 
                       __ZN9HGCLImageD1Ev, __ZN9HGCLImageD2Ev, __ZN9HGDJIDLog6Encode14sourceToDGamutE, 
                       __ZN9HGDJIDLog6Encode9GetOutputEP10HGRenderer, __ZN9HGDJIDLog6EncodeC1ENS_16SceneColorimetryE, 
                       __ZN9HGDJIDLog6EncodeC2ENS_16SceneColorimetryE, __ZN9HGDJIDLog6EncodeD0Ev, 
                       __ZN9HGDJIDLog6EncodeD1Ev, __ZN9HGDJIDLog6EncodeD2Ev, __ZN9HGDenoise12SetParameterEiffff, 
                       __ZN9HGDenoise9GetOutputEP10HGRenderer, __ZN9HGDenoiseC1Ev, 
                       __ZN9HGDenoiseC2Ev, __ZN9HGDenoiseD0Ev, __ZN9HGDenoiseD1Ev, 
                       __ZN9HGDenoiseD2Ev, __ZN9HGGLBlend10AVXEnabledEv, __ZN9HGGLBlend10GetProgramEP10HGRenderer, 
                       __ZN9HGGLBlend10RenderPageEP6HGPage, __ZN9HGGLBlend10RenderTileEP6HGTileiPKf, 
                       __ZN9HGGLBlend11BindTextureEP9HGHandleri, __ZN9HGGLBlend12DeleteStatesEv, 
                       __ZN9HGGLBlend12SetParameterEiffff, __ZN9HGGLBlend14AllocateStatesEP10HGRenderer, 
                       __ZN9HGGLBlend14RenderSubPagesEP6HGPage, __ZN9HGGLBlend15RenderPageMetalEP6HGPage, 
                       __ZN9HGGLBlend17GetGammaBlendModeEif, __ZN9HGGLBlend17GetOpacityProgramEP10HGRenderer, 
                       __ZN9HGGLBlend17RenderSingleInputEP6HGPage, __ZN9HGGLBlend18SetLightWrapParamsEff17HGMotionBlendModef, 
                       __ZN9HGGLBlend19ComputeSubPageRectsEP6HGPageRNSt3__16vectorI6HGRectNS2_9allocatorIS4_EEEE, 
                       __ZN9HGGLBlend19DoForegroundReplaceEv, __ZN9HGGLBlend19UpdateHWBlendStatusEP10HGRenderer, 
                       __ZN9HGGLBlend21UpdateLocalParametersEi, __ZN9HGGLBlend22GetMetalOpacityProgramEP10HGRenderer, 
                       __ZN9HGGLBlend24IsHardwareBlendSupportedEP10HGRenderer8HGFormat, 
                       __ZN9HGGLBlend4BindEP9HGHandler, __ZN9HGGLBlend6GetDODEP10HGRendereri6HGRect, 
                       __ZN9HGGLBlend6GetROIEP10HGRendereri6HGRect, __ZN9HGGLBlend8SetStateEP10HGRendereri, 
                       __ZN9HGGLBlend9GetOutputEP10HGRenderer, __ZN9HGGLBlendC1Ev, 
                       __ZN9HGGLBlendC2Ev, __ZN9HGGLBlendD0Ev, __ZN9HGGLBlendD1Ev, 
                       __ZN9HGGLBlendD2Ev, __ZN9HGGLState13resetUniformsEv, __ZN9HGGLState17getCurrentContextEv, 
                       __ZN9HGGLState17setCurrentContextE14HGGLContextPtr, __ZN9HGGLState18getUniformLocationEPvNS_17ShaderUniformNameEj, 
                       __ZN9HGGLState19stopContextTrackingEv, __ZN9HGGLState20_getUniformLocationsEPv, 
                       __ZN9HGGLState20startContextTrackingEv, __ZN9HGGLState22SetCurrentContextGuardC1EPS_14HGGLContextPtr, 
                       __ZN9HGGLState22SetCurrentContextGuardC2EPS_14HGGLContextPtr, 
                       __ZN9HGGLState22SetCurrentContextGuardD1Ev, __ZN9HGGLState22SetCurrentContextGuardD2Ev, 
                       __ZN9HGGLState24_getProgramLocalLocationEPvj, __ZN9HGGLState25_getTextureMatrixLocationEPvj, 
                       __ZN9HGGLState28_getProjectionMatrixLocationEPvj, __ZN9HGGLStateC1Ev, 
                       __ZN9HGGLStateC2Ev, __ZN9HGGLStateD1Ev, __ZN9HGGLStateD2Ev, 
                       __ZN9HGGammaMC10GetProgramEP10HGRenderer, __ZN9HGGammaMC10RenderTileEP6HGTile, 
                       __ZN9HGGammaMC11BindTextureEP9HGHandleri, __ZN9HGGammaMC12SetParameterEiffff, 
                       __ZN9HGGammaMC4BindEP9HGHandler, __ZN9HGGammaMC8SetLabelEPKf, 
                       __ZN9HGGammaMC9GetOutputEP10HGRenderer, __ZN9HGGammaMCC1Ev, 
                       __ZN9HGGammaMCC2Ev, __ZN9HGGammaMCD0Ev, __ZN9HGGammaMCD1Ev, 
                       __ZN9HGGammaMCD2Ev, __ZN9HGHandler10MultMatrixEPKdi, __ZN9HGHandler10MultMatrixEPKfi, 
                       __ZN9HGHandler11InitTextureEi6HGRectS0_S0_ii, __ZN9HGHandler13EnvParametersEiPKfi, 
                       __ZN9HGHandler14LocalTexOffsetEiii, __ZN9HGHandler19LoadModelViewMatrixERKN4simd8float4x4E, 
                       __ZN9HGHandler20LoadProjectionMatrixERKN4simd8float4x4E, __ZN9HGHandler27LoadIdentityModelViewMatrixEv, 
                       __ZN9HGHandler28LoadIdentityProjectionMatrixEv, __ZN9HGHandler3PopERK15HGShaderBinding, 
                       __ZN9HGHandler4InitE6HGRectS0_ii, __ZN9HGHandler4PushERK15HGShaderBinding, 
                       __ZN9HGHandler5ResetEP10HGRenderer, __ZN9HGHandler6CommitEv, 
                       __ZN9HGHandler8TexCoordEiiiPKd, __ZN9HGHandler8TexCoordEiiiPKdi, 
                       __ZN9HGHandler9InvariantEiiiii, __ZN9HGHandler9TexOffsetEiii, 
                       __ZN9HGHandlerC2Ev, __ZN9HGHandlerD0Ev, __ZN9HGHandlerD1Ev, 
                       __ZN9HGHandlerD2Ev, __ZN9HGOpenEXR12SetParameterEiffff, __ZN9HGOpenEXR19ProcessOpenEXRInputEddddd, 
                       __ZN9HGOpenEXR9GetOutputEP10HGRenderer, __ZN9HGOpenEXRC1Ev, 
                       __ZN9HGOpenEXRC2Ev, __ZN9HGOpenEXRD0Ev, __ZN9HGOpenEXRD1Ev, 
                       __ZN9HGOpenEXRD2Ev, __ZN9HGSampler8ReadTileEP8HGBitmapP11HGTransformP5HGVec6HGRecti, 
                       __ZN9HGSamplerC1EP15HGExecutionUnit, __ZN9HGSamplerC2EP15HGExecutionUnit, 
                       __ZN9HGSamplerD0Ev, __ZN9HGSamplerD1Ev, __ZN9HGSamplerD2Ev, 
                       __ZN9HGSharpen12SetIntensityEf, __ZN9HGSharpen12SetParameterEiffff, 
                       __ZN9HGSharpen9GetOutputEP10HGRenderer, __ZN9HGSharpen9SetRadiusEf, 
                       __ZN9HGSharpenC1Ev, __ZN9HGSharpenC2Ev, __ZN9HGSharpenD0Ev, 
                       __ZN9HGSharpenD1Ev, __ZN9HGSharpenD2Ev, __ZN9HGStencil10GetProgramEP10HGRenderer, 
                       __ZN9HGStencil10RenderPageEP6HGPage, __ZN9HGStencil10RenderTileEP6HGTile, 
                       __ZN9HGStencil12SetParameterEiffff, __ZN9HGStencil15RenderPageMetalEP6HGPage, 
                       __ZN9HGStencil15RenderPagePlainEP6HGPage, __ZN9HGStencil20RenderPagePlainMetalEP6HGPage, 
                       __ZN9HGStencil21UpdateLocalParametersEi, __ZN9HGStencil4BindEP9HGHandler, 
                       __ZN9HGStencil6GetDODEP10HGRendereri6HGRect, __ZN9HGStencil6GetROIEP10HGRendereri6HGRect, 
                       __ZN9HGStencil8SetStateEP10HGRendereri, __ZN9HGStencilC1Ev, 
                       __ZN9HGStencilC2Ev, __ZN9HGStencilD0Ev, __ZN9HGStencilD1Ev, 
                       __ZN9HGStencilD2Ev, __ZN9HGTextureC1E6HGRect8HGFormat, __ZN9HGTextureC1E6HGRect8HGFormatPv, 
                       __ZN9HGTextureC1E6HGRectP8HGBitmap, __ZN9HGTextureC2E6HGRect8HGFormat, 
                       __ZN9HGTextureC2E6HGRect8HGFormatPv, __ZN9HGTextureC2E6HGRectP8HGBitmap, 
                       __ZN9HGTextureD0Ev, __ZN9HGTextureD1Ev, __ZN9HGTextureD2Ev, 
                       __ZN9HGUserJob10GetQueueIDEv, __ZN9HGUserJob10SetQueueIDEj, 
                       __ZN9HGUserJob11SetPriorityENS_8PriorityE, __ZN9HGUserJob13SetNotifyFuncEPFvPS_E, 
                       __ZN9HGUserJob14CallNotifyFuncEv, __ZN9HGUserJob16GetExecutionTimeEv, 
                       __ZN9HGUserJob6GetTagEv, __ZN9HGUserJob6SetTagEy, __ZN9HGUserJob7GetDataEv, 
                       __ZN9HGUserJob7GetNameEv, __ZN9HGUserJob7SetDataEPv, __ZN9HGUserJob7SetNameEPKc, 
                       __ZN9HGUserJob8GetStateEv, __ZN9HGUserJob8SetStateENS_5StateE, 
                       __ZN9HGUserJobC1Ev, __ZN9HGUserJobC2Ev, __ZN9HGUserJobD0Ev, 
                       __ZN9HGUserJobD1Ev, __ZN9HGUserJobD2Ev, __ZN9HGVersion13GetLongStringEv, 
                       __ZN9HGVersion9GetStringEv, __ZNK10HGCLResMan13ImageMemMatchclERKNS_10ImageEntryE, 
                       __ZNK10HGCLResMan14BufferMemMatchclERKNS_11BufferEntryE, __ZNK10HGCLResMan15ImageEntryMatchclERKNS_10ImageEntryE, 
                       __ZNK10HGCLResMan16BufferEntryMatchclERKNS_11BufferEntryE, 
                       __ZNK10HGDotGraph2onEv, __ZNK10HGExposure7label_BEv, __ZNK10HGRenderer16debugDescriptionEv, 
                       __ZNK10HGRenderer19GetExternalResourceEv, __ZNK10HGRenderer20GetOwningRenderQueueEv, 
                       __ZNK10HGRenderer21RenderFullROI_DefaultEv, __ZNK10HGRenderer5IsCPUEv, 
                       __ZNK10HGRenderer5labelEv, __ZNK11HGGLContext11getPriorityEv, 
                       __ZNK11HGGLContext13getRegistryIDEv, __ZNK11HGGLContext13getShareGroupEv, 
                       __ZNK11HGGLContext13isAcceleratedEv, __ZNK11HGGLContext16getVirtualScreenEv, 
                       __ZNK11HGGLContext3ptrEv, __ZNK11HGGLContext4isESEv, __ZNK11HGGLContext5isES2Ev, 
                       __ZNK11HGGLContext5isES3Ev, __ZNK11HGGLContext7contextEv, 
                       __ZNK11HGGLTexture14GetTextureRectEv, __ZNK11HGToneCurve7label_BEv, 
                       __ZNK11HGTransform10GetMatrixdEPd, __ZNK11HGTransform10GetMatrixfEPf, 
                       __ZNK11HGTransform10IsIdentityEv, __ZNK11HGTransform12GetMatrixPtrEv, 
                       __ZNK11HGTransform14HasPerspectiveEv, __ZNK11HGTransform17GetMatrixfloat4x4EPN4simd8float4x4E, 
                       __ZNK11HGTransform18GetMatrixdouble4x4EPN4simd9double4x4E, 
                       __ZNK11HGTransform31IsXYFlipAndOrIntegerTranslationEv, __ZNK11HGTransform7IsEqualEPS_, 
                       __ZNK11HGTransform7ProjectEPfii, __ZNK11HGTransform9TransformEPfPKfi, 
                       __ZNK12HGColorGamma25GetDefaultToneQualityModeEv, __ZNK12HGColorGamma7label_BEv, 
                       __ZNK12HGComicEdges18IntermediateFormatE8HGFormat, __ZNK12HGEdgePolicy9isDefaultEv, 
                       __ZNK12HGEdgePolicyeqERKS_, __ZNK12HGGLRenderer10GetContextE8HGFormat, 
                       __ZNK12HGGLRenderer10GetGLStateEv, __ZNK12HGGLRenderer14AdjustDestRectE6HGRect, 
                       __ZNK12HGGLRenderer14GetMaxTileAreaEv, __ZNK12HGGLRenderer15GetMetalContextEv, 
                       __ZNK12HGGLRenderer16debugDescriptionEv, __ZNK12HGGLRenderer17GetCurrentContextEv, 
                       __ZNK12HGGLRenderer18CanAllocateTextureEjj8HGFormatbb, __ZNK12HGGLRenderer18GetMaxMultiSamplesEv, 
                       __ZNK12HGGLRenderer18UsingSharedStorageEv, __ZNK12HGGLRenderer19GetProjectionMatrixEv, 
                       __ZNK12HGGLRenderer20CanAllocateGLTextureEjj8HGFormat, __ZNK12HGGLRenderer21RenderFullROI_DefaultEv, 
                       __ZNK12HGGLRenderer21ShouldAllocateTextureEjj8HGFormatbb, 
                       __ZNK12HGGLRenderer23CanAllocateMetalTextureEjj8HGFormat, 
                       __ZNK12HGGLRenderer23ShouldAllocateGLTextureEjj8HGFormat, 
                       __ZNK12HGGLRenderer27RecommendedMaxTextureSizeMBEv, __ZNK12HGGLRenderer28GetActiveCommandBuffersCountEv, 
                       __ZNK12HGGLRenderer29GetLastRenderEventSignalValueEv, __ZNK12HGGLRenderer30RecommendedMaxTextureSizeBytesEv, 
                       __ZNK12HGGLRenderer34GetActiveCommandBuffersMemoryUsageEv, 
                       __ZNK12HGGLRenderer5IsCPUEv, __ZNK12HGGLRenderer5labelEv, 
                       __ZNK13HGColorMatrix4infoEiRKNSt3__112basic_stringIcNS0_11char_traitsIcEENS0_9allocatorIcEEEES8_, 
                       __ZNK13HGColorMatrix6GetRowEi, __ZNK13HGColorMatrix9GetColumnEi, 
                       __ZNK13HGComicStroke18IntermediateFormatE8HGFormat, __ZNK13HGConvolution7GetSizeEi, 
                       __ZNK13HGConvolution9GetOriginEi, __ZNK13HGConvolution9SeparableEv, 
                       __ZNK13HGMetalBuffer10GetContentEv, __ZNK14HGBitmapLoader14IsBitmapPaddedEv, 
                       __ZNK14HGBitmapLoader15CanBypassTilingEP10HGRenderer, __ZNK14HGBitmapLoader15GetBitmapFormatEv, 
                       __ZNK14HGBlendingInfo10makeTuppleEv, __ZNK14HGBlendingInfoeqERKS_, 
                       __ZNK14HGBlendingInfoltERKS_, __ZNK14HGBufferDumper2onEv, 
                       __ZNK14HGColorConform25GetDefaultToneQualityModeEv, __ZNK14HGGLContextPtr3ptrEv, 
                       __ZNK14HGMetalContext10bufferPoolEv, __ZNK14HGMetalContext10deviceInfoEv, 
                       __ZNK14HGMetalContext11texturePoolEv, __ZNK14HGMetalContext14cvTextureCacheEv, 
                       __ZNK14HGMetalContext16bufferInfiniPoolEv, __ZNK14HGMetalContext17textureInfiniPoolEv, 
                       __ZNK14HGMetalContext19forceTrivialCompileEv, __ZNK14HGMetalHandler25ActiveCommandBuffersCountEv, 
                       __ZNK14HGMetalHandler31ActiveCommandBuffersMemoryUsageEv, 
                       __ZNK14HGMetalTexture14GetTextureRectEv, __ZNK14HGMetalTexture17hasPrivateStorageEv, 
                       __ZNK14HGShaderTiling12isparametricEv, __ZNK14HGShaderTiling13isaccumulatorEj, 
                       __ZNK14HGShaderTiling4initEjj, __ZNK14HGShaderTiling4loopEjj, 
                       __ZNK14HGShaderTiling6valuesEb, __ZNK14HGShaderTiling7istiledEj, 
                       __ZNK14HGShaderTiling8texcoordEjbiijjPf, __ZNK15HGCVPixelBuffer1hEm, 
                       __ZNK15HGCVPixelBuffer1wEm, __ZNK15HGCVPixelBuffer3ptrEm, 
                       __ZNK15HGCVPixelBuffer4lockEb, __ZNK15HGCVPixelBuffer6formatEv, 
                       __ZNK15HGCVPixelBuffer6unlockEb, __ZNK15HGCVPixelBuffer8rowBytesEm, 
                       __ZNK15HGCVPixelBuffer8validateEv, __ZNK15HGComicQuantize18IntermediateFormatE8HGFormat, 
                       __ZNK15HGFlipAndOffset18IntermediateFormatE8HGFormat, __ZNK15HGFlipAndOffset4infoEiRKNSt3__112basic_stringIcNS0_11char_traitsIcEENS0_9allocatorIcEEEES8_, 
                       __ZNK15HGRenderContext11GetRendererEv, __ZNK15HGRenderContext14PauseRenderingEv, 
                       __ZNK15HGRenderContext16RestartRenderingEv, __ZNK15HGRenderContext4IsGLEv, 
                       __ZNK15HGRenderContext5IsCPUEv, __ZNK15HGRenderContext5IsGPUEv, 
                       __ZNK15HGShaderBinding5printEv, __ZNK16HGGLBlendingInfo15GetDstRGBFactorEv, 
                       __ZNK16HGGLBlendingInfo15GetRGBOperationEv, __ZNK16HGGLBlendingInfo15GetSrcRGBFactorEv, 
                       __ZNK16HGGLBlendingInfo17GetAlphaOperationEv, __ZNK16HGGLBlendingInfo17GetDstAlphaFactorEv, 
                       __ZNK16HGGLBlendingInfo17GetSrcAlphaFactorEv, __ZNK16HGGLRendererInfo5PrintEv, 
                       __ZNK16HGGammaUnPremult7label_BEv, __ZNK16HGLinearFilter2D3sumEv, 
                       __ZNK16HGLinearFilter2D5scaleEPA2_fPA2_Kfff, __ZNK16HGLinearFilter2D6maxmagEv, 
                       __ZNK16HGLinearFilter2D6rotateEPA2_fPA2_Kff, __ZNK16HGLinearFilter2D6summagEv, 
                       __ZNK16HGLinearFilter2D9normalizeEPA2_ff, __ZNK16HGLinearFilter2D9translateEPA2_fPA2_Kfff, 
                       __ZNK16HGLinearFilter2DcoEv, __ZNK16HGLinearFilter2DeqERKS_, 
                       __ZNK16HGPixelBufferObj3pboEv, __ZNK16HGPixelBufferObj4rectEv, 
                       __ZNK16HGPixelBufferObj6formatEv, __ZNK16HGPixelBufferObj8rowBytesEv, 
                       __ZNK16HGRenderExecUnit17CanPerformJobTypeEN11HGRenderJob4TypeE, 
                       __ZNK16HGRenderExecUnit20HasEnqueuedRenderJobEP11HGRenderJob, 
                       __ZNK16HGRenderExecUnit21NumEnqueuedRenderJobsEv, __ZNK16HGSampleRectStat11analyzeFullEv, 
                       __ZNK16HGSampleRectStat7analyzeEv, __ZNK16HGSampleRectStat8effRatioEv, 
                       __ZNK16HGSampleRectStat8roiRatioEv, __ZNK16HGSampleRectStat9findUnderEv, 
                       __ZNK16HGTextureManager11TextureInfo12sameBaseInfoERKS0_, 
                       __ZNK16HGTextureManager11TextureInfo13sameRangeDataERKS0_, 
                       __ZNK16HGTextureManager11TextureInfo15sameStorageDataERKS0_, 
                       __ZNK16HGTextureManager11TextureInfo15sameStorageInfoERKS0_, 
                       __ZNK16HGTextureManager11TextureInfo17sameClientStorageERKS0_, 
                       __ZNK16HGTextureManager11TextureInfo18sameSourceDataTypeERKS0_, 
                       __ZNK16HGTextureManager12TextureEntry3logEi, __ZNK16HGTextureManager12TextureUsage10logSummaryEib, 
                       __ZNK16HGTextureManager12TextureUsage3logEi, __ZNK16HGTextureManager16maxTextureSizeGLE8HGFormat, 
                       __ZNK16HGTextureManager16maxTextureSizeGLEv, __ZNK17HGEquirectProject18IntermediateFormatE8HGFormat, 
                       __ZNK17HGGLRenderContext10GetContextEv, __ZNK17HGGLRenderContext13GetRendererIDEv, 
                       __ZNK17HGGLRenderContext14GetDisplayMaskEv, __ZNK17HGGLRenderContext14GetVideoMemoryEv, 
                       __ZNK17HGGLRenderContext15GetIsDetachableEv, __ZNK17HGGLRenderContext15GetRendererNameEv, 
                       __ZNK17HGGLRenderContext15IsIntegratedGPUEv, __ZNK17HGGLRenderContext16GetTextureMemoryEv, 
                       __ZNK17HGGLRenderContext16GetVirtualScreenEv, __ZNK17HGGLRenderContext20GetIsDisplayAttachedEv, 
                       __ZNK17HGGLRenderContext22GetGPURendererTileSizeEv, __ZNK17HGGLRenderContext24GetNumPBOReadbackThreadsEv, 
                       __ZNK17HGGLRenderContext26GetTexturePoolVRAMFractionEv, __ZNK17HGMetalBufferPool10Descriptor4sizeEv, 
                       __ZNK17HGMetalBufferPool10DescriptoreqERKS0_, __ZNK17HGMetalDeviceInfo10isExternalEv, 
                       __ZNK17HGMetalDeviceInfo10isHeadlessEv, __ZNK17HGMetalDeviceInfo10isLowPowerEv, 
                       __ZNK17HGMetalDeviceInfo11isRemovableEv, __ZNK17HGMetalDeviceInfo4nameEv, 
                       __ZNK17HGMetalDeviceInfo5isAMDEv, __ZNK17HGMetalDeviceInfo7isAppleEv, 
                       __ZNK17HGMetalDeviceInfo7isIntelEv, __ZNK17HGMetalDeviceInfo8isNvidiaEv, 
                       __ZNK17HGMetalDeviceInfo9isBuiltinEv, __ZNK17HGMetalDeviceInfo9isSlottedEv, 
                       __ZNK18HGComicColorStroke18IntermediateFormatE8HGFormat, __ZNK18HGGPUComputeDevice15IsOnDualGPUCardEv, 
                       __ZNK18HGGPUComputeDevice17CreateHGGLContextEv, __ZNK18HGGPUComputeDevice17IsDisplayAttachedEv, 
                       __ZNK18HGGPUComputeDevice23CreateSharedHGGLContextE5HGRefI11HGGLContextE, 
                       __ZNK18HGGPURenderContext12GetGLContextEv, __ZNK18HGMetalTexturePool10Descriptor4sizeEv, 
                       __ZNK18HGMetalTexturePool10DescriptoreqERKS0_, __ZNK19HGCVPixelBufferPool10DescriptoreqERKS0_, 
                       __ZNK19HGCVPixelBufferPool13getPoolHandleEv, __ZNK19HGCVPixelBufferPool14validateBufferEP10__CVBuffer, 
                       __ZNK19HGCVPixelBufferPool3logEv, __ZNK19HGCVPixelBufferPool5traceEv, 
                       __ZNK19HGMetalBlendingInfo15GetDstRGBFactorEv, __ZNK19HGMetalBlendingInfo15GetRGBOperationEv, 
                       __ZNK19HGMetalBlendingInfo15GetSrcRGBFactorEv, __ZNK19HGMetalBlendingInfo17GetAlphaOperationEv, 
                       __ZNK19HGMetalBlendingInfo17GetDstAlphaFactorEv, __ZNK19HGMetalBlendingInfo17GetSrcAlphaFactorEv, 
                       __ZNK20HGComicSobelOperator18IntermediateFormatE8HGFormat, 
                       __ZNK21HGComicStrokeAndBlend18IntermediateFormatE8HGFormat, 
                       __ZNK22HGComicBilateralFilter18IntermediateFormatE8HGFormat, 
                       __ZNK23HGColorConformLook3DLUT7IsValidEv, __ZNK24HGMetalSamplerStateCache4InfoltERKS0_, 
                       __ZNK29HGMetalDepthStencilStateCache4InfoltERKS0_, __ZNK30HGMetalBufferWrapperInfinipool10Descriptor4sizeEv, 
                       __ZNK30HGMetalBufferWrapperInfinipool10DescriptoreqERKS0_, 
                       __ZNK31HGMetalRenderPipelineStateCache4Info12RenderTarget9makeTupleEv, 
                       __ZNK31HGMetalRenderPipelineStateCache4Info12RenderTargetltERKS1_, 
                       __ZNK31HGMetalRenderPipelineStateCache4Info9makeTupleEv, __ZNK31HGMetalRenderPipelineStateCache4InfoltERKS0_, 
                       __ZNK31HGMetalTextureWrapperInfinipool10Descriptor4sizeEv, 
                       __ZNK31HGMetalTextureWrapperInfinipool10DescriptoreqERKS0_, 
                       __ZNK32HGCLRedDebayerAndImageProcessing18IntermediateFormatE8HGFormat, 
                       __ZNK40HGComicGaussianBlurAndGradientGeneration18IntermediateFormatE8HGFormat, 
                       __ZNK6HGBlur14CreateUpShaderEP10HGRendereri, __ZNK6HGBlur16CreateDownShaderEP10HGRendererNS_9TapMethodEi, 
                       __ZNK6HGBlur17CreateUpShaderVetEP10HGRenderer, __ZNK6HGBlur18CreateUpShaderHorzEP10HGRenderer, 
                       __ZNK6HGBlur19SetDownShaderRadiusEP6HGNodef, __ZNK6HGBlur20CreateDownShaderHorzEP10HGRendererNS_9TapMethodE, 
                       __ZNK6HGBlur20CreateDownShaderVertEP10HGRendererNS_9TapMethodE, 
                       __ZNK6HGBlur26CreateDownShaderDoubleHorzEP10HGRendererNS_9TapMethodE, 
                       __ZNK6HGBlur26CreateDownShaderDoubleVertEP10HGRendererNS_9TapMethodE, 
                       __ZNK6HGNode12SupportsGLSLEv, __ZNK6HGNode13SupportsMetalEv, 
                       __ZNK6HGNode13WriteDotGraphERKNSt3__112basic_stringIcNS0_11char_traitsIcEENS0_9allocatorIcEEEE18HGNodeDotGraphType, 
                       __ZNK6HGNode15CanBypassTilingEP10HGRenderer, __ZNK6HGNode16debugDescriptionEv, 
                       __ZNK6HGNode18IntermediateFormatE8HGFormat, __ZNK6HGNode30GetInPlaceHardwareBlendingInfoEv, 
                       __ZNK6HGNode31GetInPlaceHardwareBlendingColorEv, __ZNK6HGNode32IsInPlaceHardwareBlendingEnabledEv, 
                       __ZNK6HGNode33GetInPlaceHardwareBlendingOpacityEv, __ZNK6HGNode4infoEiRKNSt3__112basic_stringIcNS0_11char_traitsIcEENS0_9allocatorIcEEEES8_, 
                       __ZNK6HGNode7label_AEv, __ZNK6HGNode7label_BEv, __ZNK6HGNode8dotLabelEv, 
                       __ZNK6HGPool20GroupServicingPolicy13maxBytesUsageEPKNS_8BasePoolE, 
                       __ZNK6HGPool20GroupServicingPolicy14maxObjectAgeNSEPKNS_8BasePoolE, 
                       __ZNK6HGPool20GroupServicingPolicy15maxObjectsCountEPKNS_8BasePoolE, 
                       __ZNK6HGPool25TotalUsageServicingPolicy13maxBytesUsageEPKNS_8BasePoolE, 
                       __ZNK6HGPool25TotalUsageServicingPolicy15maxObjectsCountEPKNS_8BasePoolE, 
                       __ZNK6HGRect10IsInfiniteEv, __ZNK6HGRect11IsEqualSizeES_, 
                       __ZNK6HGRect12ContainsRectES_, __ZNK6HGRect12ExcludesRectES_, 
                       __ZNK6HGRect13HasSameOriginES_, __ZNK6HGRect6IsNullEv, __ZNK6HGRect6IsZeroEv, 
                       __ZNK6HGRect7IsEqualES_, __ZNK6HGTile8RendererEv, __ZNK7HGBlend5CloneEv, 
                       __ZNK7HGGamma7label_BEv, __ZNK7HGGamma8GetGammaEv, __ZNK7HGPower7label_BEv, 
                       __ZNK7HGXForm12GetTransformEv, __ZNK7HGXForm15GetClipDistanceEv, 
                       __ZNK7HGXForm18IntermediateFormatE8HGFormat, __ZNK7HGXForm4infoEiRKNSt3__112basic_stringIcNS0_11char_traitsIcEENS0_9allocatorIcEEEES8_, 
                       __ZNK8HGBitmap10byteOffsetEii, __ZNK8HGBitmap13GetEdgePolicyEv, 
                       __ZNK8HGBitmap16validateRowBytesEv, __ZNK8HGGLNode16hglGetMatrixModeEv, 
                       __ZNK8HGGLNode19GetAntiAliasQualityEv, __ZNK8HGLevels5isRGBEv, 
                       __ZNK8HGLevels6isLumaEv, __ZNK8HGLimits10isfragmentEv, __ZNK8HGLimits10isgeometryEv, 
                       __ZNK8HGLimits10normalizedEv, __ZNK8HGLimits11isprimitiveEv, 
                       __ZNK8HGLimits11texturerectEv, __ZNK8HGLimits4archEv, __ZNK8HGLimits4testEPKS_, 
                       __ZNK8HGLimits4typeEv, __ZNK8HGLimits5isarbEv, __ZNK8HGLimits5isasmEv, 
                       __ZNK8HGLimits5isenvEv, __ZNK8HGLimits5isgpuEv, __ZNK8HGLimits6familyEv, 
                       __ZNK8HGLimits6isglfsEv, __ZNK8HGLimits6isglvsEv, __ZNK8HGLimits6ispackEv, 
                       __ZNK8HGLimits6issafeEv, __ZNK8HGLimits7isarbfpEv, __ZNK8HGLimits7isarbvpEv, 
                       __ZNK8HGLimits7ismetalEv, __ZNK8HGLimits7versionEv, __ZNK8HGLimits8isconcatEj, 
                       __ZNK8HGLimits8isdirectEj, __ZNK8HGLimits8isunpackEv, __ZNK8HGLimits8isvertexEv, 
                       __ZNK8HGLimits8revisionEv, __ZNK8HGLimits9istexhalfEj, __ZNK8HGObject16debugDescriptionEv, 
                       __ZNK8HGString10parametersEv, __ZNK8HGString11iscompositeEv, 
                       __ZNK8HGString11isunpremultEv, __ZNK8HGString4areaER14HGShaderTilingjbbPK8HGLimitsS4_, 
                       __ZNK8HGString4dataEv, __ZNK8HGString4hashEv, __ZNK8HGString4tileERK14HGShaderTilingjjb, 
                       __ZNK8HGString5c_strEv, __ZNK8HGString6Digest11isunpremultEv, 
                       __ZNK8HGString6DigesteqERKS0_, __ZNK8HGString6DigestneERKS0_, 
                       __ZNK8HGString6_flagsEi, __ZNK8HGString6digestEv, __ZNK8HGString6lengthEv, 
                       __ZNK8HGString6targetEv, __ZNK8HGString7_concatEi, __ZNK8HGString7attribsEv, 
                       __ZNK8HGString7outputsEv, __ZNK8HGString8isconcatEv, __ZNK8HGString8ismatrixEv, 
                       __ZNK8HGString8texturesEv, __ZNK8HGString9signatureEv, __ZNK8HGString9texcoordsEv, 
                       __ZNK8HGStringeqERKS_, __ZNK8HGStringneERKS_, __ZNK9HGGLBlend5CloneEv, 
                       __ZNK9HGGammaMC7label_BEv, __ZTI10HGCLBuffer, __ZTI10HGCLResMan, 
                       __ZTI10HGCVBitmap, __ZTI10HGDemosaic, __ZTI10HGExposure, __ZTI10HGGLBuffer, 
                       __ZTI10HGGamutMap, __ZTI10HGGradient, __ZTI10HGRGB_EETF, __ZTI10HGRenderer, 
                       __ZTI11HGAntiAlias, __ZTI11HGBlurGroup, __ZTI11HGColorBars, 
                       __ZTI11HGFractured, __ZTI11HGGLContext, __ZTI11HGGLTexture, 
                       __ZTI11HGOverwrite, __ZTI11HGPBOBitmap, __ZTI11HGRenderJob, 
                       __ZTI11HGToneCurve, __ZTI11HGTransform, __ZTI12HGApply1DLUT, 
                       __ZTI12HGApply3DLUT, __ZTI12HGColorClamp, __ZTI12HGColorGamma, 
                       __ZTI12HGComicEdges, __ZTI12HGDefinition, __ZTI12HGGLRenderer, 
                       __ZTI12HGPerspXForm, __ZTI12HGRenderNode, __ZTI12HGSWRenderer, 
                       __ZTI12HGShaderNode, __ZTI12HGSolidColor, __ZTI13HGBT2390_EETF, 
                       __ZTI13HGChannelCopy, __ZTI13HGColorMatrix, __ZTI13HGComicStroke, 
                       __ZTI13HGConvolution, __ZTI13HGInvertAlpha, __ZTI13HGLensDistort, 
                       __ZTI13HGMetalBuffer, __ZTI13HGMipMapGroup, __ZTI13HGMipmapLevel, 
                       __ZTI13HGOutputClamp, __ZTI13HGPremultiply, __ZTI13HGRenderQueue, 
                       __ZTI13HGTextureWrap, __ZTI13HGYUV601ToRGB, __ZTI13HGYUV709ToRGB, 
                       __ZTI14HGBitmapLoader, __ZTI14HGColorConform, __ZTI14HGDepthToColor, 
                       __ZTI14HGGLMultiBlend, __ZTI14HGGPUResources, __ZTI14HGMetalContext, 
                       __ZTI14HGMetalHandler, __ZTI14HGMetalTexture, __ZTI14HGUserExecUnit, 
                       __ZTI15HGCVPixelBuffer, __ZTI15HGComicQuantize, __ZTI15HGComputeDeltaE, 
                       __ZTI15HGFlipAndOffset, __ZTI15HGModulatedBlur, __ZTI15HGNodeWithDepth, 
                       __ZTI15HGRenderContext, __ZTI15HGUnpremultiply, __ZTI15NoPaddingPolicy, 
                       __ZTI15NoPoolingPolicy, __ZTI16HGAVADeinterlace, __ZTI16HGEnhanceDetails, 
                       __ZTI16HGGLRendererInfo, __ZTI16HGGPUReadbackJob, __ZTI16HGGammaUnPremult, 
                       __ZTI16HGPixelBufferObj, __ZTI16HGReflectionClip, __ZTI16HGRenderExecUnit, 
                       __ZTI16HGSynchronizable, __ZTI16POTPaddingPolicy, __ZTI17HGBilateralFilter, 
                       __ZTI17HGCameraLogEncode, __ZTI17HGEquirectProject, __ZTI17HGGLRenderContext, 
                       __ZTI17HGIndirectSampler, __ZTI17HGMetalDeviceInfo, __ZTI17HGShadowHighlight, 
                       __ZTI18DepthBufferManager, __ZTI18HGAnisotropicXForm, __ZTI18HGCPURenderContext, 
                       __ZTI18HGChannelDuplicate, __ZTI18HGChromaticAdapter, __ZTI18HGComicColorStroke, 
                       __ZTI18HGEquirectReorient, __ZTI18HGGPUComputeDevice, __ZTI18HGGPURenderContext, 
                       __ZTI18HGLaplacianSharpen, __ZTI18HGSony709_800_MLUT, __ZTI19BorderPaddingPolicy, 
                       __ZTI19HGAVAMotionDilation, __ZTI19HGBlackWhiteRestore, __ZTI19HGCVPixelBufferPool, 
                       __ZTI19HGMultiTexBlendBase, __ZTI19HGTexturePoolHandle, __ZTI19SimplePoolingPolicy, 
                       __ZTI20DefaultPaddingPolicy, __ZTI20HGAVAMotionDetection, 
                       __ZTI20HGAVATemporalAverage, __ZTI20HGCVGLTextureFactory, 
                       __ZTI20HGClampPremultiplied, __ZTI20HGComicSobelOperator, 
                       __ZTI21HGCVBufferPairStorage, __ZTI21HGChromaticAberration, 
                       __ZTI21HGColorConformLUTData, __ZTI21HGComicStrokeAndBlend, 
                       __ZTI21HGGPUReadbackExecUnit, __ZTI21HGShadowHighlightFast, 
                       __ZTI21MultiGPUPoolingPolicy, __ZTI22ClusteredPaddingPolicy, 
                       __ZTI22HGComicBilateralFilter, __ZTI22HGRetimeWithFlowInterp, 
                       __ZTI22HGRetimeWithFrameBlend, __ZTI22HGSimpleSpatialDenoise, 
                       __ZTI22HGTexturePaddingPolicy, __ZTI22HGTexturePoolingPolicy, 
                       __ZTI22HGVignettingCorrection, __ZTI23HGBilateralFilterInterp, 
                       __ZTI23HGColorConformLook3DLUT, __ZTI24HGComicDesignerInterface, 
                       __ZTI25HGBilateralFilterInterpSC, __ZTI25HGPremultiplyWhiteToBlack, 
                       __ZTI31HGColorConformNodeListCacheItem, __ZTI31HGInterlaceHandler_ExtractField, 
                       __ZTI32HGCLRedDebayerAndImageProcessing, __ZTI34HGInterlaceHandler_InterlaceFields, 
                       __ZTI36HGComicLookupFilterLUTBitmapResource, __ZTI40HGComicGaussianBlurAndGradientGeneration, 
                       __ZTI6DBM_gl, __ZTI6HGBlur, __ZTI6HGCrop, __ZTI6HGNode, __ZTI7DBM_cpu, 
                       __ZTI7HGBlend, __ZTI7HGCache, __ZTI7HGComic, __ZTI7HGGamma, 
                       __ZTI7HGPower, __ZTI7HGTiler, __ZTI7HGXForm, __ZTI8HGBitmap, 
                       __ZTI8HGBuffer, __ZTI8HGCLNode, __ZTI8HGDither, __ZTI8HGGLNode, 
                       __ZTI8HGLevels, __ZTI8HGMinMax, __ZTI8HGMipmap, __ZTI8HGNode3D, 
                       __ZTI8HGObject, __ZTI8HGRetime, __ZTI8HGTexEnv, __ZTI9HGCLImage, 
                       __ZTI9HGDenoise, __ZTI9HGGLBlend, __ZTI9HGGammaMC, __ZTI9HGHandler, 
                       __ZTI9HGOpenEXR, __ZTI9HGSampler, __ZTI9HGSharpen, __ZTI9HGStencil, 
                       __ZTI9HGTexture, __ZTI9HGUserJob, __ZTIN10HGARRILogC6DecodeE, 
                       __ZTIN10HGARRILogC6EncodeE, __ZTIN11HGFractured6EffectE, __ZTIN11HGNikonNLog6EncodeE, 
                       __ZTIN11HGSonySLog36EncodeE, __ZTIN13HGConvolution3MadE, __ZTIN15HGPanasonicVLog6EncodeE, 
                       __ZTIN16HGTextureManager11TexturePoolE, __ZTIN16HGYUV420BiPlanar13HGYUV420To444E, 
                       __ZTIN16HGYUV420BiPlanar13HGYUV420ToRGBE, __ZTIN16HGYUV420BiPlanar17HGYUV444To420LumaE, 
                       __ZTIN16HGYUV420BiPlanar19HGYUV444To420ChromaE, __ZTIN18HGHybridQTGammaLog6DecodeE, 
                       __ZTIN18HGHybridQTGammaLog6EncodeE, __ZTIN22HGCanonLog2CinemaGamut6EncodeE, 
                       __ZTIN4HGPQ11InverseEOTFE, __ZTIN4HGPQ11InverseOETFE, __ZTIN4HGPQ11InverseOOTFE, 
                       __ZTIN4HGPQ4EOTFE, __ZTIN4HGPQ4OETFE, __ZTIN4HGPQ4OOTFE, __ZTIN4HGPQ7PQToSDRE, 
                       __ZTIN5HGHLG11InverseOETFE, __ZTIN5HGHLG11InverseOOTFE, __ZTIN5HGHLG4OETFE, 
                       __ZTIN5HGHLG4OOTFE, __ZTIN5HGHLG8HLGToSDRE, __ZTIN5HGHLG8SDRToHLGE, 
                       __ZTIN6HGPool20GroupServicingPolicyE, __ZTIN6HGPool25TotalUsageServicingPolicyE, 
                       __ZTIN8HGMemory13StorageObjectE, __ZTIN9HGACEScct6DecodeE, 
                       __ZTIN9HGACEScct6EncodeE, __ZTIN9HGDJIDLog6EncodeE, __ZTS10HGCLBuffer, 
                       __ZTS10HGCLResMan, __ZTS10HGCVBitmap, __ZTS10HGDemosaic, __ZTS10HGExposure, 
                       __ZTS10HGGLBuffer, __ZTS10HGGamutMap, __ZTS10HGGradient, __ZTS10HGRGB_EETF, 
                       __ZTS10HGRenderer, __ZTS11HGAntiAlias, __ZTS11HGBlurGroup, 
                       __ZTS11HGColorBars, __ZTS11HGFractured, __ZTS11HGGLContext, 
                       __ZTS11HGGLTexture, __ZTS11HGOverwrite, __ZTS11HGPBOBitmap, 
                       __ZTS11HGRenderJob, __ZTS11HGToneCurve, __ZTS11HGTransform, 
                       __ZTS12HGApply1DLUT, __ZTS12HGApply3DLUT, __ZTS12HGColorClamp, 
                       __ZTS12HGColorGamma, __ZTS12HGComicEdges, __ZTS12HGDefinition, 
                       __ZTS12HGGLRenderer, __ZTS12HGPerspXForm, __ZTS12HGRenderNode, 
                       __ZTS12HGSWRenderer, __ZTS12HGShaderNode, __ZTS12HGSolidColor, 
                       __ZTS13HGBT2390_EETF, __ZTS13HGChannelCopy, __ZTS13HGColorMatrix, 
                       __ZTS13HGComicStroke, __ZTS13HGConvolution, __ZTS13HGInvertAlpha, 
                       __ZTS13HGLensDistort, __ZTS13HGMetalBuffer, __ZTS13HGMipMapGroup, 
                       __ZTS13HGMipmapLevel, __ZTS13HGOutputClamp, __ZTS13HGPremultiply, 
                       __ZTS13HGRenderQueue, __ZTS13HGTextureWrap, __ZTS13HGYUV601ToRGB, 
                       __ZTS13HGYUV709ToRGB, __ZTS14HGBitmapLoader, __ZTS14HGColorConform, 
                       __ZTS14HGDepthToColor, __ZTS14HGGLMultiBlend, __ZTS14HGGPUResources, 
                       __ZTS14HGMetalContext, __ZTS14HGMetalHandler, __ZTS14HGMetalTexture, 
                       __ZTS14HGUserExecUnit, __ZTS15HGCVPixelBuffer, __ZTS15HGComicQuantize, 
                       __ZTS15HGComputeDeltaE, __ZTS15HGFlipAndOffset, __ZTS15HGModulatedBlur, 
                       __ZTS15HGNodeWithDepth, __ZTS15HGRenderContext, __ZTS15HGUnpremultiply, 
                       __ZTS15NoPaddingPolicy, __ZTS15NoPoolingPolicy, __ZTS16HGAVADeinterlace, 
                       __ZTS16HGEnhanceDetails, __ZTS16HGGLRendererInfo, __ZTS16HGGPUReadbackJob, 
                       __ZTS16HGGammaUnPremult, __ZTS16HGPixelBufferObj, __ZTS16HGReflectionClip, 
                       __ZTS16HGRenderExecUnit, __ZTS16HGSynchronizable, __ZTS16POTPaddingPolicy, 
                       __ZTS17HGBilateralFilter, __ZTS17HGCameraLogEncode, __ZTS17HGEquirectProject, 
                       __ZTS17HGGLRenderContext, __ZTS17HGIndirectSampler, __ZTS17HGMetalDeviceInfo, 
                       __ZTS17HGShadowHighlight, __ZTS18DepthBufferManager, __ZTS18HGAnisotropicXForm, 
                       __ZTS18HGCPURenderContext, __ZTS18HGChannelDuplicate, __ZTS18HGChromaticAdapter, 
                       __ZTS18HGComicColorStroke, __ZTS18HGEquirectReorient, __ZTS18HGGPUComputeDevice, 
                       __ZTS18HGGPURenderContext, __ZTS18HGLaplacianSharpen, __ZTS18HGSony709_800_MLUT, 
                       __ZTS19BorderPaddingPolicy, __ZTS19HGAVAMotionDilation, __ZTS19HGBlackWhiteRestore, 
                       __ZTS19HGCVPixelBufferPool, __ZTS19HGMultiTexBlendBase, __ZTS19HGTexturePoolHandle, 
                       __ZTS19SimplePoolingPolicy, __ZTS20DefaultPaddingPolicy, __ZTS20HGAVAMotionDetection, 
                       __ZTS20HGAVATemporalAverage, __ZTS20HGCVGLTextureFactory, 
                       __ZTS20HGClampPremultiplied, __ZTS20HGComicSobelOperator, 
                       __ZTS21HGCVBufferPairStorage, __ZTS21HGChromaticAberration, 
                       __ZTS21HGColorConformLUTData, __ZTS21HGComicStrokeAndBlend, 
                       __ZTS21HGGPUReadbackExecUnit, __ZTS21HGShadowHighlightFast, 
                       __ZTS21MultiGPUPoolingPolicy, __ZTS22ClusteredPaddingPolicy, 
                       __ZTS22HGComicBilateralFilter, __ZTS22HGRetimeWithFlowInterp, 
                       __ZTS22HGRetimeWithFrameBlend, __ZTS22HGSimpleSpatialDenoise, 
                       __ZTS22HGTexturePaddingPolicy, __ZTS22HGTexturePoolingPolicy, 
                       __ZTS22HGVignettingCorrection, __ZTS23HGBilateralFilterInterp, 
                       __ZTS23HGColorConformLook3DLUT, __ZTS24HGComicDesignerInterface, 
                       __ZTS25HGBilateralFilterInterpSC, __ZTS25HGPremultiplyWhiteToBlack, 
                       __ZTS31HGColorConformNodeListCacheItem, __ZTS31HGInterlaceHandler_ExtractField, 
                       __ZTS32HGCLRedDebayerAndImageProcessing, __ZTS34HGInterlaceHandler_InterlaceFields, 
                       __ZTS36HGComicLookupFilterLUTBitmapResource, __ZTS40HGComicGaussianBlurAndGradientGeneration, 
                       __ZTS6DBM_gl, __ZTS6HGBlur, __ZTS6HGCrop, __ZTS6HGNode, __ZTS7DBM_cpu, 
                       __ZTS7HGBlend, __ZTS7HGCache, __ZTS7HGComic, __ZTS7HGGamma, 
                       __ZTS7HGPower, __ZTS7HGTiler, __ZTS7HGXForm, __ZTS8HGBitmap, 
                       __ZTS8HGBuffer, __ZTS8HGCLNode, __ZTS8HGDither, __ZTS8HGGLNode, 
                       __ZTS8HGLevels, __ZTS8HGMinMax, __ZTS8HGMipmap, __ZTS8HGNode3D, 
                       __ZTS8HGObject, __ZTS8HGRetime, __ZTS8HGTexEnv, __ZTS9HGCLImage, 
                       __ZTS9HGDenoise, __ZTS9HGGLBlend, __ZTS9HGGammaMC, __ZTS9HGHandler, 
                       __ZTS9HGOpenEXR, __ZTS9HGSampler, __ZTS9HGSharpen, __ZTS9HGStencil, 
                       __ZTS9HGTexture, __ZTS9HGUserJob, __ZTSN10HGARRILogC6DecodeE, 
                       __ZTSN10HGARRILogC6EncodeE, __ZTSN11HGFractured6EffectE, __ZTSN11HGNikonNLog6EncodeE, 
                       __ZTSN11HGSonySLog36EncodeE, __ZTSN13HGConvolution3MadE, __ZTSN15HGPanasonicVLog6EncodeE, 
                       __ZTSN16HGTextureManager11TexturePoolE, __ZTSN16HGYUV420BiPlanar13HGYUV420To444E, 
                       __ZTSN16HGYUV420BiPlanar13HGYUV420ToRGBE, __ZTSN16HGYUV420BiPlanar17HGYUV444To420LumaE, 
                       __ZTSN16HGYUV420BiPlanar19HGYUV444To420ChromaE, __ZTSN18HGHybridQTGammaLog6DecodeE, 
                       __ZTSN18HGHybridQTGammaLog6EncodeE, __ZTSN22HGCanonLog2CinemaGamut6EncodeE, 
                       __ZTSN4HGPQ11InverseEOTFE, __ZTSN4HGPQ11InverseOETFE, __ZTSN4HGPQ11InverseOOTFE, 
                       __ZTSN4HGPQ4EOTFE, __ZTSN4HGPQ4OETFE, __ZTSN4HGPQ4OOTFE, __ZTSN4HGPQ7PQToSDRE, 
                       __ZTSN5HGHLG11InverseOETFE, __ZTSN5HGHLG11InverseOOTFE, __ZTSN5HGHLG4OETFE, 
                       __ZTSN5HGHLG4OOTFE, __ZTSN5HGHLG8HLGToSDRE, __ZTSN5HGHLG8SDRToHLGE, 
                       __ZTSN6HGPool20GroupServicingPolicyE, __ZTSN6HGPool25TotalUsageServicingPolicyE, 
                       __ZTSN8HGMemory13StorageObjectE, __ZTSN9HGACEScct6DecodeE, 
                       __ZTSN9HGACEScct6EncodeE, __ZTSN9HGDJIDLog6EncodeE, __ZTV10HGCLBuffer, 
                       __ZTV10HGCLResMan, __ZTV10HGCVBitmap, __ZTV10HGDemosaic, __ZTV10HGExposure, 
                       __ZTV10HGGLBuffer, __ZTV10HGGamutMap, __ZTV10HGGradient, __ZTV10HGRGB_EETF, 
                       __ZTV10HGRenderer, __ZTV11HGAntiAlias, __ZTV11HGBlurGroup, 
                       __ZTV11HGColorBars, __ZTV11HGFractured, __ZTV11HGGLContext, 
                       __ZTV11HGGLTexture, __ZTV11HGOverwrite, __ZTV11HGPBOBitmap, 
                       __ZTV11HGRenderJob, __ZTV11HGToneCurve, __ZTV11HGTransform, 
                       __ZTV12HGApply1DLUT, __ZTV12HGApply3DLUT, __ZTV12HGColorClamp, 
                       __ZTV12HGColorGamma, __ZTV12HGComicEdges, __ZTV12HGDefinition, 
                       __ZTV12HGGLRenderer, __ZTV12HGPerspXForm, __ZTV12HGRenderNode, 
                       __ZTV12HGSWRenderer, __ZTV12HGShaderNode, __ZTV12HGSolidColor, 
                       __ZTV13HGBT2390_EETF, __ZTV13HGChannelCopy, __ZTV13HGColorMatrix, 
                       __ZTV13HGComicStroke, __ZTV13HGConvolution, __ZTV13HGInvertAlpha, 
                       __ZTV13HGLensDistort, __ZTV13HGMetalBuffer, __ZTV13HGMipMapGroup, 
                       __ZTV13HGMipmapLevel, __ZTV13HGOutputClamp, __ZTV13HGPremultiply, 
                       __ZTV13HGRenderQueue, __ZTV13HGTextureWrap, __ZTV13HGYUV601ToRGB, 
                       __ZTV13HGYUV709ToRGB, __ZTV14HGBitmapLoader, __ZTV14HGColorConform, 
                       __ZTV14HGDepthToColor, __ZTV14HGGLMultiBlend, __ZTV14HGGPUResources, 
                       __ZTV14HGMetalContext, __ZTV14HGMetalHandler, __ZTV14HGMetalTexture, 
                       __ZTV14HGUserExecUnit, __ZTV15HGCVPixelBuffer, __ZTV15HGComicQuantize, 
                       __ZTV15HGComputeDeltaE, __ZTV15HGFlipAndOffset, __ZTV15HGModulatedBlur, 
                       __ZTV15HGNodeWithDepth, __ZTV15HGRenderContext, __ZTV15HGUnpremultiply, 
                       __ZTV15NoPaddingPolicy, __ZTV15NoPoolingPolicy, __ZTV16HGAVADeinterlace, 
                       __ZTV16HGEnhanceDetails, __ZTV16HGGLRendererInfo, __ZTV16HGGPUReadbackJob, 
                       __ZTV16HGGammaUnPremult, __ZTV16HGPixelBufferObj, __ZTV16HGReflectionClip, 
                       __ZTV16HGRenderExecUnit, __ZTV16HGSynchronizable, __ZTV16POTPaddingPolicy, 
                       __ZTV17HGBilateralFilter, __ZTV17HGCameraLogEncode, __ZTV17HGEquirectProject, 
                       __ZTV17HGGLRenderContext, __ZTV17HGIndirectSampler, __ZTV17HGMetalDeviceInfo, 
                       __ZTV17HGShadowHighlight, __ZTV18DepthBufferManager, __ZTV18HGAnisotropicXForm, 
                       __ZTV18HGCPURenderContext, __ZTV18HGChannelDuplicate, __ZTV18HGChromaticAdapter, 
                       __ZTV18HGComicColorStroke, __ZTV18HGEquirectReorient, __ZTV18HGGPUComputeDevice, 
                       __ZTV18HGGPURenderContext, __ZTV18HGLaplacianSharpen, __ZTV18HGSony709_800_MLUT, 
                       __ZTV19BorderPaddingPolicy, __ZTV19HGAVAMotionDilation, __ZTV19HGBlackWhiteRestore, 
                       __ZTV19HGCVPixelBufferPool, __ZTV19HGMultiTexBlendBase, __ZTV19HGTexturePoolHandle, 
                       __ZTV19SimplePoolingPolicy, __ZTV20DefaultPaddingPolicy, __ZTV20HGAVAMotionDetection, 
                       __ZTV20HGAVATemporalAverage, __ZTV20HGCVGLTextureFactory, 
                       __ZTV20HGClampPremultiplied, __ZTV20HGComicSobelOperator, 
                       __ZTV21HGCVBufferPairStorage, __ZTV21HGChromaticAberration, 
                       __ZTV21HGColorConformLUTData, __ZTV21HGComicStrokeAndBlend, 
                       __ZTV21HGGPUReadbackExecUnit, __ZTV21HGShadowHighlightFast, 
                       __ZTV21MultiGPUPoolingPolicy, __ZTV22ClusteredPaddingPolicy, 
                       __ZTV22HGComicBilateralFilter, __ZTV22HGRetimeWithFlowInterp, 
                       __ZTV22HGRetimeWithFrameBlend, __ZTV22HGSimpleSpatialDenoise, 
                       __ZTV22HGTexturePaddingPolicy, __ZTV22HGTexturePoolingPolicy, 
                       __ZTV22HGVignettingCorrection, __ZTV23HGBilateralFilterInterp, 
                       __ZTV23HGColorConformLook3DLUT, __ZTV24HGComicDesignerInterface, 
                       __ZTV25HGBilateralFilterInterpSC, __ZTV25HGPremultiplyWhiteToBlack, 
                       __ZTV31HGColorConformNodeListCacheItem, __ZTV31HGInterlaceHandler_ExtractField, 
                       __ZTV32HGCLRedDebayerAndImageProcessing, __ZTV34HGInterlaceHandler_InterlaceFields, 
                       __ZTV36HGComicLookupFilterLUTBitmapResource, __ZTV40HGComicGaussianBlurAndGradientGeneration, 
                       __ZTV6DBM_gl, __ZTV6HGBlur, __ZTV6HGCrop, __ZTV6HGNode, __ZTV7DBM_cpu, 
                       __ZTV7HGBlend, __ZTV7HGCache, __ZTV7HGComic, __ZTV7HGGamma, 
                       __ZTV7HGPower, __ZTV7HGTiler, __ZTV7HGXForm, __ZTV8HGBitmap, 
                       __ZTV8HGBuffer, __ZTV8HGCLNode, __ZTV8HGDither, __ZTV8HGGLNode, 
                       __ZTV8HGLevels, __ZTV8HGMinMax, __ZTV8HGMipmap, __ZTV8HGNode3D, 
                       __ZTV8HGObject, __ZTV8HGRetime, __ZTV8HGTexEnv, __ZTV9HGCLImage, 
                       __ZTV9HGDenoise, __ZTV9HGGLBlend, __ZTV9HGGammaMC, __ZTV9HGHandler, 
                       __ZTV9HGOpenEXR, __ZTV9HGSampler, __ZTV9HGSharpen, __ZTV9HGStencil, 
                       __ZTV9HGTexture, __ZTV9HGUserJob, __ZTVN10HGARRILogC6DecodeE, 
                       __ZTVN10HGARRILogC6EncodeE, __ZTVN11HGFractured6EffectE, __ZTVN11HGNikonNLog6EncodeE, 
                       __ZTVN11HGSonySLog36EncodeE, __ZTVN13HGConvolution3MadE, __ZTVN15HGPanasonicVLog6EncodeE, 
                       __ZTVN16HGTextureManager11TexturePoolE, __ZTVN16HGYUV420BiPlanar13HGYUV420To444E, 
                       __ZTVN16HGYUV420BiPlanar13HGYUV420ToRGBE, __ZTVN16HGYUV420BiPlanar17HGYUV444To420LumaE, 
                       __ZTVN16HGYUV420BiPlanar19HGYUV444To420ChromaE, __ZTVN18HGHybridQTGammaLog6DecodeE, 
                       __ZTVN18HGHybridQTGammaLog6EncodeE, __ZTVN22HGCanonLog2CinemaGamut6EncodeE, 
                       __ZTVN4HGPQ11InverseEOTFE, __ZTVN4HGPQ11InverseOETFE, __ZTVN4HGPQ11InverseOOTFE, 
                       __ZTVN4HGPQ4EOTFE, __ZTVN4HGPQ4OETFE, __ZTVN4HGPQ4OOTFE, __ZTVN4HGPQ7PQToSDRE, 
                       __ZTVN5HGHLG11InverseOETFE, __ZTVN5HGHLG11InverseOOTFE, __ZTVN5HGHLG4OETFE, 
                       __ZTVN5HGHLG4OOTFE, __ZTVN5HGHLG8HLGToSDRE, __ZTVN5HGHLG8SDRToHLGE, 
                       __ZTVN6HGPool20GroupServicingPolicyE, __ZTVN6HGPool25TotalUsageServicingPolicyE, 
                       __ZTVN8HGMemory13StorageObjectE, __ZTVN9HGACEScct6DecodeE, 
                       __ZTVN9HGACEScct6EncodeE, __ZTVN9HGDJIDLog6EncodeE, __ZlsRNSt3__113basic_ostreamIcNS_11char_traitsIcEEEERK6HGRect, 
                       __ZlsRNSt3__113basic_ostreamIcNS_11char_traitsIcEEEERKN10HGDotGraph4EdgeE, 
                       __ZlsRNSt3__113basic_ostreamIcNS_11char_traitsIcEEEERKN10HGDotGraph4NodeE, 
                       _g_PerfGlobal, _kBlueNoise1RPDF, _kBlueNoise2RPDF, _kBlueNoise3RPDF, 
                       _kHNullMD5 ]
  - targets:         [ arm64e-macos, arm64-macos ]
    symbols:         [ __ZN10HGRenderer10RenderTileEP15HGExecutionUnitP19__simd128_float32_t6HGRectP6HGNodei, 
                       __ZN10HGRenderer15RenderInputTileEP15HGExecutionUnitP19__simd128_float32_t6HGRectP6HGNodeiP6HGTilei, 
                       __ZN12HGColorGamma11LoadMatrix1EPK19__simd128_float32_t, __ZN12HGColorGamma11LoadMatrix2EPK19__simd128_float32_t, 
                       __ZN12HGColorGamma16SetGammaFunctionENS_16hgColorGammaFormE19__simd128_float32_tS1_S1_S1_S1_S1_S1_, 
                       __ZN12HGColorGamma8SetBias1E19__simd128_float32_t, __ZN12HGColorGamma8SetBias2E19__simd128_float32_t, 
                       __ZN12HGColorGamma9SetClamp1E19__simd128_float32_tS0_, __ZN12HGColorGamma9SetClamp2E19__simd128_float32_tS0_, 
                       __ZN12HGColorGamma9SetScale1E19__simd128_float32_t, __ZN12HGColorGamma9SetScale2E19__simd128_float32_t, 
                       __ZN13HGColorMatrix10LoadMatrixEPK19__simd128_float32_tb, 
                       __ZN13HGColorMatrix10MultMatrixEPK19__simd128_float32_tb, 
                       __ZN13HGColorMatrix14PostMultMatrixEPK19__simd128_float32_tb, 
                       __ZN15HGExecutionUnit10RenderTileEP19__simd128_float32_t6HGRectP6HGNodei, 
                       __ZN15HGExecutionUnit11CommitStackEP19__simd128_float32_tm, 
                       __ZN16HGLinearFilter2D3setEii19__simd128_float32_tj, __ZN16HGLinearFilter2D4copyEiiiiPK19__simd128_float32_tij, 
                       __ZN16HGLinearFilter2D4fillEiiii19__simd128_float32_tj, __ZN16HGLinearFilter2D5applyE4HGOp19__simd128_float32_tj, 
                       __ZN16HGLinearFilter2D9normalizeE19__simd128_float32_tj, __ZN16HGLinearFilter2DC1EPK19__simd128_float32_tiiiii, 
                       __ZN16HGLinearFilter2DC2EPK19__simd128_float32_tiiiii, __ZN8HGLogger4vlogEPKciS1_Pc, 
                       __ZN8HGLogger6verrorEPKcPc, __ZN8HGLogger6vprintEPKcPc, __ZN8HGLogger8vwarningEPKcPc, 
                       __ZN9HGSampler16ReadTileIndirectEP8HGBitmapP11HGTransformP19__simd128_float32_t6HGRectS6_, 
                       __ZN9HGSampler7GetTileEP8HGBitmapP11HGTransformP19__simd128_float32_t6HGRecti, 
                       __ZN9HGSampler8ReadTileEP8HGBitmapP11HGTransformP19__simd128_float32_t6HGRecti, 
                       __ZNK13HGColorMatrix9GetMatrixEP19__simd128_float32_tbb, __ZNK13HGColorMatrix9TransformE19__simd128_float32_t ]
...
