--- !tapi-tbd
tbd-version:     4
targets:         [ x86_64-macos, arm64-macos, arm64e-macos ]
uuids:
  - target:          x86_64-macos
    value:           67E0F015-6E24-3BCA-A408-A5E7A7C1209A
  - target:          arm64-macos
    value:           00000000-0000-0000-0000-000000000000
  - target:          arm64e-macos
    value:           46B02CBF-EBC7-3C4D-A1B6-EBB1C5BB1AB9
install-name:    '/System/Library/PrivateFrameworks/AppleDepth.framework/Versions/A/AppleDepth'
exports:
  - targets:         [ x86_64-macos ]
    symbols:         [ __Z13ADMLModelPathP8NSStringa ]
    weak-symbols:    [ __ZTISt11logic_error, __ZTISt12length_error, __ZTISt9exception, 
                       __ZTSSt11logic_error, __ZTSSt12length_error, __ZTSSt9exception ]
  - targets:         [ x86_64-macos, arm64e-macos, arm64-macos ]
    symbols:         [ _ADExecutorCalibrationAttachmentName, _AdaptiveCorrection_applyDistortionModel, 
                       _AdaptiveCorrection_applyDistortionModelSimplified, _AdaptiveCorrection_applyTemporalCorrectionState, 
                       _AdaptiveCorrection_approximateCorrection, _AdaptiveCorrection_computeStereoRectificationHomographies, 
                       _AdaptiveCorrection_computeVerticalBaselineTransform, _AdaptiveCorrection_create, 
                       _AdaptiveCorrection_createWithConfig, _AdaptiveCorrection_destroy, 
                       _AdaptiveCorrection_fullCorrection, _AdaptiveCorrection_fullCorrectionWithDistortion, 
                       _AdaptiveCorrection_fullTemporalCorrectionWithDistortion, 
                       _AdaptiveCorrection_getStatus, _AdaptiveCorrection_rotateCalModel, 
                       _AdaptiveCorrection_rotateDistortionModel, _AdaptiveCorrection_setConfiguration, 
                       _AdaptiveCorrection_transformPointsWithMatrix, _AdjustCalibrationDistorted, 
                       _AdjustCalibrationFocalLengthAndOpticalCenterX_Gradient, _AdjustYOpticalCenterForValidDistanceRange, 
                       _AppleDepthRuntimeAPIVersion, _AppleDepthRuntimeVersionString, 
                       _AppleDepthVersionNumber, _AppleDepthVersionString, _CalcDirectZPlaneHomographyAtoBCoords, 
                       _FundamentalDistortionError_MeanVal, _FundamentalDistortionError_MeanValPlusGradient, 
                       _FundamentalEpipolarErrorForCalModel, _FundamentalEpipolarError_ABSVec, 
                       _FundamentalEpipolarError_MeanVal, _FundamentalEpipolarError_MeanValPlusGradient, 
                       _FundamentalEpipolarError_precomputeFundamental, _PCE_BIAS_METADATA_KEY, 
                       _SelectPointsWithEpipolarThreshold, __Z11dumpTextureNSt3__112basic_stringIcNS_11char_traitsIcEENS_9allocatorIcEEEEPU21objcproto10MTLTexture11objc_object, 
                       __Z11getterDummyP11objc_objectP13objc_selector, __Z11setterDummyP11objc_objectP13objc_selectorS0_, 
                       __Z13bidiagonalSVDlPdS_S_S_S_, __Z16dumpRawImageFileNSt3__112basic_stringIcNS_11char_traitsIcEENS_9allocatorIcEEEEPfm, 
                       __Z16dumpRawImageFileNSt3__112basic_stringIcNS_11char_traitsIcEENS_9allocatorIcEEEEPhm, 
                       __Z16dumpRawImageFileNSt3__112basic_stringIcNS_11char_traitsIcEENS_9allocatorIcEEEEPtm, 
                       __Z17calibrationAttachP10__CVBufferPK14__CFDictionary, __Z25calibrationFromAttachmentP10__CVBuffer, 
                       __Z31debugQuickLookObjectFromCGImageP7CGImage, __Z6dlasr_PKcS0_PlS1_PdS2_S2_S1_, 
                       __Z6svd_oslPdS_S_S_, __Z7dbdsqr_PlS_S_PdS0_S0_S_S0_S_S0_S_, 
                       __Z7dlasv2_PdS_S_S_S_S_S_S_S_, __ZN10ImageUtils12CloseRect2x2ERK6MatrixIbEPS1_, 
                       __ZN10ImageUtils12CloseRect3x3ERK6MatrixIbEPS1_, __ZN10ImageUtils12ErodeRect2x2ERK6MatrixIbEPS1_, 
                       __ZN10ImageUtils12ErodeRect3x3ERK6MatrixIbEPS1_, __ZN10ImageUtils13DilateRect2x2ERK6MatrixIbEPS1_, 
                       __ZN10ImageUtils13DilateRect3x3ERK6MatrixIbEPS1_, __ZN10ImageUtils13OtsuThresholdERK6MatrixIdE, 
                       __ZN10appledepth16JasperPointCloud13initByCloningERKS0_Pv, 
                       __ZN10appledepth16JasperPointCloud13initByMergingEmPPKS0_Pv, 
                       __ZN10appledepth16JasperPointCloud13replacePointsEmmRKS0_m, 
                       __ZN10appledepth16JasperPointCloud14prepareStorageEPvmm, __ZN10appledepth16JasperPointCloud21initByApplyingFiltersEPKS0_15ADSpotsEchoModefffff, 
                       __ZN10appledepth16JasperPointCloud23lengthFromStorageBufferEPvm, 
                       __ZN10appledepth16JasperPointCloud24initPerformanceOverridesERKNSt3__112basic_stringIcNS1_11char_traitsIcEENS1_9allocatorIcEEEE, 
                       __ZN10appledepth16JasperPointCloud25applyPerformanceOverridesEv, 
                       __ZN10appledepth16JasperPointCloud25resetPerformanceOverridesEv, 
                       __ZN10appledepth16JasperPointCloud29requiredStorageBytesForLengthEm, 
                       __ZN10appledepth16JasperPointCloud32initWithDictionaryRepresentationEPK14__CFDictionaryPv, 
                       __ZN10appledepth16JasperPointCloud32makeWithDictionaryRepresentationEPK14__CFDictionary, 
                       __ZN10appledepth16JasperPointCloud4initEmPv, __ZN10appledepth16JasperPointCloud5mergeEmPPKS0_Pv, 
                       __ZN10appledepth16JasperPointCloud5resetEv, __ZN10appledepth16JasperPointCloud6resizeEm, 
                       __ZN10appledepth16JasperPointCloud7blackenEv, __ZN10appledepth16JasperPointCloudC1EOS0_, 
                       __ZN10appledepth16JasperPointCloudC1EmPv, __ZN10appledepth16JasperPointCloudC1Ev, 
                       __ZN10appledepth16JasperPointCloudC2EOS0_, __ZN10appledepth16JasperPointCloudC2EmPv, 
                       __ZN10appledepth16JasperPointCloudC2Ev, __ZN10appledepth16JasperPointCloudD1Ev, 
                       __ZN10appledepth16JasperPointCloudD2Ev, __ZN12ADDebugUtils20isVerboseLogsEnabledEv, 
                       __ZN12ADDebugUtils21setVerboseLogsEnabledEb, __ZN12SparseMatrix11allocateMemEv, 
                       __ZN12SparseMatrix14SolveLTInPlaceEP11MatrixNxPtsILj1EdE, 
                       __ZN12SparseMatrix22ReverseStorageOfColumnEi, __ZN12SparseMatrix23GetColumnAsSparseVectorEi, 
                       __ZN12SparseMatrix4ZeroEv, __ZN12SparseMatrix6ExpandEmm, __ZN12SparseMatrix7SqueezeEmm, 
                       __ZN12SparseMatrix7freeMemEv, __ZN12SparseMatrix8AddValueEiid, 
                       __ZN12SparseMatrixC1EOS_, __ZN12SparseMatrixC1ERKS_, __ZN12SparseMatrixC1EmmPKiii, 
                       __ZN12SparseMatrixC1Ev, __ZN12SparseMatrixC2EOS_, __ZN12SparseMatrixC2ERKS_, 
                       __ZN12SparseMatrixC2EmmPKiii, __ZN12SparseMatrixC2Ev, __ZN12SparseMatrixD1Ev, 
                       __ZN12SparseMatrixD2Ev, __ZN12SparseMatrixaSEOS_, __ZN12SparseVector13AddWithFactorERKS_d, 
                       __ZN12SparseVectorC1EOS_, __ZN12SparseVectorC1ERKS_, __ZN12SparseVectorC1Eii, 
                       __ZN12SparseVectorC1EiiPiPdb, __ZN12SparseVectorC2EOS_, __ZN12SparseVectorC2ERKS_, 
                       __ZN12SparseVectorC2Eii, __ZN12SparseVectorC2EiiPiPdb, __ZN12SparseVectorD1Ev, 
                       __ZN12SparseVectorD2Ev, __ZN12SparseVectoraSERKS_, __ZN13ADCommonUtils10rotateSizeE6CGSize10ADRotation, 
                       __ZN13ADCommonUtils11matrixTo4x3E13simd_float4x4, __ZN13ADCommonUtils11matrixTo4x4E13simd_float4x3, 
                       __ZN13ADCommonUtils15reverseRotationE10ADRotation, __ZN13ADCommonUtils16computeTransformE13simd_float4x3S0_, 
                       __ZN13ADCommonUtils16extrinsicsToFileEPKc13simd_float4x3, 
                       __ZN13ADCommonUtils16extrinsicsToFileEPKc13simd_float4x4, 
                       __ZN13ADCommonUtils16inverseTransformE13simd_float4x3, __ZN13ADCommonUtils16inverseTransformE13simd_float4x4, 
                       __ZN13ADCommonUtils17computeMaximalRoiE6CGSizeS0_, __ZN13ADCommonUtils18extrinsicsFromFileEPKc, 
                       __ZN13ADCommonUtils21extrinsics4x4FromFileEPKc, __ZN13ADCommonUtils21runtimePlatformHasANEEv, 
                       __ZN13ADCommonUtils22matrixForImageRotationE10ADRotation, 
                       __ZN13ADCommonUtils22rotationFromExtrinsicsERK13simd_float4x3, 
                       __ZN13ADCommonUtils23matrixFromArrayRowFirstEP7NSArray, __ZN13ADCommonUtils24matrixToArrayColumnFirstERK13simd_float4x3, 
                       __ZN13ADCommonUtils25translationFromExtrinsicsERK13simd_float4x3, 
                       __ZN13ADCommonUtils26matrixFromArrayColumnFirstEP7NSArray, 
                       __ZN13ADCommonUtils28transformMetersToMillimitersE13simd_float4x4, 
                       __ZN13ADCommonUtils28transformMillimitersToMetersE13simd_float4x4, 
                       __ZN13ADCommonUtils29matrix4x3FromArrayColumnFirstEP7NSArray, 
                       __ZN13ADCommonUtils31runtimePlatformANEVersionNumberEv, __ZN13ADCommonUtils31runtimePlatformANEVersionStringEv, 
                       __ZN13ADCommonUtils33extrinsicsFromRotationTranslationERK13simd_float3x3RKDv3_f, 
                       __ZN16CRandomGenerator10NormalRandEf, __ZN16CRandomGenerator11UniformRandEv, 
                       __ZN16CRandomGenerator4InitEj, __ZN16CRandomGenerator7randlcgEv, 
                       __ZN16CRandomGeneratorC1Ej, __ZN16CRandomGeneratorC2Ej, __ZN16CRandomGeneratorD0Ev, 
                       __ZN16CRandomGeneratorD1Ev, __ZN16CRandomGeneratorD2Ev, __ZN16PixelBufferUtils11getJetColorEfRfS0_S0_, 
                       __ZN16PixelBufferUtils13asPixelBufferEmmjPv, __ZN16PixelBufferUtils13forEveryPixelEP10__CVBufferS1_U13block_pointerFvPvjS2_jEi, 
                       __ZN16PixelBufferUtils13forEveryPixelEP10__CVBufferU13block_pointerFvPvjEi, 
                       __ZN16PixelBufferUtils14asVImageBufferEP10__CVBuffer, __ZN16PixelBufferUtils14asVImageBufferEP10__CVBufferm, 
                       __ZN16PixelBufferUtils14copyAttachmentEP10__CVBufferPK10__CFStringP16CVAttachmentMode, 
                       __ZN16PixelBufferUtils15copyAttachmentsEP10__CVBuffer16CVAttachmentMode, 
                       __ZN16PixelBufferUtils15copyPixelBufferEP10__CVBufferS1_b, 
                       __ZN16PixelBufferUtils15createTiledViewEmmmmPP10__CVBufferPb, 
                       __ZN16PixelBufferUtils17createPixelBufferE6CGSizejb, __ZN16PixelBufferUtils17createPixelBufferEmmjb, 
                       __ZN16PixelBufferUtils17errorsPixelBufferEP10__CVBufferS1_, 
                       __ZN16PixelBufferUtils17errorsPixelBufferEP10__CVBufferS1_bi, 
                       __ZN16PixelBufferUtils17rotatePixelBufferEP10__CVBufferS1_ib, 
                       __ZN16PixelBufferUtils18releasePixelBufferEPP10__CVBuffer, 
                       __ZN16PixelBufferUtils19inPlaceColorScalingEP10__CVBufferffbb, 
                       __ZN16PixelBufferUtils19pixelFormatAsStringEj, __ZN16PixelBufferUtils20countDifferentPixelsEP10__CVBufferS1_ff, 
                       __ZN16PixelBufferUtils20pixelBufferToCGImageEP10__CVBuffer, 
                       __ZN16PixelBufferUtils20pixelBufferToRawFileEPKcP10__CVBuffer, 
                       __ZN16PixelBufferUtils21copyPixelBufferRegionEP10__CVBuffer7CGPointS1_6CGRect, 
                       __ZN16PixelBufferUtils21createPixelBufferCopyEP10__CVBuffer, 
                       __ZN16PixelBufferUtils21pixelFormatFromStringEPKc, __ZN16PixelBufferUtils22pixelBufferFromCGImageEP7CGImagej, 
                       __ZN16PixelBufferUtils22pixelBufferFromRawFileEPKcmmj, __ZN16PixelBufferUtils22pixelBufferToImageFileEPKcP10__CVBufferPK10__CFString, 
                       __ZN16PixelBufferUtils22savePlyFromDepthBufferEP10__CVBufferPKcf7CGPointfffbb, 
                       __ZN16PixelBufferUtils23cropAndScalePixelBufferEP10__CVBufferS1_6CGRectb, 
                       __ZN16PixelBufferUtils23isPixelFormatCompressedEj, __ZN16PixelBufferUtils23pixelSizeForPixelFormatEjm, 
                       __ZN16PixelBufferUtils24convertPixelBufferFormatEP10__CVBufferS1_b, 
                       __ZN16PixelBufferUtils24createRotatedPixelBufferEP10__CVBufferib, 
                       __ZN16PixelBufferUtils24pixelBufferFromImageFileEPKcj, __ZN16PixelBufferUtils24planeCountForPixelFormatEj, 
                       __ZN16PixelBufferUtils25colorizedDepthPixelBufferEP10__CVBufferbffbPfS1_, 
                       __ZN16PixelBufferUtils26wrapAsDifferentPixelFormatEP10__CVBufferjPS1_, 
                       __ZN16PixelBufferUtils27rotationBetweenOrientationsE26CGImagePropertyOrientationS0_, 
                       __ZN16PixelBufferUtils29createPixelBufferWithSameSizeEP10__CVBufferjb, 
                       __ZN16PixelBufferUtils29scaleConvertRotatePixelBufferEP10__CVBufferi6CGRectS1_PS1_S3_b, 
                       __ZN16PixelBufferUtils31createColorizedDepthPixelBufferEP10__CVBufferbffbPf, 
                       __ZN16PixelBufferUtils32componentsPerPixelForPixelFormatEjm, 
                       __ZN16PixelBufferUtils32createConvertedPixelBufferFormatEP10__CVBufferjb, 
                       __ZN16PixelBufferUtils33createCroppedAndScaledPixelBufferEP10__CVBuffer6CGRect6CGSizeb, 
                       __ZN16PixelBufferUtils33verticalSubsamplingForPixelFormatEjm, 
                       __ZN16PixelBufferUtils35horizontalSubsamplingForPixelFormatEjm, 
                       __ZN16PixelBufferUtils36uncompressedEquivalentForPixelFormatEj, 
                       __ZN16PixelBufferUtils44rotationAngleAndMirroringFromExifOrientationE26CGImagePropertyOrientationPb, 
                       __ZN16PixelBufferUtils7blackenEP10__CVBuffer, __ZN23PixelBufferUtilsSession11copySessionEPS_, 
                       __ZN23PixelBufferUtilsSession14setScalingModeE30PixelBufferUtilsSessionScaling, 
                       __ZN23PixelBufferUtilsSession25createScaleConvertSessionE6CGSizejS0_j, 
                       __ZN23PixelBufferUtilsSession29createCropScaleConvertSessionE6CGSizejS0_j6CGRect, 
                       __ZN23PixelBufferUtilsSession35createCropScaleConvertRotateSessionE6CGSizejS0_j6CGRecti, 
                       __ZN23PixelBufferUtilsSessionC1E6CGSizejS0_j6CGRecti33PixelBufferUtilsSessionReflection, 
                       __ZN23PixelBufferUtilsSessionC2E6CGSizejS0_j6CGRecti33PixelBufferUtilsSessionReflection, 
                       __ZN23PixelBufferUtilsSessionD1Ev, __ZN23PixelBufferUtilsSessionD2Ev, 
                       __ZN27ADJasperPerformanceOverride11getInstanceEv, __ZN27ADJasperPerformanceOverride11initFromCsvERKNSt3__112basic_stringIcNS0_11char_traitsIcEENS0_9allocatorIcEEEE, 
                       __ZN27ADJasperPerformanceOverride12getOverridesEiiP24SpotPerformanceOverrides, 
                       __ZN27ADJasperPerformanceOverride14resetOverridesEv, __ZN27ADJasperPerformanceOverrideC1Ev, 
                       __ZN27ADJasperPerformanceOverrideC2Ev, __ZN27ADReprojectionOptimizations13projectPointsEmPKDv3_f13simd_float3x3P7CGPoint, 
                       __ZN27ADReprojectionOptimizations28backProjectUndistortedPixelsEmPK7CGPointPKf13simd_float3x3PDv3_f, 
                       __ZN27ADReprojectionOptimizations28reprojectUndistortedDepthMapEP10__CVBuffer13simd_float3x313simd_float4x3S2_S1_S1_, 
                       __ZN4Algo11LinearSpaceEddj, __ZN4Algo11NormXcorr2dE6MatrixIdES1_PS1_, 
                       __ZN4Algo12RandomSampleEjP16CRandomGeneratorP11MatrixNxPtsILj1EjE, 
                       __ZN4Algo13FundMatrix3x3ER11MatrixNxPtsILj3EdES2_P9MatrixMxNILj3ELj3EdEdPbPd, 
                       __ZN4Algo14Normalize2DPtsERK11MatrixNxPtsILj3EdEPS1_P9MatrixMxNILj3ELj3EdE, 
                       __ZN4Algo16RansacHomographyER11MatrixNxPtsILj3EdES2_jdjjjPS0_ILj1EjEPjS5_, 
                       __ZN4Algo17LinearSpaceByStepEddj, __ZN4Algo3GcdEjj, __ZN4Algo3LcmEjj, 
                       __ZN4Algo3cosE6MatrixIdEPS1_, __ZN4Algo3sinE6MatrixIdEPS1_, 
                       __ZN4Algo3tanE6MatrixIdEPS1_, __ZN4Algo4MeanERK6MatrixIdEPS1_, 
                       __ZN4Algo4acosE6MatrixIdEPS1_, __ZN4Algo4asinE6MatrixIdEPS1_, 
                       __ZN4Algo4atanE6MatrixIdEPS1_, __ZN4Algo5atan2E6MatrixIdES1_PS1_, 
                       __ZN4Algo6RansacER11MatrixNxPtsILj3EdES2_jdjjjPS0_ILj1EjEPj, 
                       __ZN4Algo6RansacER11MatrixNxPtsILj3EdES2_jdjjjbS0_ILj1EbEdPS0_ILj1EjEPj, 
                       __ZN4Algo8FspecialEN8MathLibs10FilterTypeEid, __ZN4Algo8FundDistER9MatrixMxNILj3ELj3EdER11MatrixNxPtsILj3EdES5_dPS3_ILj1EjEPj, 
                       __ZN4Algo8cart2sphE6MatrixIdES1_S1_PS1_S2_S2_, __ZN4Algo9StdFilterE6MatrixIdEiPS1_, 
                       __ZN9GeomUtils11homogDist2dE6MatrixIdERK11MatrixNxPtsILj3EdES5_dPS2_ILj1EjEPj, 
                       __ZN9GeomUtils12CalcRotTransERK9MatrixMxNILj3ELj3EdERKS0_ILj1ELj3EdES4_bPS1_PS4_, 
                       __ZN9GeomUtils12homography2dERK11MatrixNxPtsILj3EdES3_, __ZN9GeomUtils17ComputeHomographyERK11MatrixNxPtsILj2EdES3_P6MatrixIdE, 
                       __ZN9GeomUtils17ComputeHomographyERK11MatrixNxPtsILj3EdES3_P6MatrixIdE, 
                       __ZN9GeomUtils17DistortRadialLiteIdEEiRK6MatrixIdERKN8MathLibs10_CamParamsIT_EEP11MatrixNxPtsILj2EdEbb, 
                       __ZN9GeomUtils17DistortRadialLiteIdEEiRK6MatrixIdERKN8MathLibs10_CamParamsIT_EEP11MatrixNxPtsILj2EdEdbb, 
                       __ZN9GeomUtils18estimateBestRotMatERK6MatrixIdE, __ZN9GeomUtils21estimatePlanePositionE6MatrixIdE, 
                       __ZN9GeomUtils23ransacComputeHomographyER11MatrixNxPtsILj3EdES2_dP6MatrixIdEPS0_ILj1EjEPjS8_, 
                       __ZN9GeomUtils24check3of4SpotsOnSameLineE11MatrixNxPtsILj3EdES1_, 
                       __ZN9GeomUtils25DistortRadialLiteInternalERK6MatrixIdERKN8MathLibs10_CamParamsIdEEP11MatrixNxPtsILj2EdEbdbb, 
                       __ZN9GeomUtils6ToHomgERK11MatrixNxPtsILj2EdE, __ZN9GeomUtils9ToNonHomgERK11MatrixNxPtsILj3EdE, 
                       __ZN9GeomUtils9ToNonHomgERK6MatrixIdE, __ZNK10appledepth16JasperPointCloud11confidencesEv, 
                       __ZNK10appledepth16JasperPointCloud11intensitiesEv, __ZNK10appledepth16JasperPointCloud12cameraPixelsEv, 
                       __ZNK10appledepth16JasperPointCloud14getBaseAddressEv, __ZNK10appledepth16JasperPointCloud18euclideanDistancesEv, 
                       __ZNK10appledepth16JasperPointCloud19projectJasperPointsE10ADRotation6CGRect15ADSpotsEchoModefffffP10__CVBufferb, 
                       __ZNK10appledepth16JasperPointCloud19signalToNoiseRatiosEv, 
                       __ZNK10appledepth16JasperPointCloud23undistortedCameraPixelsEv, 
                       __ZNK10appledepth16JasperPointCloud30createDictionaryRepresentationEv, 
                       __ZNK10appledepth16JasperPointCloud5flagsEv, __ZNK10appledepth16JasperPointCloud6lengthEv, 
                       __ZNK10appledepth16JasperPointCloud6pointsEv, __ZNK10appledepth16JasperPointCloud7bankIdsEv, 
                       __ZNK10appledepth16JasperPointCloud7echoIdsEv, __ZNK10appledepth16JasperPointCloud7spotIdsEv, 
                       __ZNK10appledepth16JasperPointCloud8capacityEv, __ZNK12SparseMatrix10MultATagxBERK11MatrixNxPtsILj1EdE, 
                       __ZNK12SparseMatrix14GetMatrixWidthEv, __ZNK12SparseMatrix15GetMatrixHeightEv, 
                       __ZNK12SparseMatrix22GetColumnAsDenseVectorEi, __ZNK12SparseMatrix23CopyColumnToDenseVectorEiPd, 
                       __ZNK12SparseMatrixclEii, __ZNK12SparseMatrixmlERK11MatrixNxPtsILj1EdE, 
                       __ZNK12SparseVector10MultATagxBERKS_, __ZNK12SparseVectormiERKS_, 
                       __ZNK23PixelBufferUtilsSession11verifyInputEP10__CVBuffer, 
                       __ZNK23PixelBufferUtilsSession12verifyOutputEP10__CVBuffer, 
                       __ZNK23PixelBufferUtilsSession23createOutputPixelBufferEv, 
                       __ZNK23PixelBufferUtilsSession3runEP10__CVBufferS1_, __ZTV16CRandomGenerator, 
                       __ZpLR11MatrixNxPtsILj1EdERK12SparseVector, _fmincon_spg, 
                       _kADDeviceConfigurationKeyEnabledLoggers, _kADDeviceConfigurationKeyIntermediatesPathOverride, 
                       _kADDeviceConfigurationKeyJasperPerformanceOverridePath, _kADDeviceConfigurationKeyLogFolder, 
                       _kADDeviceConfigurationKeyLoggingHostName, _kADDeviceConfigurationKeyLoggingPriorityForceAll, 
                       _kADDeviceConfigurationKeyModelConfigurationFolder, _kADDeviceConfigurationKeyVerboseLogs, 
                       _kADEspressoBufferIDAleatoricUncertainty, _kADEspressoBufferIDAlphaMap, 
                       _kADEspressoBufferIDAnglesVector, _kADEspressoBufferIDAuxColor, 
                       _kADEspressoBufferIDAuxiliaryAleatoricUncertainty, _kADEspressoBufferIDAuxiliaryConfidence, 
                       _kADEspressoBufferIDAuxiliaryDisparity, _kADEspressoBufferIDAuxiliaryLogarithmicVariance, 
                       _kADEspressoBufferIDBinaryMask, _kADEspressoBufferIDColor, 
                       _kADEspressoBufferIDConfidence, _kADEspressoBufferIDDepth, 
                       _kADEspressoBufferIDDisparity, _kADEspressoBufferIDErrorPpx, 
                       _kADEspressoBufferIDErrorPpy, _kADEspressoBufferIDErrorRotationX, 
                       _kADEspressoBufferIDErrorRotationY, _kADEspressoBufferIDErrorsVector, 
                       _kADEspressoBufferIDInputOpaqueFeatures, _kADEspressoBufferIDJasper, 
                       _kADEspressoBufferIDLogarithmicVariance, _kADEspressoBufferIDNormals, 
                       _kADEspressoBufferIDOpaqueFeatures, _kADEspressoBufferIDOutputOpaqueFeatures, 
                       _kADEspressoBufferIDPCEStereo, _kADEspressoBufferIDPearl, 
                       _kADEspressoBufferIDPpx, _kADEspressoBufferIDPpy, _kADEspressoBufferIDPrevColor, 
                       _kADEspressoBufferIDPrevConfidence, _kADEspressoBufferIDPrevDepth, 
                       _kADEspressoBufferIDPrevDisparity, _kADEspressoBufferIDRefColor, 
                       _kADEspressoBufferIDRotationX, _kADEspressoBufferIDRotationY, 
                       _kADEspressoBufferIDSTDUncertainty, _kADNetworkIDCinVidPearl, 
                       _kADNetworkIDCinVidStereoTeleWide, _kADNetworkIDCinVidStereoWideSuperwide, 
                       _kADNetworkIDJasperColor, _kADNetworkIDJasperColorV2, _kADNetworkIDMonocular, 
                       _kADNetworkIDMonocularV2, _kADNetworkIDSIJNetBackend, _kADNetworkIDSIJNetFrontend, 
                       _kADNetworkIDStereoFSD, _kADNetworkIDStereoFSD45Deg, _kADNetworkIDStereoFSD60Deg, 
                       _kADNetworkIDStereoStillImages, _kADNetworkIDStillImage ]
    objc-classes:    [ ADAdaptiveCorrectionDualCameraCalibrationModel, ADAdaptiveCorrectionPipeline, 
                       ADAdaptiveCorrectionPipelineParameters, ADAggregationParameters, 
                       ADAnchoredVector, ADCameraCalibration, ADDepthScaler, ADDeviceConfiguration, 
                       ADDynamicPolynomialsLensDistortionModel, ADEspressoBufferHandle, 
                       ADEspressoImageDescriptor, ADEspressoInferenceDescriptor, 
                       ADEspressoJasperColorInferenceDescriptor, ADEspressoJasperColorV2InferenceDescriptor, 
                       ADEspressoJasperToColorTransformCorrectionBackendInfrerenceDescriptor, 
                       ADEspressoJasperToColorTransformCorrectionFrontendInfrerenceDescriptor, 
                       ADEspressoMonocularInferenceDescriptor, ADEspressoMonocularV2InferenceDescriptor, 
                       ADEspressoPCEDisparityColorInferenceDescriptor, ADEspressoRunner, 
                       ADEspressoStereoInferenceDescriptor, ADEspressoStillImageInferenceDescriptor, 
                       ADExecutor, ADExecutorParameters, ADFileLoggerHandler, ADImageDescriptor, 
                       ADImageSupportedSize, ADInFieldCalibrationColorMetadata, ADInFieldCalibrationJasperMetadata, 
                       ADInFieldCalibrationMetadata, ADInFieldCalibrationPearlMetadata, 
                       ADInterSessionFilter, ADInterSessionFilterParameters, ADJasperColorExecutor, 
                       ADJasperColorExecutorParameters, ADJasperColorPipeline, ADJasperColorPipelineParameters, 
                       ADJasperColorStillsExecutor, ADJasperColorStillsExecutorParameters, 
                       ADJasperColorStillsPipeline, ADJasperColorStillsPipelineParameters, 
                       ADJasperColorV2Executor, ADJasperColorV2ExecutorParameters, 
                       ADJasperColorV2Pipeline, ADJasperColorV2PipelineParameters, 
                       ADJasperPointCloud, ADJasperPointCloudFilterParamaters, ADJasperPointCloudFilterParameters, 
                       ADJasperToColorTransformCorrectionResult, ADLKTExecutor, ADLKTOpticalFlow, 
                       ADLKTTexturesDescriptor, ADLayoutUtils, ADLogManager, ADLogManagerHandler, 
                       ADMagnificationForRadiusLensDistortionModel, ADMetalUtils, 
                       ADMillimeterRadiusPairsLensDistortionModel, ADMonocularExecutor, 
                       ADMonocularExecutorParameters, ADMonocularPipeline, ADMonocularPipelineParameters, 
                       ADMonocularV2Executor, ADMonocularV2ExecutorParameters, ADMonocularV2Pipeline, 
                       ADMonocularV2PipelineParameters, ADMutableCameraCalibration, 
                       ADMutableJasperPointCloud, ADNetworkProvider, ADNilDistortionModel, 
                       ADNormals, ADNormalsBuffer, ADPCEDisparityColorExecutor, ADPCEDisparityColorExecutorParameters, 
                       ADPCEDisparityColorPipeline, ADPCEDisparityColorPipelineParameters, 
                       ADPipelineParameters, ADPointCloudAggregator, ADPolynomialsLensDistortionModel, 
                       ADRefinedPolynomialsLensDistortionModel, ADReprojection, ADSignpostUtils, 
                       ADStereoExecutor, ADStereoExecutorParameters, ADStereoPipeline, 
                       ADStereoPipelineParameters, ADTimeProfiler, ADTimeSync, ADTimeSyncJasperParameters, 
                       ADTimeSyncNode, ADTimeSyncParameters, ADTimeSyncPushResults, 
                       ADUtils, ADVisualLoggerHandler, ADWarperMeshLensDistortionModel, 
                       ADXThetaDistortionModel ]
    objc-ivars:      [ ADCameraCalibration._cameraToPlatformTransform, ADCameraCalibration._distortionModel, 
                       ADCameraCalibration._intrinsicMatrix, ADCameraCalibration._pixelSize, 
                       ADCameraCalibration._referenceDimensions, ADExecutor._engineType, 
                       ADExecutor._espressoRunner, ADExecutor._inputOrientation, 
                       ADExecutor._inputRoi, ADExecutor._layout, ADExecutor._rotationConstant, 
                       ADExecutor._rotationPreference, ADJasperPointCloud._dataBuffer, 
                       ADJasperPointCloud._pc, ADNormalsBuffer._vertices, ADPolynomialsLensDistortionModel._polynomials ]
    weak-symbols:    [ __ZN10ImageUtils12ExtractPatchIdEEvRK6MatrixIT_EjjjjPS3_, 
                       __ZN10ImageUtils13IntegralImageIdEEvRK6MatrixIT_EPS1_IdE, 
                       __ZN10ImageUtils17AdaptiveThresholdIdEEvRK6MatrixIT_EjdbPS1_IbE, 
                       __ZN10ImageUtils5Conv2IdEEvRK6MatrixIT_ES5_PS3_, __ZN10ImageUtils5Conv2IfEEvRK6MatrixIT_ES5_PS3_, 
                       __ZN10ImageUtils5Rot90IbEEvRK6MatrixIT_EjPS3_, __ZN10ImageUtils5Rot90IdEEvRK6MatrixIT_EjPS3_, 
                       __ZN10ImageUtils5ScaleIbEEvRK6MatrixIT_EdPS1_IdE, __ZN10ImageUtils5ScaleIdEEvRK6MatrixIT_EdPS1_IdE, 
                       __ZN10ImageUtils5ScaleIdEEvRK6MatrixIT_EddbPS1_IdE, __ZN10ImageUtils5ScaleIhEEvRK6MatrixIT_EdPS1_IdE, 
                       __ZN10ImageUtils5ScaleItEEvRK6MatrixIT_EdPS1_IdE, __ZN10ImageUtils6FliplrIdEEvRK6MatrixIT_EPS3_, 
                       __ZN10ImageUtils6FlipudIdEEvRK6MatrixIT_EPS3_, __ZN10ImageUtils8GradientIdEEvRK6MatrixIT_EPS3_S6_ ]
  - targets:         [ arm64e-macos, arm64-macos ]
    symbols:         [ __Z13ADMLModelPathP8NSStringb ]
...
